ARM GAS  C:\Users\ROUSSMA\AppData\Local\Temp\ccELMuR0.s 			page 1


   1              		.cpu cortex-m0
   2              		.fpu softvfp
   3              		.eabi_attribute 20, 1
   4              		.eabi_attribute 21, 1
   5              		.eabi_attribute 23, 3
   6              		.eabi_attribute 24, 1
   7              		.eabi_attribute 25, 1
   8              		.eabi_attribute 26, 1
   9              		.eabi_attribute 30, 1
  10              		.eabi_attribute 34, 0
  11              		.eabi_attribute 18, 4
  12              		.code	16
  13              		.file	"BLE_1_HAL_PVT.c"
  14              		.text
  15              	.Ltext0:
  16              		.cfi_sections	.debug_frame
  17              		.section	.text.CyBLE_Nvram_Write,"ax",%progbits
  18              		.align	2
  19              		.global	CyBLE_Nvram_Write
  20              		.code	16
  21              		.thumb_func
  22              		.type	CyBLE_Nvram_Write, %function
  23              	CyBLE_Nvram_Write:
  24              	.LFB2:
  25              		.file 1 "Generated_Source\\PSoC4\\BLE_1_HAL_PVT.c"
   1:Generated_Source\PSoC4/BLE_1_HAL_PVT.c **** /***************************************************************************//**
   2:Generated_Source\PSoC4/BLE_1_HAL_PVT.c **** * \file CYBLE_HAL_PVT.c
   3:Generated_Source\PSoC4/BLE_1_HAL_PVT.c **** * \version 3.30
   4:Generated_Source\PSoC4/BLE_1_HAL_PVT.c **** *
   5:Generated_Source\PSoC4/BLE_1_HAL_PVT.c **** * \brief
   6:Generated_Source\PSoC4/BLE_1_HAL_PVT.c **** *  This file contains the source code for the HAL section of the BLE component
   7:Generated_Source\PSoC4/BLE_1_HAL_PVT.c **** *
   8:Generated_Source\PSoC4/BLE_1_HAL_PVT.c **** ********************************************************************************
   9:Generated_Source\PSoC4/BLE_1_HAL_PVT.c **** * \copyright
  10:Generated_Source\PSoC4/BLE_1_HAL_PVT.c **** * Copyright 2014-2016, Cypress Semiconductor Corporation.  All rights reserved.
  11:Generated_Source\PSoC4/BLE_1_HAL_PVT.c **** * You may use this file only in accordance with the license, terms, conditions,
  12:Generated_Source\PSoC4/BLE_1_HAL_PVT.c **** * disclaimers, and limitations in the end user license agreement accompanying
  13:Generated_Source\PSoC4/BLE_1_HAL_PVT.c **** * the software package with which this file was provided.
  14:Generated_Source\PSoC4/BLE_1_HAL_PVT.c **** *******************************************************************************/
  15:Generated_Source\PSoC4/BLE_1_HAL_PVT.c **** 
  16:Generated_Source\PSoC4/BLE_1_HAL_PVT.c **** #include "BLE_1_HAL_PVT.h"
  17:Generated_Source\PSoC4/BLE_1_HAL_PVT.c **** 
  18:Generated_Source\PSoC4/BLE_1_HAL_PVT.c **** 
  19:Generated_Source\PSoC4/BLE_1_HAL_PVT.c **** #if(CYBLE_MODE == CYBLE_HCI)
  20:Generated_Source\PSoC4/BLE_1_HAL_PVT.c **** 
  21:Generated_Source\PSoC4/BLE_1_HAL_PVT.c **** 
  22:Generated_Source\PSoC4/BLE_1_HAL_PVT.c **** /*******************************************************************************
  23:Generated_Source\PSoC4/BLE_1_HAL_PVT.c **** * Function Name: CyBLE_Uart_Start
  24:Generated_Source\PSoC4/BLE_1_HAL_PVT.c **** ****************************************************************************//**
  25:Generated_Source\PSoC4/BLE_1_HAL_PVT.c **** *
  26:Generated_Source\PSoC4/BLE_1_HAL_PVT.c **** *  Enables the platform UART Tx and RX interrupts and then enables the UART
  27:Generated_Source\PSoC4/BLE_1_HAL_PVT.c **** *  component.
  28:Generated_Source\PSoC4/BLE_1_HAL_PVT.c **** *
  29:Generated_Source\PSoC4/BLE_1_HAL_PVT.c **** * \return
  30:Generated_Source\PSoC4/BLE_1_HAL_PVT.c **** *  None
  31:Generated_Source\PSoC4/BLE_1_HAL_PVT.c **** *
  32:Generated_Source\PSoC4/BLE_1_HAL_PVT.c **** *******************************************************************************/
ARM GAS  C:\Users\ROUSSMA\AppData\Local\Temp\ccELMuR0.s 			page 2


  33:Generated_Source\PSoC4/BLE_1_HAL_PVT.c **** void CyBLE_Uart_Start (void)
  34:Generated_Source\PSoC4/BLE_1_HAL_PVT.c **** {
  35:Generated_Source\PSoC4/BLE_1_HAL_PVT.c ****     #if (CYBLE_HCI_TYPE == CYBLE_HCI_OVER_UART)
  36:Generated_Source\PSoC4/BLE_1_HAL_PVT.c ****         /* Setup ISR */
  37:Generated_Source\PSoC4/BLE_1_HAL_PVT.c ****         BLE_1_uart_isr_StartEx(&CyBLE_Uart_Interrupt);
  38:Generated_Source\PSoC4/BLE_1_HAL_PVT.c **** 
  39:Generated_Source\PSoC4/BLE_1_HAL_PVT.c ****         BLE_1_HAL_Uart_Start();
  40:Generated_Source\PSoC4/BLE_1_HAL_PVT.c ****     #endif /* (CYBLE_HCI_TYPE == CYBLE_HCI_OVER_UART) */
  41:Generated_Source\PSoC4/BLE_1_HAL_PVT.c **** }
  42:Generated_Source\PSoC4/BLE_1_HAL_PVT.c **** 
  43:Generated_Source\PSoC4/BLE_1_HAL_PVT.c **** 
  44:Generated_Source\PSoC4/BLE_1_HAL_PVT.c **** /*******************************************************************************
  45:Generated_Source\PSoC4/BLE_1_HAL_PVT.c **** * Function Name: CyBLE_Uart_Stop
  46:Generated_Source\PSoC4/BLE_1_HAL_PVT.c **** ****************************************************************************//**
  47:Generated_Source\PSoC4/BLE_1_HAL_PVT.c **** *
  48:Generated_Source\PSoC4/BLE_1_HAL_PVT.c **** *  Disables the UART, clears all pending interrupts and disables the UART Tx
  49:Generated_Source\PSoC4/BLE_1_HAL_PVT.c **** *  and RX interrupts. This will also empty out the FIFOs.
  50:Generated_Source\PSoC4/BLE_1_HAL_PVT.c **** *
  51:Generated_Source\PSoC4/BLE_1_HAL_PVT.c **** * \return
  52:Generated_Source\PSoC4/BLE_1_HAL_PVT.c **** *  None
  53:Generated_Source\PSoC4/BLE_1_HAL_PVT.c **** *
  54:Generated_Source\PSoC4/BLE_1_HAL_PVT.c **** *******************************************************************************/
  55:Generated_Source\PSoC4/BLE_1_HAL_PVT.c **** void CyBLE_Uart_Stop (void)
  56:Generated_Source\PSoC4/BLE_1_HAL_PVT.c **** {
  57:Generated_Source\PSoC4/BLE_1_HAL_PVT.c ****     #if (CYBLE_HCI_TYPE == CYBLE_HCI_OVER_UART)
  58:Generated_Source\PSoC4/BLE_1_HAL_PVT.c ****         /* Stop interrupt and UART */
  59:Generated_Source\PSoC4/BLE_1_HAL_PVT.c ****         BLE_1_uart_isr_Stop();
  60:Generated_Source\PSoC4/BLE_1_HAL_PVT.c **** 
  61:Generated_Source\PSoC4/BLE_1_HAL_PVT.c ****         BLE_1_HAL_Uart_Stop();
  62:Generated_Source\PSoC4/BLE_1_HAL_PVT.c ****     #endif /* (CYBLE_HCI_TYPE == CYBLE_HCI_OVER_UART) */
  63:Generated_Source\PSoC4/BLE_1_HAL_PVT.c **** }
  64:Generated_Source\PSoC4/BLE_1_HAL_PVT.c **** 
  65:Generated_Source\PSoC4/BLE_1_HAL_PVT.c **** 
  66:Generated_Source\PSoC4/BLE_1_HAL_PVT.c **** /*******************************************************************************
  67:Generated_Source\PSoC4/BLE_1_HAL_PVT.c **** * Function Name: CyBLE_Uart_Transmit
  68:Generated_Source\PSoC4/BLE_1_HAL_PVT.c **** ****************************************************************************//**
  69:Generated_Source\PSoC4/BLE_1_HAL_PVT.c **** *
  70:Generated_Source\PSoC4/BLE_1_HAL_PVT.c **** *  Sends the data to Uart Tx FIFO. The API handles data length up to the 
  71:Generated_Source\PSoC4/BLE_1_HAL_PVT.c **** *  supported Tx FIFO length of the uart hardware module.
  72:Generated_Source\PSoC4/BLE_1_HAL_PVT.c **** *
  73:Generated_Source\PSoC4/BLE_1_HAL_PVT.c **** *  \param data: Pointer to the data to send through the UART
  74:Generated_Source\PSoC4/BLE_1_HAL_PVT.c **** *  \param length: the length of data to transmit in bytes
  75:Generated_Source\PSoC4/BLE_1_HAL_PVT.c **** *
  76:Generated_Source\PSoC4/BLE_1_HAL_PVT.c **** * \return
  77:Generated_Source\PSoC4/BLE_1_HAL_PVT.c **** *  None
  78:Generated_Source\PSoC4/BLE_1_HAL_PVT.c **** *
  79:Generated_Source\PSoC4/BLE_1_HAL_PVT.c **** *******************************************************************************/
  80:Generated_Source\PSoC4/BLE_1_HAL_PVT.c **** void CyBLE_Uart_Transmit (const uint8 *dataBuf, uint8 length)
  81:Generated_Source\PSoC4/BLE_1_HAL_PVT.c **** {
  82:Generated_Source\PSoC4/BLE_1_HAL_PVT.c ****     #if (CYBLE_HCI_TYPE == CYBLE_HCI_OVER_UART)
  83:Generated_Source\PSoC4/BLE_1_HAL_PVT.c ****         BLE_1_HAL_Uart_SpiUartPutArray(dataBuf, (uint32)length);
  84:Generated_Source\PSoC4/BLE_1_HAL_PVT.c ****     #endif /* (CYBLE_HCI_TYPE == CYBLE_HCI_OVER_UART) */
  85:Generated_Source\PSoC4/BLE_1_HAL_PVT.c **** }
  86:Generated_Source\PSoC4/BLE_1_HAL_PVT.c **** 
  87:Generated_Source\PSoC4/BLE_1_HAL_PVT.c **** /*******************************************************************************
  88:Generated_Source\PSoC4/BLE_1_HAL_PVT.c **** * Function Name: CyBLE_Uart_Isr_Enable
  89:Generated_Source\PSoC4/BLE_1_HAL_PVT.c **** ****************************************************************************//**
ARM GAS  C:\Users\ROUSSMA\AppData\Local\Temp\ccELMuR0.s 			page 3


  90:Generated_Source\PSoC4/BLE_1_HAL_PVT.c **** *
  91:Generated_Source\PSoC4/BLE_1_HAL_PVT.c **** *   Enables the UART interrupt to the interrupt controller. 
  92:Generated_Source\PSoC4/BLE_1_HAL_PVT.c **** *   Do not call this function unless CyBLE_Uart_Start() has been called or the
  93:Generated_Source\PSoC4/BLE_1_HAL_PVT.c **** *   functionality of the SysInt_Init() function, which sets the vector and the
  94:Generated_Source\PSoC4/BLE_1_HAL_PVT.c **** *   priority, has been called.
  95:Generated_Source\PSoC4/BLE_1_HAL_PVT.c **** *
  96:Generated_Source\PSoC4/BLE_1_HAL_PVT.c **** *******************************************************************************/
  97:Generated_Source\PSoC4/BLE_1_HAL_PVT.c **** void CyBLE_Uart_Isr_Enable(void)
  98:Generated_Source\PSoC4/BLE_1_HAL_PVT.c **** {
  99:Generated_Source\PSoC4/BLE_1_HAL_PVT.c ****     #if (CYBLE_HCI_TYPE == CYBLE_HCI_OVER_UART)
 100:Generated_Source\PSoC4/BLE_1_HAL_PVT.c ****         BLE_1_uart_isr_Enable();
 101:Generated_Source\PSoC4/BLE_1_HAL_PVT.c ****     #endif /* (CYBLE_HCI_TYPE == CYBLE_HCI_OVER_UART) */
 102:Generated_Source\PSoC4/BLE_1_HAL_PVT.c **** }
 103:Generated_Source\PSoC4/BLE_1_HAL_PVT.c **** 
 104:Generated_Source\PSoC4/BLE_1_HAL_PVT.c **** 
 105:Generated_Source\PSoC4/BLE_1_HAL_PVT.c **** /*******************************************************************************
 106:Generated_Source\PSoC4/BLE_1_HAL_PVT.c **** * Function Name: CyBLE_Uart_Isr_Disable
 107:Generated_Source\PSoC4/BLE_1_HAL_PVT.c **** ****************************************************************************//**
 108:Generated_Source\PSoC4/BLE_1_HAL_PVT.c **** *
 109:Generated_Source\PSoC4/BLE_1_HAL_PVT.c **** *   Disables the UART Interrupt in the interrupt controller.
 110:Generated_Source\PSoC4/BLE_1_HAL_PVT.c **** *
 111:Generated_Source\PSoC4/BLE_1_HAL_PVT.c **** *******************************************************************************/
 112:Generated_Source\PSoC4/BLE_1_HAL_PVT.c **** void CyBLE_Uart_Isr_Disable(void)
 113:Generated_Source\PSoC4/BLE_1_HAL_PVT.c **** {
 114:Generated_Source\PSoC4/BLE_1_HAL_PVT.c ****     #if (CYBLE_HCI_TYPE == CYBLE_HCI_OVER_UART)
 115:Generated_Source\PSoC4/BLE_1_HAL_PVT.c ****         BLE_1_uart_isr_Disable();
 116:Generated_Source\PSoC4/BLE_1_HAL_PVT.c ****     #endif /* (CYBLE_HCI_TYPE == CYBLE_HCI_OVER_UART) */
 117:Generated_Source\PSoC4/BLE_1_HAL_PVT.c **** }
 118:Generated_Source\PSoC4/BLE_1_HAL_PVT.c **** 
 119:Generated_Source\PSoC4/BLE_1_HAL_PVT.c **** #endif /* (CYBLE_MODE == CYBLE_HCI) */
 120:Generated_Source\PSoC4/BLE_1_HAL_PVT.c **** 
 121:Generated_Source\PSoC4/BLE_1_HAL_PVT.c **** 
 122:Generated_Source\PSoC4/BLE_1_HAL_PVT.c **** /*******************************************************************************
 123:Generated_Source\PSoC4/BLE_1_HAL_PVT.c **** * Function Name: CyBLE_Nvram_Write
 124:Generated_Source\PSoC4/BLE_1_HAL_PVT.c **** ****************************************************************************//**
 125:Generated_Source\PSoC4/BLE_1_HAL_PVT.c **** *
 126:Generated_Source\PSoC4/BLE_1_HAL_PVT.c **** *  This API writes the data to the NVRAM store. It will check the appropriate
 127:Generated_Source\PSoC4/BLE_1_HAL_PVT.c **** *  alignment of a start address and also perform an address range check based
 128:Generated_Source\PSoC4/BLE_1_HAL_PVT.c **** *  on the length before performing the write operation.
 129:Generated_Source\PSoC4/BLE_1_HAL_PVT.c **** *  This function performs memory compare and writes only row where there are new
 130:Generated_Source\PSoC4/BLE_1_HAL_PVT.c **** *  data to write.
 131:Generated_Source\PSoC4/BLE_1_HAL_PVT.c **** *
 132:Generated_Source\PSoC4/BLE_1_HAL_PVT.c **** *  \param buffer:   Pointer to the buffer containing the data to be stored.
 133:Generated_Source\PSoC4/BLE_1_HAL_PVT.c **** *  \param varFlash: Pointer to the array or variable in the flash.
 134:Generated_Source\PSoC4/BLE_1_HAL_PVT.c **** *  \param length:    The length of the data in bytes.
 135:Generated_Source\PSoC4/BLE_1_HAL_PVT.c **** *
 136:Generated_Source\PSoC4/BLE_1_HAL_PVT.c **** * \return
 137:Generated_Source\PSoC4/BLE_1_HAL_PVT.c **** *  CYRET_SUCCESS    a successful write
 138:Generated_Source\PSoC4/BLE_1_HAL_PVT.c **** *  CYRET_BAD_PARAM  A request to write outside the flash boundary.
 139:Generated_Source\PSoC4/BLE_1_HAL_PVT.c **** *  CYRET_UNKNOWN    Other errors in writing the flash
 140:Generated_Source\PSoC4/BLE_1_HAL_PVT.c **** *
 141:Generated_Source\PSoC4/BLE_1_HAL_PVT.c **** * \sideeffect
 142:Generated_Source\PSoC4/BLE_1_HAL_PVT.c **** *  For BLE devices with 128K of Flash memory this API will automatically 
 143:Generated_Source\PSoC4/BLE_1_HAL_PVT.c **** *  modify the clock settings for the device.
 144:Generated_Source\PSoC4/BLE_1_HAL_PVT.c **** *  Writing to flash requires changes to be done to the IMO (set to 48 MHz)
 145:Generated_Source\PSoC4/BLE_1_HAL_PVT.c **** *  and HFCLK (source set to IMO) settings. The configuration is restored before
 146:Generated_Source\PSoC4/BLE_1_HAL_PVT.c **** *  returning. This will impact the operation of most of the hardware in the
ARM GAS  C:\Users\ROUSSMA\AppData\Local\Temp\ccELMuR0.s 			page 4


 147:Generated_Source\PSoC4/BLE_1_HAL_PVT.c **** *  device.
 148:Generated_Source\PSoC4/BLE_1_HAL_PVT.c **** *
 149:Generated_Source\PSoC4/BLE_1_HAL_PVT.c **** *******************************************************************************/
 150:Generated_Source\PSoC4/BLE_1_HAL_PVT.c **** cystatus CyBLE_Nvram_Write (const uint8 buffer[], const uint8 varFlash[], uint16 length)
 151:Generated_Source\PSoC4/BLE_1_HAL_PVT.c **** {
  26              		.loc 1 151 0
  27              		.cfi_startproc
  28              	.LVL0:
  29 0000 F0B5     		push	{r4, r5, r6, r7, lr}
  30              		.cfi_def_cfa_offset 20
  31              		.cfi_offset 4, -20
  32              		.cfi_offset 5, -16
  33              		.cfi_offset 6, -12
  34              		.cfi_offset 7, -8
  35              		.cfi_offset 14, -4
  36 0002 5746     		mov	r7, r10
  37 0004 4E46     		mov	r6, r9
  38 0006 4546     		mov	r5, r8
  39 0008 E0B4     		push	{r5, r6, r7}
  40              		.cfi_def_cfa_offset 32
  41              		.cfi_offset 8, -32
  42              		.cfi_offset 9, -28
  43              		.cfi_offset 10, -24
  44 000a C0B0     		sub	sp, sp, #256
  45              		.cfi_def_cfa_offset 288
  46              	.LVL1:
 152:Generated_Source\PSoC4/BLE_1_HAL_PVT.c ****     uint8 writeBuffer[CY_FLASH_SIZEOF_ROW];
 153:Generated_Source\PSoC4/BLE_1_HAL_PVT.c ****     uint32 rowId;
 154:Generated_Source\PSoC4/BLE_1_HAL_PVT.c ****     uint32 dstIndex;
 155:Generated_Source\PSoC4/BLE_1_HAL_PVT.c ****     uint32 srcIndex = 0u;
 156:Generated_Source\PSoC4/BLE_1_HAL_PVT.c ****     cystatus rc = CYRET_SUCCESS;
 157:Generated_Source\PSoC4/BLE_1_HAL_PVT.c ****     uint32 eeOffset;
 158:Generated_Source\PSoC4/BLE_1_HAL_PVT.c ****     uint32 byteOffset;
 159:Generated_Source\PSoC4/BLE_1_HAL_PVT.c ****     uint32 rowsNotEqual;
 160:Generated_Source\PSoC4/BLE_1_HAL_PVT.c **** 
 161:Generated_Source\PSoC4/BLE_1_HAL_PVT.c ****     eeOffset = (uint32)varFlash;
  47              		.loc 1 161 0
  48 000c 0E1C     		mov	r6, r1
  49              	.LVL2:
 162:Generated_Source\PSoC4/BLE_1_HAL_PVT.c **** 
 163:Generated_Source\PSoC4/BLE_1_HAL_PVT.c ****     /* Make sure, that varFlash[] points to Flash */
 164:Generated_Source\PSoC4/BLE_1_HAL_PVT.c ****     if ((eeOffset + length) < CYBLE_HAL_FLASH_END_ADDR)
  50              		.loc 1 164 0
  51 000e 171C     		mov	r7, r2
  52 0010 8A18     		add	r2, r1, r2
  53              	.LVL3:
  54 0012 214B     		ldr	r3, .L15
  55 0014 9A42     		cmp	r2, r3
  56 0016 30D8     		bhi	.L11
  57 0018 8046     		mov	r8, r0
 165:Generated_Source\PSoC4/BLE_1_HAL_PVT.c ****     {
 166:Generated_Source\PSoC4/BLE_1_HAL_PVT.c ****         rowId = eeOffset / CY_FLASH_SIZEOF_ROW;
  58              		.loc 1 166 0
  59 001a 0B0A     		lsr	r3, r1, #8
  60 001c 9946     		mov	r9, r3
  61              	.LVL4:
 167:Generated_Source\PSoC4/BLE_1_HAL_PVT.c ****         byteOffset = CY_FLASH_SIZEOF_ROW * rowId;
ARM GAS  C:\Users\ROUSSMA\AppData\Local\Temp\ccELMuR0.s 			page 5


  62              		.loc 1 167 0
  63 001e 1C02     		lsl	r4, r3, #8
  64              	.LVL5:
 156:Generated_Source\PSoC4/BLE_1_HAL_PVT.c ****     uint32 eeOffset;
  65              		.loc 1 156 0
  66 0020 0023     		mov	r3, #0
  67              	.LVL6:
  68 0022 9C46     		mov	ip, r3
 155:Generated_Source\PSoC4/BLE_1_HAL_PVT.c ****     cystatus rc = CYRET_SUCCESS;
  69              		.loc 1 155 0
  70 0024 0025     		mov	r5, #0
 168:Generated_Source\PSoC4/BLE_1_HAL_PVT.c **** 
 169:Generated_Source\PSoC4/BLE_1_HAL_PVT.c ****         while ((srcIndex < length) && (rc == CYRET_SUCCESS))
  71              		.loc 1 169 0
  72 0026 22E0     		b	.L3
  73              	.LVL7:
  74              	.L7:
 170:Generated_Source\PSoC4/BLE_1_HAL_PVT.c ****         {
 171:Generated_Source\PSoC4/BLE_1_HAL_PVT.c ****             rowsNotEqual = 0u;
 172:Generated_Source\PSoC4/BLE_1_HAL_PVT.c ****             /* Copy data to the write buffer either from the source buffer or from the flash */
 173:Generated_Source\PSoC4/BLE_1_HAL_PVT.c ****             for (dstIndex = 0u; dstIndex < CY_FLASH_SIZEOF_ROW; dstIndex++)
 174:Generated_Source\PSoC4/BLE_1_HAL_PVT.c ****             {
 175:Generated_Source\PSoC4/BLE_1_HAL_PVT.c ****                 if ((byteOffset >= eeOffset) && (srcIndex < length))
  75              		.loc 1 175 0
  76 0028 B442     		cmp	r4, r6
  77 002a 0CD3     		bcc	.L4
  78              		.loc 1 175 0 is_stmt 0 discriminator 1
  79 002c BD42     		cmp	r5, r7
  80 002e 0AD2     		bcs	.L4
 176:Generated_Source\PSoC4/BLE_1_HAL_PVT.c ****                 {
 177:Generated_Source\PSoC4/BLE_1_HAL_PVT.c ****                     writeBuffer[dstIndex] = buffer[srcIndex];
  81              		.loc 1 177 0 is_stmt 1
  82 0030 4246     		mov	r2, r8
  83 0032 515D     		ldrb	r1, [r2, r5]
  84 0034 6A46     		mov	r2, sp
  85 0036 D154     		strb	r1, [r2, r3]
 178:Generated_Source\PSoC4/BLE_1_HAL_PVT.c ****                     /* Detect that row programming is required */
 179:Generated_Source\PSoC4/BLE_1_HAL_PVT.c ****                     if(CY_GET_XTND_REG8(CYDEV_FLASH_BASE + byteOffset) != buffer[srcIndex])
  86              		.loc 1 179 0
  87 0038 2278     		ldrb	r2, [r4]
  88 003a D2B2     		uxtb	r2, r2
  89 003c 8A42     		cmp	r2, r1
  90 003e 00D0     		beq	.L5
 180:Generated_Source\PSoC4/BLE_1_HAL_PVT.c ****                     {
 181:Generated_Source\PSoC4/BLE_1_HAL_PVT.c ****                         rowsNotEqual = 1u;  
  91              		.loc 1 181 0
  92 0040 0120     		mov	r0, #1
  93              	.LVL8:
  94              	.L5:
 182:Generated_Source\PSoC4/BLE_1_HAL_PVT.c ****                     }
 183:Generated_Source\PSoC4/BLE_1_HAL_PVT.c ****                     srcIndex++;
  95              		.loc 1 183 0
  96 0042 0135     		add	r5, r5, #1
  97              	.LVL9:
  98 0044 02E0     		b	.L6
  99              	.L4:
 184:Generated_Source\PSoC4/BLE_1_HAL_PVT.c ****                 }
ARM GAS  C:\Users\ROUSSMA\AppData\Local\Temp\ccELMuR0.s 			page 6


 185:Generated_Source\PSoC4/BLE_1_HAL_PVT.c ****                 else
 186:Generated_Source\PSoC4/BLE_1_HAL_PVT.c ****                 {
 187:Generated_Source\PSoC4/BLE_1_HAL_PVT.c ****                     writeBuffer[dstIndex] = CY_GET_XTND_REG8(CYDEV_FLASH_BASE + byteOffset);
 100              		.loc 1 187 0
 101 0046 2278     		ldrb	r2, [r4]
 102 0048 6946     		mov	r1, sp
 103 004a CA54     		strb	r2, [r1, r3]
 104              	.L6:
 188:Generated_Source\PSoC4/BLE_1_HAL_PVT.c ****                 }
 189:Generated_Source\PSoC4/BLE_1_HAL_PVT.c ****                 byteOffset++;
 105              		.loc 1 189 0 discriminator 2
 106 004c 0134     		add	r4, r4, #1
 107              	.LVL10:
 173:Generated_Source\PSoC4/BLE_1_HAL_PVT.c ****             {
 108              		.loc 1 173 0 discriminator 2
 109 004e 0133     		add	r3, r3, #1
 110              	.LVL11:
 111 0050 01E0     		b	.L9
 112              	.LVL12:
 113              	.L13:
 114 0052 0020     		mov	r0, #0
 115 0054 0023     		mov	r3, #0
 116              	.LVL13:
 117              	.L9:
 173:Generated_Source\PSoC4/BLE_1_HAL_PVT.c ****             {
 118              		.loc 1 173 0 is_stmt 0 discriminator 1
 119 0056 FF2B     		cmp	r3, #255
 120 0058 E6D9     		bls	.L7
 190:Generated_Source\PSoC4/BLE_1_HAL_PVT.c ****             }
 191:Generated_Source\PSoC4/BLE_1_HAL_PVT.c **** 
 192:Generated_Source\PSoC4/BLE_1_HAL_PVT.c ****             if(rowsNotEqual != 0u)
 121              		.loc 1 192 0 is_stmt 1
 122 005a 0028     		cmp	r0, #0
 123 005c 04D0     		beq	.L8
 193:Generated_Source\PSoC4/BLE_1_HAL_PVT.c ****             {
 194:Generated_Source\PSoC4/BLE_1_HAL_PVT.c ****                 /* Write flash row */
 195:Generated_Source\PSoC4/BLE_1_HAL_PVT.c ****                 rc = CySysFlashWriteRow(rowId, writeBuffer);
 124              		.loc 1 195 0
 125 005e 4846     		mov	r0, r9
 126              	.LVL14:
 127 0060 6946     		mov	r1, sp
 128 0062 FFF7FEFF 		bl	CySysFlashWriteRow
 129              	.LVL15:
 130 0066 8446     		mov	ip, r0
 131              	.LVL16:
 132              	.L8:
 196:Generated_Source\PSoC4/BLE_1_HAL_PVT.c ****             }
 197:Generated_Source\PSoC4/BLE_1_HAL_PVT.c **** 
 198:Generated_Source\PSoC4/BLE_1_HAL_PVT.c ****             /* Go to the next row */
 199:Generated_Source\PSoC4/BLE_1_HAL_PVT.c ****             rowId++;
 133              		.loc 1 199 0
 134 0068 0123     		mov	r3, #1
 135 006a 9A46     		mov	r10, r3
 136 006c D144     		add	r9, r9, r10
 137              	.LVL17:
 138              	.L3:
 169:Generated_Source\PSoC4/BLE_1_HAL_PVT.c ****         {
ARM GAS  C:\Users\ROUSSMA\AppData\Local\Temp\ccELMuR0.s 			page 7


 139              		.loc 1 169 0
 140 006e BD42     		cmp	r5, r7
 141 0070 05D2     		bcs	.L2
 169:Generated_Source\PSoC4/BLE_1_HAL_PVT.c ****         {
 142              		.loc 1 169 0 is_stmt 0 discriminator 1
 143 0072 6346     		mov	r3, ip
 144 0074 002B     		cmp	r3, #0
 145 0076 ECD0     		beq	.L13
 146 0078 01E0     		b	.L2
 147              	.LVL18:
 148              	.L11:
 200:Generated_Source\PSoC4/BLE_1_HAL_PVT.c ****         }
 201:Generated_Source\PSoC4/BLE_1_HAL_PVT.c ****     }
 202:Generated_Source\PSoC4/BLE_1_HAL_PVT.c ****     else
 203:Generated_Source\PSoC4/BLE_1_HAL_PVT.c ****     {
 204:Generated_Source\PSoC4/BLE_1_HAL_PVT.c ****         rc = CYRET_BAD_PARAM;
 149              		.loc 1 204 0 is_stmt 1
 150 007a 0123     		mov	r3, #1
 151 007c 9C46     		mov	ip, r3
 152              	.LVL19:
 153              	.L2:
 205:Generated_Source\PSoC4/BLE_1_HAL_PVT.c ****     }
 206:Generated_Source\PSoC4/BLE_1_HAL_PVT.c **** 
 207:Generated_Source\PSoC4/BLE_1_HAL_PVT.c ****     /* Mask return codes from flash, if they are not supported */
 208:Generated_Source\PSoC4/BLE_1_HAL_PVT.c ****     if ((CYRET_SUCCESS != rc) && (CYRET_BAD_PARAM != rc))
 154              		.loc 1 208 0
 155 007e 6346     		mov	r3, ip
 156 0080 012B     		cmp	r3, #1
 157 0082 02D9     		bls	.L10
 209:Generated_Source\PSoC4/BLE_1_HAL_PVT.c ****     {
 210:Generated_Source\PSoC4/BLE_1_HAL_PVT.c ****         rc = CYRET_UNKNOWN;
 158              		.loc 1 210 0
 159 0084 0123     		mov	r3, #1
 160 0086 5B42     		neg	r3, r3
 161 0088 9C46     		mov	ip, r3
 162              	.LVL20:
 163              	.L10:
 211:Generated_Source\PSoC4/BLE_1_HAL_PVT.c ****     }
 212:Generated_Source\PSoC4/BLE_1_HAL_PVT.c ****     
 213:Generated_Source\PSoC4/BLE_1_HAL_PVT.c ****     return (rc);
 214:Generated_Source\PSoC4/BLE_1_HAL_PVT.c **** }
 164              		.loc 1 214 0
 165 008a 6046     		mov	r0, ip
 166 008c 40B0     		add	sp, sp, #256
 167              		@ sp needed
 168              	.LVL21:
 169 008e 1CBC     		pop	{r2, r3, r4}
 170 0090 9046     		mov	r8, r2
 171 0092 9946     		mov	r9, r3
 172 0094 A246     		mov	r10, r4
 173 0096 F0BD     		pop	{r4, r5, r6, r7, pc}
 174              	.L16:
 175              		.align	2
 176              	.L15:
 177 0098 FFFF0300 		.word	262143
 178              		.cfi_endproc
 179              	.LFE2:
ARM GAS  C:\Users\ROUSSMA\AppData\Local\Temp\ccELMuR0.s 			page 8


 180              		.size	CyBLE_Nvram_Write, .-CyBLE_Nvram_Write
 181              		.section	.text.CyBLE_Nvram_Erase,"ax",%progbits
 182              		.align	2
 183              		.global	CyBLE_Nvram_Erase
 184              		.code	16
 185              		.thumb_func
 186              		.type	CyBLE_Nvram_Erase, %function
 187              	CyBLE_Nvram_Erase:
 188              	.LFB3:
 215:Generated_Source\PSoC4/BLE_1_HAL_PVT.c **** 
 216:Generated_Source\PSoC4/BLE_1_HAL_PVT.c **** /*******************************************************************************
 217:Generated_Source\PSoC4/BLE_1_HAL_PVT.c **** * Function Name: CyBLE_Nvram_Erase
 218:Generated_Source\PSoC4/BLE_1_HAL_PVT.c **** ****************************************************************************//**
 219:Generated_Source\PSoC4/BLE_1_HAL_PVT.c **** *
 220:Generated_Source\PSoC4/BLE_1_HAL_PVT.c **** *  This API erases the data from the NVRAM store. This API will perform an 
 221:Generated_Source\PSoC4/BLE_1_HAL_PVT.c **** *  address range check based on the length before performing erase operation.
 222:Generated_Source\PSoC4/BLE_1_HAL_PVT.c **** *
 223:Generated_Source\PSoC4/BLE_1_HAL_PVT.c **** *  \param varFlash: the pointer to the array or variable in the flash.
 224:Generated_Source\PSoC4/BLE_1_HAL_PVT.c **** *  \param length:    the length of the data in bytes.
 225:Generated_Source\PSoC4/BLE_1_HAL_PVT.c **** *
 226:Generated_Source\PSoC4/BLE_1_HAL_PVT.c **** * \return
 227:Generated_Source\PSoC4/BLE_1_HAL_PVT.c **** *  CYRET_SUCCESS    a successful write
 228:Generated_Source\PSoC4/BLE_1_HAL_PVT.c **** *  CYRET_BAD_PARAM  A request to write outside the flash boundary.
 229:Generated_Source\PSoC4/BLE_1_HAL_PVT.c **** *  CYRET_UNKNOWN    Other errors in writing the flash
 230:Generated_Source\PSoC4/BLE_1_HAL_PVT.c **** *
 231:Generated_Source\PSoC4/BLE_1_HAL_PVT.c **** *******************************************************************************/
 232:Generated_Source\PSoC4/BLE_1_HAL_PVT.c **** cystatus CyBLE_Nvram_Erase (const uint8 *varFlash, uint16 length)
 233:Generated_Source\PSoC4/BLE_1_HAL_PVT.c **** {
 189              		.loc 1 233 0
 190              		.cfi_startproc
 191              	.LVL22:
 192 0000 70B5     		push	{r4, r5, r6, lr}
 193              		.cfi_def_cfa_offset 16
 194              		.cfi_offset 4, -16
 195              		.cfi_offset 5, -12
 196              		.cfi_offset 6, -8
 197              		.cfi_offset 14, -4
 198 0002 C0B0     		sub	sp, sp, #256
 199              		.cfi_def_cfa_offset 272
 200 0004 051C     		mov	r5, r0
 201 0006 0C1C     		mov	r4, r1
 234:Generated_Source\PSoC4/BLE_1_HAL_PVT.c ****     const uint8 *tempFlash;
 235:Generated_Source\PSoC4/BLE_1_HAL_PVT.c ****     uint8 flashBuffer[CY_FLASH_SIZEOF_ROW] = {0u};
 202              		.loc 1 235 0
 203 0008 6846     		mov	r0, sp
 204              	.LVL23:
 205 000a 0021     		mov	r1, #0
 206              	.LVL24:
 207 000c 8022     		mov	r2, #128
 208 000e 5200     		lsl	r2, r2, #1
 209 0010 FFF7FEFF 		bl	memset
 210              	.LVL25:
 236:Generated_Source\PSoC4/BLE_1_HAL_PVT.c ****     uint16 lengthFlash;
 237:Generated_Source\PSoC4/BLE_1_HAL_PVT.c ****     uint16 lengthRemaining;
 238:Generated_Source\PSoC4/BLE_1_HAL_PVT.c ****     cystatus rc = CYRET_UNKNOWN;
 211              		.loc 1 238 0
 212 0014 0120     		mov	r0, #1
ARM GAS  C:\Users\ROUSSMA\AppData\Local\Temp\ccELMuR0.s 			page 9


 213 0016 4042     		neg	r0, r0
 239:Generated_Source\PSoC4/BLE_1_HAL_PVT.c **** 
 240:Generated_Source\PSoC4/BLE_1_HAL_PVT.c ****     tempFlash = varFlash;
 241:Generated_Source\PSoC4/BLE_1_HAL_PVT.c ****     lengthRemaining = length;
 242:Generated_Source\PSoC4/BLE_1_HAL_PVT.c **** 
 243:Generated_Source\PSoC4/BLE_1_HAL_PVT.c ****     while(lengthRemaining > 0u)
 214              		.loc 1 243 0
 215 0018 10E0     		b	.L18
 216              	.LVL26:
 217              	.L21:
 244:Generated_Source\PSoC4/BLE_1_HAL_PVT.c ****     {
 245:Generated_Source\PSoC4/BLE_1_HAL_PVT.c ****         if(lengthRemaining < CY_FLASH_SIZEOF_ROW)
 218              		.loc 1 245 0
 219 001a FF2C     		cmp	r4, #255
 220 001c 02D9     		bls	.L22
 246:Generated_Source\PSoC4/BLE_1_HAL_PVT.c ****         {
 247:Generated_Source\PSoC4/BLE_1_HAL_PVT.c ****             lengthFlash = lengthRemaining;
 248:Generated_Source\PSoC4/BLE_1_HAL_PVT.c ****         }
 249:Generated_Source\PSoC4/BLE_1_HAL_PVT.c ****         else
 250:Generated_Source\PSoC4/BLE_1_HAL_PVT.c ****         {
 251:Generated_Source\PSoC4/BLE_1_HAL_PVT.c ****             lengthFlash = CY_FLASH_SIZEOF_ROW;
 221              		.loc 1 251 0
 222 001e 8026     		mov	r6, #128
 223 0020 7600     		lsl	r6, r6, #1
 224 0022 00E0     		b	.L19
 225              	.L22:
 247:Generated_Source\PSoC4/BLE_1_HAL_PVT.c ****         }
 226              		.loc 1 247 0
 227 0024 261C     		mov	r6, r4
 228              	.L19:
 229              	.LVL27:
 252:Generated_Source\PSoC4/BLE_1_HAL_PVT.c ****         }
 253:Generated_Source\PSoC4/BLE_1_HAL_PVT.c ****         rc = CyBLE_Nvram_Write(flashBuffer, tempFlash, lengthFlash);
 230              		.loc 1 253 0
 231 0026 6846     		mov	r0, sp
 232              	.LVL28:
 233 0028 291C     		mov	r1, r5
 234 002a 321C     		mov	r2, r6
 235 002c FFF7FEFF 		bl	CyBLE_Nvram_Write
 236              	.LVL29:
 254:Generated_Source\PSoC4/BLE_1_HAL_PVT.c ****         if(rc != CYRET_SUCCESS)
 237              		.loc 1 254 0
 238 0030 0028     		cmp	r0, #0
 239 0032 05D1     		bne	.L20
 255:Generated_Source\PSoC4/BLE_1_HAL_PVT.c ****         {
 256:Generated_Source\PSoC4/BLE_1_HAL_PVT.c ****             break;
 257:Generated_Source\PSoC4/BLE_1_HAL_PVT.c ****         }
 258:Generated_Source\PSoC4/BLE_1_HAL_PVT.c ****         tempFlash += CY_FLASH_SIZEOF_ROW;
 240              		.loc 1 258 0
 241 0034 0135     		add	r5, r5, #1
 242              	.LVL30:
 243 0036 FF35     		add	r5, r5, #255
 244              	.LVL31:
 259:Generated_Source\PSoC4/BLE_1_HAL_PVT.c ****         lengthRemaining -= lengthFlash;
 245              		.loc 1 259 0
 246 0038 A41B     		sub	r4, r4, r6
 247              	.LVL32:
ARM GAS  C:\Users\ROUSSMA\AppData\Local\Temp\ccELMuR0.s 			page 10


 248 003a A4B2     		uxth	r4, r4
 249              	.LVL33:
 250              	.L18:
 243:Generated_Source\PSoC4/BLE_1_HAL_PVT.c ****     {
 251              		.loc 1 243 0
 252 003c 002C     		cmp	r4, #0
 253 003e ECD1     		bne	.L21
 254              	.L20:
 260:Generated_Source\PSoC4/BLE_1_HAL_PVT.c ****     }
 261:Generated_Source\PSoC4/BLE_1_HAL_PVT.c **** 
 262:Generated_Source\PSoC4/BLE_1_HAL_PVT.c ****     return rc;
 263:Generated_Source\PSoC4/BLE_1_HAL_PVT.c **** }
 255              		.loc 1 263 0
 256 0040 40B0     		add	sp, sp, #256
 257              		@ sp needed
 258              	.LVL34:
 259              	.LVL35:
 260 0042 70BD     		pop	{r4, r5, r6, pc}
 261              		.cfi_endproc
 262              	.LFE3:
 263              		.size	CyBLE_Nvram_Erase, .-CyBLE_Nvram_Erase
 264              		.section	.text.CyBLE_Bless_LlRegRead,"ax",%progbits
 265              		.align	2
 266              		.global	CyBLE_Bless_LlRegRead
 267              		.code	16
 268              		.thumb_func
 269              		.type	CyBLE_Bless_LlRegRead, %function
 270              	CyBLE_Bless_LlRegRead:
 271              	.LFB4:
 264:Generated_Source\PSoC4/BLE_1_HAL_PVT.c **** 
 265:Generated_Source\PSoC4/BLE_1_HAL_PVT.c **** 
 266:Generated_Source\PSoC4/BLE_1_HAL_PVT.c **** /*******************************************************************************
 267:Generated_Source\PSoC4/BLE_1_HAL_PVT.c **** * Function Name: CyBLE_Bless_LlRegRead
 268:Generated_Source\PSoC4/BLE_1_HAL_PVT.c **** ****************************************************************************//**
 269:Generated_Source\PSoC4/BLE_1_HAL_PVT.c **** *
 270:Generated_Source\PSoC4/BLE_1_HAL_PVT.c **** *  This API reads the content of the BLESS Link Layer register from the stack.
 271:Generated_Source\PSoC4/BLE_1_HAL_PVT.c **** *
 272:Generated_Source\PSoC4/BLE_1_HAL_PVT.c **** *  \param blessAddr: the pointer to the BLESS link layer address.
 273:Generated_Source\PSoC4/BLE_1_HAL_PVT.c **** *  \param regValue: the pointer to the buffer space to copy the read value.
 274:Generated_Source\PSoC4/BLE_1_HAL_PVT.c **** *
 275:Generated_Source\PSoC4/BLE_1_HAL_PVT.c **** * \return
 276:Generated_Source\PSoC4/BLE_1_HAL_PVT.c **** *  None
 277:Generated_Source\PSoC4/BLE_1_HAL_PVT.c **** *
 278:Generated_Source\PSoC4/BLE_1_HAL_PVT.c **** *******************************************************************************/
 279:Generated_Source\PSoC4/BLE_1_HAL_PVT.c **** void CyBLE_Bless_LlRegRead (const reg32 *blessAddr, uint16 *regValue)
 280:Generated_Source\PSoC4/BLE_1_HAL_PVT.c **** {
 272              		.loc 1 280 0
 273              		.cfi_startproc
 274              	.LVL36:
 281:Generated_Source\PSoC4/BLE_1_HAL_PVT.c ****     *regValue = (uint16)CY_GET_REG32(blessAddr);
 275              		.loc 1 281 0
 276 0000 0368     		ldr	r3, [r0]
 277 0002 0B80     		strh	r3, [r1]
 282:Generated_Source\PSoC4/BLE_1_HAL_PVT.c **** }
 278              		.loc 1 282 0
 279              		@ sp needed
 280 0004 7047     		bx	lr
ARM GAS  C:\Users\ROUSSMA\AppData\Local\Temp\ccELMuR0.s 			page 11


 281              		.cfi_endproc
 282              	.LFE4:
 283              		.size	CyBLE_Bless_LlRegRead, .-CyBLE_Bless_LlRegRead
 284 0006 C046     		.section	.text.CyBLE_Bless_LlRegWrite,"ax",%progbits
 285              		.align	2
 286              		.global	CyBLE_Bless_LlRegWrite
 287              		.code	16
 288              		.thumb_func
 289              		.type	CyBLE_Bless_LlRegWrite, %function
 290              	CyBLE_Bless_LlRegWrite:
 291              	.LFB5:
 283:Generated_Source\PSoC4/BLE_1_HAL_PVT.c **** 
 284:Generated_Source\PSoC4/BLE_1_HAL_PVT.c **** 
 285:Generated_Source\PSoC4/BLE_1_HAL_PVT.c **** /*******************************************************************************
 286:Generated_Source\PSoC4/BLE_1_HAL_PVT.c **** * Function Name: CyBLE_Bless_LlRegWrite
 287:Generated_Source\PSoC4/BLE_1_HAL_PVT.c **** ****************************************************************************//**
 288:Generated_Source\PSoC4/BLE_1_HAL_PVT.c **** *
 289:Generated_Source\PSoC4/BLE_1_HAL_PVT.c **** *  This API writes to the BLESS Link Layer register from the stack.
 290:Generated_Source\PSoC4/BLE_1_HAL_PVT.c **** *
 291:Generated_Source\PSoC4/BLE_1_HAL_PVT.c **** *  \param blessAddr: the pointer to the BLESS link layer address.
 292:Generated_Source\PSoC4/BLE_1_HAL_PVT.c **** *  \param regValue: the pointer to the value to be written to the BLESS LL reg.
 293:Generated_Source\PSoC4/BLE_1_HAL_PVT.c **** *
 294:Generated_Source\PSoC4/BLE_1_HAL_PVT.c **** * \return
 295:Generated_Source\PSoC4/BLE_1_HAL_PVT.c **** *  None
 296:Generated_Source\PSoC4/BLE_1_HAL_PVT.c **** *
 297:Generated_Source\PSoC4/BLE_1_HAL_PVT.c **** *******************************************************************************/
 298:Generated_Source\PSoC4/BLE_1_HAL_PVT.c **** void CyBLE_Bless_LlRegWrite (reg32 *blessAddr, const uint16 regValue)
 299:Generated_Source\PSoC4/BLE_1_HAL_PVT.c **** {
 292              		.loc 1 299 0
 293              		.cfi_startproc
 294              	.LVL37:
 300:Generated_Source\PSoC4/BLE_1_HAL_PVT.c ****     CY_SET_REG32(blessAddr, regValue);
 295              		.loc 1 300 0
 296 0000 0160     		str	r1, [r0]
 301:Generated_Source\PSoC4/BLE_1_HAL_PVT.c **** }
 297              		.loc 1 301 0
 298              		@ sp needed
 299 0002 7047     		bx	lr
 300              		.cfi_endproc
 301              	.LFE5:
 302              		.size	CyBLE_Bless_LlRegWrite, .-CyBLE_Bless_LlRegWrite
 303              		.section	.text.CyBLE_Bless_RfRegRead,"ax",%progbits
 304              		.align	2
 305              		.global	CyBLE_Bless_RfRegRead
 306              		.code	16
 307              		.thumb_func
 308              		.type	CyBLE_Bless_RfRegRead, %function
 309              	CyBLE_Bless_RfRegRead:
 310              	.LFB6:
 302:Generated_Source\PSoC4/BLE_1_HAL_PVT.c **** 
 303:Generated_Source\PSoC4/BLE_1_HAL_PVT.c **** 
 304:Generated_Source\PSoC4/BLE_1_HAL_PVT.c **** /*******************************************************************************
 305:Generated_Source\PSoC4/BLE_1_HAL_PVT.c **** * Function Name: CyBLE_Bless_RfRegRead
 306:Generated_Source\PSoC4/BLE_1_HAL_PVT.c **** ****************************************************************************//**
 307:Generated_Source\PSoC4/BLE_1_HAL_PVT.c **** *
 308:Generated_Source\PSoC4/BLE_1_HAL_PVT.c **** *  This API reads the content of the BLESS RF register from the stack.
 309:Generated_Source\PSoC4/BLE_1_HAL_PVT.c **** *
ARM GAS  C:\Users\ROUSSMA\AppData\Local\Temp\ccELMuR0.s 			page 12


 310:Generated_Source\PSoC4/BLE_1_HAL_PVT.c **** *  \param blessAddr: the pointer to BLESS RF register address.
 311:Generated_Source\PSoC4/BLE_1_HAL_PVT.c **** *  \param regValue: the pointer to the buffer space to copy the read value.
 312:Generated_Source\PSoC4/BLE_1_HAL_PVT.c **** *
 313:Generated_Source\PSoC4/BLE_1_HAL_PVT.c **** * \return
 314:Generated_Source\PSoC4/BLE_1_HAL_PVT.c **** *  None
 315:Generated_Source\PSoC4/BLE_1_HAL_PVT.c **** *
 316:Generated_Source\PSoC4/BLE_1_HAL_PVT.c **** *******************************************************************************/
 317:Generated_Source\PSoC4/BLE_1_HAL_PVT.c **** void CyBLE_Bless_RfRegRead (const reg32 *blessAddr, uint16 *regValue)
 318:Generated_Source\PSoC4/BLE_1_HAL_PVT.c **** {
 311              		.loc 1 318 0
 312              		.cfi_startproc
 313              	.LVL38:
 319:Generated_Source\PSoC4/BLE_1_HAL_PVT.c ****     *regValue = (uint16)CY_GET_REG32(blessAddr);
 314              		.loc 1 319 0
 315 0000 0368     		ldr	r3, [r0]
 316 0002 0B80     		strh	r3, [r1]
 320:Generated_Source\PSoC4/BLE_1_HAL_PVT.c **** }
 317              		.loc 1 320 0
 318              		@ sp needed
 319 0004 7047     		bx	lr
 320              		.cfi_endproc
 321              	.LFE6:
 322              		.size	CyBLE_Bless_RfRegRead, .-CyBLE_Bless_RfRegRead
 323 0006 C046     		.section	.text.CyBLE_Bless_RfRegWrite,"ax",%progbits
 324              		.align	2
 325              		.global	CyBLE_Bless_RfRegWrite
 326              		.code	16
 327              		.thumb_func
 328              		.type	CyBLE_Bless_RfRegWrite, %function
 329              	CyBLE_Bless_RfRegWrite:
 330              	.LFB7:
 321:Generated_Source\PSoC4/BLE_1_HAL_PVT.c **** 
 322:Generated_Source\PSoC4/BLE_1_HAL_PVT.c **** 
 323:Generated_Source\PSoC4/BLE_1_HAL_PVT.c **** /*******************************************************************************
 324:Generated_Source\PSoC4/BLE_1_HAL_PVT.c **** * Function Name: CyBLE_Bless_RfRegWrite
 325:Generated_Source\PSoC4/BLE_1_HAL_PVT.c **** ****************************************************************************//**
 326:Generated_Source\PSoC4/BLE_1_HAL_PVT.c **** *
 327:Generated_Source\PSoC4/BLE_1_HAL_PVT.c **** *  This API writes to the BLESS RF register from the stack.
 328:Generated_Source\PSoC4/BLE_1_HAL_PVT.c **** *
 329:Generated_Source\PSoC4/BLE_1_HAL_PVT.c **** *  \param blessAddr: the pointer to the BLESS RF address.
 330:Generated_Source\PSoC4/BLE_1_HAL_PVT.c **** *  \param regValue: the pointer to the value to be written to the BLESS RF reg.
 331:Generated_Source\PSoC4/BLE_1_HAL_PVT.c **** *
 332:Generated_Source\PSoC4/BLE_1_HAL_PVT.c **** * \return
 333:Generated_Source\PSoC4/BLE_1_HAL_PVT.c **** *  None
 334:Generated_Source\PSoC4/BLE_1_HAL_PVT.c **** *
 335:Generated_Source\PSoC4/BLE_1_HAL_PVT.c **** *******************************************************************************/
 336:Generated_Source\PSoC4/BLE_1_HAL_PVT.c **** void CyBLE_Bless_RfRegWrite (reg32 *blessAddr, const uint16 regValue)
 337:Generated_Source\PSoC4/BLE_1_HAL_PVT.c **** {
 331              		.loc 1 337 0
 332              		.cfi_startproc
 333              	.LVL39:
 338:Generated_Source\PSoC4/BLE_1_HAL_PVT.c ****      CY_SET_REG32(blessAddr, regValue);
 334              		.loc 1 338 0
 335 0000 0160     		str	r1, [r0]
 339:Generated_Source\PSoC4/BLE_1_HAL_PVT.c **** }
 336              		.loc 1 339 0
 337              		@ sp needed
ARM GAS  C:\Users\ROUSSMA\AppData\Local\Temp\ccELMuR0.s 			page 13


 338 0002 7047     		bx	lr
 339              		.cfi_endproc
 340              	.LFE7:
 341              		.size	CyBLE_Bless_RfRegWrite, .-CyBLE_Bless_RfRegWrite
 342              		.section	.text.CyBLE_BlessDeviceConfig,"ax",%progbits
 343              		.align	2
 344              		.global	CyBLE_BlessDeviceConfig
 345              		.code	16
 346              		.thumb_func
 347              		.type	CyBLE_BlessDeviceConfig, %function
 348              	CyBLE_BlessDeviceConfig:
 349              	.LFB8:
 340:Generated_Source\PSoC4/BLE_1_HAL_PVT.c **** 
 341:Generated_Source\PSoC4/BLE_1_HAL_PVT.c **** /*******************************************************************************
 342:Generated_Source\PSoC4/BLE_1_HAL_PVT.c **** * Function Name: CyBLE_BlessDeviceConfig
 343:Generated_Source\PSoC4/BLE_1_HAL_PVT.c **** ****************************************************************************//**
 344:Generated_Source\PSoC4/BLE_1_HAL_PVT.c **** *
 345:Generated_Source\PSoC4/BLE_1_HAL_PVT.c **** *  This function configures BLESS registers by trimmed values stored in SFLASH.
 346:Generated_Source\PSoC4/BLE_1_HAL_PVT.c **** *
 347:Generated_Source\PSoC4/BLE_1_HAL_PVT.c **** * \return
 348:Generated_Source\PSoC4/BLE_1_HAL_PVT.c **** *  None
 349:Generated_Source\PSoC4/BLE_1_HAL_PVT.c **** *
 350:Generated_Source\PSoC4/BLE_1_HAL_PVT.c **** *******************************************************************************/
 351:Generated_Source\PSoC4/BLE_1_HAL_PVT.c **** void CyBLE_BlessDeviceConfig(void)
 352:Generated_Source\PSoC4/BLE_1_HAL_PVT.c **** {
 350              		.loc 1 352 0
 351              		.cfi_startproc
 353:Generated_Source\PSoC4/BLE_1_HAL_PVT.c **** #if (CYIPBLOCK_m0s8bless_VERSION < 3)
 354:Generated_Source\PSoC4/BLE_1_HAL_PVT.c ****     
 355:Generated_Source\PSoC4/BLE_1_HAL_PVT.c ****     uint32 trimRegValue;
 356:Generated_Source\PSoC4/BLE_1_HAL_PVT.c ****     uint32 ldo;
 357:Generated_Source\PSoC4/BLE_1_HAL_PVT.c ****     uint16 trimRef34Val;
 358:Generated_Source\PSoC4/BLE_1_HAL_PVT.c ****     uint16 trimRef38Val;    
 359:Generated_Source\PSoC4/BLE_1_HAL_PVT.c ****     uint32 siliconRev;
 360:Generated_Source\PSoC4/BLE_1_HAL_PVT.c **** 
 361:Generated_Source\PSoC4/BLE_1_HAL_PVT.c ****     trimRegValue = ((uint32)CYBLE_SFLASH_BLESS_BB_BUMP2_HIGH_REG << 8u) | CYBLE_SFLASH_BLESS_BB_BUM
 352              		.loc 1 361 0
 353 0000 324B     		ldr	r3, .L40
 354 0002 1A78     		ldrb	r2, [r3]
 355 0004 1202     		lsl	r2, r2, #8
 356 0006 324B     		ldr	r3, .L40+4
 357 0008 1B78     		ldrb	r3, [r3]
 358 000a 1A43     		orr	r2, r3
 359              	.LVL40:
 362:Generated_Source\PSoC4/BLE_1_HAL_PVT.c ****     ldo = ((uint32)CYBLE_SFLASH_BLESS_LDO_HIGH_REG << 8u) | CYBLE_SFLASH_BLESS_LDO_LOW_REG;
 360              		.loc 1 362 0
 361 000c 314B     		ldr	r3, .L40+8
 362 000e 1B78     		ldrb	r3, [r3]
 363 0010 1B02     		lsl	r3, r3, #8
 364 0012 3149     		ldr	r1, .L40+12
 365 0014 0978     		ldrb	r1, [r1]
 366 0016 0B43     		orr	r3, r1
 367              	.LVL41:
 363:Generated_Source\PSoC4/BLE_1_HAL_PVT.c **** 
 364:Generated_Source\PSoC4/BLE_1_HAL_PVT.c ****     if ((ldo == CYBLE_SFLASH_BLERD_LDO_REG_VAL1) && (trimRegValue == CYBLE_SFLASH_BLERD_BB_BUMP2_RE
 368              		.loc 1 364 0
 369 0018 3049     		ldr	r1, .L40+16
ARM GAS  C:\Users\ROUSSMA\AppData\Local\Temp\ccELMuR0.s 			page 14


 370 001a 8B42     		cmp	r3, r1
 371 001c 01D1     		bne	.L28
 372              		.loc 1 364 0 is_stmt 0 discriminator 1
 373 001e 072A     		cmp	r2, #7
 374 0020 06D0     		beq	.L33
 375              	.L28:
 365:Generated_Source\PSoC4/BLE_1_HAL_PVT.c ****     {
 366:Generated_Source\PSoC4/BLE_1_HAL_PVT.c ****         ldo = CYBLE_BLERD_LDO_REG_VAL_FINAL;
 367:Generated_Source\PSoC4/BLE_1_HAL_PVT.c ****         trimRegValue = CYBLE_BLERD_BB_BUMP2_REG_VAL_FINAL;
 368:Generated_Source\PSoC4/BLE_1_HAL_PVT.c ****     }
 369:Generated_Source\PSoC4/BLE_1_HAL_PVT.c ****     else if ((ldo == CYBLE_SFLASH_BLERD_LDO_REG_VAL2) && (trimRegValue == CYBLE_BLERD_BB_BUMP2_REG_
 376              		.loc 1 369 0 is_stmt 1
 377 0022 D421     		mov	r1, #212
 378 0024 0901     		lsl	r1, r1, #4
 379 0026 8B42     		cmp	r3, r1
 380 0028 06D1     		bne	.L29
 381              		.loc 1 369 0 is_stmt 0 discriminator 1
 382 002a 042A     		cmp	r2, #4
 383 002c 04D1     		bne	.L29
 384 002e 02E0     		b	.L34
 385              	.L33:
 366:Generated_Source\PSoC4/BLE_1_HAL_PVT.c ****         trimRegValue = CYBLE_BLERD_BB_BUMP2_REG_VAL_FINAL;
 386              		.loc 1 366 0 is_stmt 1
 387 0030 2B4B     		ldr	r3, .L40+20
 388              	.LVL42:
 367:Generated_Source\PSoC4/BLE_1_HAL_PVT.c ****     }
 389              		.loc 1 367 0
 390 0032 0422     		mov	r2, #4
 391              	.LVL43:
 392 0034 00E0     		b	.L29
 393              	.LVL44:
 394              	.L34:
 370:Generated_Source\PSoC4/BLE_1_HAL_PVT.c ****     {
 371:Generated_Source\PSoC4/BLE_1_HAL_PVT.c ****         ldo = CYBLE_BLERD_LDO_REG_VAL_FINAL;
 395              		.loc 1 371 0
 396 0036 2A4B     		ldr	r3, .L40+20
 397              	.LVL45:
 398              	.L29:
 372:Generated_Source\PSoC4/BLE_1_HAL_PVT.c ****     }
 373:Generated_Source\PSoC4/BLE_1_HAL_PVT.c ****     else
 374:Generated_Source\PSoC4/BLE_1_HAL_PVT.c ****     {
 375:Generated_Source\PSoC4/BLE_1_HAL_PVT.c ****     }
 376:Generated_Source\PSoC4/BLE_1_HAL_PVT.c **** 
 377:Generated_Source\PSoC4/BLE_1_HAL_PVT.c ****     CYBLE_BLE_BLERD_LDO_REG = ldo;
 399              		.loc 1 377 0
 400 0038 2A49     		ldr	r1, .L40+24
 401 003a 0B60     		str	r3, [r1]
 378:Generated_Source\PSoC4/BLE_1_HAL_PVT.c ****     CYBLE_BLE_BLERD_BB_BUMP2_REG = trimRegValue;
 402              		.loc 1 378 0
 403 003c 2A4B     		ldr	r3, .L40+28
 404              	.LVL46:
 405 003e 1A60     		str	r2, [r3]
 406              	.LVL47:
 379:Generated_Source\PSoC4/BLE_1_HAL_PVT.c **** 
 380:Generated_Source\PSoC4/BLE_1_HAL_PVT.c ****     /* Edit only XTAL fast charge bit */
 381:Generated_Source\PSoC4/BLE_1_HAL_PVT.c ****     trimRegValue = ((uint32)CYBLE_SFLASH_BLESS_BB_XO_HIGH_REG << 8u) | CYBLE_SFLASH_BLESS_BB_XO_LOW
 407              		.loc 1 381 0
ARM GAS  C:\Users\ROUSSMA\AppData\Local\Temp\ccELMuR0.s 			page 15


 408 0040 2A4B     		ldr	r3, .L40+32
 409 0042 1B78     		ldrb	r3, [r3]
 410 0044 1B02     		lsl	r3, r3, #8
 411 0046 2A4A     		ldr	r2, .L40+36
 412              	.LVL48:
 413 0048 1278     		ldrb	r2, [r2]
 414 004a 1343     		orr	r3, r2
 415              	.LVL49:
 382:Generated_Source\PSoC4/BLE_1_HAL_PVT.c **** 
 383:Generated_Source\PSoC4/BLE_1_HAL_PVT.c ****     if ((trimRegValue == CYBLE_SFLASH_BLERD_BB_XO_REG_VAL1) || (trimRegValue == CYBLE_SFLASH_BLERD_
 416              		.loc 1 383 0
 417 004c 8022     		mov	r2, #128
 418 004e 9201     		lsl	r2, r2, #6
 419 0050 9342     		cmp	r3, r2
 420 0052 02D0     		beq	.L35
 421              		.loc 1 383 0 is_stmt 0 discriminator 1
 422 0054 002B     		cmp	r3, #0
 423 0056 02D0     		beq	.L36
 424 0058 02E0     		b	.L30
 425              	.L35:
 384:Generated_Source\PSoC4/BLE_1_HAL_PVT.c ****     {
 385:Generated_Source\PSoC4/BLE_1_HAL_PVT.c ****         trimRegValue = CYBLE_BLERD_BB_XO_REG_VAL_FINAL;
 426              		.loc 1 385 0 is_stmt 1
 427 005a 264B     		ldr	r3, .L40+40
 428              	.LVL50:
 429 005c 00E0     		b	.L30
 430              	.LVL51:
 431              	.L36:
 432 005e 254B     		ldr	r3, .L40+40
 433              	.LVL52:
 434              	.L30:
 386:Generated_Source\PSoC4/BLE_1_HAL_PVT.c ****     }
 387:Generated_Source\PSoC4/BLE_1_HAL_PVT.c ****     
 388:Generated_Source\PSoC4/BLE_1_HAL_PVT.c ****     CYBLE_BLE_BLERD_BB_XO_REG = trimRegValue;
 435              		.loc 1 388 0
 436 0060 254A     		ldr	r2, .L40+44
 437 0062 1360     		str	r3, [r2]
 389:Generated_Source\PSoC4/BLE_1_HAL_PVT.c ****     
 390:Generated_Source\PSoC4/BLE_1_HAL_PVT.c ****     trimRegValue = ((uint32)CYBLE_SFLASH_BLESS_SY_BUMP1_HIGH_REG << 8u) | CYBLE_SFLASH_BLESS_SY_BUM
 438              		.loc 1 390 0
 439 0064 254B     		ldr	r3, .L40+48
 440              	.LVL53:
 441 0066 1B78     		ldrb	r3, [r3]
 442 0068 1B02     		lsl	r3, r3, #8
 443 006a 254A     		ldr	r2, .L40+52
 444              	.LVL54:
 445 006c 1278     		ldrb	r2, [r2]
 446 006e 1343     		orr	r3, r2
 447              	.LVL55:
 391:Generated_Source\PSoC4/BLE_1_HAL_PVT.c **** 
 392:Generated_Source\PSoC4/BLE_1_HAL_PVT.c ****     if ((trimRegValue == CYBLE_SFLASH_BLERD_SY_BUMP1_REG_VAL1) || 
 448              		.loc 1 392 0
 449 0070 244A     		ldr	r2, .L40+56
 450 0072 9342     		cmp	r3, r2
 451 0074 05D0     		beq	.L37
 452              		.loc 1 392 0 is_stmt 0 discriminator 1
 453 0076 244A     		ldr	r2, .L40+60
ARM GAS  C:\Users\ROUSSMA\AppData\Local\Temp\ccELMuR0.s 			page 16


 454 0078 9342     		cmp	r3, r2
 455 007a 04D0     		beq	.L38
 393:Generated_Source\PSoC4/BLE_1_HAL_PVT.c ****         (trimRegValue == CYBLE_SFLASH_BLERD_SY_BUMP1_REG_VAL2) ||  
 456              		.loc 1 393 0 is_stmt 1
 457 007c 052B     		cmp	r3, #5
 458 007e 05D1     		bne	.L31
 459 0080 03E0     		b	.L39
 460              	.L37:
 394:Generated_Source\PSoC4/BLE_1_HAL_PVT.c ****         (trimRegValue == CYBLE_SFLASH_BLERD_SY_BUMP1_REG_VAL3))
 395:Generated_Source\PSoC4/BLE_1_HAL_PVT.c ****     {
 396:Generated_Source\PSoC4/BLE_1_HAL_PVT.c ****         trimRegValue = CYBLE_BLERD_SY_BUMP1_REG_VAL_FINAL;
 461              		.loc 1 396 0
 462 0082 224B     		ldr	r3, .L40+64
 463              	.LVL56:
 464 0084 02E0     		b	.L31
 465              	.LVL57:
 466              	.L38:
 467 0086 214B     		ldr	r3, .L40+64
 468              	.LVL58:
 469 0088 00E0     		b	.L31
 470              	.LVL59:
 471              	.L39:
 472 008a 204B     		ldr	r3, .L40+64
 473              	.LVL60:
 474              	.L31:
 397:Generated_Source\PSoC4/BLE_1_HAL_PVT.c ****     }
 398:Generated_Source\PSoC4/BLE_1_HAL_PVT.c ****     CYBLE_BLE_BLERD_SY_BUMP1_REG = trimRegValue;
 475              		.loc 1 398 0
 476 008c 204A     		ldr	r2, .L40+68
 477 008e 1360     		str	r3, [r2]
 399:Generated_Source\PSoC4/BLE_1_HAL_PVT.c **** 
 400:Generated_Source\PSoC4/BLE_1_HAL_PVT.c ****     /* Following code is for F02FN trimming */
 401:Generated_Source\PSoC4/BLE_1_HAL_PVT.c ****     siliconRev = (CYBLE_BLE_SILICON_REV_REG >> 4u);
 478              		.loc 1 401 0
 479 0090 204B     		ldr	r3, .L40+72
 480              	.LVL61:
 481 0092 1B68     		ldr	r3, [r3]
 482 0094 1B09     		lsr	r3, r3, #4
 483              	.LVL62:
 402:Generated_Source\PSoC4/BLE_1_HAL_PVT.c ****     
 403:Generated_Source\PSoC4/BLE_1_HAL_PVT.c ****     if((CYBLE_BLE_FAMILY_ID_REG == CYBLE_PSOC4A_BLE256DMA_FID) && (siliconRev >= 0x02u) &&
 484              		.loc 1 403 0
 485 0096 204A     		ldr	r2, .L40+76
 486              	.LVL63:
 487 0098 1268     		ldr	r2, [r2]
 488 009a AA2A     		cmp	r2, #170
 489 009c 15D1     		bne	.L27
 490              		.loc 1 403 0 is_stmt 0 discriminator 1
 491 009e 012B     		cmp	r3, #1
 492 00a0 13D9     		bls	.L27
 404:Generated_Source\PSoC4/BLE_1_HAL_PVT.c ****         (CYBLE_SFLASH_BLESS_SY_BUMP1_HIGH_REG == 0x0Eu))
 493              		.loc 1 404 0 is_stmt 1 discriminator 2
 494 00a2 164B     		ldr	r3, .L40+48
 495              	.LVL64:
 496 00a4 1B78     		ldrb	r3, [r3]
 403:Generated_Source\PSoC4/BLE_1_HAL_PVT.c ****         (CYBLE_SFLASH_BLESS_SY_BUMP1_HIGH_REG == 0x0Eu))
 497              		.loc 1 403 0 discriminator 2
ARM GAS  C:\Users\ROUSSMA\AppData\Local\Temp\ccELMuR0.s 			page 17


 498 00a6 0E2B     		cmp	r3, #14
 499 00a8 0FD1     		bne	.L27
 405:Generated_Source\PSoC4/BLE_1_HAL_PVT.c **** 	{
 406:Generated_Source\PSoC4/BLE_1_HAL_PVT.c **** 		trimRef34Val = ((uint16)(((uint16) CYBLE_BLE_BLESS_REG34_TRIM_HIGH_REG) << 8u)) |
 500              		.loc 1 406 0
 501 00aa 1C4B     		ldr	r3, .L40+80
 502 00ac 1B78     		ldrb	r3, [r3]
 503 00ae 1B02     		lsl	r3, r3, #8
 407:Generated_Source\PSoC4/BLE_1_HAL_PVT.c ****                         ((uint16)CYBLE_BLE_BLESS_REG34_TRIM_LOW_REG);
 504              		.loc 1 407 0
 505 00b0 1B4A     		ldr	r2, .L40+84
 506 00b2 1278     		ldrb	r2, [r2]
 406:Generated_Source\PSoC4/BLE_1_HAL_PVT.c ****                         ((uint16)CYBLE_BLE_BLESS_REG34_TRIM_LOW_REG);
 507              		.loc 1 406 0
 508 00b4 1343     		orr	r3, r2
 509              	.LVL65:
 408:Generated_Source\PSoC4/BLE_1_HAL_PVT.c **** 		CYBLE_BLERD_SY_BUMP2_REG = trimRef34Val;
 510              		.loc 1 408 0
 511 00b6 1B4A     		ldr	r2, .L40+88
 512 00b8 1360     		str	r3, [r2]
 513              	.LVL66:
 409:Generated_Source\PSoC4/BLE_1_HAL_PVT.c **** 	
 410:Generated_Source\PSoC4/BLE_1_HAL_PVT.c **** 		trimRef38Val = ((uint16)(((uint16)CYBLE_BLE_BLESS_REG38_TRIM_HIGH_REG) << 8u)) |
 514              		.loc 1 410 0
 515 00ba 1B4B     		ldr	r3, .L40+92
 516              	.LVL67:
 517 00bc 1B78     		ldrb	r3, [r3]
 518 00be 1B02     		lsl	r3, r3, #8
 411:Generated_Source\PSoC4/BLE_1_HAL_PVT.c ****             ((uint16) CYBLE_BLE_BLESS_REG38_TRIM_LOW_REG);
 519              		.loc 1 411 0
 520 00c0 1A4A     		ldr	r2, .L40+96
 521              	.LVL68:
 522 00c2 1278     		ldrb	r2, [r2]
 410:Generated_Source\PSoC4/BLE_1_HAL_PVT.c ****             ((uint16) CYBLE_BLE_BLESS_REG38_TRIM_LOW_REG);
 523              		.loc 1 410 0
 524 00c4 1343     		orr	r3, r2
 525              	.LVL69:
 412:Generated_Source\PSoC4/BLE_1_HAL_PVT.c **** 		CYBLE_BLERD_RX_BUMP2_REG = trimRef38Val;
 526              		.loc 1 412 0
 527 00c6 1A4A     		ldr	r2, .L40+100
 528 00c8 1360     		str	r3, [r2]
 529              	.LVL70:
 530              	.L27:
 413:Generated_Source\PSoC4/BLE_1_HAL_PVT.c **** 	}
 414:Generated_Source\PSoC4/BLE_1_HAL_PVT.c **** #endif /* (CYIPBLOCK_m0s8bless_VERSION < 3) */
 415:Generated_Source\PSoC4/BLE_1_HAL_PVT.c **** }
 531              		.loc 1 415 0
 532              		@ sp needed
 533 00ca 7047     		bx	lr
 534              	.L41:
 535              		.align	2
 536              	.L40:
 537 00cc 59F1FF0F 		.word	268431705
 538 00d0 58F1FF0F 		.word	268431704
 539 00d4 5FF1FF0F 		.word	268431711
 540 00d8 5EF1FF0F 		.word	268431710
 541 00dc 580B0000 		.word	2904
ARM GAS  C:\Users\ROUSSMA\AppData\Local\Temp\ccELMuR0.s 			page 18


 542 00e0 580D0000 		.word	3416
 543 00e4 6C002E40 		.word	1076756588
 544 00e8 74002E40 		.word	1076756596
 545 00ec 5BF1FF0F 		.word	268431707
 546 00f0 5AF1FF0F 		.word	268431706
 547 00f4 02200000 		.word	8194
 548 00f8 78002E40 		.word	1076756600
 549 00fc 5DF1FF0F 		.word	268431709
 550 0100 5CF1FF0F 		.word	268431708
 551 0104 0F0F0000 		.word	3855
 552 0108 05050000 		.word	1285
 553 010c 050F0000 		.word	3845
 554 0110 80002E40 		.word	1076756608
 555 0114 EC0F00F0 		.word	-268431380
 556 0118 E00F00F0 		.word	-268431392
 557 011c 6DF2FF0F 		.word	268431981
 558 0120 6CF2FF0F 		.word	268431980
 559 0124 84002E40 		.word	1076756612
 560 0128 6FF2FF0F 		.word	268431983
 561 012c 6EF2FF0F 		.word	268431982
 562 0130 94002E40 		.word	1076756628
 563              		.cfi_endproc
 564              	.LFE8:
 565              		.size	CyBLE_BlessDeviceConfig, .-CyBLE_BlessDeviceConfig
 566              		.section	.text.CyBleHal_DelayUs,"ax",%progbits
 567              		.align	2
 568              		.global	CyBleHal_DelayUs
 569              		.code	16
 570              		.thumb_func
 571              		.type	CyBleHal_DelayUs, %function
 572              	CyBleHal_DelayUs:
 573              	.LFB9:
 416:Generated_Source\PSoC4/BLE_1_HAL_PVT.c **** 
 417:Generated_Source\PSoC4/BLE_1_HAL_PVT.c **** 
 418:Generated_Source\PSoC4/BLE_1_HAL_PVT.c **** /* Interface to CyDelayUs function */
 419:Generated_Source\PSoC4/BLE_1_HAL_PVT.c **** void CyBleHal_DelayUs(uint16 delayVal)
 420:Generated_Source\PSoC4/BLE_1_HAL_PVT.c **** {
 574              		.loc 1 420 0
 575              		.cfi_startproc
 576              	.LVL71:
 577 0000 08B5     		push	{r3, lr}
 578              		.cfi_def_cfa_offset 8
 579              		.cfi_offset 3, -8
 580              		.cfi_offset 14, -4
 421:Generated_Source\PSoC4/BLE_1_HAL_PVT.c ****     CyDelayUs(delayVal);
 581              		.loc 1 421 0
 582 0002 FFF7FEFF 		bl	CyDelayUs
 583              	.LVL72:
 422:Generated_Source\PSoC4/BLE_1_HAL_PVT.c **** }
 584              		.loc 1 422 0
 585              		@ sp needed
 586 0006 08BD     		pop	{r3, pc}
 587              		.cfi_endproc
 588              	.LFE9:
 589              		.size	CyBleHal_DelayUs, .-CyBleHal_DelayUs
 590              		.section	.text.CyBleHal_DelayMs,"ax",%progbits
 591              		.align	2
ARM GAS  C:\Users\ROUSSMA\AppData\Local\Temp\ccELMuR0.s 			page 19


 592              		.global	CyBleHal_DelayMs
 593              		.code	16
 594              		.thumb_func
 595              		.type	CyBleHal_DelayMs, %function
 596              	CyBleHal_DelayMs:
 597              	.LFB10:
 423:Generated_Source\PSoC4/BLE_1_HAL_PVT.c **** 
 424:Generated_Source\PSoC4/BLE_1_HAL_PVT.c **** /* Interface to CyDelay function */
 425:Generated_Source\PSoC4/BLE_1_HAL_PVT.c **** void CyBleHal_DelayMs(uint32 delayVal)
 426:Generated_Source\PSoC4/BLE_1_HAL_PVT.c **** {
 598              		.loc 1 426 0
 599              		.cfi_startproc
 600              	.LVL73:
 601 0000 08B5     		push	{r3, lr}
 602              		.cfi_def_cfa_offset 8
 603              		.cfi_offset 3, -8
 604              		.cfi_offset 14, -4
 427:Generated_Source\PSoC4/BLE_1_HAL_PVT.c ****     CyDelay(delayVal);
 605              		.loc 1 427 0
 606 0002 FFF7FEFF 		bl	CyDelay
 607              	.LVL74:
 428:Generated_Source\PSoC4/BLE_1_HAL_PVT.c **** }
 608              		.loc 1 428 0
 609              		@ sp needed
 610 0006 08BD     		pop	{r3, pc}
 611              		.cfi_endproc
 612              	.LFE10:
 613              		.size	CyBleHal_DelayMs, .-CyBleHal_DelayMs
 614              		.section	.text.CyBleHal_EnableGlobalInterrupts,"ax",%progbits
 615              		.align	2
 616              		.global	CyBleHal_EnableGlobalInterrupts
 617              		.code	16
 618              		.thumb_func
 619              		.type	CyBleHal_EnableGlobalInterrupts, %function
 620              	CyBleHal_EnableGlobalInterrupts:
 621              	.LFB11:
 429:Generated_Source\PSoC4/BLE_1_HAL_PVT.c **** 
 430:Generated_Source\PSoC4/BLE_1_HAL_PVT.c **** /* Interface to BLE_1_bless_isr_Enable function */
 431:Generated_Source\PSoC4/BLE_1_HAL_PVT.c **** void CyBleHal_EnableGlobalInterrupts(void)
 432:Generated_Source\PSoC4/BLE_1_HAL_PVT.c **** {
 622              		.loc 1 432 0
 623              		.cfi_startproc
 624 0000 08B5     		push	{r3, lr}
 625              		.cfi_def_cfa_offset 8
 626              		.cfi_offset 3, -8
 627              		.cfi_offset 14, -4
 433:Generated_Source\PSoC4/BLE_1_HAL_PVT.c ****     BLE_1_bless_isr_Enable();
 628              		.loc 1 433 0
 629 0002 FFF7FEFF 		bl	BLE_1_bless_isr_Enable
 630              	.LVL75:
 434:Generated_Source\PSoC4/BLE_1_HAL_PVT.c **** }
 631              		.loc 1 434 0
 632              		@ sp needed
 633 0006 08BD     		pop	{r3, pc}
 634              		.cfi_endproc
 635              	.LFE11:
 636              		.size	CyBleHal_EnableGlobalInterrupts, .-CyBleHal_EnableGlobalInterrupts
ARM GAS  C:\Users\ROUSSMA\AppData\Local\Temp\ccELMuR0.s 			page 20


 637              		.section	.text.CyBleHal_DisableGlobalInterrupts,"ax",%progbits
 638              		.align	2
 639              		.global	CyBleHal_DisableGlobalInterrupts
 640              		.code	16
 641              		.thumb_func
 642              		.type	CyBleHal_DisableGlobalInterrupts, %function
 643              	CyBleHal_DisableGlobalInterrupts:
 644              	.LFB12:
 435:Generated_Source\PSoC4/BLE_1_HAL_PVT.c **** 
 436:Generated_Source\PSoC4/BLE_1_HAL_PVT.c **** /* Interface to BLE_1_bless_isr_Disable function */
 437:Generated_Source\PSoC4/BLE_1_HAL_PVT.c **** void CyBleHal_DisableGlobalInterrupts(void)
 438:Generated_Source\PSoC4/BLE_1_HAL_PVT.c **** {
 645              		.loc 1 438 0
 646              		.cfi_startproc
 647 0000 08B5     		push	{r3, lr}
 648              		.cfi_def_cfa_offset 8
 649              		.cfi_offset 3, -8
 650              		.cfi_offset 14, -4
 439:Generated_Source\PSoC4/BLE_1_HAL_PVT.c ****     BLE_1_bless_isr_Disable();
 651              		.loc 1 439 0
 652 0002 FFF7FEFF 		bl	BLE_1_bless_isr_Disable
 653              	.LVL76:
 440:Generated_Source\PSoC4/BLE_1_HAL_PVT.c **** }
 654              		.loc 1 440 0
 655              		@ sp needed
 656 0006 08BD     		pop	{r3, pc}
 657              		.cfi_endproc
 658              	.LFE12:
 659              		.size	CyBleHal_DisableGlobalInterrupts, .-CyBleHal_DisableGlobalInterrupts
 660              		.section	.text.CyBle_HalInit,"ax",%progbits
 661              		.align	2
 662              		.global	CyBle_HalInit
 663              		.code	16
 664              		.thumb_func
 665              		.type	CyBle_HalInit, %function
 666              	CyBle_HalInit:
 667              	.LFB13:
 441:Generated_Source\PSoC4/BLE_1_HAL_PVT.c **** 
 442:Generated_Source\PSoC4/BLE_1_HAL_PVT.c **** /*******************************************************************************
 443:Generated_Source\PSoC4/BLE_1_HAL_PVT.c **** * Function Name: CyBle_HalInit
 444:Generated_Source\PSoC4/BLE_1_HAL_PVT.c **** ****************************************************************************//**
 445:Generated_Source\PSoC4/BLE_1_HAL_PVT.c **** *
 446:Generated_Source\PSoC4/BLE_1_HAL_PVT.c **** *  Initializes the BLESS interrupt.
 447:Generated_Source\PSoC4/BLE_1_HAL_PVT.c **** *
 448:Generated_Source\PSoC4/BLE_1_HAL_PVT.c **** * \return
 449:Generated_Source\PSoC4/BLE_1_HAL_PVT.c **** *  None
 450:Generated_Source\PSoC4/BLE_1_HAL_PVT.c **** *
 451:Generated_Source\PSoC4/BLE_1_HAL_PVT.c **** *******************************************************************************/
 452:Generated_Source\PSoC4/BLE_1_HAL_PVT.c **** void CyBle_HalInit(void)
 453:Generated_Source\PSoC4/BLE_1_HAL_PVT.c **** {
 668              		.loc 1 453 0
 669              		.cfi_startproc
 670 0000 08B5     		push	{r3, lr}
 671              		.cfi_def_cfa_offset 8
 672              		.cfi_offset 3, -8
 673              		.cfi_offset 14, -4
 454:Generated_Source\PSoC4/BLE_1_HAL_PVT.c ****     /* For all we know the interrupt is active. */
ARM GAS  C:\Users\ROUSSMA\AppData\Local\Temp\ccELMuR0.s 			page 21


 455:Generated_Source\PSoC4/BLE_1_HAL_PVT.c ****     BLE_1_bless_isr_Disable();
 674              		.loc 1 455 0
 675 0002 FFF7FEFF 		bl	BLE_1_bless_isr_Disable
 676              	.LVL77:
 456:Generated_Source\PSoC4/BLE_1_HAL_PVT.c **** 
 457:Generated_Source\PSoC4/BLE_1_HAL_PVT.c ****     /* Set the ISR to point to the BLE_bless_isr Interrupt. */
 458:Generated_Source\PSoC4/BLE_1_HAL_PVT.c ****     BLE_1_bless_isr_SetVector(&CyBLE_Bless_Interrupt);
 677              		.loc 1 458 0
 678 0006 0348     		ldr	r0, .L47
 679 0008 FFF7FEFF 		bl	BLE_1_bless_isr_SetVector
 680              	.LVL78:
 459:Generated_Source\PSoC4/BLE_1_HAL_PVT.c **** 
 460:Generated_Source\PSoC4/BLE_1_HAL_PVT.c ****     /* Set the priority. */
 461:Generated_Source\PSoC4/BLE_1_HAL_PVT.c ****     BLE_1_bless_isr_SetPriority((uint8)BLE_1_bless_isr_INTC_PRIOR_NUMBER);
 681              		.loc 1 461 0
 682 000c 0320     		mov	r0, #3
 683 000e FFF7FEFF 		bl	BLE_1_bless_isr_SetPriority
 684              	.LVL79:
 462:Generated_Source\PSoC4/BLE_1_HAL_PVT.c **** }
 685              		.loc 1 462 0
 686              		@ sp needed
 687 0012 08BD     		pop	{r3, pc}
 688              	.L48:
 689              		.align	2
 690              	.L47:
 691 0014 00000000 		.word	CyBLE_Bless_Interrupt
 692              		.cfi_endproc
 693              	.LFE13:
 694              		.size	CyBle_HalInit, .-CyBle_HalInit
 695              		.section	.text.CYBLE_BlessStart,"ax",%progbits
 696              		.align	2
 697              		.global	CYBLE_BlessStart
 698              		.code	16
 699              		.thumb_func
 700              		.type	CYBLE_BlessStart, %function
 701              	CYBLE_BlessStart:
 702              	.LFB14:
 463:Generated_Source\PSoC4/BLE_1_HAL_PVT.c **** 
 464:Generated_Source\PSoC4/BLE_1_HAL_PVT.c **** 
 465:Generated_Source\PSoC4/BLE_1_HAL_PVT.c **** /*******************************************************************************
 466:Generated_Source\PSoC4/BLE_1_HAL_PVT.c **** * Function Name: CYBLE_BlessStart
 467:Generated_Source\PSoC4/BLE_1_HAL_PVT.c **** ****************************************************************************//**
 468:Generated_Source\PSoC4/BLE_1_HAL_PVT.c **** *
 469:Generated_Source\PSoC4/BLE_1_HAL_PVT.c **** *  Start Interrupt Controller API.
 470:Generated_Source\PSoC4/BLE_1_HAL_PVT.c **** *
 471:Generated_Source\PSoC4/BLE_1_HAL_PVT.c **** * \return
 472:Generated_Source\PSoC4/BLE_1_HAL_PVT.c **** *  None
 473:Generated_Source\PSoC4/BLE_1_HAL_PVT.c **** *
 474:Generated_Source\PSoC4/BLE_1_HAL_PVT.c **** *******************************************************************************/
 475:Generated_Source\PSoC4/BLE_1_HAL_PVT.c **** void CYBLE_BlessStart(void)
 476:Generated_Source\PSoC4/BLE_1_HAL_PVT.c **** {
 703              		.loc 1 476 0
 704              		.cfi_startproc
 705 0000 08B5     		push	{r3, lr}
 706              		.cfi_def_cfa_offset 8
 707              		.cfi_offset 3, -8
 708              		.cfi_offset 14, -4
ARM GAS  C:\Users\ROUSSMA\AppData\Local\Temp\ccELMuR0.s 			page 22


 477:Generated_Source\PSoC4/BLE_1_HAL_PVT.c **** #if((CYBLE_M0S8BLESS_VERSION_3) && (CYBLE_EXT_PA_ENABLED))
 478:Generated_Source\PSoC4/BLE_1_HAL_PVT.c ****     CYBLE_EXT_PA_LNA_CTRL_REG |= CYBLE_EXT_PA_LNA_ENABLE | CYBLE_EXT_OUT_EN_DRIVE_VAL; 
 479:Generated_Source\PSoC4/BLE_1_HAL_PVT.c **** #endif  /* (CYBLE_M0S8BLESS_VERSION_3) */
 480:Generated_Source\PSoC4/BLE_1_HAL_PVT.c **** 
 481:Generated_Source\PSoC4/BLE_1_HAL_PVT.c ****     BLE_1_bless_isr_StartEx(&CyBLE_Bless_Interrupt);
 709              		.loc 1 481 0
 710 0002 0248     		ldr	r0, .L50
 711 0004 FFF7FEFF 		bl	BLE_1_bless_isr_StartEx
 712              	.LVL80:
 482:Generated_Source\PSoC4/BLE_1_HAL_PVT.c **** }
 713              		.loc 1 482 0
 714              		@ sp needed
 715 0008 08BD     		pop	{r3, pc}
 716              	.L51:
 717 000a C046     		.align	2
 718              	.L50:
 719 000c 00000000 		.word	CyBLE_Bless_Interrupt
 720              		.cfi_endproc
 721              	.LFE14:
 722              		.size	CYBLE_BlessStart, .-CYBLE_BlessStart
 723              		.section	.text.CyBLE_GetIpBlockVersion,"ax",%progbits
 724              		.align	2
 725              		.global	CyBLE_GetIpBlockVersion
 726              		.code	16
 727              		.thumb_func
 728              		.type	CyBLE_GetIpBlockVersion, %function
 729              	CyBLE_GetIpBlockVersion:
 730              	.LFB15:
 483:Generated_Source\PSoC4/BLE_1_HAL_PVT.c **** 
 484:Generated_Source\PSoC4/BLE_1_HAL_PVT.c **** 
 485:Generated_Source\PSoC4/BLE_1_HAL_PVT.c **** /*******************************************************************************
 486:Generated_Source\PSoC4/BLE_1_HAL_PVT.c **** * Function Name: CyBLE_GetIpBlockVersion
 487:Generated_Source\PSoC4/BLE_1_HAL_PVT.c **** ****************************************************************************//**
 488:Generated_Source\PSoC4/BLE_1_HAL_PVT.c **** *
 489:Generated_Source\PSoC4/BLE_1_HAL_PVT.c **** * This API returns the version of m0s8bless ip block.
 490:Generated_Source\PSoC4/BLE_1_HAL_PVT.c **** *
 491:Generated_Source\PSoC4/BLE_1_HAL_PVT.c **** * \return
 492:Generated_Source\PSoC4/BLE_1_HAL_PVT.c **** * uint32 bits:
 493:Generated_Source\PSoC4/BLE_1_HAL_PVT.c **** * 7:0 - ip version ( 1 - BLE_ver1, 2 - BLE_ver2, 3 - BLE_ver3 )
 494:Generated_Source\PSoC4/BLE_1_HAL_PVT.c **** * 15:8 - flash size ( 0 - 128k, 1 - 256k )
 495:Generated_Source\PSoC4/BLE_1_HAL_PVT.c **** * 16 - PSVP device
 496:Generated_Source\PSoC4/BLE_1_HAL_PVT.c **** * 31:17 - reserved for future usage
 497:Generated_Source\PSoC4/BLE_1_HAL_PVT.c **** *
 498:Generated_Source\PSoC4/BLE_1_HAL_PVT.c **** *******************************************************************************/
 499:Generated_Source\PSoC4/BLE_1_HAL_PVT.c **** uint32 CyBLE_GetIpBlockVersion(void)
 500:Generated_Source\PSoC4/BLE_1_HAL_PVT.c **** {
 731              		.loc 1 500 0
 732              		.cfi_startproc
 501:Generated_Source\PSoC4/BLE_1_HAL_PVT.c ****     return(((uint32)CYBLE_M0S8BLESS_VERSION) | ((uint32)((uint32)CYBLE_FLASH_SIZE) << 8u) |
 502:Generated_Source\PSoC4/BLE_1_HAL_PVT.c ****         ((uint32)(((uint32)CYBLE_PSVP_DEVICE)) << 16u));
 503:Generated_Source\PSoC4/BLE_1_HAL_PVT.c **** }
 733              		.loc 1 503 0
 734 0000 0048     		ldr	r0, .L53
 735              		@ sp needed
 736 0002 7047     		bx	lr
 737              	.L54:
 738              		.align	2
ARM GAS  C:\Users\ROUSSMA\AppData\Local\Temp\ccELMuR0.s 			page 23


 739              	.L53:
 740 0004 02020000 		.word	514
 741              		.cfi_endproc
 742              	.LFE15:
 743              		.size	CyBLE_GetIpBlockVersion, .-CyBLE_GetIpBlockVersion
 744              		.section	.text.CyBle_Hal_pairing_local_public_key_handler,"ax",%progbits
 745              		.align	2
 746              		.global	CyBle_Hal_pairing_local_public_key_handler
 747              		.code	16
 748              		.thumb_func
 749              		.type	CyBle_Hal_pairing_local_public_key_handler, %function
 750              	CyBle_Hal_pairing_local_public_key_handler:
 751              	.LFB16:
 504:Generated_Source\PSoC4/BLE_1_HAL_PVT.c **** 
 505:Generated_Source\PSoC4/BLE_1_HAL_PVT.c **** /* Mapping functions for stack size optimization */
 506:Generated_Source\PSoC4/BLE_1_HAL_PVT.c **** #if(CYBLE_MODE_PROFILE)
 507:Generated_Source\PSoC4/BLE_1_HAL_PVT.c ****     
 508:Generated_Source\PSoC4/BLE_1_HAL_PVT.c **** #if(CYBLE_SECURE_CONN_FEATURE_ENABLED)
 509:Generated_Source\PSoC4/BLE_1_HAL_PVT.c ****     
 510:Generated_Source\PSoC4/BLE_1_HAL_PVT.c ****     CYBLE_API_RESULT_T CyBle_Hal_pairing_local_public_key_handler(void *param)
 511:Generated_Source\PSoC4/BLE_1_HAL_PVT.c ****     {
 512:Generated_Source\PSoC4/BLE_1_HAL_PVT.c ****         return (CyBle_Hal_mapping_pairing_local_public_key_handler(param));
 513:Generated_Source\PSoC4/BLE_1_HAL_PVT.c ****     }
 514:Generated_Source\PSoC4/BLE_1_HAL_PVT.c ****      
 515:Generated_Source\PSoC4/BLE_1_HAL_PVT.c ****     CYBLE_API_RESULT_T CyBle_Hal_pairing_remote_key_handler(void *param)
 516:Generated_Source\PSoC4/BLE_1_HAL_PVT.c ****     {
 517:Generated_Source\PSoC4/BLE_1_HAL_PVT.c ****         return (CyBle_Hal_mapping_pairing_remote_key_handler(param));
 518:Generated_Source\PSoC4/BLE_1_HAL_PVT.c ****     }
 519:Generated_Source\PSoC4/BLE_1_HAL_PVT.c ****      
 520:Generated_Source\PSoC4/BLE_1_HAL_PVT.c ****     CYBLE_API_RESULT_T CyBle_Hal_pairing_dhkey_handler(void *param)
 521:Generated_Source\PSoC4/BLE_1_HAL_PVT.c ****     {
 522:Generated_Source\PSoC4/BLE_1_HAL_PVT.c ****         return (CyBle_Hal_mapping_pairing_dhkey_handler(param));
 523:Generated_Source\PSoC4/BLE_1_HAL_PVT.c ****     }
 524:Generated_Source\PSoC4/BLE_1_HAL_PVT.c **** 
 525:Generated_Source\PSoC4/BLE_1_HAL_PVT.c ****     CYBLE_API_RESULT_T CyBle_Hal_pairing_dhkey_check_handler(void *param)
 526:Generated_Source\PSoC4/BLE_1_HAL_PVT.c ****     {
 527:Generated_Source\PSoC4/BLE_1_HAL_PVT.c ****         return (CyBle_Hal_mapping_pairing_dhkey_check_handler(param));
 528:Generated_Source\PSoC4/BLE_1_HAL_PVT.c ****     }
 529:Generated_Source\PSoC4/BLE_1_HAL_PVT.c **** 
 530:Generated_Source\PSoC4/BLE_1_HAL_PVT.c ****     CYBLE_API_RESULT_T CyBle_Hal_pairing_keypress_notification_handler(void *param)
 531:Generated_Source\PSoC4/BLE_1_HAL_PVT.c ****     {
 532:Generated_Source\PSoC4/BLE_1_HAL_PVT.c ****         return (CyBle_Hal_mapping_pairing_keypress_notification_handler(param));
 533:Generated_Source\PSoC4/BLE_1_HAL_PVT.c ****     }
 534:Generated_Source\PSoC4/BLE_1_HAL_PVT.c **** 
 535:Generated_Source\PSoC4/BLE_1_HAL_PVT.c ****     CYBLE_API_RESULT_T CyBle_Hal_pairing_rand_handler(void *param)
 536:Generated_Source\PSoC4/BLE_1_HAL_PVT.c ****     {
 537:Generated_Source\PSoC4/BLE_1_HAL_PVT.c ****         return (CyBle_Hal_mapping_pairing_rand_handler(param));
 538:Generated_Source\PSoC4/BLE_1_HAL_PVT.c ****     }
 539:Generated_Source\PSoC4/BLE_1_HAL_PVT.c **** 
 540:Generated_Source\PSoC4/BLE_1_HAL_PVT.c ****     CYBLE_API_RESULT_T CyBle_Hal_pairing_confirm_handler(void *param)
 541:Generated_Source\PSoC4/BLE_1_HAL_PVT.c ****     {
 542:Generated_Source\PSoC4/BLE_1_HAL_PVT.c ****         return (CyBle_Hal_mapping_pairing_confirm_handler(param));
 543:Generated_Source\PSoC4/BLE_1_HAL_PVT.c ****     }
 544:Generated_Source\PSoC4/BLE_1_HAL_PVT.c **** 
 545:Generated_Source\PSoC4/BLE_1_HAL_PVT.c ****     CYBLE_API_RESULT_T CyBle_Hal_pairing_lr_confirming_handler(void *param)
 546:Generated_Source\PSoC4/BLE_1_HAL_PVT.c ****     {
 547:Generated_Source\PSoC4/BLE_1_HAL_PVT.c ****         return (CyBle_Hal_mapping_pairing_lr_confirming_handler(param));
ARM GAS  C:\Users\ROUSSMA\AppData\Local\Temp\ccELMuR0.s 			page 24


 548:Generated_Source\PSoC4/BLE_1_HAL_PVT.c ****     }
 549:Generated_Source\PSoC4/BLE_1_HAL_PVT.c ****     
 550:Generated_Source\PSoC4/BLE_1_HAL_PVT.c ****     CYBLE_API_RESULT_T CyBle_Hal_pairing_sc_tbx_dhkey_generate_complete(void* param)
 551:Generated_Source\PSoC4/BLE_1_HAL_PVT.c ****     {
 552:Generated_Source\PSoC4/BLE_1_HAL_PVT.c ****         CyBle_Hal_mapping_tbx_dhkey_generate_complete(param);
 553:Generated_Source\PSoC4/BLE_1_HAL_PVT.c ****         return (CYBLE_ERROR_OK);
 554:Generated_Source\PSoC4/BLE_1_HAL_PVT.c ****     }
 555:Generated_Source\PSoC4/BLE_1_HAL_PVT.c **** 
 556:Generated_Source\PSoC4/BLE_1_HAL_PVT.c ****     CYBLE_API_RESULT_T CyBle_Hal_pairing_sc_tbx_local_pubkey_generate_complete(void)
 557:Generated_Source\PSoC4/BLE_1_HAL_PVT.c ****     {
 558:Generated_Source\PSoC4/BLE_1_HAL_PVT.c ****         CyBle_Hal_mapping_tbx_local_pubkey_generate_complete();
 559:Generated_Source\PSoC4/BLE_1_HAL_PVT.c ****         return (CYBLE_ERROR_OK);
 560:Generated_Source\PSoC4/BLE_1_HAL_PVT.c ****     }
 561:Generated_Source\PSoC4/BLE_1_HAL_PVT.c **** 
 562:Generated_Source\PSoC4/BLE_1_HAL_PVT.c ****     CYBLE_API_RESULT_T CyBle_Hal_pairing_sc_tbx_generate_local_P256_public_key(uint8 param)
 563:Generated_Source\PSoC4/BLE_1_HAL_PVT.c ****     {
 564:Generated_Source\PSoC4/BLE_1_HAL_PVT.c ****         return (CyBle_Hal_mapping_tbx_generate_local_P256_public_key(param));
 565:Generated_Source\PSoC4/BLE_1_HAL_PVT.c ****     }
 566:Generated_Source\PSoC4/BLE_1_HAL_PVT.c **** 
 567:Generated_Source\PSoC4/BLE_1_HAL_PVT.c ****     CYBLE_API_RESULT_T CyBle_Hal_pairing_sc_tbx_generate_DHkey(void  * param1, void  * param2)
 568:Generated_Source\PSoC4/BLE_1_HAL_PVT.c ****     {
 569:Generated_Source\PSoC4/BLE_1_HAL_PVT.c ****         return (CyBle_Hal_mapping_tbx_generate_DHkey(param1, param2));
 570:Generated_Source\PSoC4/BLE_1_HAL_PVT.c ****     }
 571:Generated_Source\PSoC4/BLE_1_HAL_PVT.c **** 
 572:Generated_Source\PSoC4/BLE_1_HAL_PVT.c ****     void CyBle_Hal_smp_sc_cmac_complete(void)
 573:Generated_Source\PSoC4/BLE_1_HAL_PVT.c ****     {
 574:Generated_Source\PSoC4/BLE_1_HAL_PVT.c ****        CyBle_Hal_Mapping_smp_sc_cmac_complete();
 575:Generated_Source\PSoC4/BLE_1_HAL_PVT.c ****     }
 576:Generated_Source\PSoC4/BLE_1_HAL_PVT.c **** 
 577:Generated_Source\PSoC4/BLE_1_HAL_PVT.c ****     CYBLE_API_RESULT_T CyBle_Hal_se_smp_sc_user_passkey_handler(void *param1, void *param2)
 578:Generated_Source\PSoC4/BLE_1_HAL_PVT.c ****     {
 579:Generated_Source\PSoC4/BLE_1_HAL_PVT.c ****         return (CyBle_Hal_mapping_se_smp_sc_user_passkey_handler(param1, param2));
 580:Generated_Source\PSoC4/BLE_1_HAL_PVT.c ****     }
 581:Generated_Source\PSoC4/BLE_1_HAL_PVT.c **** 
 582:Generated_Source\PSoC4/BLE_1_HAL_PVT.c ****     void CyBle_Hal_EccPointMult(void)
 583:Generated_Source\PSoC4/BLE_1_HAL_PVT.c ****     {
 584:Generated_Source\PSoC4/BLE_1_HAL_PVT.c ****         CyBle_Hal_Mapping_EccPointMult();
 585:Generated_Source\PSoC4/BLE_1_HAL_PVT.c ****     }
 586:Generated_Source\PSoC4/BLE_1_HAL_PVT.c ****     
 587:Generated_Source\PSoC4/BLE_1_HAL_PVT.c **** #else     /* If feature is not required, return error. */
 588:Generated_Source\PSoC4/BLE_1_HAL_PVT.c ****     
 589:Generated_Source\PSoC4/BLE_1_HAL_PVT.c ****     CYBLE_API_RESULT_T CyBle_Hal_pairing_local_public_key_handler(void *param CYBLE_UNUSED_ATTR)
 590:Generated_Source\PSoC4/BLE_1_HAL_PVT.c ****     {
 752              		.loc 1 590 0
 753              		.cfi_startproc
 754              	.LVL81:
 591:Generated_Source\PSoC4/BLE_1_HAL_PVT.c ****         return (CYBLE_ERROR_UNSUPPORTED_FEATURE_OR_PARAMETER_VALUE);
 592:Generated_Source\PSoC4/BLE_1_HAL_PVT.c ****     }
 755              		.loc 1 592 0
 756 0000 2B20     		mov	r0, #43
 757              	.LVL82:
 758              		@ sp needed
 759 0002 7047     		bx	lr
 760              		.cfi_endproc
 761              	.LFE16:
 762              		.size	CyBle_Hal_pairing_local_public_key_handler, .-CyBle_Hal_pairing_local_public_key_handler
 763              		.section	.text.CyBle_Hal_pairing_remote_key_handler,"ax",%progbits
ARM GAS  C:\Users\ROUSSMA\AppData\Local\Temp\ccELMuR0.s 			page 25


 764              		.align	2
 765              		.global	CyBle_Hal_pairing_remote_key_handler
 766              		.code	16
 767              		.thumb_func
 768              		.type	CyBle_Hal_pairing_remote_key_handler, %function
 769              	CyBle_Hal_pairing_remote_key_handler:
 770              	.LFB17:
 593:Generated_Source\PSoC4/BLE_1_HAL_PVT.c ****      
 594:Generated_Source\PSoC4/BLE_1_HAL_PVT.c ****     CYBLE_API_RESULT_T CyBle_Hal_pairing_remote_key_handler(void *param CYBLE_UNUSED_ATTR)
 595:Generated_Source\PSoC4/BLE_1_HAL_PVT.c ****     {
 771              		.loc 1 595 0
 772              		.cfi_startproc
 773              	.LVL83:
 596:Generated_Source\PSoC4/BLE_1_HAL_PVT.c ****         return (CYBLE_ERROR_UNSUPPORTED_FEATURE_OR_PARAMETER_VALUE);
 597:Generated_Source\PSoC4/BLE_1_HAL_PVT.c ****     }
 774              		.loc 1 597 0
 775 0000 2B20     		mov	r0, #43
 776              	.LVL84:
 777              		@ sp needed
 778 0002 7047     		bx	lr
 779              		.cfi_endproc
 780              	.LFE17:
 781              		.size	CyBle_Hal_pairing_remote_key_handler, .-CyBle_Hal_pairing_remote_key_handler
 782              		.section	.text.CyBle_Hal_pairing_dhkey_handler,"ax",%progbits
 783              		.align	2
 784              		.global	CyBle_Hal_pairing_dhkey_handler
 785              		.code	16
 786              		.thumb_func
 787              		.type	CyBle_Hal_pairing_dhkey_handler, %function
 788              	CyBle_Hal_pairing_dhkey_handler:
 789              	.LFB18:
 598:Generated_Source\PSoC4/BLE_1_HAL_PVT.c ****      
 599:Generated_Source\PSoC4/BLE_1_HAL_PVT.c ****     CYBLE_API_RESULT_T CyBle_Hal_pairing_dhkey_handler(void *param CYBLE_UNUSED_ATTR)
 600:Generated_Source\PSoC4/BLE_1_HAL_PVT.c ****     {
 790              		.loc 1 600 0
 791              		.cfi_startproc
 792              	.LVL85:
 601:Generated_Source\PSoC4/BLE_1_HAL_PVT.c ****         return (CYBLE_ERROR_UNSUPPORTED_FEATURE_OR_PARAMETER_VALUE);
 602:Generated_Source\PSoC4/BLE_1_HAL_PVT.c ****     }
 793              		.loc 1 602 0
 794 0000 2B20     		mov	r0, #43
 795              	.LVL86:
 796              		@ sp needed
 797 0002 7047     		bx	lr
 798              		.cfi_endproc
 799              	.LFE18:
 800              		.size	CyBle_Hal_pairing_dhkey_handler, .-CyBle_Hal_pairing_dhkey_handler
 801              		.section	.text.CyBle_Hal_pairing_dhkey_check_handler,"ax",%progbits
 802              		.align	2
 803              		.global	CyBle_Hal_pairing_dhkey_check_handler
 804              		.code	16
 805              		.thumb_func
 806              		.type	CyBle_Hal_pairing_dhkey_check_handler, %function
 807              	CyBle_Hal_pairing_dhkey_check_handler:
 808              	.LFB19:
 603:Generated_Source\PSoC4/BLE_1_HAL_PVT.c **** 
 604:Generated_Source\PSoC4/BLE_1_HAL_PVT.c ****     CYBLE_API_RESULT_T CyBle_Hal_pairing_dhkey_check_handler(void *param CYBLE_UNUSED_ATTR)
ARM GAS  C:\Users\ROUSSMA\AppData\Local\Temp\ccELMuR0.s 			page 26


 605:Generated_Source\PSoC4/BLE_1_HAL_PVT.c ****     {
 809              		.loc 1 605 0
 810              		.cfi_startproc
 811              	.LVL87:
 606:Generated_Source\PSoC4/BLE_1_HAL_PVT.c ****         return (CYBLE_ERROR_UNSUPPORTED_FEATURE_OR_PARAMETER_VALUE);
 607:Generated_Source\PSoC4/BLE_1_HAL_PVT.c ****     }
 812              		.loc 1 607 0
 813 0000 2B20     		mov	r0, #43
 814              	.LVL88:
 815              		@ sp needed
 816 0002 7047     		bx	lr
 817              		.cfi_endproc
 818              	.LFE19:
 819              		.size	CyBle_Hal_pairing_dhkey_check_handler, .-CyBle_Hal_pairing_dhkey_check_handler
 820              		.section	.text.CyBle_Hal_pairing_keypress_notification_handler,"ax",%progbits
 821              		.align	2
 822              		.global	CyBle_Hal_pairing_keypress_notification_handler
 823              		.code	16
 824              		.thumb_func
 825              		.type	CyBle_Hal_pairing_keypress_notification_handler, %function
 826              	CyBle_Hal_pairing_keypress_notification_handler:
 827              	.LFB20:
 608:Generated_Source\PSoC4/BLE_1_HAL_PVT.c **** 
 609:Generated_Source\PSoC4/BLE_1_HAL_PVT.c ****     CYBLE_API_RESULT_T CyBle_Hal_pairing_keypress_notification_handler(void *param CYBLE_UNUSED_ATT
 610:Generated_Source\PSoC4/BLE_1_HAL_PVT.c ****     {
 828              		.loc 1 610 0
 829              		.cfi_startproc
 830              	.LVL89:
 611:Generated_Source\PSoC4/BLE_1_HAL_PVT.c ****         return (CYBLE_ERROR_UNSUPPORTED_FEATURE_OR_PARAMETER_VALUE);
 612:Generated_Source\PSoC4/BLE_1_HAL_PVT.c ****     }
 831              		.loc 1 612 0
 832 0000 2B20     		mov	r0, #43
 833              	.LVL90:
 834              		@ sp needed
 835 0002 7047     		bx	lr
 836              		.cfi_endproc
 837              	.LFE20:
 838              		.size	CyBle_Hal_pairing_keypress_notification_handler, .-CyBle_Hal_pairing_keypress_notification_h
 839              		.section	.text.CyBle_Hal_pairing_rand_handler,"ax",%progbits
 840              		.align	2
 841              		.global	CyBle_Hal_pairing_rand_handler
 842              		.code	16
 843              		.thumb_func
 844              		.type	CyBle_Hal_pairing_rand_handler, %function
 845              	CyBle_Hal_pairing_rand_handler:
 846              	.LFB21:
 613:Generated_Source\PSoC4/BLE_1_HAL_PVT.c **** 
 614:Generated_Source\PSoC4/BLE_1_HAL_PVT.c ****     CYBLE_API_RESULT_T CyBle_Hal_pairing_rand_handler(void *param CYBLE_UNUSED_ATTR)
 615:Generated_Source\PSoC4/BLE_1_HAL_PVT.c ****     {
 847              		.loc 1 615 0
 848              		.cfi_startproc
 849              	.LVL91:
 616:Generated_Source\PSoC4/BLE_1_HAL_PVT.c ****         return (CYBLE_ERROR_UNSUPPORTED_FEATURE_OR_PARAMETER_VALUE);
 617:Generated_Source\PSoC4/BLE_1_HAL_PVT.c ****     }
 850              		.loc 1 617 0
 851 0000 2B20     		mov	r0, #43
 852              	.LVL92:
ARM GAS  C:\Users\ROUSSMA\AppData\Local\Temp\ccELMuR0.s 			page 27


 853              		@ sp needed
 854 0002 7047     		bx	lr
 855              		.cfi_endproc
 856              	.LFE21:
 857              		.size	CyBle_Hal_pairing_rand_handler, .-CyBle_Hal_pairing_rand_handler
 858              		.section	.text.CyBle_Hal_pairing_confirm_handler,"ax",%progbits
 859              		.align	2
 860              		.global	CyBle_Hal_pairing_confirm_handler
 861              		.code	16
 862              		.thumb_func
 863              		.type	CyBle_Hal_pairing_confirm_handler, %function
 864              	CyBle_Hal_pairing_confirm_handler:
 865              	.LFB22:
 618:Generated_Source\PSoC4/BLE_1_HAL_PVT.c ****     
 619:Generated_Source\PSoC4/BLE_1_HAL_PVT.c ****     CYBLE_API_RESULT_T CyBle_Hal_pairing_confirm_handler(void *param CYBLE_UNUSED_ATTR)
 620:Generated_Source\PSoC4/BLE_1_HAL_PVT.c ****     {
 866              		.loc 1 620 0
 867              		.cfi_startproc
 868              	.LVL93:
 621:Generated_Source\PSoC4/BLE_1_HAL_PVT.c ****         return (CYBLE_ERROR_UNSUPPORTED_FEATURE_OR_PARAMETER_VALUE);
 622:Generated_Source\PSoC4/BLE_1_HAL_PVT.c ****     }
 869              		.loc 1 622 0
 870 0000 2B20     		mov	r0, #43
 871              	.LVL94:
 872              		@ sp needed
 873 0002 7047     		bx	lr
 874              		.cfi_endproc
 875              	.LFE22:
 876              		.size	CyBle_Hal_pairing_confirm_handler, .-CyBle_Hal_pairing_confirm_handler
 877              		.section	.text.CyBle_Hal_pairing_lr_confirming_handler,"ax",%progbits
 878              		.align	2
 879              		.global	CyBle_Hal_pairing_lr_confirming_handler
 880              		.code	16
 881              		.thumb_func
 882              		.type	CyBle_Hal_pairing_lr_confirming_handler, %function
 883              	CyBle_Hal_pairing_lr_confirming_handler:
 884              	.LFB23:
 623:Generated_Source\PSoC4/BLE_1_HAL_PVT.c **** 
 624:Generated_Source\PSoC4/BLE_1_HAL_PVT.c ****     CYBLE_API_RESULT_T CyBle_Hal_pairing_lr_confirming_handler(void *param CYBLE_UNUSED_ATTR)
 625:Generated_Source\PSoC4/BLE_1_HAL_PVT.c ****     {
 885              		.loc 1 625 0
 886              		.cfi_startproc
 887              	.LVL95:
 626:Generated_Source\PSoC4/BLE_1_HAL_PVT.c ****         return (CYBLE_ERROR_UNSUPPORTED_FEATURE_OR_PARAMETER_VALUE);
 627:Generated_Source\PSoC4/BLE_1_HAL_PVT.c ****     }
 888              		.loc 1 627 0
 889 0000 2B20     		mov	r0, #43
 890              	.LVL96:
 891              		@ sp needed
 892 0002 7047     		bx	lr
 893              		.cfi_endproc
 894              	.LFE23:
 895              		.size	CyBle_Hal_pairing_lr_confirming_handler, .-CyBle_Hal_pairing_lr_confirming_handler
 896              		.section	.text.CyBle_Hal_pairing_sc_tbx_dhkey_generate_complete,"ax",%progbits
 897              		.align	2
 898              		.global	CyBle_Hal_pairing_sc_tbx_dhkey_generate_complete
 899              		.code	16
ARM GAS  C:\Users\ROUSSMA\AppData\Local\Temp\ccELMuR0.s 			page 28


 900              		.thumb_func
 901              		.type	CyBle_Hal_pairing_sc_tbx_dhkey_generate_complete, %function
 902              	CyBle_Hal_pairing_sc_tbx_dhkey_generate_complete:
 903              	.LFB24:
 628:Generated_Source\PSoC4/BLE_1_HAL_PVT.c ****     
 629:Generated_Source\PSoC4/BLE_1_HAL_PVT.c ****     CYBLE_API_RESULT_T CyBle_Hal_pairing_sc_tbx_dhkey_generate_complete(void* param CYBLE_UNUSED_AT
 630:Generated_Source\PSoC4/BLE_1_HAL_PVT.c ****     {
 904              		.loc 1 630 0
 905              		.cfi_startproc
 906              	.LVL97:
 631:Generated_Source\PSoC4/BLE_1_HAL_PVT.c ****         return (CYBLE_ERROR_UNSUPPORTED_FEATURE_OR_PARAMETER_VALUE);
 632:Generated_Source\PSoC4/BLE_1_HAL_PVT.c ****     }
 907              		.loc 1 632 0
 908 0000 2B20     		mov	r0, #43
 909              	.LVL98:
 910              		@ sp needed
 911 0002 7047     		bx	lr
 912              		.cfi_endproc
 913              	.LFE24:
 914              		.size	CyBle_Hal_pairing_sc_tbx_dhkey_generate_complete, .-CyBle_Hal_pairing_sc_tbx_dhkey_generate_
 915              		.section	.text.CyBle_Hal_pairing_sc_tbx_local_pubkey_generate_complete,"ax",%progbits
 916              		.align	2
 917              		.global	CyBle_Hal_pairing_sc_tbx_local_pubkey_generate_complete
 918              		.code	16
 919              		.thumb_func
 920              		.type	CyBle_Hal_pairing_sc_tbx_local_pubkey_generate_complete, %function
 921              	CyBle_Hal_pairing_sc_tbx_local_pubkey_generate_complete:
 922              	.LFB25:
 633:Generated_Source\PSoC4/BLE_1_HAL_PVT.c **** 
 634:Generated_Source\PSoC4/BLE_1_HAL_PVT.c ****     CYBLE_API_RESULT_T CyBle_Hal_pairing_sc_tbx_local_pubkey_generate_complete(void)
 635:Generated_Source\PSoC4/BLE_1_HAL_PVT.c ****     {
 923              		.loc 1 635 0
 924              		.cfi_startproc
 636:Generated_Source\PSoC4/BLE_1_HAL_PVT.c ****         return (CYBLE_ERROR_UNSUPPORTED_FEATURE_OR_PARAMETER_VALUE);
 637:Generated_Source\PSoC4/BLE_1_HAL_PVT.c ****     }
 925              		.loc 1 637 0
 926 0000 2B20     		mov	r0, #43
 927              		@ sp needed
 928 0002 7047     		bx	lr
 929              		.cfi_endproc
 930              	.LFE25:
 931              		.size	CyBle_Hal_pairing_sc_tbx_local_pubkey_generate_complete, .-CyBle_Hal_pairing_sc_tbx_local_pu
 932              		.section	.text.CyBle_Hal_pairing_sc_tbx_generate_local_P256_public_key,"ax",%progbits
 933              		.align	2
 934              		.global	CyBle_Hal_pairing_sc_tbx_generate_local_P256_public_key
 935              		.code	16
 936              		.thumb_func
 937              		.type	CyBle_Hal_pairing_sc_tbx_generate_local_P256_public_key, %function
 938              	CyBle_Hal_pairing_sc_tbx_generate_local_P256_public_key:
 939              	.LFB26:
 638:Generated_Source\PSoC4/BLE_1_HAL_PVT.c **** 
 639:Generated_Source\PSoC4/BLE_1_HAL_PVT.c ****     CYBLE_API_RESULT_T CyBle_Hal_pairing_sc_tbx_generate_local_P256_public_key(uint8 param CYBLE_UN
 640:Generated_Source\PSoC4/BLE_1_HAL_PVT.c ****     {
 940              		.loc 1 640 0
 941              		.cfi_startproc
 942              	.LVL99:
 641:Generated_Source\PSoC4/BLE_1_HAL_PVT.c ****         return (CYBLE_ERROR_UNSUPPORTED_FEATURE_OR_PARAMETER_VALUE);
ARM GAS  C:\Users\ROUSSMA\AppData\Local\Temp\ccELMuR0.s 			page 29


 642:Generated_Source\PSoC4/BLE_1_HAL_PVT.c ****     }
 943              		.loc 1 642 0
 944 0000 2B20     		mov	r0, #43
 945              	.LVL100:
 946              		@ sp needed
 947 0002 7047     		bx	lr
 948              		.cfi_endproc
 949              	.LFE26:
 950              		.size	CyBle_Hal_pairing_sc_tbx_generate_local_P256_public_key, .-CyBle_Hal_pairing_sc_tbx_generate
 951              		.section	.text.CyBle_Hal_pairing_sc_tbx_generate_DHkey,"ax",%progbits
 952              		.align	2
 953              		.global	CyBle_Hal_pairing_sc_tbx_generate_DHkey
 954              		.code	16
 955              		.thumb_func
 956              		.type	CyBle_Hal_pairing_sc_tbx_generate_DHkey, %function
 957              	CyBle_Hal_pairing_sc_tbx_generate_DHkey:
 958              	.LFB27:
 643:Generated_Source\PSoC4/BLE_1_HAL_PVT.c **** 
 644:Generated_Source\PSoC4/BLE_1_HAL_PVT.c ****     CYBLE_API_RESULT_T CyBle_Hal_pairing_sc_tbx_generate_DHkey(void  * param1 CYBLE_UNUSED_ATTR,
 645:Generated_Source\PSoC4/BLE_1_HAL_PVT.c ****                                                                void  * param2 CYBLE_UNUSED_ATTR)
 646:Generated_Source\PSoC4/BLE_1_HAL_PVT.c ****     {
 959              		.loc 1 646 0
 960              		.cfi_startproc
 961              	.LVL101:
 647:Generated_Source\PSoC4/BLE_1_HAL_PVT.c ****         return (CYBLE_ERROR_UNSUPPORTED_FEATURE_OR_PARAMETER_VALUE);
 648:Generated_Source\PSoC4/BLE_1_HAL_PVT.c ****     }
 962              		.loc 1 648 0
 963 0000 2B20     		mov	r0, #43
 964              	.LVL102:
 965              		@ sp needed
 966 0002 7047     		bx	lr
 967              		.cfi_endproc
 968              	.LFE27:
 969              		.size	CyBle_Hal_pairing_sc_tbx_generate_DHkey, .-CyBle_Hal_pairing_sc_tbx_generate_DHkey
 970              		.section	.text.CyBle_Hal_smp_sc_cmac_complete,"ax",%progbits
 971              		.align	2
 972              		.global	CyBle_Hal_smp_sc_cmac_complete
 973              		.code	16
 974              		.thumb_func
 975              		.type	CyBle_Hal_smp_sc_cmac_complete, %function
 976              	CyBle_Hal_smp_sc_cmac_complete:
 977              	.LFB28:
 649:Generated_Source\PSoC4/BLE_1_HAL_PVT.c **** 
 650:Generated_Source\PSoC4/BLE_1_HAL_PVT.c ****     void CyBle_Hal_smp_sc_cmac_complete(void)
 651:Generated_Source\PSoC4/BLE_1_HAL_PVT.c ****     {
 978              		.loc 1 651 0
 979              		.cfi_startproc
 652:Generated_Source\PSoC4/BLE_1_HAL_PVT.c ****     }
 980              		.loc 1 652 0
 981              		@ sp needed
 982 0000 7047     		bx	lr
 983              		.cfi_endproc
 984              	.LFE28:
 985              		.size	CyBle_Hal_smp_sc_cmac_complete, .-CyBle_Hal_smp_sc_cmac_complete
 986 0002 C046     		.section	.text.CyBle_Hal_se_smp_sc_user_passkey_handler,"ax",%progbits
 987              		.align	2
 988              		.global	CyBle_Hal_se_smp_sc_user_passkey_handler
ARM GAS  C:\Users\ROUSSMA\AppData\Local\Temp\ccELMuR0.s 			page 30


 989              		.code	16
 990              		.thumb_func
 991              		.type	CyBle_Hal_se_smp_sc_user_passkey_handler, %function
 992              	CyBle_Hal_se_smp_sc_user_passkey_handler:
 993              	.LFB29:
 653:Generated_Source\PSoC4/BLE_1_HAL_PVT.c **** 
 654:Generated_Source\PSoC4/BLE_1_HAL_PVT.c ****     CYBLE_API_RESULT_T CyBle_Hal_se_smp_sc_user_passkey_handler(void  * param1 CYBLE_UNUSED_ATTR,
 655:Generated_Source\PSoC4/BLE_1_HAL_PVT.c ****                                                                 void  * param2 CYBLE_UNUSED_ATTR)
 656:Generated_Source\PSoC4/BLE_1_HAL_PVT.c ****     {
 994              		.loc 1 656 0
 995              		.cfi_startproc
 996              	.LVL103:
 657:Generated_Source\PSoC4/BLE_1_HAL_PVT.c ****         return (CYBLE_ERROR_UNSUPPORTED_FEATURE_OR_PARAMETER_VALUE);
 658:Generated_Source\PSoC4/BLE_1_HAL_PVT.c ****     }
 997              		.loc 1 658 0
 998 0000 2B20     		mov	r0, #43
 999              	.LVL104:
 1000              		@ sp needed
 1001 0002 7047     		bx	lr
 1002              		.cfi_endproc
 1003              	.LFE29:
 1004              		.size	CyBle_Hal_se_smp_sc_user_passkey_handler, .-CyBle_Hal_se_smp_sc_user_passkey_handler
 1005              		.section	.text.CyBle_Hal_EccPointMult,"ax",%progbits
 1006              		.align	2
 1007              		.global	CyBle_Hal_EccPointMult
 1008              		.code	16
 1009              		.thumb_func
 1010              		.type	CyBle_Hal_EccPointMult, %function
 1011              	CyBle_Hal_EccPointMult:
 1012              	.LFB30:
 659:Generated_Source\PSoC4/BLE_1_HAL_PVT.c **** 
 660:Generated_Source\PSoC4/BLE_1_HAL_PVT.c ****     void CyBle_Hal_EccPointMult(void)
 661:Generated_Source\PSoC4/BLE_1_HAL_PVT.c ****     {
 1013              		.loc 1 661 0
 1014              		.cfi_startproc
 662:Generated_Source\PSoC4/BLE_1_HAL_PVT.c ****     }
 1015              		.loc 1 662 0
 1016              		@ sp needed
 1017 0000 7047     		bx	lr
 1018              		.cfi_endproc
 1019              	.LFE30:
 1020              		.size	CyBle_Hal_EccPointMult, .-CyBle_Hal_EccPointMult
 1021 0002 C046     		.section	.text.BLE_CMP_FTR_API_lec_hci_handle_read_local_P256_public_key_command,"ax",%progbits
 1022              		.align	2
 1023              		.global	BLE_CMP_FTR_API_lec_hci_handle_read_local_P256_public_key_command
 1024              		.code	16
 1025              		.thumb_func
 1026              		.type	BLE_CMP_FTR_API_lec_hci_handle_read_local_P256_public_key_command, %function
 1027              	BLE_CMP_FTR_API_lec_hci_handle_read_local_P256_public_key_command:
 1028              	.LFB31:
 663:Generated_Source\PSoC4/BLE_1_HAL_PVT.c ****     
 664:Generated_Source\PSoC4/BLE_1_HAL_PVT.c **** #endif /* (CYBLE_SECURE_CONN_FEATURE_ENABLED) */
 665:Generated_Source\PSoC4/BLE_1_HAL_PVT.c **** 
 666:Generated_Source\PSoC4/BLE_1_HAL_PVT.c **** #endif /* CYBLE_MODE_PROFILE */
 667:Generated_Source\PSoC4/BLE_1_HAL_PVT.c **** 
 668:Generated_Source\PSoC4/BLE_1_HAL_PVT.c **** #if(CYBLE_SECURE_CONN_FEATURE_ENABLED)
 669:Generated_Source\PSoC4/BLE_1_HAL_PVT.c ****     
ARM GAS  C:\Users\ROUSSMA\AppData\Local\Temp\ccELMuR0.s 			page 31


 670:Generated_Source\PSoC4/BLE_1_HAL_PVT.c ****     uint16 BLE_CMP_FTR_API_lec_hci_handle_read_local_P256_public_key_command(void *param)
 671:Generated_Source\PSoC4/BLE_1_HAL_PVT.c ****     {
 672:Generated_Source\PSoC4/BLE_1_HAL_PVT.c ****         return (BLE_STK_FTR_API_lec_hci_handle_read_local_P256_public_key_command(param));
 673:Generated_Source\PSoC4/BLE_1_HAL_PVT.c ****     }
 674:Generated_Source\PSoC4/BLE_1_HAL_PVT.c ****     
 675:Generated_Source\PSoC4/BLE_1_HAL_PVT.c ****     uint16 BLE_CMP_FTR_API_lec_hci_handle_generate_DHkey_command(void *param)
 676:Generated_Source\PSoC4/BLE_1_HAL_PVT.c ****     {
 677:Generated_Source\PSoC4/BLE_1_HAL_PVT.c ****         return (BLE_STK_FTR_API_lec_hci_handle_generate_DHkey_command(param));
 678:Generated_Source\PSoC4/BLE_1_HAL_PVT.c ****     }
 679:Generated_Source\PSoC4/BLE_1_HAL_PVT.c **** 
 680:Generated_Source\PSoC4/BLE_1_HAL_PVT.c **** #else     /* If feature is not required, return error. */
 681:Generated_Source\PSoC4/BLE_1_HAL_PVT.c ****     
 682:Generated_Source\PSoC4/BLE_1_HAL_PVT.c ****     uint16 BLE_CMP_FTR_API_lec_hci_handle_read_local_P256_public_key_command(void *param CYBLE_UNUS
 683:Generated_Source\PSoC4/BLE_1_HAL_PVT.c ****     {
 1029              		.loc 1 683 0
 1030              		.cfi_startproc
 1031              	.LVL105:
 684:Generated_Source\PSoC4/BLE_1_HAL_PVT.c ****         return (CYBLE_UNKNOWN_HCI_COMMAND_ERROR);
 685:Generated_Source\PSoC4/BLE_1_HAL_PVT.c ****     }
 1032              		.loc 1 685 0
 1033 0000 0120     		mov	r0, #1
 1034              	.LVL106:
 1035              		@ sp needed
 1036 0002 7047     		bx	lr
 1037              		.cfi_endproc
 1038              	.LFE31:
 1039              		.size	BLE_CMP_FTR_API_lec_hci_handle_read_local_P256_public_key_command, .-BLE_CMP_FTR_API_lec_hci
 1040              		.section	.text.BLE_CMP_FTR_API_lec_hci_handle_generate_DHkey_command,"ax",%progbits
 1041              		.align	2
 1042              		.global	BLE_CMP_FTR_API_lec_hci_handle_generate_DHkey_command
 1043              		.code	16
 1044              		.thumb_func
 1045              		.type	BLE_CMP_FTR_API_lec_hci_handle_generate_DHkey_command, %function
 1046              	BLE_CMP_FTR_API_lec_hci_handle_generate_DHkey_command:
 1047              	.LFB32:
 686:Generated_Source\PSoC4/BLE_1_HAL_PVT.c ****     
 687:Generated_Source\PSoC4/BLE_1_HAL_PVT.c ****     uint16 BLE_CMP_FTR_API_lec_hci_handle_generate_DHkey_command(void *param CYBLE_UNUSED_ATTR)
 688:Generated_Source\PSoC4/BLE_1_HAL_PVT.c ****     {
 1048              		.loc 1 688 0
 1049              		.cfi_startproc
 1050              	.LVL107:
 689:Generated_Source\PSoC4/BLE_1_HAL_PVT.c ****         return (CYBLE_UNKNOWN_HCI_COMMAND_ERROR);
 690:Generated_Source\PSoC4/BLE_1_HAL_PVT.c ****     }
 1051              		.loc 1 690 0
 1052 0000 0120     		mov	r0, #1
 1053              	.LVL108:
 1054              		@ sp needed
 1055 0002 7047     		bx	lr
 1056              		.cfi_endproc
 1057              	.LFE32:
 1058              		.size	BLE_CMP_FTR_API_lec_hci_handle_generate_DHkey_command, .-BLE_CMP_FTR_API_lec_hci_handle_gene
 1059              		.text
 1060              	.Letext0:
 1061              		.file 2 "Generated_Source\\PSoC4\\cytypes.h"
 1062              		.file 3 "Generated_Source\\PSoC4\\BLE_1_Stack.h"
 1063              		.file 4 "Generated_Source\\PSoC4\\CyLib.h"
 1064              		.file 5 "Generated_Source\\PSoC4\\BLE_1_bless_isr.h"
ARM GAS  C:\Users\ROUSSMA\AppData\Local\Temp\ccELMuR0.s 			page 32


 1065              		.file 6 "Generated_Source\\PSoC4\\CyFlash.h"