ARM GAS  C:\Users\ROUSSMA\AppData\Local\Temp\ccfHDlx1.s 			page 1


   1              		.cpu cortex-m0
   2              		.fpu softvfp
   3              		.eabi_attribute 20, 1
   4              		.eabi_attribute 21, 1
   5              		.eabi_attribute 23, 3
   6              		.eabi_attribute 24, 1
   7              		.eabi_attribute 25, 1
   8              		.eabi_attribute 26, 1
   9              		.eabi_attribute 30, 1
  10              		.eabi_attribute 34, 0
  11              		.eabi_attribute 18, 4
  12              		.code	16
  13              		.file	"BLEProcess.c"
  14              		.text
  15              	.Ltext0:
  16              		.cfi_sections	.debug_frame
  17              		.section	.text.UpdateBadgecharacteristic,"ax",%progbits
  18              		.align	2
  19              		.global	UpdateBadgecharacteristic
  20              		.code	16
  21              		.thumb_func
  22              		.type	UpdateBadgecharacteristic, %function
  23              	UpdateBadgecharacteristic:
  24              	.LFB38:
  25              		.file 1 "BLEProcess.c"
   1:BLEProcess.c  **** /* ========================================
   2:BLEProcess.c  ****  *
   3:BLEProcess.c  ****  * Copyright YOUR COMPANY, THE YEAR
   4:BLEProcess.c  ****  * All Rights Reserved
   5:BLEProcess.c  ****  * UNPUBLISHED, LICENSED SOFTWARE.
   6:BLEProcess.c  ****  *
   7:BLEProcess.c  ****  * CONFIDENTIAL AND PROPRIETARY INFORMATION
   8:BLEProcess.c  ****  * WHICH IS THE PROPERTY OF your company.
   9:BLEProcess.c  ****  *
  10:BLEProcess.c  ****  * ========================================
  11:BLEProcess.c  **** */
  12:BLEProcess.c  **** 
  13:BLEProcess.c  **** #include "BLEProcess.h"
  14:BLEProcess.c  **** #include "lcd_ili9163.h"
  15:BLEProcess.c  **** #include <stdint.h>
  16:BLEProcess.c  **** 
  17:BLEProcess.c  **** void GeneralEventHandler(uint32 event, void * eventParam)
  18:BLEProcess.c  **** {
  19:BLEProcess.c  **** 	/* Structure to store data written by Client */
  20:BLEProcess.c  **** 	CYBLE_GATTS_WRITE_REQ_PARAM_T *wrReqParam;
  21:BLEProcess.c  **** 	
  22:BLEProcess.c  ****     /* Array to store data*/
  23:BLEProcess.c  ****     uint8 BadgeData[BADGE_DATA_LEN];
  24:BLEProcess.c  ****     uint8 AgeData[AGE_DATA_LEN];
  25:BLEProcess.c  **** 	uint8_t i;
  26:BLEProcess.c  ****     
  27:BLEProcess.c  ****     switch(event)
  28:BLEProcess.c  **** 	{
  29:BLEProcess.c  **** 	
  30:BLEProcess.c  ****         case CYBLE_EVT_STACK_ON:
  31:BLEProcess.c  **** 		/* This event is generated when BLE stack is ON */
  32:BLEProcess.c  ****         /* BLE stack is on. Start BLE advertisement */
ARM GAS  C:\Users\ROUSSMA\AppData\Local\Temp\ccfHDlx1.s 			page 2


  33:BLEProcess.c  ****         CyBle_GappStartAdvertisement(CYBLE_ADVERTISING_FAST);
  34:BLEProcess.c  **** 		break;
  35:BLEProcess.c  **** 	
  36:BLEProcess.c  ****         case CYBLE_EVT_GAP_DEVICE_DISCONNECTED:
  37:BLEProcess.c  **** 		/* This event is generated at GAP disconnection. */
  38:BLEProcess.c  ****         /* Restart advertisement */
  39:BLEProcess.c  ****         CyBle_GappStartAdvertisement(CYBLE_ADVERTISING_FAST);
  40:BLEProcess.c  **** 		break;
  41:BLEProcess.c  **** 	
  42:BLEProcess.c  ****         case CYBLE_EVT_GATTS_WRITE_REQ:
  43:BLEProcess.c  **** 		/* This event is generated when the connected Central */
  44:BLEProcess.c  **** 		/* device sends a Write request. */
  45:BLEProcess.c  **** 		/* The parameter ‘eventParam’ contains the data written */
  46:BLEProcess.c  ****         /* Extract the Write data sent by Client */
  47:BLEProcess.c  ****          wrReqParam = (CYBLE_GATTS_WRITE_REQ_PARAM_T *) eventParam;
  48:BLEProcess.c  ****         
  49:BLEProcess.c  ****         /* If the attribute handle of the characteristic written to
  50:BLEProcess.c  ****         * is equal to that of RGB_LED characteristic, then extract
  51:BLEProcess.c  ****         * the RGB LED data */
  52:BLEProcess.c  ****         
  53:BLEProcess.c  ****          if(CYBLE_BADGE_NAME_SENT_STRING_CHAR_HANDLE ==
  54:BLEProcess.c  ****          wrReqParam->handleValPair.attrHandle)
  55:BLEProcess.c  ****          {
  56:BLEProcess.c  **** 
  57:BLEProcess.c  ****             
  58:BLEProcess.c  ****             /* Store Badge data in local array */
  59:BLEProcess.c  ****             for(i = 0; i < 13; i++)
  60:BLEProcess.c  ****             {
  61:BLEProcess.c  ****                 
  62:BLEProcess.c  **** 
  63:BLEProcess.c  ****                     BadgeData[i] =
  64:BLEProcess.c  ****                     wrReqParam->handleValPair.value.val[i];
  65:BLEProcess.c  **** 
  66:BLEProcess.c  ****             }
  67:BLEProcess.c  ****             
  68:BLEProcess.c  **** 
  69:BLEProcess.c  ****             /* Update the PrISM component density value to represent color */
  70:BLEProcess.c  ****              lcd_displayString(0,0,BadgeData, RED, BLACK);
  71:BLEProcess.c  ****             /* Update the GATT DB for RGB LED read characteristics*/
  72:BLEProcess.c  ****             UpdateBadgecharacteristic(BadgeData,
  73:BLEProcess.c  ****                                       sizeof(BadgeData),
  74:BLEProcess.c  ****                                       CYBLE_BADGE_NAME_SENT_STRING_CHAR_HANDLE);
  75:BLEProcess.c  ****          }
  76:BLEProcess.c  ****         
  77:BLEProcess.c  ****         if(CYBLE_BADGE_NAME_AGE_STRING_CHAR_HANDLE ==
  78:BLEProcess.c  ****          wrReqParam->handleValPair.attrHandle)
  79:BLEProcess.c  ****          {
  80:BLEProcess.c  ****             /* Store Badge data in local array */
  81:BLEProcess.c  ****              for(i = 0; i < 2; i++)
  82:BLEProcess.c  ****             {
  83:BLEProcess.c  ****                 AgeData[i] =
  84:BLEProcess.c  ****                 wrReqParam->handleValPair.value.val[i];
  85:BLEProcess.c  ****             }
  86:BLEProcess.c  **** 
  87:BLEProcess.c  ****             /* Update the PrISM component density value to represent color */
  88:BLEProcess.c  ****              lcd_displayString(0,16,AgeData, BLUE, BLACK);
  89:BLEProcess.c  ****             /* Update the GATT DB for RGB LED read characteristics*/
ARM GAS  C:\Users\ROUSSMA\AppData\Local\Temp\ccfHDlx1.s 			page 3


  90:BLEProcess.c  ****             UpdateBadgecharacteristic(AgeData,
  91:BLEProcess.c  ****                                       sizeof(AgeData),
  92:BLEProcess.c  ****                                       CYBLE_BADGE_NAME_AGE_STRING_CHAR_HANDLE);
  93:BLEProcess.c  ****          }
  94:BLEProcess.c  ****         
  95:BLEProcess.c  ****         
  96:BLEProcess.c  ****         /* Send the response to the write request received. */
  97:BLEProcess.c  ****         CyBle_GattsWriteRsp(cyBle_connHandle);
  98:BLEProcess.c  **** 		break;
  99:BLEProcess.c  **** 
 100:BLEProcess.c  **** 	default:
 101:BLEProcess.c  **** 		break;
 102:BLEProcess.c  **** 	}
 103:BLEProcess.c  **** }
 104:BLEProcess.c  **** 
 105:BLEProcess.c  **** /*******************************************************************************
 106:BLEProcess.c  **** * Function Name: UpdateBadgeCharacteristic
 107:BLEProcess.c  **** ********************************************************************************
 108:BLEProcess.c  **** * Summary:
 109:BLEProcess.c  **** *        Update the GATT DB with new RGB Color received to allow Client to read 
 110:BLEProcess.c  **** * back updated color values.
 111:BLEProcess.c  **** *
 112:BLEProcess.c  **** * Parameters:
 113:BLEProcess.c  **** *  ledData:		array pointer where color value is stored
 114:BLEProcess.c  **** *  len: 		length of the array
 115:BLEProcess.c  **** *  attrHandle:	attribute handle of the characteristic
 116:BLEProcess.c  **** *
 117:BLEProcess.c  **** * Return:
 118:BLEProcess.c  **** *  void
 119:BLEProcess.c  **** *
 120:BLEProcess.c  **** *******************************************************************************/
 121:BLEProcess.c  **** void  UpdateBadgecharacteristic(uint8* BadgeData, uint8 len, uint16 attrHandle)
 122:BLEProcess.c  **** {
  26              		.loc 1 122 0
  27              		.cfi_startproc
  28              	.LVL0:
  29 0000 00B5     		push	{lr}
  30              		.cfi_def_cfa_offset 4
  31              		.cfi_offset 14, -4
  32 0002 85B0     		sub	sp, sp, #20
  33              		.cfi_def_cfa_offset 24
 123:BLEProcess.c  **** 	/* 'rgbHandle' stores RGB control data parameters */
 124:BLEProcess.c  **** 	CYBLE_GATT_HANDLE_VALUE_PAIR_T		BadgeHandle;
 125:BLEProcess.c  **** 
 126:BLEProcess.c  **** 	/* Update RGB control handle with new values */
 127:BLEProcess.c  **** 	BadgeHandle.attrHandle = attrHandle;
  34              		.loc 1 127 0
  35 0004 01AB     		add	r3, sp, #4
  36 0006 1A81     		strh	r2, [r3, #8]
 128:BLEProcess.c  **** 	BadgeHandle.value.val = BadgeData;
  37              		.loc 1 128 0
  38 0008 0190     		str	r0, [sp, #4]
 129:BLEProcess.c  **** 	BadgeHandle.value.len = len;
  39              		.loc 1 129 0
  40 000a 9980     		strh	r1, [r3, #4]
 130:BLEProcess.c  **** 	
 131:BLEProcess.c  **** 	/* Update the RGB LED attribute value. This will allow 
ARM GAS  C:\Users\ROUSSMA\AppData\Local\Temp\ccfHDlx1.s 			page 4


 132:BLEProcess.c  **** 	* Client device to read the existing color values over 
 133:BLEProcess.c  **** 	* RGB LED characteristic */
 134:BLEProcess.c  **** 	CyBle_GattsWriteAttributeValue(& BadgeHandle, 
  41              		.loc 1 134 0
  42 000c 181C     		mov	r0, r3
  43              	.LVL1:
  44 000e 0021     		mov	r1, #0
  45              	.LVL2:
  46 0010 024A     		ldr	r2, .L2
  47              	.LVL3:
  48 0012 4023     		mov	r3, #64
  49 0014 FFF7FEFF 		bl	CyBle_GattsWriteAttributeValue
  50              	.LVL4:
 135:BLEProcess.c  **** 									0, 
 136:BLEProcess.c  **** 									&cyBle_connHandle, 
 137:BLEProcess.c  **** 									CYBLE_GATT_DB_PEER_INITIATED);
 138:BLEProcess.c  **** }
  51              		.loc 1 138 0
  52 0018 05B0     		add	sp, sp, #20
  53              		@ sp needed
  54 001a 00BD     		pop	{pc}
  55              	.L3:
  56              		.align	2
  57              	.L2:
  58 001c 00000000 		.word	cyBle_connHandle
  59              		.cfi_endproc
  60              	.LFE38:
  61              		.size	UpdateBadgecharacteristic, .-UpdateBadgecharacteristic
  62              		.section	.text.GeneralEventHandler,"ax",%progbits
  63              		.align	2
  64              		.global	GeneralEventHandler
  65              		.code	16
  66              		.thumb_func
  67              		.type	GeneralEventHandler, %function
  68              	GeneralEventHandler:
  69              	.LFB37:
  18:BLEProcess.c  **** 	/* Structure to store data written by Client */
  70              		.loc 1 18 0
  71              		.cfi_startproc
  72              	.LVL5:
  73 0000 10B5     		push	{r4, lr}
  74              		.cfi_def_cfa_offset 8
  75              		.cfi_offset 4, -8
  76              		.cfi_offset 14, -4
  77 0002 88B0     		sub	sp, sp, #32
  78              		.cfi_def_cfa_offset 40
  79 0004 0C1C     		mov	r4, r1
  27:BLEProcess.c  **** 	{
  80              		.loc 1 27 0
  81 0006 2828     		cmp	r0, #40
  82 0008 07D0     		beq	.L6
  83 000a 4C28     		cmp	r0, #76
  84 000c 09D0     		beq	.L7
  85 000e 0128     		cmp	r0, #1
  86 0010 45D1     		bne	.L4
  33:BLEProcess.c  **** 		break;
  87              		.loc 1 33 0
ARM GAS  C:\Users\ROUSSMA\AppData\Local\Temp\ccfHDlx1.s 			page 5


  88 0012 0020     		mov	r0, #0
  89              	.LVL6:
  90 0014 FFF7FEFF 		bl	CyBle_GappStartAdvertisement
  91              	.LVL7:
  34:BLEProcess.c  **** 	
  92              		.loc 1 34 0
  93 0018 41E0     		b	.L4
  94              	.LVL8:
  95              	.L6:
  39:BLEProcess.c  **** 		break;
  96              		.loc 1 39 0
  97 001a 0020     		mov	r0, #0
  98              	.LVL9:
  99 001c FFF7FEFF 		bl	CyBle_GappStartAdvertisement
 100              	.LVL10:
  40:BLEProcess.c  **** 	
 101              		.loc 1 40 0
 102 0020 3DE0     		b	.L4
 103              	.LVL11:
 104              	.L7:
  54:BLEProcess.c  ****          {
 105              		.loc 1 54 0
 106 0022 8B89     		ldrh	r3, [r1, #12]
  53:BLEProcess.c  ****          wrReqParam->handleValPair.attrHandle)
 107              		.loc 1 53 0
 108 0024 122B     		cmp	r3, #18
 109 0026 18D1     		bne	.L10
 110 0028 06E0     		b	.L15
 111              	.LVL12:
 112              	.L11:
  64:BLEProcess.c  **** 
 113              		.loc 1 64 0 discriminator 3
 114 002a 6268     		ldr	r2, [r4, #4]
 115 002c D15C     		ldrb	r1, [r2, r3]
  63:BLEProcess.c  ****                     wrReqParam->handleValPair.value.val[i];
 116              		.loc 1 63 0 discriminator 3
 117 002e 04AA     		add	r2, sp, #16
 118 0030 D154     		strb	r1, [r2, r3]
  59:BLEProcess.c  ****             {
 119              		.loc 1 59 0 discriminator 3
 120 0032 0133     		add	r3, r3, #1
 121              	.LVL13:
 122 0034 DBB2     		uxtb	r3, r3
 123              	.LVL14:
 124 0036 00E0     		b	.L9
 125              	.LVL15:
 126              	.L15:
 127 0038 0023     		mov	r3, #0
 128              	.LVL16:
 129              	.L9:
  59:BLEProcess.c  ****             {
 130              		.loc 1 59 0 is_stmt 0 discriminator 1
 131 003a 0C2B     		cmp	r3, #12
 132 003c F5D9     		bls	.L11
  70:BLEProcess.c  ****             /* Update the GATT DB for RGB LED read characteristics*/
 133              		.loc 1 70 0 is_stmt 1
 134 003e 0023     		mov	r3, #0
ARM GAS  C:\Users\ROUSSMA\AppData\Local\Temp\ccfHDlx1.s 			page 6


 135              	.LVL17:
 136 0040 0093     		str	r3, [sp]
 137 0042 0020     		mov	r0, #0
 138              	.LVL18:
 139 0044 0021     		mov	r1, #0
 140 0046 04AA     		add	r2, sp, #16
 141 0048 F823     		mov	r3, #248
 142 004a 1B02     		lsl	r3, r3, #8
 143 004c FFF7FEFF 		bl	lcd_displayString
 144              	.LVL19:
  72:BLEProcess.c  ****                                       sizeof(BadgeData),
 145              		.loc 1 72 0
 146 0050 04A8     		add	r0, sp, #16
 147 0052 0D21     		mov	r1, #13
 148 0054 1222     		mov	r2, #18
 149 0056 FFF7FEFF 		bl	UpdateBadgecharacteristic
 150              	.LVL20:
 151              	.L10:
  78:BLEProcess.c  ****          {
 152              		.loc 1 78 0
 153 005a A389     		ldrh	r3, [r4, #12]
  77:BLEProcess.c  ****          wrReqParam->handleValPair.attrHandle)
 154              		.loc 1 77 0
 155 005c 152B     		cmp	r3, #21
 156 005e 17D1     		bne	.L13
 157 0060 06E0     		b	.L16
 158              	.LVL21:
 159              	.L14:
  84:BLEProcess.c  ****             }
 160              		.loc 1 84 0 discriminator 3
 161 0062 6268     		ldr	r2, [r4, #4]
 162 0064 D15C     		ldrb	r1, [r2, r3]
  83:BLEProcess.c  ****                 wrReqParam->handleValPair.value.val[i];
 163              		.loc 1 83 0 discriminator 3
 164 0066 03AA     		add	r2, sp, #12
 165 0068 D154     		strb	r1, [r2, r3]
  81:BLEProcess.c  ****             {
 166              		.loc 1 81 0 discriminator 3
 167 006a 0133     		add	r3, r3, #1
 168              	.LVL22:
 169 006c DBB2     		uxtb	r3, r3
 170              	.LVL23:
 171 006e 00E0     		b	.L12
 172              	.LVL24:
 173              	.L16:
 174 0070 0023     		mov	r3, #0
 175              	.L12:
 176              	.LVL25:
  81:BLEProcess.c  ****             {
 177              		.loc 1 81 0 is_stmt 0 discriminator 1
 178 0072 012B     		cmp	r3, #1
 179 0074 F5D9     		bls	.L14
  88:BLEProcess.c  ****             /* Update the GATT DB for RGB LED read characteristics*/
 180              		.loc 1 88 0 is_stmt 1
 181 0076 0023     		mov	r3, #0
 182              	.LVL26:
 183 0078 0093     		str	r3, [sp]
ARM GAS  C:\Users\ROUSSMA\AppData\Local\Temp\ccfHDlx1.s 			page 7


 184 007a 0020     		mov	r0, #0
 185 007c 1021     		mov	r1, #16
 186 007e 03AA     		add	r2, sp, #12
 187 0080 1F33     		add	r3, r3, #31
 188 0082 FFF7FEFF 		bl	lcd_displayString
 189              	.LVL27:
  90:BLEProcess.c  ****                                       sizeof(AgeData),
 190              		.loc 1 90 0
 191 0086 03A8     		add	r0, sp, #12
 192 0088 0221     		mov	r1, #2
 193 008a 1522     		mov	r2, #21
 194 008c FFF7FEFF 		bl	UpdateBadgecharacteristic
 195              	.LVL28:
 196              	.L13:
  97:BLEProcess.c  **** 		break;
 197              		.loc 1 97 0
 198 0090 044A     		ldr	r2, .L17
 199 0092 1378     		ldrb	r3, [r2]
 200 0094 5078     		ldrb	r0, [r2, #1]
 201 0096 0002     		lsl	r0, r0, #8
 202 0098 1843     		orr	r0, r3
 203 009a FFF7FEFF 		bl	CyBle_GattsWriteRsp
 204              	.LVL29:
 205              	.L4:
 103:BLEProcess.c  **** 
 206              		.loc 1 103 0
 207 009e 08B0     		add	sp, sp, #32
 208              		@ sp needed
 209              	.LVL30:
 210 00a0 10BD     		pop	{r4, pc}
 211              	.L18:
 212 00a2 C046     		.align	2
 213              	.L17:
 214 00a4 00000000 		.word	cyBle_connHandle
 215              		.cfi_endproc
 216              	.LFE37:
 217              		.size	GeneralEventHandler, .-GeneralEventHandler
 218              		.text
 219              	.Letext0:
 220              		.file 2 "c:\\program files (x86)\\cypress\\psoc creator\\4.0\\psoc creator\\import\\gnu\\arm\\4.9.
 221              		.file 3 "c:\\program files (x86)\\cypress\\psoc creator\\4.0\\psoc creator\\import\\gnu\\arm\\4.9.
 222              		.file 4 "Generated_Source\\PSoC4/cytypes.h"
 223              		.file 5 "Generated_Source\\PSoC4/BLE_1_Stack.h"
 224              		.file 6 "Generated_Source\\PSoC4/BLE_1_StackGatt.h"
 225              		.file 7 "Generated_Source\\PSoC4/BLE_1_StackGattServer.h"
 226              		.file 8 "8X16.h"
 227              		.file 9 "Generated_Source\\PSoC4/BLE_1_StackGattDb.h"
 228              		.file 10 "Generated_Source\\PSoC4/BLE_1.h"
 229              		.file 11 "lcd_ili9163.h"
 230              		.file 12 "Generated_Source\\PSoC4/BLE_1_eventHandler.h"