ARM GAS  C:\Users\ROUSSMA\AppData\Local\Temp\ccMuthyh.s 			page 1


   1              		.cpu cortex-m0
   2              		.fpu softvfp
   3              		.eabi_attribute 20, 1
   4              		.eabi_attribute 21, 1
   5              		.eabi_attribute 23, 3
   6              		.eabi_attribute 24, 1
   7              		.eabi_attribute 25, 1
   8              		.eabi_attribute 26, 1
   9              		.eabi_attribute 30, 1
  10              		.eabi_attribute 34, 0
  11              		.eabi_attribute 18, 4
  12              		.code	16
  13              		.file	"oled_ssd1331.c"
  14              		.text
  15              	.Ltext0:
  16              		.cfi_sections	.debug_frame
  17              		.section	.text._pow,"ax",%progbits
  18              		.align	2
  19              		.code	16
  20              		.thumb_func
  21              		.type	_pow, %function
  22              	_pow:
  23              	.LFB50:
  24              		.file 1 "oled_ssd1331.c"
   1:oled_ssd1331.c **** /* ========================================
   2:oled_ssd1331.c ****  *
   3:oled_ssd1331.c ****  * Copyright YOUR COMPANY, THE YEAR
   4:oled_ssd1331.c ****  * All Rights Reserved
   5:oled_ssd1331.c ****  * UNPUBLISHED, LICENSED SOFTWARE.
   6:oled_ssd1331.c ****  *
   7:oled_ssd1331.c ****  * CONFIDENTIAL AND PROPRIETARY INFORMATION
   8:oled_ssd1331.c ****  * WHICH IS THE PROPERTY OF your company.
   9:oled_ssd1331.c ****  *
  10:oled_ssd1331.c ****  * ========================================
  11:oled_ssd1331.c **** */
  12:oled_ssd1331.c **** 
  13:oled_ssd1331.c **** /* Includes ------------------------------------------------------------------*/
  14:oled_ssd1331.c **** #include "oled_ssd1331.h"
  15:oled_ssd1331.c **** #include "fonts.h"
  16:oled_ssd1331.c **** #include "project.h"
  17:oled_ssd1331.c **** 
  18:oled_ssd1331.c **** 
  19:oled_ssd1331.c **** /* Private typedef -----------------------------------------------------------*/
  20:oled_ssd1331.c **** /* Private define ------------------------------------------------------------*/
  21:oled_ssd1331.c **** #define SSD1331_CMD                     0
  22:oled_ssd1331.c **** #define SSD1331_DATA                    1
  23:oled_ssd1331.c ****                  
  24:oled_ssd1331.c **** #define OLED_WIDTH                      96
  25:oled_ssd1331.c **** #define OLED_HEIGHT                     64
  26:oled_ssd1331.c **** 
  27:oled_ssd1331.c **** /* Private macro -------------------------------------------------------------*/
  28:oled_ssd1331.c **** #define DRAW_LINE                       0x21
  29:oled_ssd1331.c **** #define DRAW_RECTANGLE                  0x22
  30:oled_ssd1331.c **** #define COPY_WINDOW                     0x23
  31:oled_ssd1331.c **** #define DIM_WINDOW                      0x24
  32:oled_ssd1331.c **** #define CLEAR_WINDOW                    0x25
  33:oled_ssd1331.c **** #define FILL_WINDOW                     0x26
ARM GAS  C:\Users\ROUSSMA\AppData\Local\Temp\ccMuthyh.s 			page 2


  34:oled_ssd1331.c **** #define DISABLE_FILL                    0x00
  35:oled_ssd1331.c **** #define ENABLE_FILL                     0x01
  36:oled_ssd1331.c **** #define CONTINUOUS_SCROLLING_SETUP      0x27
  37:oled_ssd1331.c **** #define DEACTIVE_SCROLLING              0x2E
  38:oled_ssd1331.c **** #define ACTIVE_SCROLLING                0x2F
  39:oled_ssd1331.c **** 
  40:oled_ssd1331.c **** #define SET_COLUMN_ADDRESS              0x15
  41:oled_ssd1331.c **** #define SET_ROW_ADDRESS                 0x75
  42:oled_ssd1331.c **** #define SET_CONTRAST_A                  0x81
  43:oled_ssd1331.c **** #define SET_CONTRAST_B                  0x82
  44:oled_ssd1331.c **** #define SET_CONTRAST_C                  0x83
  45:oled_ssd1331.c **** #define MASTER_CURRENT_CONTROL          0x87
  46:oled_ssd1331.c **** #define SET_PRECHARGE_SPEED_A           0x8A
  47:oled_ssd1331.c **** #define SET_PRECHARGE_SPEED_B           0x8B
  48:oled_ssd1331.c **** #define SET_PRECHARGE_SPEED_C           0x8C
  49:oled_ssd1331.c **** #define SET_REMAP                       0xA0
  50:oled_ssd1331.c **** #define SET_DISPLAY_START_LINE          0xA1
  51:oled_ssd1331.c **** #define SET_DISPLAY_OFFSET              0xA2
  52:oled_ssd1331.c **** #define NORMAL_DISPLAY                  0xA4
  53:oled_ssd1331.c **** #define ENTIRE_DISPLAY_ON               0xA5
  54:oled_ssd1331.c **** #define ENTIRE_DISPLAY_OFF              0xA6
  55:oled_ssd1331.c **** #define INVERSE_DISPLAY                 0xA7
  56:oled_ssd1331.c **** #define SET_MULTIPLEX_RATIO             0xA8
  57:oled_ssd1331.c **** #define DIM_MODE_SETTING                0xAB
  58:oled_ssd1331.c **** #define SET_MASTER_CONFIGURE            0xAD
  59:oled_ssd1331.c **** #define DIM_MODE_DISPLAY_ON             0xAC
  60:oled_ssd1331.c **** #define DISPLAY_OFF                     0xAE
  61:oled_ssd1331.c **** #define NORMAL_BRIGHTNESS_DISPLAY_ON    0xAF
  62:oled_ssd1331.c **** #define POWER_SAVE_MODE                 0xB0
  63:oled_ssd1331.c **** #define PHASE_PERIOD_ADJUSTMENT         0xB1
  64:oled_ssd1331.c **** #define DISPLAY_CLOCK_DIV               0xB3
  65:oled_ssd1331.c **** #define SET_GRAy_SCALE_TABLE            0xB8
  66:oled_ssd1331.c **** #define ENABLE_LINEAR_GRAY_SCALE_TABLE  0xB9
  67:oled_ssd1331.c **** #define SET_PRECHARGE_VOLTAGE           0xBB
  68:oled_ssd1331.c **** #define SET_V_VOLTAGE                   0xBE
  69:oled_ssd1331.c **** 
  70:oled_ssd1331.c **** 
  71:oled_ssd1331.c **** #define MAX(a,b)  (((a) > (b)) ? (a) : (b))
  72:oled_ssd1331.c **** #define MIN(a,b)  (((a) < (b)) ? (a) : (b))
  73:oled_ssd1331.c **** 
  74:oled_ssd1331.c **** 
  75:oled_ssd1331.c **** 
  76:oled_ssd1331.c **** /**
  77:oled_ssd1331.c ****    * @brief  Writes an byte to the display data ram or the command register
  78:oled_ssd1331.c ****    *		 
  79:oled_ssd1331.c ****    * @param  chData: Data to be writen to the display data ram or the command register
  80:oled_ssd1331.c ****    * @param chCmd:	
  81:oled_ssd1331.c ****    *						   0: Writes to the command register
  82:oled_ssd1331.c ****    *						   1: Writes to the display data ram
  83:oled_ssd1331.c ****    * @retval None
  84:oled_ssd1331.c ****  **/
  85:oled_ssd1331.c **** static void ssd1331_write_byte(uint8_t chData, uint8_t chCmd) 
  86:oled_ssd1331.c **** {
  87:oled_ssd1331.c **** 
  88:oled_ssd1331.c ****     
  89:oled_ssd1331.c **** 	if (chCmd) 
  90:oled_ssd1331.c ****     {
ARM GAS  C:\Users\ROUSSMA\AppData\Local\Temp\ccMuthyh.s 			page 3


  91:oled_ssd1331.c ****         OLED_DC_Write(SSD1331_DATA);
  92:oled_ssd1331.c **** 	} 
  93:oled_ssd1331.c ****     else 
  94:oled_ssd1331.c ****     {
  95:oled_ssd1331.c **** 	 	OLED_DC_Write(SSD1331_CMD);
  96:oled_ssd1331.c **** 	}
  97:oled_ssd1331.c ****         
  98:oled_ssd1331.c ****     /* Set Slave Select Low & Transmit Data */
  99:oled_ssd1331.c ****     SPI_Master_SpiUartWriteTxData(chData);
 100:oled_ssd1331.c ****         
 101:oled_ssd1331.c ****     /* Wait for the end of the transfer. The number of transmitted data
 102:oled_ssd1331.c ****     * elements has to be equal to the number of received data elements.
 103:oled_ssd1331.c ****     */
 104:oled_ssd1331.c ****     while(1 != SPI_Master_SpiUartGetRxBufferSize())
 105:oled_ssd1331.c ****     {
 106:oled_ssd1331.c ****         /* Wait */
 107:oled_ssd1331.c ****     }
 108:oled_ssd1331.c **** 
 109:oled_ssd1331.c ****     /* Clear dummy bytes from RX buffer */
 110:oled_ssd1331.c ****     SPI_Master_SpiUartClearRxBuffer();
 111:oled_ssd1331.c ****     
 112:oled_ssd1331.c ****     /* Set Data/Command High */
 113:oled_ssd1331.c ****     //OLED_DC_Write(SSD1331_DATA);
 114:oled_ssd1331.c **** }
 115:oled_ssd1331.c **** 
 116:oled_ssd1331.c **** void ssd1331_draw_point(uint8_t chXpos, uint8_t chYpos, uint16_t hwColor) 
 117:oled_ssd1331.c **** {
 118:oled_ssd1331.c **** 	if (chXpos >= OLED_WIDTH || chYpos >= OLED_HEIGHT) {
 119:oled_ssd1331.c **** 		return;
 120:oled_ssd1331.c **** 	}
 121:oled_ssd1331.c **** 
 122:oled_ssd1331.c ****     //set column point
 123:oled_ssd1331.c ****     ssd1331_write_byte(SET_COLUMN_ADDRESS, SSD1331_CMD);
 124:oled_ssd1331.c ****     ssd1331_write_byte(chXpos, SSD1331_CMD);
 125:oled_ssd1331.c ****     ssd1331_write_byte(OLED_WIDTH - 1, SSD1331_CMD);
 126:oled_ssd1331.c ****     //set row point
 127:oled_ssd1331.c ****     ssd1331_write_byte(SET_ROW_ADDRESS, SSD1331_CMD);
 128:oled_ssd1331.c ****     ssd1331_write_byte(chYpos, SSD1331_CMD);
 129:oled_ssd1331.c ****     ssd1331_write_byte(OLED_HEIGHT - 1, SSD1331_CMD);
 130:oled_ssd1331.c ****     
 131:oled_ssd1331.c ****     //fill 16bit colour
 132:oled_ssd1331.c **** 	ssd1331_write_byte(hwColor >> 8, SSD1331_DATA);
 133:oled_ssd1331.c **** 	ssd1331_write_byte(hwColor, SSD1331_DATA);   
 134:oled_ssd1331.c **** }
 135:oled_ssd1331.c **** 
 136:oled_ssd1331.c **** void ssd1331_draw_line(uint8_t chXpos0, uint8_t chYpos0, uint8_t chXpos1, uint8_t chYpos1, uint16_t
 137:oled_ssd1331.c **** {
 138:oled_ssd1331.c **** 	int x = chXpos1 - chXpos0;
 139:oled_ssd1331.c ****     int y = chYpos1 - chYpos0;
 140:oled_ssd1331.c ****     int dx = abs(x), sx = chXpos0 < chXpos1 ? 1 : -1;
 141:oled_ssd1331.c ****     int dy = -abs(y), sy = chYpos0 < chYpos1 ? 1 : -1;
 142:oled_ssd1331.c ****     int err = dx + dy, e2;
 143:oled_ssd1331.c **** 
 144:oled_ssd1331.c **** 	if (chXpos0 >= OLED_WIDTH || chYpos0 >= OLED_HEIGHT || chXpos1 >= OLED_WIDTH || chYpos1 >= OLED_HE
 145:oled_ssd1331.c **** 		return;
 146:oled_ssd1331.c **** 	}
 147:oled_ssd1331.c ****     
ARM GAS  C:\Users\ROUSSMA\AppData\Local\Temp\ccMuthyh.s 			page 4


 148:oled_ssd1331.c ****     for (;;){
 149:oled_ssd1331.c ****         ssd1331_draw_point(chXpos0, chYpos0 , hwColor);
 150:oled_ssd1331.c ****         e2 = 2 * err;
 151:oled_ssd1331.c ****         if (e2 >= dy) {     
 152:oled_ssd1331.c ****             if (chXpos0 == chXpos1) break;
 153:oled_ssd1331.c ****             err += dy; chXpos0 += sx;
 154:oled_ssd1331.c ****         }
 155:oled_ssd1331.c ****         if (e2 <= dx) {
 156:oled_ssd1331.c ****             if (chYpos0 == chYpos1) break;
 157:oled_ssd1331.c ****             err += dx; chYpos0 += sy;
 158:oled_ssd1331.c ****         }
 159:oled_ssd1331.c ****     }
 160:oled_ssd1331.c **** }
 161:oled_ssd1331.c **** 
 162:oled_ssd1331.c **** void ssd1331_draw_v_line(uint8_t chXpos, uint8_t chYpos, uint8_t chHeight, uint16_t hwColor)
 163:oled_ssd1331.c **** {	
 164:oled_ssd1331.c **** 	uint16_t i, y1 = MIN(chYpos + chHeight, OLED_HEIGHT - 1);
 165:oled_ssd1331.c **** 
 166:oled_ssd1331.c **** 	if (chXpos >= OLED_WIDTH || chYpos >= OLED_HEIGHT) {
 167:oled_ssd1331.c **** 		return;
 168:oled_ssd1331.c **** 	}
 169:oled_ssd1331.c **** 	
 170:oled_ssd1331.c ****     for (i = chYpos; i < y1; i ++) {
 171:oled_ssd1331.c ****         ssd1331_draw_point(chXpos, i, hwColor);
 172:oled_ssd1331.c ****     }
 173:oled_ssd1331.c **** }
 174:oled_ssd1331.c **** 
 175:oled_ssd1331.c **** void ssd1331_draw_h_line(uint8_t chXpos, uint8_t chYpos, uint8_t chWidth, uint16_t hwColor)
 176:oled_ssd1331.c **** {	
 177:oled_ssd1331.c **** 	uint16_t i, x1 = MIN(chXpos + chWidth, OLED_WIDTH- 1);
 178:oled_ssd1331.c **** 
 179:oled_ssd1331.c **** 	if (chXpos >= OLED_WIDTH || chYpos >= OLED_HEIGHT) {
 180:oled_ssd1331.c **** 		return;
 181:oled_ssd1331.c **** 	}
 182:oled_ssd1331.c **** 	
 183:oled_ssd1331.c ****     for (i = chXpos; i < x1; i ++) {
 184:oled_ssd1331.c ****         ssd1331_draw_point(i, chYpos, hwColor);
 185:oled_ssd1331.c ****     }
 186:oled_ssd1331.c **** }
 187:oled_ssd1331.c **** 
 188:oled_ssd1331.c **** void ssd1331_draw_rect(uint8_t chXpos, uint8_t chYpos, uint8_t chWidth, uint8_t chHeight, uint16_t 
 189:oled_ssd1331.c **** {
 190:oled_ssd1331.c **** 	if (chXpos >= OLED_WIDTH || chYpos >= OLED_HEIGHT) {
 191:oled_ssd1331.c **** 		return;
 192:oled_ssd1331.c **** 	}
 193:oled_ssd1331.c **** 
 194:oled_ssd1331.c **** 	ssd1331_draw_h_line(chXpos, chYpos, chWidth, hwColor);
 195:oled_ssd1331.c **** 	ssd1331_draw_h_line(chXpos, chYpos + chHeight, chWidth, hwColor);
 196:oled_ssd1331.c **** 	ssd1331_draw_v_line(chXpos, chYpos, chHeight, hwColor);
 197:oled_ssd1331.c **** 	ssd1331_draw_v_line(chXpos + chWidth, chYpos, chHeight + 1, hwColor);
 198:oled_ssd1331.c **** }
 199:oled_ssd1331.c **** 
 200:oled_ssd1331.c **** void ssd1331_fill_rect(uint8_t chXpos, uint8_t chYpos, uint8_t chWidth, uint8_t chHeight, uint16_t 
 201:oled_ssd1331.c **** {
 202:oled_ssd1331.c **** 	uint16_t i, j;
 203:oled_ssd1331.c **** 
 204:oled_ssd1331.c **** 	if (chXpos >= OLED_WIDTH || chYpos >= OLED_HEIGHT) {
ARM GAS  C:\Users\ROUSSMA\AppData\Local\Temp\ccMuthyh.s 			page 5


 205:oled_ssd1331.c **** 		return;
 206:oled_ssd1331.c **** 	}
 207:oled_ssd1331.c **** 	
 208:oled_ssd1331.c **** 	for(i = 0; i < chHeight; i ++){
 209:oled_ssd1331.c **** 		for(j = 0; j < chWidth; j ++){
 210:oled_ssd1331.c **** 			ssd1331_draw_point(chXpos + j, chYpos + i, hwColor);
 211:oled_ssd1331.c **** 		}
 212:oled_ssd1331.c **** 	}
 213:oled_ssd1331.c **** }
 214:oled_ssd1331.c **** 
 215:oled_ssd1331.c **** void ssd1331_draw_circle(uint8_t chXpos, uint8_t chYpos, uint8_t chRadius, uint16_t hwColor)
 216:oled_ssd1331.c **** {
 217:oled_ssd1331.c **** 	int x = -chRadius, y = 0, err = 2 - 2 * chRadius, e2;
 218:oled_ssd1331.c **** 
 219:oled_ssd1331.c **** 	if (chXpos >= OLED_WIDTH || chYpos >= OLED_HEIGHT) {
 220:oled_ssd1331.c **** 		return;
 221:oled_ssd1331.c **** 	}
 222:oled_ssd1331.c **** 	
 223:oled_ssd1331.c ****     do {
 224:oled_ssd1331.c ****         ssd1331_draw_point(chXpos - x, chYpos + y, hwColor);
 225:oled_ssd1331.c ****         ssd1331_draw_point(chXpos + x, chYpos + y, hwColor);
 226:oled_ssd1331.c ****         ssd1331_draw_point(chXpos + x, chYpos - y, hwColor);
 227:oled_ssd1331.c ****         ssd1331_draw_point(chXpos - x, chYpos - y, hwColor);
 228:oled_ssd1331.c ****         e2 = err;
 229:oled_ssd1331.c ****         if (e2 <= y) {
 230:oled_ssd1331.c ****             err += ++ y * 2 + 1;
 231:oled_ssd1331.c ****             if(-x == y && e2 <= x) e2 = 0;
 232:oled_ssd1331.c ****         }
 233:oled_ssd1331.c ****         if(e2 > x) err += ++ x * 2 + 1;
 234:oled_ssd1331.c ****     } while(x <= 0);
 235:oled_ssd1331.c **** }
 236:oled_ssd1331.c **** 
 237:oled_ssd1331.c **** void ssd1331_clear_screen(uint16_t hwColor)  
 238:oled_ssd1331.c **** {
 239:oled_ssd1331.c **** 	uint16_t i, j;
 240:oled_ssd1331.c **** 	
 241:oled_ssd1331.c **** 	for(i = 0; i < OLED_HEIGHT; i ++)
 242:oled_ssd1331.c ****     {
 243:oled_ssd1331.c **** 		for(j = 0; j < OLED_WIDTH; j ++)
 244:oled_ssd1331.c ****         {
 245:oled_ssd1331.c **** 			ssd1331_draw_point(j, i, hwColor);
 246:oled_ssd1331.c **** 		}
 247:oled_ssd1331.c **** 	}
 248:oled_ssd1331.c **** }
 249:oled_ssd1331.c **** 
 250:oled_ssd1331.c **** /**
 251:oled_ssd1331.c ****   * @brief Displays one character at the specified position    
 252:oled_ssd1331.c ****   *         
 253:oled_ssd1331.c ****   * @param  chXpos: Specifies the X position
 254:oled_ssd1331.c ****   * @param  chYpos: Specifies the Y position
 255:oled_ssd1331.c ****   * @param  chSize: 
 256:oled_ssd1331.c ****   * @param  chMode
 257:oled_ssd1331.c ****   * @retval 
 258:oled_ssd1331.c **** **/
 259:oled_ssd1331.c **** void ssd1331_display_char(uint8_t chXpos, uint8_t chYpos, uint8_t chChr, uint8_t chSize, uint16_t h
 260:oled_ssd1331.c **** {      	
 261:oled_ssd1331.c **** 	uint8_t i, j; 
ARM GAS  C:\Users\ROUSSMA\AppData\Local\Temp\ccMuthyh.s 			page 6


 262:oled_ssd1331.c ****     uint8_t chTemp = 0;
 263:oled_ssd1331.c **** 	uint8_t chYpos0 = chYpos;
 264:oled_ssd1331.c **** 
 265:oled_ssd1331.c **** 	if (chXpos >= OLED_WIDTH || chYpos >= OLED_HEIGHT) {
 266:oled_ssd1331.c **** 		return;
 267:oled_ssd1331.c **** 	}
 268:oled_ssd1331.c **** 					   
 269:oled_ssd1331.c ****     for (i = 0; i < chSize; i ++) {   
 270:oled_ssd1331.c **** 		if (FONT_1206 == chSize) {
 271:oled_ssd1331.c **** 			chTemp = c_chFont1206[chChr - 0x20][i];  
 272:oled_ssd1331.c **** 		} else if (FONT_1608 == chSize) { 
 273:oled_ssd1331.c **** 			chTemp = c_chFont1608[chChr - 0x20][i];
 274:oled_ssd1331.c **** 		}
 275:oled_ssd1331.c **** 		
 276:oled_ssd1331.c ****         for (j = 0; j < 8; j ++) {
 277:oled_ssd1331.c ****     		if (chTemp & 0x80) {
 278:oled_ssd1331.c **** 				ssd1331_draw_point(chXpos, chYpos, hwColor);
 279:oled_ssd1331.c ****     		}			
 280:oled_ssd1331.c **** 			chTemp <<= 1;
 281:oled_ssd1331.c **** 			chYpos ++;
 282:oled_ssd1331.c **** 			if ((chYpos - chYpos0) == chSize) {
 283:oled_ssd1331.c **** 				chYpos = chYpos0;
 284:oled_ssd1331.c **** 				chXpos ++;
 285:oled_ssd1331.c **** 				break;
 286:oled_ssd1331.c **** 			}
 287:oled_ssd1331.c **** 		}  	 
 288:oled_ssd1331.c ****     } 
 289:oled_ssd1331.c **** }
 290:oled_ssd1331.c **** 
 291:oled_ssd1331.c **** /**
 292:oled_ssd1331.c ****   * @brief  Displays a string on the screen
 293:oled_ssd1331.c ****   *         
 294:oled_ssd1331.c ****   * @param  chXpos: Specifies the X position
 295:oled_ssd1331.c ****   * @param  chYpos: Specifies the Y position
 296:oled_ssd1331.c ****   * @param  pchString: Pointer to a string to display on the screen 
 297:oled_ssd1331.c ****   *         
 298:oled_ssd1331.c ****   * @retval  None
 299:oled_ssd1331.c **** **/
 300:oled_ssd1331.c **** void ssd1331_display_string(uint8_t chXpos, uint8_t chYpos, const uint8_t *pchString, uint8_t chSiz
 301:oled_ssd1331.c **** {
 302:oled_ssd1331.c **** 	if (chXpos >= OLED_WIDTH || chYpos >= OLED_HEIGHT) {
 303:oled_ssd1331.c **** 		return;
 304:oled_ssd1331.c **** 	}
 305:oled_ssd1331.c **** 	
 306:oled_ssd1331.c ****     while (*pchString != '\0') {       
 307:oled_ssd1331.c ****         if (chXpos > (OLED_WIDTH - chSize / 2)) {
 308:oled_ssd1331.c **** 			chXpos = 0;
 309:oled_ssd1331.c **** 			chYpos += chSize;
 310:oled_ssd1331.c **** 			if (chYpos > (OLED_HEIGHT - chSize)) {
 311:oled_ssd1331.c **** 				chYpos = chXpos = 0;
 312:oled_ssd1331.c **** 				ssd1331_clear_screen(0x00);
 313:oled_ssd1331.c **** 			}
 314:oled_ssd1331.c **** 		}
 315:oled_ssd1331.c **** 		
 316:oled_ssd1331.c ****         ssd1331_display_char(chXpos, chYpos, *pchString, chSize, hwColor);
 317:oled_ssd1331.c ****         chXpos += chSize / 2;
 318:oled_ssd1331.c ****         pchString ++;
ARM GAS  C:\Users\ROUSSMA\AppData\Local\Temp\ccMuthyh.s 			page 7


 319:oled_ssd1331.c ****     } 
 320:oled_ssd1331.c **** }
 321:oled_ssd1331.c **** 
 322:oled_ssd1331.c **** void ssd1331_draw_1616char(uint8_t chXpos, uint8_t chYpos, uint8_t chChar, uint16_t hwColor)
 323:oled_ssd1331.c **** {
 324:oled_ssd1331.c **** 	uint8_t i, j;
 325:oled_ssd1331.c **** 	uint8_t chTemp = 0, chYpos0 = chYpos;
 326:oled_ssd1331.c **** 
 327:oled_ssd1331.c **** 	for (i = 0; i < 32; i ++) {
 328:oled_ssd1331.c **** 		chTemp = c_chFont1612[chChar - 0x30][i];
 329:oled_ssd1331.c **** 		for (j = 0; j < 8; j ++) {
 330:oled_ssd1331.c **** 			if (chTemp & 0x80) {
 331:oled_ssd1331.c **** 				ssd1331_draw_point(chXpos, chYpos, hwColor);
 332:oled_ssd1331.c ****     		}
 333:oled_ssd1331.c **** 			chTemp <<= 1;
 334:oled_ssd1331.c **** 			chYpos ++;
 335:oled_ssd1331.c **** 			if ((chYpos - chYpos0) == 16) {
 336:oled_ssd1331.c **** 				chYpos = chYpos0;
 337:oled_ssd1331.c **** 				chXpos ++;
 338:oled_ssd1331.c **** 				break;
 339:oled_ssd1331.c **** 			}
 340:oled_ssd1331.c **** 		}
 341:oled_ssd1331.c **** 	}
 342:oled_ssd1331.c **** }
 343:oled_ssd1331.c **** 
 344:oled_ssd1331.c **** void ssd1331_draw_3216char(uint8_t chXpos, uint8_t chYpos, uint8_t chChar, uint16_t hwColor)
 345:oled_ssd1331.c **** {
 346:oled_ssd1331.c **** 	uint8_t i, j;
 347:oled_ssd1331.c **** 	uint8_t chTemp = 0, chYpos0 = chYpos;
 348:oled_ssd1331.c **** 
 349:oled_ssd1331.c **** 	for (i = 0; i < 64; i ++) {
 350:oled_ssd1331.c **** 		chTemp = c_chFont3216[chChar - 0x30][i];
 351:oled_ssd1331.c **** 		for (j = 0; j < 8; j ++) {
 352:oled_ssd1331.c **** 			if (chTemp & 0x80) {
 353:oled_ssd1331.c **** 				ssd1331_draw_point(chXpos, chYpos, hwColor);
 354:oled_ssd1331.c ****     		}
 355:oled_ssd1331.c **** 			chTemp <<= 1;
 356:oled_ssd1331.c **** 			chYpos ++;
 357:oled_ssd1331.c **** 			if ((chYpos - chYpos0) == 32) {
 358:oled_ssd1331.c **** 				chYpos = chYpos0;
 359:oled_ssd1331.c **** 				chXpos ++;
 360:oled_ssd1331.c **** 				break;
 361:oled_ssd1331.c **** 			}
 362:oled_ssd1331.c **** 		}
 363:oled_ssd1331.c **** 	}
 364:oled_ssd1331.c **** }
 365:oled_ssd1331.c **** 
 366:oled_ssd1331.c **** static uint32_t _pow(uint8_t m, uint8_t n)
 367:oled_ssd1331.c **** {
  25              		.loc 1 367 0
  26              		.cfi_startproc
  27              	.LVL0:
 368:oled_ssd1331.c **** 	uint32_t result = 1;
  28              		.loc 1 368 0
  29 0000 0122     		mov	r2, #1
 369:oled_ssd1331.c **** 	
 370:oled_ssd1331.c **** 	while(n --) result *= m;    
ARM GAS  C:\Users\ROUSSMA\AppData\Local\Temp\ccMuthyh.s 			page 8


  30              		.loc 1 370 0
  31 0002 01E0     		b	.L2
  32              	.LVL1:
  33              	.L3:
  34              		.loc 1 370 0 is_stmt 0 discriminator 2
  35 0004 4243     		mul	r2, r0
  36              	.LVL2:
  37 0006 191C     		mov	r1, r3
  38              	.LVL3:
  39              	.L2:
  40              		.loc 1 370 0 discriminator 1
  41 0008 4B1E     		sub	r3, r1, #1
  42 000a DBB2     		uxtb	r3, r3
  43              	.LVL4:
  44 000c 0029     		cmp	r1, #0
  45 000e F9D1     		bne	.L3
 371:oled_ssd1331.c **** 	return result;
 372:oled_ssd1331.c **** }
  46              		.loc 1 372 0 is_stmt 1
  47 0010 101C     		mov	r0, r2
  48              	.LVL5:
  49              		@ sp needed
  50 0012 7047     		bx	lr
  51              		.cfi_endproc
  52              	.LFE50:
  53              		.size	_pow, .-_pow
  54              		.section	.text.ssd1331_write_byte,"ax",%progbits
  55              		.align	2
  56              		.code	16
  57              		.thumb_func
  58              		.type	ssd1331_write_byte, %function
  59              	ssd1331_write_byte:
  60              	.LFB37:
  86:oled_ssd1331.c **** 
  61              		.loc 1 86 0
  62              		.cfi_startproc
  63              	.LVL6:
  64 0000 10B5     		push	{r4, lr}
  65              		.cfi_def_cfa_offset 8
  66              		.cfi_offset 4, -8
  67              		.cfi_offset 14, -4
  68 0002 041C     		mov	r4, r0
  89:oled_ssd1331.c ****     {
  69              		.loc 1 89 0
  70 0004 0029     		cmp	r1, #0
  71 0006 03D0     		beq	.L5
  91:oled_ssd1331.c **** 	} 
  72              		.loc 1 91 0
  73 0008 0120     		mov	r0, #1
  74              	.LVL7:
  75 000a FFF7FEFF 		bl	OLED_DC_Write
  76              	.LVL8:
  77 000e 02E0     		b	.L6
  78              	.LVL9:
  79              	.L5:
  95:oled_ssd1331.c **** 	}
  80              		.loc 1 95 0
ARM GAS  C:\Users\ROUSSMA\AppData\Local\Temp\ccMuthyh.s 			page 9


  81 0010 0020     		mov	r0, #0
  82              	.LVL10:
  83 0012 FFF7FEFF 		bl	OLED_DC_Write
  84              	.LVL11:
  85              	.L6:
  99:oled_ssd1331.c ****         
  86              		.loc 1 99 0
  87 0016 201C     		mov	r0, r4
  88 0018 FFF7FEFF 		bl	SPI_Master_SpiUartWriteTxData
  89              	.LVL12:
  90              	.L7:
 104:oled_ssd1331.c ****     {
  91              		.loc 1 104 0 discriminator 1
  92 001c FFF7FEFF 		bl	SPI_Master_SpiUartGetRxBufferSize
  93              	.LVL13:
  94 0020 0128     		cmp	r0, #1
  95 0022 FBD1     		bne	.L7
 110:oled_ssd1331.c ****     
  96              		.loc 1 110 0
  97 0024 FFF7FEFF 		bl	SPI_Master_SpiUartClearRxBuffer
  98              	.LVL14:
 114:oled_ssd1331.c **** 
  99              		.loc 1 114 0
 100              		@ sp needed
 101 0028 10BD     		pop	{r4, pc}
 102              		.cfi_endproc
 103              	.LFE37:
 104              		.size	ssd1331_write_byte, .-ssd1331_write_byte
 105 002a C046     		.section	.text.ssd1331_draw_point,"ax",%progbits
 106              		.align	2
 107              		.global	ssd1331_draw_point
 108              		.code	16
 109              		.thumb_func
 110              		.type	ssd1331_draw_point, %function
 111              	ssd1331_draw_point:
 112              	.LFB38:
 117:oled_ssd1331.c **** 	if (chXpos >= OLED_WIDTH || chYpos >= OLED_HEIGHT) {
 113              		.loc 1 117 0
 114              		.cfi_startproc
 115              	.LVL15:
 116 0000 70B5     		push	{r4, r5, r6, lr}
 117              		.cfi_def_cfa_offset 16
 118              		.cfi_offset 4, -16
 119              		.cfi_offset 5, -12
 120              		.cfi_offset 6, -8
 121              		.cfi_offset 14, -4
 122 0002 041C     		mov	r4, r0
 123 0004 0E1C     		mov	r6, r1
 124 0006 151C     		mov	r5, r2
 118:oled_ssd1331.c **** 		return;
 125              		.loc 1 118 0
 126 0008 5F28     		cmp	r0, #95
 127 000a 21D8     		bhi	.L8
 118:oled_ssd1331.c **** 		return;
 128              		.loc 1 118 0 is_stmt 0 discriminator 1
 129 000c 3F29     		cmp	r1, #63
 130 000e 1FD8     		bhi	.L8
ARM GAS  C:\Users\ROUSSMA\AppData\Local\Temp\ccMuthyh.s 			page 10


 123:oled_ssd1331.c ****     ssd1331_write_byte(chXpos, SSD1331_CMD);
 131              		.loc 1 123 0 is_stmt 1
 132 0010 1520     		mov	r0, #21
 133              	.LVL16:
 134 0012 0021     		mov	r1, #0
 135              	.LVL17:
 136 0014 FFF7FEFF 		bl	ssd1331_write_byte
 137              	.LVL18:
 124:oled_ssd1331.c ****     ssd1331_write_byte(OLED_WIDTH - 1, SSD1331_CMD);
 138              		.loc 1 124 0
 139 0018 201C     		mov	r0, r4
 140 001a 0021     		mov	r1, #0
 141 001c FFF7FEFF 		bl	ssd1331_write_byte
 142              	.LVL19:
 125:oled_ssd1331.c ****     //set row point
 143              		.loc 1 125 0
 144 0020 5F20     		mov	r0, #95
 145 0022 0021     		mov	r1, #0
 146 0024 FFF7FEFF 		bl	ssd1331_write_byte
 147              	.LVL20:
 127:oled_ssd1331.c ****     ssd1331_write_byte(chYpos, SSD1331_CMD);
 148              		.loc 1 127 0
 149 0028 7520     		mov	r0, #117
 150 002a 0021     		mov	r1, #0
 151 002c FFF7FEFF 		bl	ssd1331_write_byte
 152              	.LVL21:
 128:oled_ssd1331.c ****     ssd1331_write_byte(OLED_HEIGHT - 1, SSD1331_CMD);
 153              		.loc 1 128 0
 154 0030 301C     		mov	r0, r6
 155 0032 0021     		mov	r1, #0
 156 0034 FFF7FEFF 		bl	ssd1331_write_byte
 157              	.LVL22:
 129:oled_ssd1331.c ****     
 158              		.loc 1 129 0
 159 0038 3F20     		mov	r0, #63
 160 003a 0021     		mov	r1, #0
 161 003c FFF7FEFF 		bl	ssd1331_write_byte
 162              	.LVL23:
 132:oled_ssd1331.c **** 	ssd1331_write_byte(hwColor, SSD1331_DATA);   
 163              		.loc 1 132 0
 164 0040 280A     		lsr	r0, r5, #8
 165 0042 0121     		mov	r1, #1
 166 0044 FFF7FEFF 		bl	ssd1331_write_byte
 167              	.LVL24:
 133:oled_ssd1331.c **** }
 168              		.loc 1 133 0
 169 0048 E8B2     		uxtb	r0, r5
 170 004a 0121     		mov	r1, #1
 171 004c FFF7FEFF 		bl	ssd1331_write_byte
 172              	.LVL25:
 173              	.L8:
 134:oled_ssd1331.c **** 
 174              		.loc 1 134 0
 175              		@ sp needed
 176 0050 70BD     		pop	{r4, r5, r6, pc}
 177              		.cfi_endproc
 178              	.LFE38:
ARM GAS  C:\Users\ROUSSMA\AppData\Local\Temp\ccMuthyh.s 			page 11


 179              		.size	ssd1331_draw_point, .-ssd1331_draw_point
 180              		.section	.text.ssd1331_draw_line,"ax",%progbits
 181              		.align	2
 182              		.global	ssd1331_draw_line
 183              		.code	16
 184              		.thumb_func
 185              		.type	ssd1331_draw_line, %function
 186              	ssd1331_draw_line:
 187              	.LFB39:
 137:oled_ssd1331.c **** 	int x = chXpos1 - chXpos0;
 188              		.loc 1 137 0
 189              		.cfi_startproc
 190              	.LVL26:
 191 0000 F0B5     		push	{r4, r5, r6, r7, lr}
 192              		.cfi_def_cfa_offset 20
 193              		.cfi_offset 4, -20
 194              		.cfi_offset 5, -16
 195              		.cfi_offset 6, -12
 196              		.cfi_offset 7, -8
 197              		.cfi_offset 14, -4
 198 0002 5F46     		mov	r7, fp
 199 0004 5646     		mov	r6, r10
 200 0006 4D46     		mov	r5, r9
 201 0008 4446     		mov	r4, r8
 202 000a F0B4     		push	{r4, r5, r6, r7}
 203              		.cfi_def_cfa_offset 36
 204              		.cfi_offset 8, -36
 205              		.cfi_offset 9, -32
 206              		.cfi_offset 10, -28
 207              		.cfi_offset 11, -24
 208 000c 85B0     		sub	sp, sp, #20
 209              		.cfi_def_cfa_offset 56
 210 000e 041C     		mov	r4, r0
 211 0010 0D1C     		mov	r5, r1
 212 0012 9146     		mov	r9, r2
 213 0014 9A46     		mov	r10, r3
 214 0016 0EAB     		add	r3, sp, #56
 215              	.LVL27:
 216 0018 1B88     		ldrh	r3, [r3]
 217              	.LVL28:
 218 001a 0193     		str	r3, [sp, #4]
 138:oled_ssd1331.c ****     int y = chYpos1 - chYpos0;
 219              		.loc 1 138 0
 220 001c 171A     		sub	r7, r2, r0
 221              	.LVL29:
 139:oled_ssd1331.c ****     int dx = abs(x), sx = chXpos0 < chXpos1 ? 1 : -1;
 222              		.loc 1 139 0
 223 001e 5346     		mov	r3, r10
 224 0020 5B1A     		sub	r3, r3, r1
 225              	.LVL30:
 140:oled_ssd1331.c ****     int dy = -abs(y), sy = chYpos0 < chYpos1 ? 1 : -1;
 226              		.loc 1 140 0
 227 0022 FA17     		asr	r2, r7, #31
 228              	.LVL31:
 229 0024 BF18     		add	r7, r7, r2
 230              	.LVL32:
 231 0026 5740     		eor	r7, r2
ARM GAS  C:\Users\ROUSSMA\AppData\Local\Temp\ccMuthyh.s 			page 12


 232              	.LVL33:
 233 0028 4845     		cmp	r0, r9
 234 002a 02D2     		bcs	.L17
 235 002c 0122     		mov	r2, #1
 236 002e 0292     		str	r2, [sp, #8]
 237 0030 02E0     		b	.L11
 238              	.L17:
 239 0032 0122     		mov	r2, #1
 240 0034 5242     		neg	r2, r2
 241 0036 0292     		str	r2, [sp, #8]
 242              	.L11:
 243              	.LVL34:
 141:oled_ssd1331.c ****     int err = dx + dy, e2;
 244              		.loc 1 141 0 discriminator 4
 245 0038 DA17     		asr	r2, r3, #31
 246 003a 9B18     		add	r3, r3, r2
 247              	.LVL35:
 248 003c 5340     		eor	r3, r2
 249 003e 9846     		mov	r8, r3
 250 0040 5B42     		neg	r3, r3
 251 0042 9B46     		mov	fp, r3
 252              	.LVL36:
 253 0044 5545     		cmp	r5, r10
 254 0046 02D2     		bcs	.L18
 141:oled_ssd1331.c ****     int err = dx + dy, e2;
 255              		.loc 1 141 0 is_stmt 0
 256 0048 0123     		mov	r3, #1
 257              	.LVL37:
 258 004a 0393     		str	r3, [sp, #12]
 259 004c 02E0     		b	.L12
 260              	.LVL38:
 261              	.L18:
 262 004e 0123     		mov	r3, #1
 263              	.LVL39:
 264 0050 5B42     		neg	r3, r3
 265 0052 0393     		str	r3, [sp, #12]
 266              	.L12:
 267              	.LVL40:
 142:oled_ssd1331.c **** 
 268              		.loc 1 142 0 is_stmt 1 discriminator 4
 269 0054 4346     		mov	r3, r8
 270 0056 FE1A     		sub	r6, r7, r3
 271              	.LVL41:
 144:oled_ssd1331.c **** 		return;
 272              		.loc 1 144 0 discriminator 4
 273 0058 5F2C     		cmp	r4, #95
 274 005a 21D8     		bhi	.L10
 144:oled_ssd1331.c **** 		return;
 275              		.loc 1 144 0 is_stmt 0 discriminator 1
 276 005c 3F2D     		cmp	r5, #63
 277 005e 1FD8     		bhi	.L10
 144:oled_ssd1331.c **** 		return;
 278              		.loc 1 144 0 discriminator 2
 279 0060 4B46     		mov	r3, r9
 280 0062 5F2B     		cmp	r3, #95
 281 0064 1CD8     		bhi	.L10
 282              	.LVL42:
ARM GAS  C:\Users\ROUSSMA\AppData\Local\Temp\ccMuthyh.s 			page 13


 144:oled_ssd1331.c **** 		return;
 283              		.loc 1 144 0 discriminator 3
 284 0066 5346     		mov	r3, r10
 285              	.LVL43:
 286 0068 3F2B     		cmp	r3, #63
 287 006a 19D8     		bhi	.L10
 288              	.LVL44:
 289              	.L14:
 149:oled_ssd1331.c ****         e2 = 2 * err;
 290              		.loc 1 149 0 is_stmt 1
 291 006c 201C     		mov	r0, r4
 292 006e 291C     		mov	r1, r5
 293 0070 019A     		ldr	r2, [sp, #4]
 294 0072 FFF7FEFF 		bl	ssd1331_draw_point
 295              	.LVL45:
 150:oled_ssd1331.c ****         if (e2 >= dy) {     
 296              		.loc 1 150 0
 297 0076 7300     		lsl	r3, r6, #1
 298              	.LVL46:
 151:oled_ssd1331.c ****             if (chXpos0 == chXpos1) break;
 299              		.loc 1 151 0
 300 0078 5B45     		cmp	r3, fp
 301 007a 07DB     		blt	.L15
 152:oled_ssd1331.c ****             err += dy; chXpos0 += sx;
 302              		.loc 1 152 0
 303 007c 4C45     		cmp	r4, r9
 304 007e 0FD0     		beq	.L10
 153:oled_ssd1331.c ****         }
 305              		.loc 1 153 0
 306 0080 4246     		mov	r2, r8
 307 0082 B61A     		sub	r6, r6, r2
 308              	.LVL47:
 309 0084 029A     		ldr	r2, [sp, #8]
 310 0086 9446     		mov	ip, r2
 311 0088 6444     		add	r4, r4, ip
 312              	.LVL48:
 313 008a E4B2     		uxtb	r4, r4
 314              	.LVL49:
 315              	.L15:
 155:oled_ssd1331.c ****             if (chYpos0 == chYpos1) break;
 316              		.loc 1 155 0
 317 008c BB42     		cmp	r3, r7
 318 008e EDDC     		bgt	.L14
 156:oled_ssd1331.c ****             err += dx; chYpos0 += sy;
 319              		.loc 1 156 0
 320 0090 5545     		cmp	r5, r10
 321 0092 05D0     		beq	.L10
 157:oled_ssd1331.c ****         }
 322              		.loc 1 157 0
 323 0094 F619     		add	r6, r6, r7
 324              	.LVL50:
 325 0096 039B     		ldr	r3, [sp, #12]
 326              	.LVL51:
 327 0098 9C46     		mov	ip, r3
 328 009a 6544     		add	r5, r5, ip
 329              	.LVL52:
 330 009c EDB2     		uxtb	r5, r5
ARM GAS  C:\Users\ROUSSMA\AppData\Local\Temp\ccMuthyh.s 			page 14


 331              	.LVL53:
 332 009e E5E7     		b	.L14
 333              	.LVL54:
 334              	.L10:
 160:oled_ssd1331.c **** 
 335              		.loc 1 160 0
 336 00a0 05B0     		add	sp, sp, #20
 337              		@ sp needed
 338              	.LVL55:
 339              	.LVL56:
 340              	.LVL57:
 341 00a2 3CBC     		pop	{r2, r3, r4, r5}
 342 00a4 9046     		mov	r8, r2
 343 00a6 9946     		mov	r9, r3
 344 00a8 A246     		mov	r10, r4
 345 00aa AB46     		mov	fp, r5
 346 00ac F0BD     		pop	{r4, r5, r6, r7, pc}
 347              		.cfi_endproc
 348              	.LFE39:
 349              		.size	ssd1331_draw_line, .-ssd1331_draw_line
 350 00ae C046     		.section	.text.ssd1331_draw_v_line,"ax",%progbits
 351              		.align	2
 352              		.global	ssd1331_draw_v_line
 353              		.code	16
 354              		.thumb_func
 355              		.type	ssd1331_draw_v_line, %function
 356              	ssd1331_draw_v_line:
 357              	.LFB40:
 163:oled_ssd1331.c **** 	uint16_t i, y1 = MIN(chYpos + chHeight, OLED_HEIGHT - 1);
 358              		.loc 1 163 0
 359              		.cfi_startproc
 360              	.LVL58:
 361 0000 F8B5     		push	{r3, r4, r5, r6, r7, lr}
 362              		.cfi_def_cfa_offset 24
 363              		.cfi_offset 3, -24
 364              		.cfi_offset 4, -20
 365              		.cfi_offset 5, -16
 366              		.cfi_offset 6, -12
 367              		.cfi_offset 7, -8
 368              		.cfi_offset 14, -4
 369 0002 051C     		mov	r5, r0
 370 0004 1E1C     		mov	r6, r3
 164:oled_ssd1331.c **** 
 371              		.loc 1 164 0
 372 0006 8F18     		add	r7, r1, r2
 373 0008 3F2F     		cmp	r7, #63
 374 000a 00DD     		ble	.L20
 375 000c 3F27     		mov	r7, #63
 376              	.L20:
 377 000e BFB2     		uxth	r7, r7
 378              	.LVL59:
 166:oled_ssd1331.c **** 		return;
 379              		.loc 1 166 0
 380 0010 5F2D     		cmp	r5, #95
 381 0012 0CD8     		bhi	.L19
 166:oled_ssd1331.c **** 		return;
 382              		.loc 1 166 0 is_stmt 0 discriminator 1
ARM GAS  C:\Users\ROUSSMA\AppData\Local\Temp\ccMuthyh.s 			page 15


 383 0014 3F29     		cmp	r1, #63
 384 0016 0AD8     		bhi	.L19
 170:oled_ssd1331.c ****         ssd1331_draw_point(chXpos, i, hwColor);
 385              		.loc 1 170 0 is_stmt 1
 386 0018 8CB2     		uxth	r4, r1
 387              	.LVL60:
 388 001a 06E0     		b	.L22
 389              	.LVL61:
 390              	.L23:
 171:oled_ssd1331.c ****     }
 391              		.loc 1 171 0 discriminator 3
 392 001c E1B2     		uxtb	r1, r4
 393 001e 281C     		mov	r0, r5
 394 0020 321C     		mov	r2, r6
 395 0022 FFF7FEFF 		bl	ssd1331_draw_point
 396              	.LVL62:
 170:oled_ssd1331.c ****         ssd1331_draw_point(chXpos, i, hwColor);
 397              		.loc 1 170 0 discriminator 3
 398 0026 0134     		add	r4, r4, #1
 399              	.LVL63:
 400 0028 A4B2     		uxth	r4, r4
 401              	.LVL64:
 402              	.L22:
 170:oled_ssd1331.c ****         ssd1331_draw_point(chXpos, i, hwColor);
 403              		.loc 1 170 0 is_stmt 0 discriminator 1
 404 002a BC42     		cmp	r4, r7
 405 002c F6D3     		bcc	.L23
 406              	.LVL65:
 407              	.L19:
 173:oled_ssd1331.c **** 
 408              		.loc 1 173 0 is_stmt 1
 409              		@ sp needed
 410              	.LVL66:
 411 002e F8BD     		pop	{r3, r4, r5, r6, r7, pc}
 412              		.cfi_endproc
 413              	.LFE40:
 414              		.size	ssd1331_draw_v_line, .-ssd1331_draw_v_line
 415              		.section	.text.ssd1331_draw_h_line,"ax",%progbits
 416              		.align	2
 417              		.global	ssd1331_draw_h_line
 418              		.code	16
 419              		.thumb_func
 420              		.type	ssd1331_draw_h_line, %function
 421              	ssd1331_draw_h_line:
 422              	.LFB41:
 176:oled_ssd1331.c **** 	uint16_t i, x1 = MIN(chXpos + chWidth, OLED_WIDTH- 1);
 423              		.loc 1 176 0
 424              		.cfi_startproc
 425              	.LVL67:
 426 0000 F8B5     		push	{r3, r4, r5, r6, r7, lr}
 427              		.cfi_def_cfa_offset 24
 428              		.cfi_offset 3, -24
 429              		.cfi_offset 4, -20
 430              		.cfi_offset 5, -16
 431              		.cfi_offset 6, -12
 432              		.cfi_offset 7, -8
 433              		.cfi_offset 14, -4
ARM GAS  C:\Users\ROUSSMA\AppData\Local\Temp\ccMuthyh.s 			page 16


 434 0002 0D1C     		mov	r5, r1
 435 0004 1E1C     		mov	r6, r3
 177:oled_ssd1331.c **** 
 436              		.loc 1 177 0
 437 0006 8718     		add	r7, r0, r2
 438 0008 5F2F     		cmp	r7, #95
 439 000a 00DD     		ble	.L25
 440 000c 5F27     		mov	r7, #95
 441              	.L25:
 442 000e BFB2     		uxth	r7, r7
 443              	.LVL68:
 179:oled_ssd1331.c **** 		return;
 444              		.loc 1 179 0
 445 0010 5F28     		cmp	r0, #95
 446 0012 0CD8     		bhi	.L24
 179:oled_ssd1331.c **** 		return;
 447              		.loc 1 179 0 is_stmt 0 discriminator 1
 448 0014 3F2D     		cmp	r5, #63
 449 0016 0AD8     		bhi	.L24
 183:oled_ssd1331.c ****         ssd1331_draw_point(i, chYpos, hwColor);
 450              		.loc 1 183 0 is_stmt 1
 451 0018 84B2     		uxth	r4, r0
 452              	.LVL69:
 453 001a 06E0     		b	.L27
 454              	.LVL70:
 455              	.L28:
 184:oled_ssd1331.c ****     }
 456              		.loc 1 184 0 discriminator 3
 457 001c E0B2     		uxtb	r0, r4
 458 001e 291C     		mov	r1, r5
 459 0020 321C     		mov	r2, r6
 460 0022 FFF7FEFF 		bl	ssd1331_draw_point
 461              	.LVL71:
 183:oled_ssd1331.c ****         ssd1331_draw_point(i, chYpos, hwColor);
 462              		.loc 1 183 0 discriminator 3
 463 0026 0134     		add	r4, r4, #1
 464              	.LVL72:
 465 0028 A4B2     		uxth	r4, r4
 466              	.LVL73:
 467              	.L27:
 183:oled_ssd1331.c ****         ssd1331_draw_point(i, chYpos, hwColor);
 468              		.loc 1 183 0 is_stmt 0 discriminator 1
 469 002a BC42     		cmp	r4, r7
 470 002c F6D3     		bcc	.L28
 471              	.LVL74:
 472              	.L24:
 186:oled_ssd1331.c **** 
 473              		.loc 1 186 0 is_stmt 1
 474              		@ sp needed
 475              	.LVL75:
 476 002e F8BD     		pop	{r3, r4, r5, r6, r7, pc}
 477              		.cfi_endproc
 478              	.LFE41:
 479              		.size	ssd1331_draw_h_line, .-ssd1331_draw_h_line
 480              		.section	.text.ssd1331_draw_rect,"ax",%progbits
 481              		.align	2
 482              		.global	ssd1331_draw_rect
ARM GAS  C:\Users\ROUSSMA\AppData\Local\Temp\ccMuthyh.s 			page 17


 483              		.code	16
 484              		.thumb_func
 485              		.type	ssd1331_draw_rect, %function
 486              	ssd1331_draw_rect:
 487              	.LFB42:
 189:oled_ssd1331.c **** 	if (chXpos >= OLED_WIDTH || chYpos >= OLED_HEIGHT) {
 488              		.loc 1 189 0
 489              		.cfi_startproc
 490              	.LVL76:
 491 0000 F0B5     		push	{r4, r5, r6, r7, lr}
 492              		.cfi_def_cfa_offset 20
 493              		.cfi_offset 4, -20
 494              		.cfi_offset 5, -16
 495              		.cfi_offset 6, -12
 496              		.cfi_offset 7, -8
 497              		.cfi_offset 14, -4
 498 0002 83B0     		sub	sp, sp, #12
 499              		.cfi_def_cfa_offset 32
 500 0004 08AF     		add	r7, sp, #32
 501              	.LVL77:
 502 0006 3D88     		ldrh	r5, [r7]
 190:oled_ssd1331.c **** 		return;
 503              		.loc 1 190 0
 504 0008 5F28     		cmp	r0, #95
 505 000a 1ED8     		bhi	.L29
 190:oled_ssd1331.c **** 		return;
 506              		.loc 1 190 0 is_stmt 0 discriminator 1
 507 000c 3F29     		cmp	r1, #63
 508 000e 1CD8     		bhi	.L29
 509 0010 1C1C     		mov	r4, r3
 510 0012 0E1C     		mov	r6, r1
 511 0014 071C     		mov	r7, r0
 512              	.LVL78:
 194:oled_ssd1331.c **** 	ssd1331_draw_h_line(chXpos, chYpos + chHeight, chWidth, hwColor);
 513              		.loc 1 194 0 is_stmt 1
 514 0016 0192     		str	r2, [sp, #4]
 515 0018 2B1C     		mov	r3, r5
 516              	.LVL79:
 517 001a FFF7FEFF 		bl	ssd1331_draw_h_line
 518              	.LVL80:
 195:oled_ssd1331.c **** 	ssd1331_draw_v_line(chXpos, chYpos, chHeight, hwColor);
 519              		.loc 1 195 0
 520 001e 3119     		add	r1, r6, r4
 521 0020 C9B2     		uxtb	r1, r1
 522 0022 381C     		mov	r0, r7
 523 0024 019A     		ldr	r2, [sp, #4]
 524 0026 2B1C     		mov	r3, r5
 525 0028 FFF7FEFF 		bl	ssd1331_draw_h_line
 526              	.LVL81:
 196:oled_ssd1331.c **** 	ssd1331_draw_v_line(chXpos + chWidth, chYpos, chHeight + 1, hwColor);
 527              		.loc 1 196 0
 528 002c 381C     		mov	r0, r7
 529 002e 311C     		mov	r1, r6
 530 0030 221C     		mov	r2, r4
 531 0032 2B1C     		mov	r3, r5
 532 0034 FFF7FEFF 		bl	ssd1331_draw_v_line
 533              	.LVL82:
ARM GAS  C:\Users\ROUSSMA\AppData\Local\Temp\ccMuthyh.s 			page 18


 197:oled_ssd1331.c **** }
 534              		.loc 1 197 0
 535 0038 019B     		ldr	r3, [sp, #4]
 536 003a F818     		add	r0, r7, r3
 537 003c C0B2     		uxtb	r0, r0
 538 003e 0134     		add	r4, r4, #1
 539 0040 E2B2     		uxtb	r2, r4
 540 0042 311C     		mov	r1, r6
 541 0044 2B1C     		mov	r3, r5
 542 0046 FFF7FEFF 		bl	ssd1331_draw_v_line
 543              	.LVL83:
 544              	.L29:
 198:oled_ssd1331.c **** 
 545              		.loc 1 198 0
 546 004a 03B0     		add	sp, sp, #12
 547              		@ sp needed
 548 004c F0BD     		pop	{r4, r5, r6, r7, pc}
 549              		.cfi_endproc
 550              	.LFE42:
 551              		.size	ssd1331_draw_rect, .-ssd1331_draw_rect
 552 004e C046     		.section	.text.ssd1331_fill_rect,"ax",%progbits
 553              		.align	2
 554              		.global	ssd1331_fill_rect
 555              		.code	16
 556              		.thumb_func
 557              		.type	ssd1331_fill_rect, %function
 558              	ssd1331_fill_rect:
 559              	.LFB43:
 201:oled_ssd1331.c **** 	uint16_t i, j;
 560              		.loc 1 201 0
 561              		.cfi_startproc
 562              	.LVL84:
 563 0000 F0B5     		push	{r4, r5, r6, r7, lr}
 564              		.cfi_def_cfa_offset 20
 565              		.cfi_offset 4, -20
 566              		.cfi_offset 5, -16
 567              		.cfi_offset 6, -12
 568              		.cfi_offset 7, -8
 569              		.cfi_offset 14, -4
 570 0002 85B0     		sub	sp, sp, #20
 571              		.cfi_def_cfa_offset 40
 572 0004 051C     		mov	r5, r0
 573 0006 0E1C     		mov	r6, r1
 574 0008 0192     		str	r2, [sp, #4]
 575 000a 0393     		str	r3, [sp, #12]
 576 000c 0AAB     		add	r3, sp, #40
 577              	.LVL85:
 578 000e 1B88     		ldrh	r3, [r3]
 579              	.LVL86:
 580 0010 0293     		str	r3, [sp, #8]
 204:oled_ssd1331.c **** 		return;
 581              		.loc 1 204 0
 582 0012 5F28     		cmp	r0, #95
 583 0014 18D8     		bhi	.L31
 204:oled_ssd1331.c **** 		return;
 584              		.loc 1 204 0 is_stmt 0 discriminator 1
 585 0016 3F29     		cmp	r1, #63
ARM GAS  C:\Users\ROUSSMA\AppData\Local\Temp\ccMuthyh.s 			page 19


 586 0018 16D8     		bhi	.L31
 587 001a 0027     		mov	r7, #0
 588 001c 10E0     		b	.L33
 589              	.LVL87:
 590              	.L34:
 210:oled_ssd1331.c **** 		}
 591              		.loc 1 210 0 is_stmt 1 discriminator 3
 592 001e 2819     		add	r0, r5, r4
 593 0020 C0B2     		uxtb	r0, r0
 594 0022 F119     		add	r1, r6, r7
 595 0024 C9B2     		uxtb	r1, r1
 596 0026 029A     		ldr	r2, [sp, #8]
 597 0028 FFF7FEFF 		bl	ssd1331_draw_point
 598              	.LVL88:
 209:oled_ssd1331.c **** 			ssd1331_draw_point(chXpos + j, chYpos + i, hwColor);
 599              		.loc 1 209 0 discriminator 3
 600 002c 0134     		add	r4, r4, #1
 601              	.LVL89:
 602 002e A4B2     		uxth	r4, r4
 603              	.LVL90:
 604 0030 00E0     		b	.L35
 605              	.LVL91:
 606              	.L36:
 607 0032 0024     		mov	r4, #0
 608              	.L35:
 609              	.LVL92:
 209:oled_ssd1331.c **** 			ssd1331_draw_point(chXpos + j, chYpos + i, hwColor);
 610              		.loc 1 209 0 is_stmt 0 discriminator 1
 611 0034 6B46     		mov	r3, sp
 612 0036 9B88     		ldrh	r3, [r3, #4]
 613 0038 A342     		cmp	r3, r4
 614 003a F0D8     		bhi	.L34
 208:oled_ssd1331.c **** 		for(j = 0; j < chWidth; j ++){
 615              		.loc 1 208 0 is_stmt 1 discriminator 2
 616 003c 7B1C     		add	r3, r7, #1
 617 003e 9FB2     		uxth	r7, r3
 618              	.LVL93:
 619              	.L33:
 208:oled_ssd1331.c **** 		for(j = 0; j < chWidth; j ++){
 620              		.loc 1 208 0 is_stmt 0 discriminator 1
 621 0040 6B46     		mov	r3, sp
 622 0042 9B89     		ldrh	r3, [r3, #12]
 623 0044 BB42     		cmp	r3, r7
 624 0046 F4D8     		bhi	.L36
 625              	.LVL94:
 626              	.L31:
 213:oled_ssd1331.c **** 
 627              		.loc 1 213 0 is_stmt 1
 628 0048 05B0     		add	sp, sp, #20
 629              		@ sp needed
 630 004a F0BD     		pop	{r4, r5, r6, r7, pc}
 631              		.cfi_endproc
 632              	.LFE43:
 633              		.size	ssd1331_fill_rect, .-ssd1331_fill_rect
 634              		.section	.text.ssd1331_draw_circle,"ax",%progbits
 635              		.align	2
 636              		.global	ssd1331_draw_circle
ARM GAS  C:\Users\ROUSSMA\AppData\Local\Temp\ccMuthyh.s 			page 20


 637              		.code	16
 638              		.thumb_func
 639              		.type	ssd1331_draw_circle, %function
 640              	ssd1331_draw_circle:
 641              	.LFB44:
 216:oled_ssd1331.c **** 	int x = -chRadius, y = 0, err = 2 - 2 * chRadius, e2;
 642              		.loc 1 216 0
 643              		.cfi_startproc
 644              	.LVL95:
 645 0000 F0B5     		push	{r4, r5, r6, r7, lr}
 646              		.cfi_def_cfa_offset 20
 647              		.cfi_offset 4, -20
 648              		.cfi_offset 5, -16
 649              		.cfi_offset 6, -12
 650              		.cfi_offset 7, -8
 651              		.cfi_offset 14, -4
 652 0002 5F46     		mov	r7, fp
 653 0004 5646     		mov	r6, r10
 654 0006 4D46     		mov	r5, r9
 655 0008 4446     		mov	r4, r8
 656 000a F0B4     		push	{r4, r5, r6, r7}
 657              		.cfi_def_cfa_offset 36
 658              		.cfi_offset 8, -36
 659              		.cfi_offset 9, -32
 660              		.cfi_offset 10, -28
 661              		.cfi_offset 11, -24
 662 000c 83B0     		sub	sp, sp, #12
 663              		.cfi_def_cfa_offset 48
 217:oled_ssd1331.c **** 
 664              		.loc 1 217 0
 665 000e 5742     		neg	r7, r2
 666              	.LVL96:
 667 0010 5400     		lsl	r4, r2, #1
 668 0012 6442     		neg	r4, r4
 669 0014 0234     		add	r4, r4, #2
 670              	.LVL97:
 219:oled_ssd1331.c **** 		return;
 671              		.loc 1 219 0
 672 0016 5F28     		cmp	r0, #95
 673 0018 4AD8     		bhi	.L37
 219:oled_ssd1331.c **** 		return;
 674              		.loc 1 219 0 is_stmt 0 discriminator 1
 675 001a 3F29     		cmp	r1, #63
 676 001c 48D8     		bhi	.L37
 677 001e 0093     		str	r3, [sp]
 678 0020 8A46     		mov	r10, r1
 679 0022 8146     		mov	r9, r0
 680 0024 0023     		mov	r3, #0
 681              	.LVL98:
 682 0026 9846     		mov	r8, r3
 683              	.LVL99:
 684              	.L41:
 224:oled_ssd1331.c ****         ssd1331_draw_point(chXpos + x, chYpos + y, hwColor);
 685              		.loc 1 224 0 is_stmt 1
 686 0028 FEB2     		uxtb	r6, r7
 687 002a 4B46     		mov	r3, r9
 688 002c 9B1B     		sub	r3, r3, r6
ARM GAS  C:\Users\ROUSSMA\AppData\Local\Temp\ccMuthyh.s 			page 21


 689 002e DBB2     		uxtb	r3, r3
 690 0030 4246     		mov	r2, r8
 691 0032 6946     		mov	r1, sp
 692 0034 0A71     		strb	r2, [r1, #4]
 693 0036 0A79     		ldrb	r2, [r1, #4]
 694 0038 9346     		mov	fp, r2
 695 003a 151C     		mov	r5, r2
 696 003c 5544     		add	r5, r5, r10
 697 003e EDB2     		uxtb	r5, r5
 698 0040 0193     		str	r3, [sp, #4]
 699 0042 181C     		mov	r0, r3
 700 0044 291C     		mov	r1, r5
 701 0046 009A     		ldr	r2, [sp]
 702 0048 FFF7FEFF 		bl	ssd1331_draw_point
 703              	.LVL100:
 225:oled_ssd1331.c ****         ssd1331_draw_point(chXpos + x, chYpos - y, hwColor);
 704              		.loc 1 225 0
 705 004c 4E44     		add	r6, r6, r9
 706 004e F6B2     		uxtb	r6, r6
 707 0050 301C     		mov	r0, r6
 708 0052 291C     		mov	r1, r5
 709 0054 009A     		ldr	r2, [sp]
 710 0056 FFF7FEFF 		bl	ssd1331_draw_point
 711              	.LVL101:
 226:oled_ssd1331.c ****         ssd1331_draw_point(chXpos - x, chYpos - y, hwColor);
 712              		.loc 1 226 0
 713 005a 5246     		mov	r2, r10
 714 005c 5946     		mov	r1, fp
 715 005e 551A     		sub	r5, r2, r1
 716 0060 EDB2     		uxtb	r5, r5
 717 0062 301C     		mov	r0, r6
 718 0064 291C     		mov	r1, r5
 719 0066 009E     		ldr	r6, [sp]
 720 0068 321C     		mov	r2, r6
 721 006a FFF7FEFF 		bl	ssd1331_draw_point
 722              	.LVL102:
 227:oled_ssd1331.c ****         e2 = err;
 723              		.loc 1 227 0
 724 006e 0198     		ldr	r0, [sp, #4]
 725 0070 291C     		mov	r1, r5
 726 0072 321C     		mov	r2, r6
 727 0074 FFF7FEFF 		bl	ssd1331_draw_point
 728              	.LVL103:
 229:oled_ssd1331.c ****             err += ++ y * 2 + 1;
 729              		.loc 1 229 0
 730 0078 A045     		cmp	r8, r4
 731 007a 0CDB     		blt	.L42
 230:oled_ssd1331.c ****             if(-x == y && e2 <= x) e2 = 0;
 732              		.loc 1 230 0
 733 007c 0123     		mov	r3, #1
 734 007e 9C46     		mov	ip, r3
 735 0080 E044     		add	r8, r8, ip
 736              	.LVL104:
 737 0082 4346     		mov	r3, r8
 738 0084 5B00     		lsl	r3, r3, #1
 739 0086 0133     		add	r3, r3, #1
 740 0088 1B19     		add	r3, r3, r4
ARM GAS  C:\Users\ROUSSMA\AppData\Local\Temp\ccMuthyh.s 			page 22


 741              	.LVL105:
 231:oled_ssd1331.c ****         }
 742              		.loc 1 231 0
 743 008a 7A42     		neg	r2, r7
 744 008c 4245     		cmp	r2, r8
 745 008e 05D1     		bne	.L39
 231:oled_ssd1331.c ****         }
 746              		.loc 1 231 0 is_stmt 0 discriminator 1
 747 0090 A742     		cmp	r7, r4
 748 0092 02DA     		bge	.L43
 749 0094 02E0     		b	.L39
 750              	.LVL106:
 751              	.L42:
 752 0096 231C     		mov	r3, r4
 753 0098 00E0     		b	.L39
 754              	.LVL107:
 755              	.L43:
 231:oled_ssd1331.c ****         }
 756              		.loc 1 231 0
 757 009a 0024     		mov	r4, #0
 758              	.LVL108:
 759              	.L39:
 233:oled_ssd1331.c ****     } while(x <= 0);
 760              		.loc 1 233 0 is_stmt 1
 761 009c BC42     		cmp	r4, r7
 762 009e 04DD     		ble	.L44
 233:oled_ssd1331.c ****     } while(x <= 0);
 763              		.loc 1 233 0 is_stmt 0 discriminator 1
 764 00a0 0137     		add	r7, r7, #1
 765              	.LVL109:
 766 00a2 7C00     		lsl	r4, r7, #1
 767              	.LVL110:
 768 00a4 0134     		add	r4, r4, #1
 769 00a6 E418     		add	r4, r4, r3
 770              	.LVL111:
 771 00a8 00E0     		b	.L40
 772              	.LVL112:
 773              	.L44:
 774 00aa 1C1C     		mov	r4, r3
 775              	.LVL113:
 776              	.L40:
 234:oled_ssd1331.c **** }
 777              		.loc 1 234 0 is_stmt 1
 778 00ac 002F     		cmp	r7, #0
 779 00ae BBDD     		ble	.L41
 780              	.LVL114:
 781              	.L37:
 235:oled_ssd1331.c **** 
 782              		.loc 1 235 0
 783 00b0 03B0     		add	sp, sp, #12
 784              		@ sp needed
 785              	.LVL115:
 786              	.LVL116:
 787 00b2 3CBC     		pop	{r2, r3, r4, r5}
 788 00b4 9046     		mov	r8, r2
 789 00b6 9946     		mov	r9, r3
 790 00b8 A246     		mov	r10, r4
ARM GAS  C:\Users\ROUSSMA\AppData\Local\Temp\ccMuthyh.s 			page 23


 791 00ba AB46     		mov	fp, r5
 792 00bc F0BD     		pop	{r4, r5, r6, r7, pc}
 793              		.cfi_endproc
 794              	.LFE44:
 795              		.size	ssd1331_draw_circle, .-ssd1331_draw_circle
 796 00be C046     		.section	.text.ssd1331_clear_screen,"ax",%progbits
 797              		.align	2
 798              		.global	ssd1331_clear_screen
 799              		.code	16
 800              		.thumb_func
 801              		.type	ssd1331_clear_screen, %function
 802              	ssd1331_clear_screen:
 803              	.LFB45:
 238:oled_ssd1331.c **** 	uint16_t i, j;
 804              		.loc 1 238 0
 805              		.cfi_startproc
 806              	.LVL117:
 807 0000 70B5     		push	{r4, r5, r6, lr}
 808              		.cfi_def_cfa_offset 16
 809              		.cfi_offset 4, -16
 810              		.cfi_offset 5, -12
 811              		.cfi_offset 6, -8
 812              		.cfi_offset 14, -4
 813 0002 061C     		mov	r6, r0
 814              	.LVL118:
 241:oled_ssd1331.c ****     {
 815              		.loc 1 241 0
 816 0004 0025     		mov	r5, #0
 817 0006 0CE0     		b	.L46
 818              	.LVL119:
 819              	.L47:
 245:oled_ssd1331.c **** 		}
 820              		.loc 1 245 0 discriminator 3
 821 0008 E0B2     		uxtb	r0, r4
 822 000a E9B2     		uxtb	r1, r5
 823 000c 321C     		mov	r2, r6
 824 000e FFF7FEFF 		bl	ssd1331_draw_point
 825              	.LVL120:
 243:oled_ssd1331.c ****         {
 826              		.loc 1 243 0 discriminator 3
 827 0012 0134     		add	r4, r4, #1
 828              	.LVL121:
 829 0014 A4B2     		uxth	r4, r4
 830              	.LVL122:
 831 0016 00E0     		b	.L48
 832              	.LVL123:
 833              	.L49:
 834 0018 0024     		mov	r4, #0
 835              	.L48:
 836              	.LVL124:
 243:oled_ssd1331.c ****         {
 837              		.loc 1 243 0 is_stmt 0 discriminator 1
 838 001a 5F2C     		cmp	r4, #95
 839 001c F4D9     		bls	.L47
 241:oled_ssd1331.c ****     {
 840              		.loc 1 241 0 is_stmt 1 discriminator 2
 841 001e 0135     		add	r5, r5, #1
ARM GAS  C:\Users\ROUSSMA\AppData\Local\Temp\ccMuthyh.s 			page 24


 842              	.LVL125:
 843 0020 ADB2     		uxth	r5, r5
 844              	.LVL126:
 845              	.L46:
 241:oled_ssd1331.c ****     {
 846              		.loc 1 241 0 is_stmt 0 discriminator 1
 847 0022 3F2D     		cmp	r5, #63
 848 0024 F8D9     		bls	.L49
 248:oled_ssd1331.c **** 
 849              		.loc 1 248 0 is_stmt 1
 850              		@ sp needed
 851              	.LVL127:
 852 0026 70BD     		pop	{r4, r5, r6, pc}
 853              		.cfi_endproc
 854              	.LFE45:
 855              		.size	ssd1331_clear_screen, .-ssd1331_clear_screen
 856              		.section	.text.ssd1331_display_char,"ax",%progbits
 857              		.align	2
 858              		.global	ssd1331_display_char
 859              		.code	16
 860              		.thumb_func
 861              		.type	ssd1331_display_char, %function
 862              	ssd1331_display_char:
 863              	.LFB46:
 260:oled_ssd1331.c **** 	uint8_t i, j; 
 864              		.loc 1 260 0
 865              		.cfi_startproc
 866              	.LVL128:
 867 0000 F0B5     		push	{r4, r5, r6, r7, lr}
 868              		.cfi_def_cfa_offset 20
 869              		.cfi_offset 4, -20
 870              		.cfi_offset 5, -16
 871              		.cfi_offset 6, -12
 872              		.cfi_offset 7, -8
 873              		.cfi_offset 14, -4
 874 0002 5F46     		mov	r7, fp
 875 0004 5646     		mov	r6, r10
 876 0006 4D46     		mov	r5, r9
 877 0008 4446     		mov	r4, r8
 878 000a F0B4     		push	{r4, r5, r6, r7}
 879              		.cfi_def_cfa_offset 36
 880              		.cfi_offset 8, -36
 881              		.cfi_offset 9, -32
 882              		.cfi_offset 10, -28
 883              		.cfi_offset 11, -24
 884 000c 83B0     		sub	sp, sp, #12
 885              		.cfi_def_cfa_offset 48
 886 000e 8246     		mov	r10, r0
 887 0010 8846     		mov	r8, r1
 888 0012 9346     		mov	fp, r2
 889 0014 1F1C     		mov	r7, r3
 890 0016 0CAB     		add	r3, sp, #48
 891              	.LVL129:
 892 0018 1B88     		ldrh	r3, [r3]
 893              	.LVL130:
 894 001a 0193     		str	r3, [sp, #4]
 895              	.LVL131:
ARM GAS  C:\Users\ROUSSMA\AppData\Local\Temp\ccMuthyh.s 			page 25


 265:oled_ssd1331.c **** 		return;
 896              		.loc 1 265 0
 897 001c 5F28     		cmp	r0, #95
 898 001e 3BD8     		bhi	.L50
 265:oled_ssd1331.c **** 		return;
 899              		.loc 1 265 0 is_stmt 0 discriminator 1
 900 0020 3F29     		cmp	r1, #63
 901 0022 39D8     		bhi	.L50
 902 0024 0C1C     		mov	r4, r1
 903 0026 0026     		mov	r6, #0
 904 0028 0023     		mov	r3, #0
 905 002a 9946     		mov	r9, r3
 906 002c 32E0     		b	.L52
 907              	.LVL132:
 908              	.L60:
 270:oled_ssd1331.c **** 			chTemp = c_chFont1206[chChr - 0x20][i];  
 909              		.loc 1 270 0 is_stmt 1
 910 002e 0C2F     		cmp	r7, #12
 911 0030 08D1     		bne	.L53
 271:oled_ssd1331.c **** 		} else if (FONT_1608 == chSize) { 
 912              		.loc 1 271 0
 913 0032 5B46     		mov	r3, fp
 914 0034 203B     		sub	r3, r3, #32
 915 0036 5A00     		lsl	r2, r3, #1
 916 0038 D318     		add	r3, r2, r3
 917 003a 9B00     		lsl	r3, r3, #2
 918 003c 4B44     		add	r3, r3, r9
 919 003e 1A4A     		ldr	r2, .L61
 920 0040 9E5C     		ldrb	r6, [r3, r2]
 921              	.LVL133:
 922 0042 07E0     		b	.L54
 923              	.L53:
 272:oled_ssd1331.c **** 			chTemp = c_chFont1608[chChr - 0x20][i];
 924              		.loc 1 272 0
 925 0044 102F     		cmp	r7, #16
 926 0046 05D1     		bne	.L54
 273:oled_ssd1331.c **** 		}
 927              		.loc 1 273 0
 928 0048 5B46     		mov	r3, fp
 929 004a 203B     		sub	r3, r3, #32
 930 004c 1B01     		lsl	r3, r3, #4
 931 004e 4B44     		add	r3, r3, r9
 932 0050 164A     		ldr	r2, .L61+4
 933 0052 9E5C     		ldrb	r6, [r3, r2]
 934              	.LVL134:
 935              	.L54:
 260:oled_ssd1331.c **** 	uint8_t i, j; 
 936              		.loc 1 260 0 discriminator 1
 937 0054 0025     		mov	r5, #0
 938 0056 17E0     		b	.L55
 939              	.LVL135:
 940              	.L59:
 277:oled_ssd1331.c **** 				ssd1331_draw_point(chXpos, chYpos, hwColor);
 941              		.loc 1 277 0
 942 0058 73B2     		sxtb	r3, r6
 943 005a 002B     		cmp	r3, #0
 944 005c 04DA     		bge	.L56
ARM GAS  C:\Users\ROUSSMA\AppData\Local\Temp\ccMuthyh.s 			page 26


 278:oled_ssd1331.c ****     		}			
 945              		.loc 1 278 0
 946 005e 5046     		mov	r0, r10
 947 0060 211C     		mov	r1, r4
 948 0062 019A     		ldr	r2, [sp, #4]
 949 0064 FFF7FEFF 		bl	ssd1331_draw_point
 950              	.LVL136:
 951              	.L56:
 280:oled_ssd1331.c **** 			chYpos ++;
 952              		.loc 1 280 0
 953 0068 7600     		lsl	r6, r6, #1
 954              	.LVL137:
 955 006a F6B2     		uxtb	r6, r6
 956              	.LVL138:
 281:oled_ssd1331.c **** 			if ((chYpos - chYpos0) == chSize) {
 957              		.loc 1 281 0
 958 006c 0134     		add	r4, r4, #1
 959              	.LVL139:
 960 006e E4B2     		uxtb	r4, r4
 961              	.LVL140:
 282:oled_ssd1331.c **** 				chYpos = chYpos0;
 962              		.loc 1 282 0
 963 0070 4346     		mov	r3, r8
 964 0072 E31A     		sub	r3, r4, r3
 965 0074 BB42     		cmp	r3, r7
 966 0076 05D1     		bne	.L57
 967              	.LVL141:
 284:oled_ssd1331.c **** 				break;
 968              		.loc 1 284 0
 969 0078 5346     		mov	r3, r10
 970 007a 0133     		add	r3, r3, #1
 971 007c DBB2     		uxtb	r3, r3
 972 007e 9A46     		mov	r10, r3
 973              	.LVL142:
 283:oled_ssd1331.c **** 				chXpos ++;
 974              		.loc 1 283 0
 975 0080 4446     		mov	r4, r8
 285:oled_ssd1331.c **** 			}
 976              		.loc 1 285 0
 977 0082 03E0     		b	.L58
 978              	.LVL143:
 979              	.L57:
 276:oled_ssd1331.c ****     		if (chTemp & 0x80) {
 980              		.loc 1 276 0 discriminator 2
 981 0084 0135     		add	r5, r5, #1
 982              	.LVL144:
 983 0086 EDB2     		uxtb	r5, r5
 984              	.LVL145:
 985              	.L55:
 276:oled_ssd1331.c ****     		if (chTemp & 0x80) {
 986              		.loc 1 276 0 is_stmt 0 discriminator 1
 987 0088 072D     		cmp	r5, #7
 988 008a E5D9     		bls	.L59
 989              	.LVL146:
 990              	.L58:
 269:oled_ssd1331.c **** 		if (FONT_1206 == chSize) {
 991              		.loc 1 269 0 is_stmt 1 discriminator 2
ARM GAS  C:\Users\ROUSSMA\AppData\Local\Temp\ccMuthyh.s 			page 27


 992 008c 4B46     		mov	r3, r9
 993 008e 0133     		add	r3, r3, #1
 994 0090 DBB2     		uxtb	r3, r3
 995 0092 9946     		mov	r9, r3
 996              	.LVL147:
 997              	.L52:
 269:oled_ssd1331.c **** 		if (FONT_1206 == chSize) {
 998              		.loc 1 269 0 is_stmt 0 discriminator 1
 999 0094 B945     		cmp	r9, r7
 1000 0096 CAD3     		bcc	.L60
 1001              	.LVL148:
 1002              	.L50:
 289:oled_ssd1331.c **** 
 1003              		.loc 1 289 0 is_stmt 1
 1004 0098 03B0     		add	sp, sp, #12
 1005              		@ sp needed
 1006 009a 3CBC     		pop	{r2, r3, r4, r5}
 1007 009c 9046     		mov	r8, r2
 1008 009e 9946     		mov	r9, r3
 1009 00a0 A246     		mov	r10, r4
 1010 00a2 AB46     		mov	fp, r5
 1011 00a4 F0BD     		pop	{r4, r5, r6, r7, pc}
 1012              	.L62:
 1013 00a6 C046     		.align	2
 1014              	.L61:
 1015 00a8 00000000 		.word	c_chFont1206
 1016 00ac 00000000 		.word	c_chFont1608
 1017              		.cfi_endproc
 1018              	.LFE46:
 1019              		.size	ssd1331_display_char, .-ssd1331_display_char
 1020              		.section	.text.ssd1331_display_string,"ax",%progbits
 1021              		.align	2
 1022              		.global	ssd1331_display_string
 1023              		.code	16
 1024              		.thumb_func
 1025              		.type	ssd1331_display_string, %function
 1026              	ssd1331_display_string:
 1027              	.LFB47:
 301:oled_ssd1331.c **** 	if (chXpos >= OLED_WIDTH || chYpos >= OLED_HEIGHT) {
 1028              		.loc 1 301 0
 1029              		.cfi_startproc
 1030              	.LVL149:
 1031 0000 F0B5     		push	{r4, r5, r6, r7, lr}
 1032              		.cfi_def_cfa_offset 20
 1033              		.cfi_offset 4, -20
 1034              		.cfi_offset 5, -16
 1035              		.cfi_offset 6, -12
 1036              		.cfi_offset 7, -8
 1037              		.cfi_offset 14, -4
 1038 0002 4F46     		mov	r7, r9
 1039 0004 4646     		mov	r6, r8
 1040 0006 C0B4     		push	{r6, r7}
 1041              		.cfi_def_cfa_offset 28
 1042              		.cfi_offset 8, -28
 1043              		.cfi_offset 9, -24
 1044 0008 83B0     		sub	sp, sp, #12
 1045              		.cfi_def_cfa_offset 40
ARM GAS  C:\Users\ROUSSMA\AppData\Local\Temp\ccMuthyh.s 			page 28


 1046 000a 041C     		mov	r4, r0
 1047 000c 0F1C     		mov	r7, r1
 1048 000e 161C     		mov	r6, r2
 1049 0010 9846     		mov	r8, r3
 1050 0012 0AAB     		add	r3, sp, #40
 1051              	.LVL150:
 1052 0014 1B88     		ldrh	r3, [r3]
 1053              	.LVL151:
 1054 0016 9946     		mov	r9, r3
 302:oled_ssd1331.c **** 		return;
 1055              		.loc 1 302 0
 1056 0018 5F28     		cmp	r0, #95
 1057 001a 24D8     		bhi	.L63
 302:oled_ssd1331.c **** 		return;
 1058              		.loc 1 302 0 is_stmt 0 discriminator 1
 1059 001c 3F29     		cmp	r1, #63
 1060 001e 1FD9     		bls	.L65
 1061 0020 21E0     		b	.L63
 1062              	.LVL152:
 1063              	.L67:
 307:oled_ssd1331.c **** 			chXpos = 0;
 1064              		.loc 1 307 0 is_stmt 1
 1065 0022 4346     		mov	r3, r8
 1066 0024 5D08     		lsr	r5, r3, #1
 1067 0026 6023     		mov	r3, #96
 1068 0028 5B1B     		sub	r3, r3, r5
 1069 002a 9C42     		cmp	r4, r3
 1070 002c 0DDD     		ble	.L66
 1071              	.LVL153:
 309:oled_ssd1331.c **** 			if (chYpos > (OLED_HEIGHT - chSize)) {
 1072              		.loc 1 309 0
 1073 002e 4744     		add	r7, r7, r8
 1074              	.LVL154:
 1075 0030 FFB2     		uxtb	r7, r7
 1076              	.LVL155:
 310:oled_ssd1331.c **** 				chYpos = chXpos = 0;
 1077              		.loc 1 310 0
 1078 0032 4023     		mov	r3, #64
 1079 0034 4246     		mov	r2, r8
 1080 0036 9B1A     		sub	r3, r3, r2
 1081 0038 9F42     		cmp	r7, r3
 1082 003a 05DD     		ble	.L68
 1083              	.LVL156:
 312:oled_ssd1331.c **** 			}
 1084              		.loc 1 312 0
 1085 003c 0020     		mov	r0, #0
 1086 003e FFF7FEFF 		bl	ssd1331_clear_screen
 1087              	.LVL157:
 311:oled_ssd1331.c **** 				ssd1331_clear_screen(0x00);
 1088              		.loc 1 311 0
 1089 0042 0027     		mov	r7, #0
 1090 0044 0024     		mov	r4, #0
 1091 0046 00E0     		b	.L66
 1092              	.LVL158:
 1093              	.L68:
 308:oled_ssd1331.c **** 			chYpos += chSize;
 1094              		.loc 1 308 0
ARM GAS  C:\Users\ROUSSMA\AppData\Local\Temp\ccMuthyh.s 			page 29


 1095 0048 0024     		mov	r4, #0
 1096              	.LVL159:
 1097              	.L66:
 316:oled_ssd1331.c ****         chXpos += chSize / 2;
 1098              		.loc 1 316 0
 1099 004a 3278     		ldrb	r2, [r6]
 1100 004c 4B46     		mov	r3, r9
 1101 004e 0093     		str	r3, [sp]
 1102 0050 201C     		mov	r0, r4
 1103 0052 391C     		mov	r1, r7
 1104 0054 4346     		mov	r3, r8
 1105 0056 FFF7FEFF 		bl	ssd1331_display_char
 1106              	.LVL160:
 317:oled_ssd1331.c ****         pchString ++;
 1107              		.loc 1 317 0
 1108 005a 6419     		add	r4, r4, r5
 1109              	.LVL161:
 1110 005c E4B2     		uxtb	r4, r4
 1111              	.LVL162:
 318:oled_ssd1331.c ****     } 
 1112              		.loc 1 318 0
 1113 005e 0136     		add	r6, r6, #1
 1114              	.LVL163:
 1115              	.L65:
 306:oled_ssd1331.c ****         if (chXpos > (OLED_WIDTH - chSize / 2)) {
 1116              		.loc 1 306 0
 1117 0060 3378     		ldrb	r3, [r6]
 1118 0062 002B     		cmp	r3, #0
 1119 0064 DDD1     		bne	.L67
 1120              	.LVL164:
 1121              	.L63:
 320:oled_ssd1331.c **** 
 1122              		.loc 1 320 0
 1123 0066 03B0     		add	sp, sp, #12
 1124              		@ sp needed
 1125              	.LVL165:
 1126 0068 0CBC     		pop	{r2, r3}
 1127 006a 9046     		mov	r8, r2
 1128 006c 9946     		mov	r9, r3
 1129 006e F0BD     		pop	{r4, r5, r6, r7, pc}
 1130              		.cfi_endproc
 1131              	.LFE47:
 1132              		.size	ssd1331_display_string, .-ssd1331_display_string
 1133              		.section	.text.ssd1331_draw_1616char,"ax",%progbits
 1134              		.align	2
 1135              		.global	ssd1331_draw_1616char
 1136              		.code	16
 1137              		.thumb_func
 1138              		.type	ssd1331_draw_1616char, %function
 1139              	ssd1331_draw_1616char:
 1140              	.LFB48:
 323:oled_ssd1331.c **** 	uint8_t i, j;
 1141              		.loc 1 323 0
 1142              		.cfi_startproc
 1143              	.LVL166:
 1144 0000 F0B5     		push	{r4, r5, r6, r7, lr}
 1145              		.cfi_def_cfa_offset 20
ARM GAS  C:\Users\ROUSSMA\AppData\Local\Temp\ccMuthyh.s 			page 30


 1146              		.cfi_offset 4, -20
 1147              		.cfi_offset 5, -16
 1148              		.cfi_offset 6, -12
 1149              		.cfi_offset 7, -8
 1150              		.cfi_offset 14, -4
 1151 0002 5F46     		mov	r7, fp
 1152 0004 4646     		mov	r6, r8
 1153 0006 C0B4     		push	{r6, r7}
 1154              		.cfi_def_cfa_offset 28
 1155              		.cfi_offset 8, -28
 1156              		.cfi_offset 11, -24
 1157 0008 83B0     		sub	sp, sp, #12
 1158              		.cfi_def_cfa_offset 40
 1159 000a 0090     		str	r0, [sp]
 1160 000c 0E1C     		mov	r6, r1
 1161 000e 9346     		mov	fp, r2
 1162 0010 0193     		str	r3, [sp, #4]
 1163              	.LVL167:
 327:oled_ssd1331.c **** 		chTemp = c_chFont1612[chChar - 0x30][i];
 1164              		.loc 1 327 0
 1165 0012 0C1C     		mov	r4, r1
 1166 0014 0023     		mov	r3, #0
 1167              	.LVL168:
 1168 0016 9846     		mov	r8, r3
 1169 0018 24E0     		b	.L70
 1170              	.LVL169:
 1171              	.L76:
 328:oled_ssd1331.c **** 		for (j = 0; j < 8; j ++) {
 1172              		.loc 1 328 0
 1173 001a 5B46     		mov	r3, fp
 1174 001c 303B     		sub	r3, r3, #48
 1175 001e 5B01     		lsl	r3, r3, #5
 1176 0020 4344     		add	r3, r3, r8
 1177 0022 144A     		ldr	r2, .L77
 1178 0024 9D5C     		ldrb	r5, [r3, r2]
 1179              	.LVL170:
 329:oled_ssd1331.c **** 			if (chTemp & 0x80) {
 1180              		.loc 1 329 0
 1181 0026 0027     		mov	r7, #0
 1182 0028 16E0     		b	.L71
 1183              	.LVL171:
 1184              	.L75:
 330:oled_ssd1331.c **** 				ssd1331_draw_point(chXpos, chYpos, hwColor);
 1185              		.loc 1 330 0
 1186 002a 6BB2     		sxtb	r3, r5
 1187 002c 002B     		cmp	r3, #0
 1188 002e 04DA     		bge	.L72
 331:oled_ssd1331.c ****     		}
 1189              		.loc 1 331 0
 1190 0030 0098     		ldr	r0, [sp]
 1191 0032 211C     		mov	r1, r4
 1192 0034 019A     		ldr	r2, [sp, #4]
 1193 0036 FFF7FEFF 		bl	ssd1331_draw_point
 1194              	.LVL172:
 1195              	.L72:
 333:oled_ssd1331.c **** 			chYpos ++;
 1196              		.loc 1 333 0
ARM GAS  C:\Users\ROUSSMA\AppData\Local\Temp\ccMuthyh.s 			page 31


 1197 003a 6D00     		lsl	r5, r5, #1
 1198              	.LVL173:
 1199 003c EDB2     		uxtb	r5, r5
 1200              	.LVL174:
 334:oled_ssd1331.c **** 			if ((chYpos - chYpos0) == 16) {
 1201              		.loc 1 334 0
 1202 003e 0134     		add	r4, r4, #1
 1203              	.LVL175:
 1204 0040 E4B2     		uxtb	r4, r4
 1205              	.LVL176:
 335:oled_ssd1331.c **** 				chYpos = chYpos0;
 1206              		.loc 1 335 0
 1207 0042 A31B     		sub	r3, r4, r6
 1208 0044 102B     		cmp	r3, #16
 1209 0046 05D1     		bne	.L73
 1210              	.LVL177:
 337:oled_ssd1331.c **** 				break;
 1211              		.loc 1 337 0
 1212 0048 009B     		ldr	r3, [sp]
 1213 004a 0133     		add	r3, r3, #1
 1214 004c DBB2     		uxtb	r3, r3
 1215 004e 0093     		str	r3, [sp]
 1216              	.LVL178:
 336:oled_ssd1331.c **** 				chXpos ++;
 1217              		.loc 1 336 0
 1218 0050 341C     		mov	r4, r6
 338:oled_ssd1331.c **** 			}
 1219              		.loc 1 338 0
 1220 0052 03E0     		b	.L74
 1221              	.LVL179:
 1222              	.L73:
 329:oled_ssd1331.c **** 			if (chTemp & 0x80) {
 1223              		.loc 1 329 0 discriminator 2
 1224 0054 7B1C     		add	r3, r7, #1
 1225 0056 DFB2     		uxtb	r7, r3
 1226              	.LVL180:
 1227              	.L71:
 329:oled_ssd1331.c **** 			if (chTemp & 0x80) {
 1228              		.loc 1 329 0 is_stmt 0 discriminator 1
 1229 0058 072F     		cmp	r7, #7
 1230 005a E6D9     		bls	.L75
 1231              	.LVL181:
 1232              	.L74:
 327:oled_ssd1331.c **** 		chTemp = c_chFont1612[chChar - 0x30][i];
 1233              		.loc 1 327 0 is_stmt 1 discriminator 2
 1234 005c 4346     		mov	r3, r8
 1235 005e 0133     		add	r3, r3, #1
 1236 0060 DBB2     		uxtb	r3, r3
 1237 0062 9846     		mov	r8, r3
 1238              	.LVL182:
 1239              	.L70:
 327:oled_ssd1331.c **** 		chTemp = c_chFont1612[chChar - 0x30][i];
 1240              		.loc 1 327 0 is_stmt 0 discriminator 1
 1241 0064 4346     		mov	r3, r8
 1242 0066 1F2B     		cmp	r3, #31
 1243 0068 D7D9     		bls	.L76
 342:oled_ssd1331.c **** 
ARM GAS  C:\Users\ROUSSMA\AppData\Local\Temp\ccMuthyh.s 			page 32


 1244              		.loc 1 342 0 is_stmt 1
 1245 006a 03B0     		add	sp, sp, #12
 1246              	.LVL183:
 1247              		@ sp needed
 1248              	.LVL184:
 1249              	.LVL185:
 1250 006c 0CBC     		pop	{r2, r3}
 1251 006e 9046     		mov	r8, r2
 1252 0070 9B46     		mov	fp, r3
 1253 0072 F0BD     		pop	{r4, r5, r6, r7, pc}
 1254              	.L78:
 1255              		.align	2
 1256              	.L77:
 1257 0074 00000000 		.word	c_chFont1612
 1258              		.cfi_endproc
 1259              	.LFE48:
 1260              		.size	ssd1331_draw_1616char, .-ssd1331_draw_1616char
 1261              		.section	.text.ssd1331_draw_3216char,"ax",%progbits
 1262              		.align	2
 1263              		.global	ssd1331_draw_3216char
 1264              		.code	16
 1265              		.thumb_func
 1266              		.type	ssd1331_draw_3216char, %function
 1267              	ssd1331_draw_3216char:
 1268              	.LFB49:
 345:oled_ssd1331.c **** 	uint8_t i, j;
 1269              		.loc 1 345 0
 1270              		.cfi_startproc
 1271              	.LVL186:
 1272 0000 F0B5     		push	{r4, r5, r6, r7, lr}
 1273              		.cfi_def_cfa_offset 20
 1274              		.cfi_offset 4, -20
 1275              		.cfi_offset 5, -16
 1276              		.cfi_offset 6, -12
 1277              		.cfi_offset 7, -8
 1278              		.cfi_offset 14, -4
 1279 0002 5F46     		mov	r7, fp
 1280 0004 4646     		mov	r6, r8
 1281 0006 C0B4     		push	{r6, r7}
 1282              		.cfi_def_cfa_offset 28
 1283              		.cfi_offset 8, -28
 1284              		.cfi_offset 11, -24
 1285 0008 83B0     		sub	sp, sp, #12
 1286              		.cfi_def_cfa_offset 40
 1287 000a 0090     		str	r0, [sp]
 1288 000c 0E1C     		mov	r6, r1
 1289 000e 9346     		mov	fp, r2
 1290 0010 0193     		str	r3, [sp, #4]
 1291              	.LVL187:
 349:oled_ssd1331.c **** 		chTemp = c_chFont3216[chChar - 0x30][i];
 1292              		.loc 1 349 0
 1293 0012 0C1C     		mov	r4, r1
 1294 0014 0023     		mov	r3, #0
 1295              	.LVL188:
 1296 0016 9846     		mov	r8, r3
 1297 0018 24E0     		b	.L80
 1298              	.LVL189:
ARM GAS  C:\Users\ROUSSMA\AppData\Local\Temp\ccMuthyh.s 			page 33


 1299              	.L86:
 350:oled_ssd1331.c **** 		for (j = 0; j < 8; j ++) {
 1300              		.loc 1 350 0
 1301 001a 5B46     		mov	r3, fp
 1302 001c 303B     		sub	r3, r3, #48
 1303 001e 9B01     		lsl	r3, r3, #6
 1304 0020 4344     		add	r3, r3, r8
 1305 0022 144A     		ldr	r2, .L87
 1306 0024 9D5C     		ldrb	r5, [r3, r2]
 1307              	.LVL190:
 351:oled_ssd1331.c **** 			if (chTemp & 0x80) {
 1308              		.loc 1 351 0
 1309 0026 0027     		mov	r7, #0
 1310 0028 16E0     		b	.L81
 1311              	.LVL191:
 1312              	.L85:
 352:oled_ssd1331.c **** 				ssd1331_draw_point(chXpos, chYpos, hwColor);
 1313              		.loc 1 352 0
 1314 002a 6BB2     		sxtb	r3, r5
 1315 002c 002B     		cmp	r3, #0
 1316 002e 04DA     		bge	.L82
 353:oled_ssd1331.c ****     		}
 1317              		.loc 1 353 0
 1318 0030 0098     		ldr	r0, [sp]
 1319 0032 211C     		mov	r1, r4
 1320 0034 019A     		ldr	r2, [sp, #4]
 1321 0036 FFF7FEFF 		bl	ssd1331_draw_point
 1322              	.LVL192:
 1323              	.L82:
 355:oled_ssd1331.c **** 			chYpos ++;
 1324              		.loc 1 355 0
 1325 003a 6D00     		lsl	r5, r5, #1
 1326              	.LVL193:
 1327 003c EDB2     		uxtb	r5, r5
 1328              	.LVL194:
 356:oled_ssd1331.c **** 			if ((chYpos - chYpos0) == 32) {
 1329              		.loc 1 356 0
 1330 003e 0134     		add	r4, r4, #1
 1331              	.LVL195:
 1332 0040 E4B2     		uxtb	r4, r4
 1333              	.LVL196:
 357:oled_ssd1331.c **** 				chYpos = chYpos0;
 1334              		.loc 1 357 0
 1335 0042 A31B     		sub	r3, r4, r6
 1336 0044 202B     		cmp	r3, #32
 1337 0046 05D1     		bne	.L83
 1338              	.LVL197:
 359:oled_ssd1331.c **** 				break;
 1339              		.loc 1 359 0
 1340 0048 009B     		ldr	r3, [sp]
 1341 004a 0133     		add	r3, r3, #1
 1342 004c DBB2     		uxtb	r3, r3
 1343 004e 0093     		str	r3, [sp]
 1344              	.LVL198:
 358:oled_ssd1331.c **** 				chXpos ++;
 1345              		.loc 1 358 0
 1346 0050 341C     		mov	r4, r6
ARM GAS  C:\Users\ROUSSMA\AppData\Local\Temp\ccMuthyh.s 			page 34


 360:oled_ssd1331.c **** 			}
 1347              		.loc 1 360 0
 1348 0052 03E0     		b	.L84
 1349              	.LVL199:
 1350              	.L83:
 351:oled_ssd1331.c **** 			if (chTemp & 0x80) {
 1351              		.loc 1 351 0 discriminator 2
 1352 0054 7B1C     		add	r3, r7, #1
 1353 0056 DFB2     		uxtb	r7, r3
 1354              	.LVL200:
 1355              	.L81:
 351:oled_ssd1331.c **** 			if (chTemp & 0x80) {
 1356              		.loc 1 351 0 is_stmt 0 discriminator 1
 1357 0058 072F     		cmp	r7, #7
 1358 005a E6D9     		bls	.L85
 1359              	.LVL201:
 1360              	.L84:
 349:oled_ssd1331.c **** 		chTemp = c_chFont3216[chChar - 0x30][i];
 1361              		.loc 1 349 0 is_stmt 1 discriminator 2
 1362 005c 4346     		mov	r3, r8
 1363 005e 0133     		add	r3, r3, #1
 1364 0060 DBB2     		uxtb	r3, r3
 1365 0062 9846     		mov	r8, r3
 1366              	.LVL202:
 1367              	.L80:
 349:oled_ssd1331.c **** 		chTemp = c_chFont3216[chChar - 0x30][i];
 1368              		.loc 1 349 0 is_stmt 0 discriminator 1
 1369 0064 4346     		mov	r3, r8
 1370 0066 3F2B     		cmp	r3, #63
 1371 0068 D7D9     		bls	.L86
 364:oled_ssd1331.c **** 
 1372              		.loc 1 364 0 is_stmt 1
 1373 006a 03B0     		add	sp, sp, #12
 1374              	.LVL203:
 1375              		@ sp needed
 1376              	.LVL204:
 1377              	.LVL205:
 1378 006c 0CBC     		pop	{r2, r3}
 1379 006e 9046     		mov	r8, r2
 1380 0070 9B46     		mov	fp, r3
 1381 0072 F0BD     		pop	{r4, r5, r6, r7, pc}
 1382              	.L88:
 1383              		.align	2
 1384              	.L87:
 1385 0074 00000000 		.word	c_chFont3216
 1386              		.cfi_endproc
 1387              	.LFE49:
 1388              		.size	ssd1331_draw_3216char, .-ssd1331_draw_3216char
 1389              		.global	__aeabi_uidiv
 1390              		.global	__aeabi_uidivmod
 1391              		.section	.text.ssd1331_display_num,"ax",%progbits
 1392              		.align	2
 1393              		.global	ssd1331_display_num
 1394              		.code	16
 1395              		.thumb_func
 1396              		.type	ssd1331_display_num, %function
 1397              	ssd1331_display_num:
ARM GAS  C:\Users\ROUSSMA\AppData\Local\Temp\ccMuthyh.s 			page 35


 1398              	.LFB51:
 373:oled_ssd1331.c **** 
 374:oled_ssd1331.c **** 
 375:oled_ssd1331.c **** void ssd1331_display_num(uint8_t chXpos, uint8_t chYpos, uint32_t chNum, uint8_t chLen, uint8_t chS
 376:oled_ssd1331.c **** {         	
 1399              		.loc 1 376 0
 1400              		.cfi_startproc
 1401              	.LVL206:
 1402 0000 F0B5     		push	{r4, r5, r6, r7, lr}
 1403              		.cfi_def_cfa_offset 20
 1404              		.cfi_offset 4, -20
 1405              		.cfi_offset 5, -16
 1406              		.cfi_offset 6, -12
 1407              		.cfi_offset 7, -8
 1408              		.cfi_offset 14, -4
 1409 0002 5F46     		mov	r7, fp
 1410 0004 4646     		mov	r6, r8
 1411 0006 C0B4     		push	{r6, r7}
 1412              		.cfi_def_cfa_offset 28
 1413              		.cfi_offset 8, -28
 1414              		.cfi_offset 11, -24
 1415 0008 85B0     		sub	sp, sp, #20
 1416              		.cfi_def_cfa_offset 48
 1417 000a 0CAC     		add	r4, sp, #48
 1418              	.LVL207:
 1419 000c 2778     		ldrb	r7, [r4]
 1420 000e 0DAC     		add	r4, sp, #52
 1421              	.LVL208:
 1422 0010 2488     		ldrh	r4, [r4]
 1423              	.LVL209:
 1424 0012 A346     		mov	fp, r4
 1425              	.LVL210:
 377:oled_ssd1331.c **** 	uint8_t i;
 378:oled_ssd1331.c **** 	uint8_t chTemp, chShow = 0;
 379:oled_ssd1331.c **** 
 380:oled_ssd1331.c **** 	if (chXpos >= OLED_WIDTH || chYpos >= OLED_HEIGHT) {
 1426              		.loc 1 380 0
 1427 0014 5F28     		cmp	r0, #95
 1428 0016 3AD8     		bhi	.L89
 1429              		.loc 1 380 0 is_stmt 0 discriminator 1
 1430 0018 3F29     		cmp	r1, #63
 1431 001a 38D8     		bhi	.L89
 1432 001c 1D1C     		mov	r5, r3
 1433 001e 0292     		str	r2, [sp, #8]
 1434 0020 0391     		str	r1, [sp, #12]
 1435 0022 8046     		mov	r8, r0
 1436 0024 0026     		mov	r6, #0
 1437 0026 0024     		mov	r4, #0
 1438 0028 2FE0     		b	.L91
 1439              	.LVL211:
 1440              	.L94:
 381:oled_ssd1331.c **** 		return;
 382:oled_ssd1331.c **** 	}
 383:oled_ssd1331.c **** 	
 384:oled_ssd1331.c **** 	for(i = 0; i < chLen; i ++) {
 385:oled_ssd1331.c **** 		chTemp = (chNum / _pow(10, chLen - i - 1)) % 10;
 1441              		.loc 1 385 0 is_stmt 1
ARM GAS  C:\Users\ROUSSMA\AppData\Local\Temp\ccMuthyh.s 			page 36


 1442 002a 291B     		sub	r1, r5, r4
 1443 002c 0139     		sub	r1, r1, #1
 1444 002e C9B2     		uxtb	r1, r1
 1445 0030 0A20     		mov	r0, #10
 1446 0032 FFF7FEFF 		bl	_pow
 1447              	.LVL212:
 1448 0036 011C     		mov	r1, r0
 1449 0038 0298     		ldr	r0, [sp, #8]
 1450 003a FFF7FEFF 		bl	__aeabi_uidiv
 1451              	.LVL213:
 1452 003e 0A21     		mov	r1, #10
 1453 0040 FFF7FEFF 		bl	__aeabi_uidivmod
 1454              	.LVL214:
 1455 0044 CAB2     		uxtb	r2, r1
 1456              	.LVL215:
 386:oled_ssd1331.c **** 		if(chShow == 0 && i < (chLen - 1)) {
 1457              		.loc 1 386 0
 1458 0046 002E     		cmp	r6, #0
 1459 0048 11D1     		bne	.L92
 1460              		.loc 1 386 0 is_stmt 0 discriminator 1
 1461 004a 6B1E     		sub	r3, r5, #1
 1462 004c 9C42     		cmp	r4, r3
 1463 004e 0EDA     		bge	.L92
 387:oled_ssd1331.c **** 			if(chTemp == 0) {
 1464              		.loc 1 387 0 is_stmt 1
 1465 0050 002A     		cmp	r2, #0
 1466 0052 0BD1     		bne	.L95
 388:oled_ssd1331.c **** 				ssd1331_display_char(chXpos + (chSize / 2) * i, chYpos, ' ', chSize, hwColor);
 1467              		.loc 1 388 0
 1468 0054 7808     		lsr	r0, r7, #1
 1469 0056 6043     		mul	r0, r4
 1470 0058 4044     		add	r0, r0, r8
 1471 005a C0B2     		uxtb	r0, r0
 1472 005c 5B46     		mov	r3, fp
 1473 005e 0093     		str	r3, [sp]
 1474 0060 0399     		ldr	r1, [sp, #12]
 1475 0062 2032     		add	r2, r2, #32
 1476              	.LVL216:
 1477 0064 3B1C     		mov	r3, r7
 1478 0066 FFF7FEFF 		bl	ssd1331_display_char
 1479              	.LVL217:
 389:oled_ssd1331.c **** 				continue;
 1480              		.loc 1 389 0
 1481 006a 0CE0     		b	.L93
 1482              	.LVL218:
 1483              	.L95:
 390:oled_ssd1331.c **** 			} else {
 391:oled_ssd1331.c **** 				chShow = 1;
 1484              		.loc 1 391 0
 1485 006c 0126     		mov	r6, #1
 1486              	.LVL219:
 1487              	.L92:
 392:oled_ssd1331.c **** 			}	 
 393:oled_ssd1331.c **** 		}
 394:oled_ssd1331.c **** 	 	ssd1331_display_char(chXpos + (chSize / 2) * i, chYpos, chTemp + '0', chSize, hwColor); 
 1488              		.loc 1 394 0
 1489 006e 7808     		lsr	r0, r7, #1
ARM GAS  C:\Users\ROUSSMA\AppData\Local\Temp\ccMuthyh.s 			page 37


 1490 0070 6043     		mul	r0, r4
 1491 0072 4044     		add	r0, r0, r8
 1492 0074 C0B2     		uxtb	r0, r0
 1493 0076 3032     		add	r2, r2, #48
 1494              	.LVL220:
 1495 0078 D2B2     		uxtb	r2, r2
 1496              	.LVL221:
 1497 007a 5B46     		mov	r3, fp
 1498 007c 0093     		str	r3, [sp]
 1499 007e 0399     		ldr	r1, [sp, #12]
 1500              	.LVL222:
 1501 0080 3B1C     		mov	r3, r7
 1502 0082 FFF7FEFF 		bl	ssd1331_display_char
 1503              	.LVL223:
 1504              	.L93:
 384:oled_ssd1331.c **** 		chTemp = (chNum / _pow(10, chLen - i - 1)) % 10;
 1505              		.loc 1 384 0 discriminator 2
 1506 0086 0134     		add	r4, r4, #1
 1507              	.LVL224:
 1508 0088 E4B2     		uxtb	r4, r4
 1509              	.LVL225:
 1510              	.L91:
 384:oled_ssd1331.c **** 		chTemp = (chNum / _pow(10, chLen - i - 1)) % 10;
 1511              		.loc 1 384 0 is_stmt 0 discriminator 1
 1512 008a AC42     		cmp	r4, r5
 1513 008c CDD3     		bcc	.L94
 1514              	.LVL226:
 1515              	.L89:
 395:oled_ssd1331.c **** 	}
 396:oled_ssd1331.c **** } 
 1516              		.loc 1 396 0 is_stmt 1
 1517 008e 05B0     		add	sp, sp, #20
 1518              		@ sp needed
 1519 0090 0CBC     		pop	{r2, r3}
 1520 0092 9046     		mov	r8, r2
 1521 0094 9B46     		mov	fp, r3
 1522 0096 F0BD     		pop	{r4, r5, r6, r7, pc}
 1523              		.cfi_endproc
 1524              	.LFE51:
 1525              		.size	ssd1331_display_num, .-ssd1331_display_num
 1526              		.section	.text.ssd1331_draw_bitmap,"ax",%progbits
 1527              		.align	2
 1528              		.global	ssd1331_draw_bitmap
 1529              		.code	16
 1530              		.thumb_func
 1531              		.type	ssd1331_draw_bitmap, %function
 1532              	ssd1331_draw_bitmap:
 1533              	.LFB52:
 397:oled_ssd1331.c **** 
 398:oled_ssd1331.c **** /**
 399:oled_ssd1331.c ****   * @brief  Displays a string on the screen
 400:oled_ssd1331.c ****   *         
 401:oled_ssd1331.c ****   * @param  chXpos: Specifies the X position
 402:oled_ssd1331.c ****   * @param  chYpos: Specifies the Y position
 403:oled_ssd1331.c ****   * @param  pchBmp: Pointer to a image to display on the screen 
 404:oled_ssd1331.c ****   * @param  chWidth: Specifies the width of the image
 405:oled_ssd1331.c ****   * @param  chHeight: Specifies the height of the image
ARM GAS  C:\Users\ROUSSMA\AppData\Local\Temp\ccMuthyh.s 			page 38


 406:oled_ssd1331.c ****   * @param  hwColor: Specifies the color of the image
 407:oled_ssd1331.c ****   *         
 408:oled_ssd1331.c ****   * @retval  None
 409:oled_ssd1331.c **** **/
 410:oled_ssd1331.c **** void ssd1331_draw_bitmap(uint8_t chXpos, uint8_t chYpos, const uint8_t *pchBmp, uint8_t chWidth, ui
 411:oled_ssd1331.c **** {
 1534              		.loc 1 411 0
 1535              		.cfi_startproc
 1536              	.LVL227:
 1537 0000 F0B5     		push	{r4, r5, r6, r7, lr}
 1538              		.cfi_def_cfa_offset 20
 1539              		.cfi_offset 4, -20
 1540              		.cfi_offset 5, -16
 1541              		.cfi_offset 6, -12
 1542              		.cfi_offset 7, -8
 1543              		.cfi_offset 14, -4
 1544 0002 5F46     		mov	r7, fp
 1545 0004 5646     		mov	r6, r10
 1546 0006 C0B4     		push	{r6, r7}
 1547              		.cfi_def_cfa_offset 28
 1548              		.cfi_offset 10, -28
 1549              		.cfi_offset 11, -24
 1550 0008 85B0     		sub	sp, sp, #20
 1551              		.cfi_def_cfa_offset 48
 1552 000a 8346     		mov	fp, r0
 1553 000c 8A46     		mov	r10, r1
 1554 000e 161C     		mov	r6, r2
 1555 0010 1A1C     		mov	r2, r3
 1556              	.LVL228:
 1557 0012 0193     		str	r3, [sp, #4]
 1558 0014 0CAB     		add	r3, sp, #48
 1559              	.LVL229:
 1560 0016 1B78     		ldrb	r3, [r3]
 1561              	.LVL230:
 1562 0018 0393     		str	r3, [sp, #12]
 1563 001a 0DAB     		add	r3, sp, #52
 1564              	.LVL231:
 1565 001c 1B88     		ldrh	r3, [r3]
 1566              	.LVL232:
 1567 001e 0293     		str	r3, [sp, #8]
 412:oled_ssd1331.c **** 	uint16_t i, j, byteWidth = (chWidth + 7) / 8;
 1568              		.loc 1 412 0
 1569 0020 131C     		mov	r3, r2
 1570 0022 0733     		add	r3, r3, #7
 1571 0024 DF10     		asr	r7, r3, #3
 1572              	.LVL233:
 413:oled_ssd1331.c **** 	
 414:oled_ssd1331.c ****     for(j = 0; j < chHeight; j ++){
 1573              		.loc 1 414 0
 1574 0026 0025     		mov	r5, #0
 1575 0028 1EE0     		b	.L97
 1576              	.LVL234:
 1577              	.L99:
 415:oled_ssd1331.c ****         for(i = 0; i < chWidth; i ++ ) {
 416:oled_ssd1331.c ****             if(*(pchBmp + j * byteWidth + i / 8) & (128 >> (i & 7))) {
 1578              		.loc 1 416 0
 1579 002a 3B04     		lsl	r3, r7, #16
ARM GAS  C:\Users\ROUSSMA\AppData\Local\Temp\ccMuthyh.s 			page 39


 1580 002c 1B0C     		lsr	r3, r3, #16
 1581 002e 6B43     		mul	r3, r5
 1582 0030 E208     		lsr	r2, r4, #3
 1583 0032 9B18     		add	r3, r3, r2
 1584 0034 F15C     		ldrb	r1, [r6, r3]
 1585 0036 0723     		mov	r3, #7
 1586 0038 2340     		and	r3, r4
 1587 003a 8022     		mov	r2, #128
 1588 003c 1A41     		asr	r2, r2, r3
 1589 003e 0A42     		tst	r2, r1
 1590 0040 08D0     		beq	.L98
 417:oled_ssd1331.c ****                 ssd1331_draw_point(chXpos + i, chYpos + j, hwColor);
 1591              		.loc 1 417 0
 1592 0042 5B46     		mov	r3, fp
 1593 0044 1819     		add	r0, r3, r4
 1594 0046 C0B2     		uxtb	r0, r0
 1595 0048 5346     		mov	r3, r10
 1596 004a 5919     		add	r1, r3, r5
 1597 004c C9B2     		uxtb	r1, r1
 1598 004e 029A     		ldr	r2, [sp, #8]
 1599 0050 FFF7FEFF 		bl	ssd1331_draw_point
 1600              	.LVL235:
 1601              	.L98:
 415:oled_ssd1331.c ****         for(i = 0; i < chWidth; i ++ ) {
 1602              		.loc 1 415 0 discriminator 2
 1603 0054 0134     		add	r4, r4, #1
 1604              	.LVL236:
 1605 0056 A4B2     		uxth	r4, r4
 1606              	.LVL237:
 1607 0058 00E0     		b	.L100
 1608              	.LVL238:
 1609              	.L101:
 1610 005a 0024     		mov	r4, #0
 1611              	.L100:
 1612              	.LVL239:
 415:oled_ssd1331.c ****         for(i = 0; i < chWidth; i ++ ) {
 1613              		.loc 1 415 0 is_stmt 0 discriminator 1
 1614 005c 6B46     		mov	r3, sp
 1615 005e 9B88     		ldrh	r3, [r3, #4]
 1616 0060 A342     		cmp	r3, r4
 1617 0062 E2D8     		bhi	.L99
 414:oled_ssd1331.c ****         for(i = 0; i < chWidth; i ++ ) {
 1618              		.loc 1 414 0 is_stmt 1 discriminator 2
 1619 0064 0135     		add	r5, r5, #1
 1620              	.LVL240:
 1621 0066 ADB2     		uxth	r5, r5
 1622              	.LVL241:
 1623              	.L97:
 414:oled_ssd1331.c ****         for(i = 0; i < chWidth; i ++ ) {
 1624              		.loc 1 414 0 is_stmt 0 discriminator 1
 1625 0068 6B46     		mov	r3, sp
 1626 006a 9B89     		ldrh	r3, [r3, #12]
 1627 006c AB42     		cmp	r3, r5
 1628 006e F4D8     		bhi	.L101
 418:oled_ssd1331.c ****             }
 419:oled_ssd1331.c ****         }
 420:oled_ssd1331.c ****     }
ARM GAS  C:\Users\ROUSSMA\AppData\Local\Temp\ccMuthyh.s 			page 40


 421:oled_ssd1331.c **** }
 1629              		.loc 1 421 0 is_stmt 1
 1630 0070 05B0     		add	sp, sp, #20
 1631              		@ sp needed
 1632              	.LVL242:
 1633              	.LVL243:
 1634              	.LVL244:
 1635 0072 0CBC     		pop	{r2, r3}
 1636 0074 9246     		mov	r10, r2
 1637 0076 9B46     		mov	fp, r3
 1638 0078 F0BD     		pop	{r4, r5, r6, r7, pc}
 1639              		.cfi_endproc
 1640              	.LFE52:
 1641              		.size	ssd1331_draw_bitmap, .-ssd1331_draw_bitmap
 1642 007a C046     		.section	.text.ssd1331_init,"ax",%progbits
 1643              		.align	2
 1644              		.global	ssd1331_init
 1645              		.code	16
 1646              		.thumb_func
 1647              		.type	ssd1331_init, %function
 1648              	ssd1331_init:
 1649              	.LFB53:
 422:oled_ssd1331.c **** 
 423:oled_ssd1331.c **** void ssd1331_init(void)
 424:oled_ssd1331.c **** {
 1650              		.loc 1 424 0
 1651              		.cfi_startproc
 1652 0000 08B5     		push	{r3, lr}
 1653              		.cfi_def_cfa_offset 8
 1654              		.cfi_offset 3, -8
 1655              		.cfi_offset 14, -4
 425:oled_ssd1331.c **** 
 426:oled_ssd1331.c ****     OLED_Reset_Write(1);
 1656              		.loc 1 426 0
 1657 0002 0120     		mov	r0, #1
 1658 0004 FFF7FEFF 		bl	OLED_Reset_Write
 1659              	.LVL245:
 427:oled_ssd1331.c ****     CyDelay(10);
 1660              		.loc 1 427 0
 1661 0008 0A20     		mov	r0, #10
 1662 000a FFF7FEFF 		bl	CyDelay
 1663              	.LVL246:
 428:oled_ssd1331.c ****     OLED_Reset_Write(0);
 1664              		.loc 1 428 0
 1665 000e 0020     		mov	r0, #0
 1666 0010 FFF7FEFF 		bl	OLED_Reset_Write
 1667              	.LVL247:
 429:oled_ssd1331.c ****     CyDelay(10);
 1668              		.loc 1 429 0
 1669 0014 0A20     		mov	r0, #10
 1670 0016 FFF7FEFF 		bl	CyDelay
 1671              	.LVL248:
 430:oled_ssd1331.c ****     OLED_Reset_Write(1);
 1672              		.loc 1 430 0
 1673 001a 0120     		mov	r0, #1
 1674 001c FFF7FEFF 		bl	OLED_Reset_Write
 1675              	.LVL249:
ARM GAS  C:\Users\ROUSSMA\AppData\Local\Temp\ccMuthyh.s 			page 41


 431:oled_ssd1331.c **** 
 432:oled_ssd1331.c ****     
 433:oled_ssd1331.c **** 	
 434:oled_ssd1331.c **** 	ssd1331_write_byte(DISPLAY_OFF, SSD1331_CMD);          //Display Off
 1676              		.loc 1 434 0
 1677 0020 AE20     		mov	r0, #174
 1678 0022 0021     		mov	r1, #0
 1679 0024 FFF7FEFF 		bl	ssd1331_write_byte
 1680              	.LVL250:
 435:oled_ssd1331.c ****     ssd1331_write_byte(SET_REMAP, SSD1331_CMD);          
 1681              		.loc 1 435 0
 1682 0028 A020     		mov	r0, #160
 1683 002a 0021     		mov	r1, #0
 1684 002c FFF7FEFF 		bl	ssd1331_write_byte
 1685              	.LVL251:
 436:oled_ssd1331.c ****     ssd1331_write_byte(0x72, SSD1331_CMD);             
 1686              		.loc 1 436 0
 1687 0030 7220     		mov	r0, #114
 1688 0032 0021     		mov	r1, #0
 1689 0034 FFF7FEFF 		bl	ssd1331_write_byte
 1690              	.LVL252:
 437:oled_ssd1331.c ****     ssd1331_write_byte(SET_DISPLAY_START_LINE, SSD1331_CMD);//Set display Start Line
 1691              		.loc 1 437 0
 1692 0038 A120     		mov	r0, #161
 1693 003a 0021     		mov	r1, #0
 1694 003c FFF7FEFF 		bl	ssd1331_write_byte
 1695              	.LVL253:
 438:oled_ssd1331.c ****     ssd1331_write_byte(0x0, SSD1331_CMD);
 1696              		.loc 1 438 0
 1697 0040 0020     		mov	r0, #0
 1698 0042 0021     		mov	r1, #0
 1699 0044 FFF7FEFF 		bl	ssd1331_write_byte
 1700              	.LVL254:
 439:oled_ssd1331.c ****     ssd1331_write_byte(SET_DISPLAY_OFFSET, SSD1331_CMD);   //Set display offset
 1701              		.loc 1 439 0
 1702 0048 A220     		mov	r0, #162
 1703 004a 0021     		mov	r1, #0
 1704 004c FFF7FEFF 		bl	ssd1331_write_byte
 1705              	.LVL255:
 440:oled_ssd1331.c ****     ssd1331_write_byte(0x0, SSD1331_CMD);
 1706              		.loc 1 440 0
 1707 0050 0020     		mov	r0, #0
 1708 0052 0021     		mov	r1, #0
 1709 0054 FFF7FEFF 		bl	ssd1331_write_byte
 1710              	.LVL256:
 441:oled_ssd1331.c ****     ssd1331_write_byte(NORMAL_DISPLAY, SSD1331_CMD);       //Set display mode
 1711              		.loc 1 441 0
 1712 0058 A420     		mov	r0, #164
 1713 005a 0021     		mov	r1, #0
 1714 005c FFF7FEFF 		bl	ssd1331_write_byte
 1715              	.LVL257:
 442:oled_ssd1331.c ****     //ssd1331_write_byte(ENTIRE_DISPLAY_ON, SSD1331_CMD);
 443:oled_ssd1331.c ****     ssd1331_write_byte(SET_MULTIPLEX_RATIO, SSD1331_CMD);  //Set multiplex ratio
 1716              		.loc 1 443 0
 1717 0060 A820     		mov	r0, #168
 1718 0062 0021     		mov	r1, #0
 1719 0064 FFF7FEFF 		bl	ssd1331_write_byte
ARM GAS  C:\Users\ROUSSMA\AppData\Local\Temp\ccMuthyh.s 			page 42


 1720              	.LVL258:
 444:oled_ssd1331.c ****     ssd1331_write_byte(0x3F, SSD1331_CMD);     
 1721              		.loc 1 444 0
 1722 0068 3F20     		mov	r0, #63
 1723 006a 0021     		mov	r1, #0
 1724 006c FFF7FEFF 		bl	ssd1331_write_byte
 1725              	.LVL259:
 445:oled_ssd1331.c ****     ssd1331_write_byte(SET_MASTER_CONFIGURE, SSD1331_CMD); //Set master configuration
 1726              		.loc 1 445 0
 1727 0070 AD20     		mov	r0, #173
 1728 0072 0021     		mov	r1, #0
 1729 0074 FFF7FEFF 		bl	ssd1331_write_byte
 1730              	.LVL260:
 446:oled_ssd1331.c ****     ssd1331_write_byte(0x8E, SSD1331_CMD);
 1731              		.loc 1 446 0
 1732 0078 8E20     		mov	r0, #142
 1733 007a 0021     		mov	r1, #0
 1734 007c FFF7FEFF 		bl	ssd1331_write_byte
 1735              	.LVL261:
 447:oled_ssd1331.c ****     ssd1331_write_byte(POWER_SAVE_MODE, SSD1331_CMD);      //Set Power Save Mode
 1736              		.loc 1 447 0
 1737 0080 B020     		mov	r0, #176
 1738 0082 0021     		mov	r1, #0
 1739 0084 FFF7FEFF 		bl	ssd1331_write_byte
 1740              	.LVL262:
 448:oled_ssd1331.c ****     ssd1331_write_byte(0x00, SSD1331_CMD);                     //0x00
 1741              		.loc 1 448 0
 1742 0088 0020     		mov	r0, #0
 1743 008a 0021     		mov	r1, #0
 1744 008c FFF7FEFF 		bl	ssd1331_write_byte
 1745              	.LVL263:
 449:oled_ssd1331.c ****     ssd1331_write_byte(PHASE_PERIOD_ADJUSTMENT, SSD1331_CMD);//phase 1 and 2 period adjustment
 1746              		.loc 1 449 0
 1747 0090 B120     		mov	r0, #177
 1748 0092 0021     		mov	r1, #0
 1749 0094 FFF7FEFF 		bl	ssd1331_write_byte
 1750              	.LVL264:
 450:oled_ssd1331.c ****     ssd1331_write_byte(0x31, SSD1331_CMD);                     //0x31
 1751              		.loc 1 450 0
 1752 0098 3120     		mov	r0, #49
 1753 009a 0021     		mov	r1, #0
 1754 009c FFF7FEFF 		bl	ssd1331_write_byte
 1755              	.LVL265:
 451:oled_ssd1331.c ****     ssd1331_write_byte(DISPLAY_CLOCK_DIV, SSD1331_CMD);    //display clock divider/oscillator frequ
 1756              		.loc 1 451 0
 1757 00a0 B320     		mov	r0, #179
 1758 00a2 0021     		mov	r1, #0
 1759 00a4 FFF7FEFF 		bl	ssd1331_write_byte
 1760              	.LVL266:
 452:oled_ssd1331.c ****     ssd1331_write_byte(0xF0, SSD1331_CMD);
 1761              		.loc 1 452 0
 1762 00a8 F020     		mov	r0, #240
 1763 00aa 0021     		mov	r1, #0
 1764 00ac FFF7FEFF 		bl	ssd1331_write_byte
 1765              	.LVL267:
 453:oled_ssd1331.c ****     ssd1331_write_byte(SET_PRECHARGE_SPEED_B, SSD1331_CMD);//Set Second Pre-change Speed For ColorB
 1766              		.loc 1 453 0
ARM GAS  C:\Users\ROUSSMA\AppData\Local\Temp\ccMuthyh.s 			page 43


 1767 00b0 8B20     		mov	r0, #139
 1768 00b2 0021     		mov	r1, #0
 1769 00b4 FFF7FEFF 		bl	ssd1331_write_byte
 1770              	.LVL268:
 454:oled_ssd1331.c ****     ssd1331_write_byte(0x78, SSD1331_CMD);                     //120
 1771              		.loc 1 454 0
 1772 00b8 7820     		mov	r0, #120
 1773 00ba 0021     		mov	r1, #0
 1774 00bc FFF7FEFF 		bl	ssd1331_write_byte
 1775              	.LVL269:
 455:oled_ssd1331.c ****     ssd1331_write_byte(SET_PRECHARGE_SPEED_C, SSD1331_CMD);//Set Second Pre-change Speed For ColorC
 1776              		.loc 1 455 0
 1777 00c0 8C20     		mov	r0, #140
 1778 00c2 0021     		mov	r1, #0
 1779 00c4 FFF7FEFF 		bl	ssd1331_write_byte
 1780              	.LVL270:
 456:oled_ssd1331.c ****     ssd1331_write_byte(0x64, SSD1331_CMD);                     //100
 1781              		.loc 1 456 0
 1782 00c8 6420     		mov	r0, #100
 1783 00ca 0021     		mov	r1, #0
 1784 00cc FFF7FEFF 		bl	ssd1331_write_byte
 1785              	.LVL271:
 457:oled_ssd1331.c ****     ssd1331_write_byte(SET_PRECHARGE_VOLTAGE, SSD1331_CMD);//Set Pre-Change Level
 1786              		.loc 1 457 0
 1787 00d0 BB20     		mov	r0, #187
 1788 00d2 0021     		mov	r1, #0
 1789 00d4 FFF7FEFF 		bl	ssd1331_write_byte
 1790              	.LVL272:
 458:oled_ssd1331.c ****     ssd1331_write_byte(0x3A, SSD1331_CMD);
 1791              		.loc 1 458 0
 1792 00d8 3A20     		mov	r0, #58
 1793 00da 0021     		mov	r1, #0
 1794 00dc FFF7FEFF 		bl	ssd1331_write_byte
 1795              	.LVL273:
 459:oled_ssd1331.c ****     ssd1331_write_byte(SET_V_VOLTAGE, SSD1331_CMD);        //Set vcomH
 1796              		.loc 1 459 0
 1797 00e0 BE20     		mov	r0, #190
 1798 00e2 0021     		mov	r1, #0
 1799 00e4 FFF7FEFF 		bl	ssd1331_write_byte
 1800              	.LVL274:
 460:oled_ssd1331.c ****     ssd1331_write_byte(0x3E, SSD1331_CMD);
 1801              		.loc 1 460 0
 1802 00e8 3E20     		mov	r0, #62
 1803 00ea 0021     		mov	r1, #0
 1804 00ec FFF7FEFF 		bl	ssd1331_write_byte
 1805              	.LVL275:
 461:oled_ssd1331.c ****     ssd1331_write_byte(MASTER_CURRENT_CONTROL, SSD1331_CMD);//master current control
 1806              		.loc 1 461 0
 1807 00f0 8720     		mov	r0, #135
 1808 00f2 0021     		mov	r1, #0
 1809 00f4 FFF7FEFF 		bl	ssd1331_write_byte
 1810              	.LVL276:
 462:oled_ssd1331.c ****     ssd1331_write_byte(0x06, SSD1331_CMD);                     //6
 1811              		.loc 1 462 0
 1812 00f8 0620     		mov	r0, #6
 1813 00fa 0021     		mov	r1, #0
 1814 00fc FFF7FEFF 		bl	ssd1331_write_byte
ARM GAS  C:\Users\ROUSSMA\AppData\Local\Temp\ccMuthyh.s 			page 44


 1815              	.LVL277:
 463:oled_ssd1331.c ****     
 464:oled_ssd1331.c ****     ssd1331_write_byte(SET_CONTRAST_A, SSD1331_CMD);       //Set contrast for color A
 1816              		.loc 1 464 0
 1817 0100 8120     		mov	r0, #129
 1818 0102 0021     		mov	r1, #0
 1819 0104 FFF7FEFF 		bl	ssd1331_write_byte
 1820              	.LVL278:
 465:oled_ssd1331.c ****     ssd1331_write_byte(0xFF, SSD1331_CMD);                     //145 0x91
 1821              		.loc 1 465 0
 1822 0108 FF20     		mov	r0, #255
 1823 010a 0021     		mov	r1, #0
 1824 010c FFF7FEFF 		bl	ssd1331_write_byte
 1825              	.LVL279:
 466:oled_ssd1331.c ****     ssd1331_write_byte(SET_CONTRAST_B, SSD1331_CMD);       //Set contrast for color B
 1826              		.loc 1 466 0
 1827 0110 8220     		mov	r0, #130
 1828 0112 0021     		mov	r1, #0
 1829 0114 FFF7FEFF 		bl	ssd1331_write_byte
 1830              	.LVL280:
 467:oled_ssd1331.c ****     ssd1331_write_byte(0xFF, SSD1331_CMD);                     //80 0x50
 1831              		.loc 1 467 0
 1832 0118 FF20     		mov	r0, #255
 1833 011a 0021     		mov	r1, #0
 1834 011c FFF7FEFF 		bl	ssd1331_write_byte
 1835              	.LVL281:
 468:oled_ssd1331.c ****     ssd1331_write_byte(SET_CONTRAST_C, SSD1331_CMD);       //Set contrast for color C
 1836              		.loc 1 468 0
 1837 0120 8320     		mov	r0, #131
 1838 0122 0021     		mov	r1, #0
 1839 0124 FFF7FEFF 		bl	ssd1331_write_byte
 1840              	.LVL282:
 469:oled_ssd1331.c ****     ssd1331_write_byte(0xFF, SSD1331_CMD);                     //125 0x7D              
 1841              		.loc 1 469 0
 1842 0128 FF20     		mov	r0, #255
 1843 012a 0021     		mov	r1, #0
 1844 012c FFF7FEFF 		bl	ssd1331_write_byte
 1845              	.LVL283:
 470:oled_ssd1331.c **** 
 471:oled_ssd1331.c ****     ssd1331_write_byte(DEACTIVE_SCROLLING, SSD1331_CMD);   //disable scrolling
 1846              		.loc 1 471 0
 1847 0130 2E20     		mov	r0, #46
 1848 0132 0021     		mov	r1, #0
 1849 0134 FFF7FEFF 		bl	ssd1331_write_byte
 1850              	.LVL284:
 472:oled_ssd1331.c ****     ssd1331_write_byte(NORMAL_BRIGHTNESS_DISPLAY_ON, SSD1331_CMD);//set display on
 1851              		.loc 1 472 0
 1852 0138 AF20     		mov	r0, #175
 1853 013a 0021     		mov	r1, #0
 1854 013c FFF7FEFF 		bl	ssd1331_write_byte
 1855              	.LVL285:
 473:oled_ssd1331.c **** 
 474:oled_ssd1331.c **** }
 1856              		.loc 1 474 0
 1857              		@ sp needed
 1858 0140 08BD     		pop	{r3, pc}
 1859              		.cfi_endproc
ARM GAS  C:\Users\ROUSSMA\AppData\Local\Temp\ccMuthyh.s 			page 45


 1860              	.LFE53:
 1861              		.size	ssd1331_init, .-ssd1331_init
 1862 0142 C046     		.text
 1863              	.Letext0:
 1864              		.file 2 "c:\\program files (x86)\\cypress\\psoc creator\\4.0\\psoc creator\\import\\gnu\\arm\\4.9.
 1865              		.file 3 "c:\\program files (x86)\\cypress\\psoc creator\\4.0\\psoc creator\\import\\gnu\\arm\\4.9.
 1866              		.file 4 "Generated_Source\\PSoC4/cytypes.h"
 1867              		.file 5 "fonts.h"
 1868              		.file 6 "Generated_Source\\PSoC4/OLED_DC.h"
 1869              		.file 7 "Generated_Source\\PSoC4/SPI_Master_SPI_UART.h"
 1870              		.file 8 "Generated_Source\\PSoC4/OLED_Reset.h"
 1871              		.file 9 "Generated_Source\\PSoC4/CyLib.h"