ARM GAS  C:\Users\ROUSSMA\AppData\Local\Temp\cckXhTKH.s 			page 1


   1              		.syntax unified
   2              		.cpu cortex-m0
   3              		.fpu softvfp
   4              		.eabi_attribute 20, 1
   5              		.eabi_attribute 21, 1
   6              		.eabi_attribute 23, 3
   7              		.eabi_attribute 24, 1
   8              		.eabi_attribute 25, 1
   9              		.eabi_attribute 26, 1
  10              		.eabi_attribute 30, 6
  11              		.eabi_attribute 34, 0
  12              		.eabi_attribute 18, 4
  13              		.thumb
  14              		.syntax unified
  15              		.file	"oled_ssd1331.c"
  16              		.text
  17              	.Ltext0:
  18              		.cfi_sections	.debug_frame
  19              		.section	.text.ssd1331_write_byte,"ax",%progbits
  20              		.align	2
  21              		.code	16
  22              		.thumb_func
  23              		.type	ssd1331_write_byte, %function
  24              	ssd1331_write_byte:
  25              	.LFB66:
  26              		.file 1 "oled_ssd1331.c"
   1:oled_ssd1331.c **** /* ========================================
   2:oled_ssd1331.c ****  *
   3:oled_ssd1331.c ****  * Copyright YOUR COMPANY, THE YEAR
   4:oled_ssd1331.c ****  * All Rights Reserved
   5:oled_ssd1331.c ****  * UNPUBLISHED, LICENSED SOFTWARE.
   6:oled_ssd1331.c ****  *
   7:oled_ssd1331.c ****  * CONFIDENTIAL AND PROPRIETARY INFORMATION
   8:oled_ssd1331.c ****  * WHICH IS THE PROPERTY OF your company.
   9:oled_ssd1331.c ****  *
  10:oled_ssd1331.c ****  * ========================================
  11:oled_ssd1331.c **** */
  12:oled_ssd1331.c **** 
  13:oled_ssd1331.c **** /* Includes ------------------------------------------------------------------*/
  14:oled_ssd1331.c **** #include "oled_ssd1331.h"
  15:oled_ssd1331.c **** #include "fonts.h"
  16:oled_ssd1331.c **** #include "project.h"
  17:oled_ssd1331.c **** 
  18:oled_ssd1331.c **** 
  19:oled_ssd1331.c **** /* Private typedef -----------------------------------------------------------*/
  20:oled_ssd1331.c **** /* Private define ------------------------------------------------------------*/
  21:oled_ssd1331.c **** #define SSD1331_CMD                     0
  22:oled_ssd1331.c **** #define SSD1331_DATA                    1
  23:oled_ssd1331.c ****                  
  24:oled_ssd1331.c **** #define OLED_WIDTH                      96
  25:oled_ssd1331.c **** #define OLED_HEIGHT                     64
  26:oled_ssd1331.c **** 
  27:oled_ssd1331.c **** /* Private macro -------------------------------------------------------------*/
  28:oled_ssd1331.c **** #define DRAW_LINE                       0x21
  29:oled_ssd1331.c **** #define DRAW_RECTANGLE                  0x22
  30:oled_ssd1331.c **** #define COPY_WINDOW                     0x23
  31:oled_ssd1331.c **** #define DIM_WINDOW                      0x24
ARM GAS  C:\Users\ROUSSMA\AppData\Local\Temp\cckXhTKH.s 			page 2


  32:oled_ssd1331.c **** #define CLEAR_WINDOW                    0x25
  33:oled_ssd1331.c **** #define FILL_WINDOW                     0x26
  34:oled_ssd1331.c **** #define DISABLE_FILL                    0x00
  35:oled_ssd1331.c **** #define ENABLE_FILL                     0x01
  36:oled_ssd1331.c **** #define CONTINUOUS_SCROLLING_SETUP      0x27
  37:oled_ssd1331.c **** #define DEACTIVE_SCROLLING              0x2E
  38:oled_ssd1331.c **** #define ACTIVE_SCROLLING                0x2F
  39:oled_ssd1331.c **** 
  40:oled_ssd1331.c **** #define SET_COLUMN_ADDRESS              0x15
  41:oled_ssd1331.c **** #define SET_ROW_ADDRESS                 0x75
  42:oled_ssd1331.c **** #define SET_CONTRAST_A                  0x81
  43:oled_ssd1331.c **** #define SET_CONTRAST_B                  0x82
  44:oled_ssd1331.c **** #define SET_CONTRAST_C                  0x83
  45:oled_ssd1331.c **** #define MASTER_CURRENT_CONTROL          0x87
  46:oled_ssd1331.c **** #define SET_PRECHARGE_SPEED_A           0x8A
  47:oled_ssd1331.c **** #define SET_PRECHARGE_SPEED_B           0x8B
  48:oled_ssd1331.c **** #define SET_PRECHARGE_SPEED_C           0x8C
  49:oled_ssd1331.c **** #define SET_REMAP                       0xA0
  50:oled_ssd1331.c **** #define SET_DISPLAY_START_LINE          0xA1
  51:oled_ssd1331.c **** #define SET_DISPLAY_OFFSET              0xA2
  52:oled_ssd1331.c **** #define NORMAL_DISPLAY                  0xA4
  53:oled_ssd1331.c **** #define ENTIRE_DISPLAY_ON               0xA5
  54:oled_ssd1331.c **** #define ENTIRE_DISPLAY_OFF              0xA6
  55:oled_ssd1331.c **** #define INVERSE_DISPLAY                 0xA7
  56:oled_ssd1331.c **** #define SET_MULTIPLEX_RATIO             0xA8
  57:oled_ssd1331.c **** #define DIM_MODE_SETTING                0xAB
  58:oled_ssd1331.c **** #define SET_MASTER_CONFIGURE            0xAD
  59:oled_ssd1331.c **** #define DIM_MODE_DISPLAY_ON             0xAC
  60:oled_ssd1331.c **** #define DISPLAY_OFF                     0xAE
  61:oled_ssd1331.c **** #define NORMAL_BRIGHTNESS_DISPLAY_ON    0xAF
  62:oled_ssd1331.c **** #define POWER_SAVE_MODE                 0xB0
  63:oled_ssd1331.c **** #define PHASE_PERIOD_ADJUSTMENT         0xB1
  64:oled_ssd1331.c **** #define DISPLAY_CLOCK_DIV               0xB3
  65:oled_ssd1331.c **** #define SET_GRAy_SCALE_TABLE            0xB8
  66:oled_ssd1331.c **** #define ENABLE_LINEAR_GRAY_SCALE_TABLE  0xB9
  67:oled_ssd1331.c **** #define SET_PRECHARGE_VOLTAGE           0xBB
  68:oled_ssd1331.c **** #define SET_V_VOLTAGE                   0xBE
  69:oled_ssd1331.c **** 
  70:oled_ssd1331.c **** 
  71:oled_ssd1331.c **** #define MAX(a,b)  (((a) > (b)) ? (a) : (b))
  72:oled_ssd1331.c **** #define MIN(a,b)  (((a) < (b)) ? (a) : (b))
  73:oled_ssd1331.c **** 
  74:oled_ssd1331.c **** 
  75:oled_ssd1331.c **** 
  76:oled_ssd1331.c **** /**
  77:oled_ssd1331.c ****    * @brief  Writes an byte to the display data ram or the command register
  78:oled_ssd1331.c ****    *		 
  79:oled_ssd1331.c ****    * @param  chData: Data to be writen to the display data ram or the command register
  80:oled_ssd1331.c ****    * @param chCmd:	
  81:oled_ssd1331.c ****    *						   0: Writes to the command register
  82:oled_ssd1331.c ****    *						   1: Writes to the display data ram
  83:oled_ssd1331.c ****    * @retval None
  84:oled_ssd1331.c ****  **/
  85:oled_ssd1331.c **** static void ssd1331_write_byte(uint8_t chData, uint8_t chCmd) 
  86:oled_ssd1331.c **** {
  27              		.loc 1 86 0
  28              		.cfi_startproc
ARM GAS  C:\Users\ROUSSMA\AppData\Local\Temp\cckXhTKH.s 			page 3


  29              		@ args = 0, pretend = 0, frame = 8
  30              		@ frame_needed = 1, uses_anonymous_args = 0
  31 0000 80B5     		push	{r7, lr}
  32              		.cfi_def_cfa_offset 8
  33              		.cfi_offset 7, -8
  34              		.cfi_offset 14, -4
  35 0002 82B0     		sub	sp, sp, #8
  36              		.cfi_def_cfa_offset 16
  37 0004 00AF     		add	r7, sp, #0
  38              		.cfi_def_cfa_register 7
  39 0006 0200     		movs	r2, r0
  40 0008 FB1D     		adds	r3, r7, #7
  41 000a 1A70     		strb	r2, [r3]
  42 000c BB1D     		adds	r3, r7, #6
  43 000e 0A1C     		adds	r2, r1, #0
  44 0010 1A70     		strb	r2, [r3]
  87:oled_ssd1331.c **** 
  88:oled_ssd1331.c ****     
  89:oled_ssd1331.c **** 	if (chCmd) 
  45              		.loc 1 89 0
  46 0012 BB1D     		adds	r3, r7, #6
  47 0014 1B78     		ldrb	r3, [r3]
  48 0016 002B     		cmp	r3, #0
  49 0018 03D0     		beq	.L2
  90:oled_ssd1331.c ****     {
  91:oled_ssd1331.c ****         OLED_DC_Write(SSD1331_DATA);
  50              		.loc 1 91 0
  51 001a 0120     		movs	r0, #1
  52 001c FFF7FEFF 		bl	OLED_DC_Write
  53 0020 02E0     		b	.L3
  54              	.L2:
  92:oled_ssd1331.c **** 	} 
  93:oled_ssd1331.c ****     else 
  94:oled_ssd1331.c ****     {
  95:oled_ssd1331.c **** 	 	OLED_DC_Write(SSD1331_CMD);
  55              		.loc 1 95 0
  56 0022 0020     		movs	r0, #0
  57 0024 FFF7FEFF 		bl	OLED_DC_Write
  58              	.L3:
  96:oled_ssd1331.c **** 	}
  97:oled_ssd1331.c ****         
  98:oled_ssd1331.c ****     /* Set Slave Select Low & Transmit Data */
  99:oled_ssd1331.c ****     SPI_Master_SpiUartWriteTxData(chData);
  59              		.loc 1 99 0
  60 0028 FB1D     		adds	r3, r7, #7
  61 002a 1B78     		ldrb	r3, [r3]
  62 002c 1800     		movs	r0, r3
  63 002e FFF7FEFF 		bl	SPI_Master_SpiUartWriteTxData
 100:oled_ssd1331.c ****         
 101:oled_ssd1331.c ****     /* Wait for the end of the transfer. The number of transmitted data
 102:oled_ssd1331.c ****     * elements has to be equal to the number of received data elements.
 103:oled_ssd1331.c ****     */
 104:oled_ssd1331.c ****     while(1 != SPI_Master_SpiUartGetRxBufferSize())
  64              		.loc 1 104 0
  65 0032 C046     		nop
  66              	.L4:
  67              		.loc 1 104 0 is_stmt 0 discriminator 1
ARM GAS  C:\Users\ROUSSMA\AppData\Local\Temp\cckXhTKH.s 			page 4


  68 0034 FFF7FEFF 		bl	SPI_Master_SpiUartGetRxBufferSize
  69 0038 0300     		movs	r3, r0
  70 003a 012B     		cmp	r3, #1
  71 003c FAD1     		bne	.L4
 105:oled_ssd1331.c ****     {
 106:oled_ssd1331.c ****         /* Wait */
 107:oled_ssd1331.c ****     }
 108:oled_ssd1331.c **** 
 109:oled_ssd1331.c ****     /* Clear dummy bytes from RX buffer */
 110:oled_ssd1331.c ****     SPI_Master_SpiUartClearRxBuffer();
  72              		.loc 1 110 0 is_stmt 1
  73 003e FFF7FEFF 		bl	SPI_Master_SpiUartClearRxBuffer
 111:oled_ssd1331.c ****     
 112:oled_ssd1331.c ****     /* Set Data/Command High */
 113:oled_ssd1331.c ****     //OLED_DC_Write(SSD1331_DATA);
 114:oled_ssd1331.c **** }
  74              		.loc 1 114 0
  75 0042 C046     		nop
  76 0044 BD46     		mov	sp, r7
  77 0046 02B0     		add	sp, sp, #8
  78              		@ sp needed
  79 0048 80BD     		pop	{r7, pc}
  80              		.cfi_endproc
  81              	.LFE66:
  82              		.size	ssd1331_write_byte, .-ssd1331_write_byte
  83 004a C046     		.section	.text.ssd1331_draw_point,"ax",%progbits
  84              		.align	2
  85              		.global	ssd1331_draw_point
  86              		.code	16
  87              		.thumb_func
  88              		.type	ssd1331_draw_point, %function
  89              	ssd1331_draw_point:
  90              	.LFB67:
 115:oled_ssd1331.c **** 
 116:oled_ssd1331.c **** void ssd1331_draw_point(uint8_t chXpos, uint8_t chYpos, uint16_t hwColor) 
 117:oled_ssd1331.c **** {
  91              		.loc 1 117 0
  92              		.cfi_startproc
  93              		@ args = 0, pretend = 0, frame = 8
  94              		@ frame_needed = 1, uses_anonymous_args = 0
  95 0000 90B5     		push	{r4, r7, lr}
  96              		.cfi_def_cfa_offset 12
  97              		.cfi_offset 4, -12
  98              		.cfi_offset 7, -8
  99              		.cfi_offset 14, -4
 100 0002 83B0     		sub	sp, sp, #12
 101              		.cfi_def_cfa_offset 24
 102 0004 00AF     		add	r7, sp, #0
 103              		.cfi_def_cfa_register 7
 104 0006 0400     		movs	r4, r0
 105 0008 0800     		movs	r0, r1
 106 000a 1100     		movs	r1, r2
 107 000c FB1D     		adds	r3, r7, #7
 108 000e 221C     		adds	r2, r4, #0
 109 0010 1A70     		strb	r2, [r3]
 110 0012 BB1D     		adds	r3, r7, #6
 111 0014 021C     		adds	r2, r0, #0
ARM GAS  C:\Users\ROUSSMA\AppData\Local\Temp\cckXhTKH.s 			page 5


 112 0016 1A70     		strb	r2, [r3]
 113 0018 3B1D     		adds	r3, r7, #4
 114 001a 0A1C     		adds	r2, r1, #0
 115 001c 1A80     		strh	r2, [r3]
 118:oled_ssd1331.c **** 	if (chXpos >= OLED_WIDTH || chYpos >= OLED_HEIGHT) {
 116              		.loc 1 118 0
 117 001e FB1D     		adds	r3, r7, #7
 118 0020 1B78     		ldrb	r3, [r3]
 119 0022 5F2B     		cmp	r3, #95
 120 0024 30D8     		bhi	.L9
 121              		.loc 1 118 0 is_stmt 0 discriminator 1
 122 0026 BB1D     		adds	r3, r7, #6
 123 0028 1B78     		ldrb	r3, [r3]
 124 002a 3F2B     		cmp	r3, #63
 125 002c 2CD8     		bhi	.L9
 119:oled_ssd1331.c **** 		return;
 120:oled_ssd1331.c **** 	}
 121:oled_ssd1331.c **** 
 122:oled_ssd1331.c ****     //set column point
 123:oled_ssd1331.c ****     ssd1331_write_byte(SET_COLUMN_ADDRESS, SSD1331_CMD);
 126              		.loc 1 123 0 is_stmt 1
 127 002e 0021     		movs	r1, #0
 128 0030 1520     		movs	r0, #21
 129 0032 FFF7FEFF 		bl	ssd1331_write_byte
 124:oled_ssd1331.c ****     ssd1331_write_byte(chXpos, SSD1331_CMD);
 130              		.loc 1 124 0
 131 0036 FB1D     		adds	r3, r7, #7
 132 0038 1B78     		ldrb	r3, [r3]
 133 003a 0021     		movs	r1, #0
 134 003c 1800     		movs	r0, r3
 135 003e FFF7FEFF 		bl	ssd1331_write_byte
 125:oled_ssd1331.c ****     ssd1331_write_byte(OLED_WIDTH - 1, SSD1331_CMD);
 136              		.loc 1 125 0
 137 0042 0021     		movs	r1, #0
 138 0044 5F20     		movs	r0, #95
 139 0046 FFF7FEFF 		bl	ssd1331_write_byte
 126:oled_ssd1331.c ****     //set row point
 127:oled_ssd1331.c ****     ssd1331_write_byte(SET_ROW_ADDRESS, SSD1331_CMD);
 140              		.loc 1 127 0
 141 004a 0021     		movs	r1, #0
 142 004c 7520     		movs	r0, #117
 143 004e FFF7FEFF 		bl	ssd1331_write_byte
 128:oled_ssd1331.c ****     ssd1331_write_byte(chYpos, SSD1331_CMD);
 144              		.loc 1 128 0
 145 0052 BB1D     		adds	r3, r7, #6
 146 0054 1B78     		ldrb	r3, [r3]
 147 0056 0021     		movs	r1, #0
 148 0058 1800     		movs	r0, r3
 149 005a FFF7FEFF 		bl	ssd1331_write_byte
 129:oled_ssd1331.c ****     ssd1331_write_byte(OLED_HEIGHT - 1, SSD1331_CMD);
 150              		.loc 1 129 0
 151 005e 0021     		movs	r1, #0
 152 0060 3F20     		movs	r0, #63
 153 0062 FFF7FEFF 		bl	ssd1331_write_byte
 130:oled_ssd1331.c ****     
 131:oled_ssd1331.c ****     //fill 16bit colour
 132:oled_ssd1331.c **** 	ssd1331_write_byte(hwColor >> 8, SSD1331_DATA);
ARM GAS  C:\Users\ROUSSMA\AppData\Local\Temp\cckXhTKH.s 			page 6


 154              		.loc 1 132 0
 155 0066 3B1D     		adds	r3, r7, #4
 156 0068 1B88     		ldrh	r3, [r3]
 157 006a 1B0A     		lsrs	r3, r3, #8
 158 006c 9BB2     		uxth	r3, r3
 159 006e DBB2     		uxtb	r3, r3
 160 0070 0121     		movs	r1, #1
 161 0072 1800     		movs	r0, r3
 162 0074 FFF7FEFF 		bl	ssd1331_write_byte
 133:oled_ssd1331.c **** 	ssd1331_write_byte(hwColor, SSD1331_DATA);   
 163              		.loc 1 133 0
 164 0078 3B1D     		adds	r3, r7, #4
 165 007a 1B88     		ldrh	r3, [r3]
 166 007c DBB2     		uxtb	r3, r3
 167 007e 0121     		movs	r1, #1
 168 0080 1800     		movs	r0, r3
 169 0082 FFF7FEFF 		bl	ssd1331_write_byte
 170 0086 00E0     		b	.L5
 171              	.L9:
 119:oled_ssd1331.c **** 	}
 172              		.loc 1 119 0
 173 0088 C046     		nop
 174              	.L5:
 134:oled_ssd1331.c **** }
 175              		.loc 1 134 0
 176 008a BD46     		mov	sp, r7
 177 008c 03B0     		add	sp, sp, #12
 178              		@ sp needed
 179 008e 90BD     		pop	{r4, r7, pc}
 180              		.cfi_endproc
 181              	.LFE67:
 182              		.size	ssd1331_draw_point, .-ssd1331_draw_point
 183              		.section	.text.ssd1331_draw_line,"ax",%progbits
 184              		.align	2
 185              		.global	ssd1331_draw_line
 186              		.code	16
 187              		.thumb_func
 188              		.type	ssd1331_draw_line, %function
 189              	ssd1331_draw_line:
 190              	.LFB68:
 135:oled_ssd1331.c **** 
 136:oled_ssd1331.c **** void ssd1331_draw_line(uint8_t chXpos0, uint8_t chYpos0, uint8_t chXpos1, uint8_t chYpos1, uint16_t
 137:oled_ssd1331.c **** {
 191              		.loc 1 137 0
 192              		.cfi_startproc
 193              		@ args = 4, pretend = 0, frame = 40
 194              		@ frame_needed = 1, uses_anonymous_args = 0
 195 0000 B0B5     		push	{r4, r5, r7, lr}
 196              		.cfi_def_cfa_offset 16
 197              		.cfi_offset 4, -16
 198              		.cfi_offset 5, -12
 199              		.cfi_offset 7, -8
 200              		.cfi_offset 14, -4
 201 0002 8AB0     		sub	sp, sp, #40
 202              		.cfi_def_cfa_offset 56
 203 0004 00AF     		add	r7, sp, #0
 204              		.cfi_def_cfa_register 7
ARM GAS  C:\Users\ROUSSMA\AppData\Local\Temp\cckXhTKH.s 			page 7


 205 0006 0500     		movs	r5, r0
 206 0008 0C00     		movs	r4, r1
 207 000a 1000     		movs	r0, r2
 208 000c 1900     		movs	r1, r3
 209 000e FB1D     		adds	r3, r7, #7
 210 0010 2A1C     		adds	r2, r5, #0
 211 0012 1A70     		strb	r2, [r3]
 212 0014 BB1D     		adds	r3, r7, #6
 213 0016 221C     		adds	r2, r4, #0
 214 0018 1A70     		strb	r2, [r3]
 215 001a 7B1D     		adds	r3, r7, #5
 216 001c 021C     		adds	r2, r0, #0
 217 001e 1A70     		strb	r2, [r3]
 218 0020 3B1D     		adds	r3, r7, #4
 219 0022 0A1C     		adds	r2, r1, #0
 220 0024 1A70     		strb	r2, [r3]
 138:oled_ssd1331.c **** 	int x = chXpos1 - chXpos0;
 221              		.loc 1 138 0
 222 0026 7B1D     		adds	r3, r7, #5
 223 0028 1A78     		ldrb	r2, [r3]
 224 002a FB1D     		adds	r3, r7, #7
 225 002c 1B78     		ldrb	r3, [r3]
 226 002e D31A     		subs	r3, r2, r3
 227 0030 3B62     		str	r3, [r7, #32]
 139:oled_ssd1331.c ****     int y = chYpos1 - chYpos0;
 228              		.loc 1 139 0
 229 0032 3B1D     		adds	r3, r7, #4
 230 0034 1A78     		ldrb	r2, [r3]
 231 0036 BB1D     		adds	r3, r7, #6
 232 0038 1B78     		ldrb	r3, [r3]
 233 003a D31A     		subs	r3, r2, r3
 234 003c FB61     		str	r3, [r7, #28]
 140:oled_ssd1331.c ****     int dx = abs(x), sx = chXpos0 < chXpos1 ? 1 : -1;
 235              		.loc 1 140 0
 236 003e 3B6A     		ldr	r3, [r7, #32]
 237 0040 DA17     		asrs	r2, r3, #31
 238 0042 9B18     		adds	r3, r3, r2
 239 0044 5340     		eors	r3, r2
 240 0046 BB61     		str	r3, [r7, #24]
 241 0048 FA1D     		adds	r2, r7, #7
 242 004a 7B1D     		adds	r3, r7, #5
 243 004c 1278     		ldrb	r2, [r2]
 244 004e 1B78     		ldrb	r3, [r3]
 245 0050 9A42     		cmp	r2, r3
 246 0052 01D2     		bcs	.L11
 247              		.loc 1 140 0 is_stmt 0 discriminator 1
 248 0054 0123     		movs	r3, #1
 249 0056 01E0     		b	.L12
 250              	.L11:
 251              		.loc 1 140 0 discriminator 2
 252 0058 0123     		movs	r3, #1
 253 005a 5B42     		rsbs	r3, r3, #0
 254              	.L12:
 255              		.loc 1 140 0 discriminator 4
 256 005c 7B61     		str	r3, [r7, #20]
 141:oled_ssd1331.c ****     int dy = -abs(y), sy = chYpos0 < chYpos1 ? 1 : -1;
 257              		.loc 1 141 0 is_stmt 1 discriminator 4
ARM GAS  C:\Users\ROUSSMA\AppData\Local\Temp\cckXhTKH.s 			page 8


 258 005e FB69     		ldr	r3, [r7, #28]
 259 0060 DA17     		asrs	r2, r3, #31
 260 0062 9B18     		adds	r3, r3, r2
 261 0064 5340     		eors	r3, r2
 262 0066 5B42     		rsbs	r3, r3, #0
 263 0068 3B61     		str	r3, [r7, #16]
 264 006a BA1D     		adds	r2, r7, #6
 265 006c 3B1D     		adds	r3, r7, #4
 266 006e 1278     		ldrb	r2, [r2]
 267 0070 1B78     		ldrb	r3, [r3]
 268 0072 9A42     		cmp	r2, r3
 269 0074 01D2     		bcs	.L13
 270              		.loc 1 141 0 is_stmt 0 discriminator 1
 271 0076 0123     		movs	r3, #1
 272 0078 01E0     		b	.L14
 273              	.L13:
 274              		.loc 1 141 0 discriminator 2
 275 007a 0123     		movs	r3, #1
 276 007c 5B42     		rsbs	r3, r3, #0
 277              	.L14:
 278              		.loc 1 141 0 discriminator 4
 279 007e FB60     		str	r3, [r7, #12]
 142:oled_ssd1331.c ****     int err = dx + dy, e2;
 280              		.loc 1 142 0 is_stmt 1 discriminator 4
 281 0080 BA69     		ldr	r2, [r7, #24]
 282 0082 3B69     		ldr	r3, [r7, #16]
 283 0084 D318     		adds	r3, r2, r3
 284 0086 7B62     		str	r3, [r7, #36]
 143:oled_ssd1331.c **** 
 144:oled_ssd1331.c **** 	if (chXpos0 >= OLED_WIDTH || chYpos0 >= OLED_HEIGHT || chXpos1 >= OLED_WIDTH || chYpos1 >= OLED_HE
 285              		.loc 1 144 0 discriminator 4
 286 0088 FB1D     		adds	r3, r7, #7
 287 008a 1B78     		ldrb	r3, [r3]
 288 008c 5F2B     		cmp	r3, #95
 289 008e 43D8     		bhi	.L22
 290              		.loc 1 144 0 is_stmt 0 discriminator 1
 291 0090 BB1D     		adds	r3, r7, #6
 292 0092 1B78     		ldrb	r3, [r3]
 293 0094 3F2B     		cmp	r3, #63
 294 0096 3FD8     		bhi	.L22
 295              		.loc 1 144 0 discriminator 2
 296 0098 7B1D     		adds	r3, r7, #5
 297 009a 1B78     		ldrb	r3, [r3]
 298 009c 5F2B     		cmp	r3, #95
 299 009e 3BD8     		bhi	.L22
 300              		.loc 1 144 0 discriminator 3
 301 00a0 3B1D     		adds	r3, r7, #4
 302 00a2 1B78     		ldrb	r3, [r3]
 303 00a4 3F2B     		cmp	r3, #63
 304 00a6 37D8     		bhi	.L22
 305              	.L16:
 145:oled_ssd1331.c **** 		return;
 146:oled_ssd1331.c **** 	}
 147:oled_ssd1331.c ****     
 148:oled_ssd1331.c ****     for (;;){
 149:oled_ssd1331.c ****         ssd1331_draw_point(chXpos0, chYpos0 , hwColor);
 306              		.loc 1 149 0 is_stmt 1
ARM GAS  C:\Users\ROUSSMA\AppData\Local\Temp\cckXhTKH.s 			page 9


 307 00a8 3823     		movs	r3, #56
 308 00aa FB18     		adds	r3, r7, r3
 309 00ac 1A88     		ldrh	r2, [r3]
 310 00ae BB1D     		adds	r3, r7, #6
 311 00b0 1978     		ldrb	r1, [r3]
 312 00b2 FB1D     		adds	r3, r7, #7
 313 00b4 1B78     		ldrb	r3, [r3]
 314 00b6 1800     		movs	r0, r3
 315 00b8 FFF7FEFF 		bl	ssd1331_draw_point
 150:oled_ssd1331.c ****         e2 = 2 * err;
 316              		.loc 1 150 0
 317 00bc 7B6A     		ldr	r3, [r7, #36]
 318 00be 5B00     		lsls	r3, r3, #1
 319 00c0 BB60     		str	r3, [r7, #8]
 151:oled_ssd1331.c ****         if (e2 >= dy) {     
 320              		.loc 1 151 0
 321 00c2 BA68     		ldr	r2, [r7, #8]
 322 00c4 3B69     		ldr	r3, [r7, #16]
 323 00c6 9A42     		cmp	r2, r3
 324 00c8 10DB     		blt	.L18
 152:oled_ssd1331.c ****             if (chXpos0 == chXpos1) break;
 325              		.loc 1 152 0
 326 00ca FA1D     		adds	r2, r7, #7
 327 00cc 7B1D     		adds	r3, r7, #5
 328 00ce 1278     		ldrb	r2, [r2]
 329 00d0 1B78     		ldrb	r3, [r3]
 330 00d2 9A42     		cmp	r2, r3
 331 00d4 22D0     		beq	.L23
 153:oled_ssd1331.c ****             err += dy; chXpos0 += sx;
 332              		.loc 1 153 0
 333 00d6 7A6A     		ldr	r2, [r7, #36]
 334 00d8 3B69     		ldr	r3, [r7, #16]
 335 00da D318     		adds	r3, r2, r3
 336 00dc 7B62     		str	r3, [r7, #36]
 337 00de 7B69     		ldr	r3, [r7, #20]
 338 00e0 D9B2     		uxtb	r1, r3
 339 00e2 FB1D     		adds	r3, r7, #7
 340 00e4 FA1D     		adds	r2, r7, #7
 341 00e6 1278     		ldrb	r2, [r2]
 342 00e8 8A18     		adds	r2, r1, r2
 343 00ea 1A70     		strb	r2, [r3]
 344              	.L18:
 154:oled_ssd1331.c ****         }
 155:oled_ssd1331.c ****         if (e2 <= dx) {
 345              		.loc 1 155 0
 346 00ec BA68     		ldr	r2, [r7, #8]
 347 00ee BB69     		ldr	r3, [r7, #24]
 348 00f0 9A42     		cmp	r2, r3
 349 00f2 D9DC     		bgt	.L16
 156:oled_ssd1331.c ****             if (chYpos0 == chYpos1) break;
 350              		.loc 1 156 0
 351 00f4 BA1D     		adds	r2, r7, #6
 352 00f6 3B1D     		adds	r3, r7, #4
 353 00f8 1278     		ldrb	r2, [r2]
 354 00fa 1B78     		ldrb	r3, [r3]
 355 00fc 9A42     		cmp	r2, r3
 356 00fe 0FD0     		beq	.L24
ARM GAS  C:\Users\ROUSSMA\AppData\Local\Temp\cckXhTKH.s 			page 10


 157:oled_ssd1331.c ****             err += dx; chYpos0 += sy;
 357              		.loc 1 157 0
 358 0100 7A6A     		ldr	r2, [r7, #36]
 359 0102 BB69     		ldr	r3, [r7, #24]
 360 0104 D318     		adds	r3, r2, r3
 361 0106 7B62     		str	r3, [r7, #36]
 362 0108 FB68     		ldr	r3, [r7, #12]
 363 010a D9B2     		uxtb	r1, r3
 364 010c BB1D     		adds	r3, r7, #6
 365 010e BA1D     		adds	r2, r7, #6
 366 0110 1278     		ldrb	r2, [r2]
 367 0112 8A18     		adds	r2, r1, r2
 368 0114 1A70     		strb	r2, [r3]
 158:oled_ssd1331.c ****         }
 159:oled_ssd1331.c ****     }
 369              		.loc 1 159 0
 370 0116 C7E7     		b	.L16
 371              	.L22:
 145:oled_ssd1331.c **** 	}
 372              		.loc 1 145 0
 373 0118 C046     		nop
 374 011a 02E0     		b	.L10
 375              	.L23:
 152:oled_ssd1331.c ****             err += dy; chXpos0 += sx;
 376              		.loc 1 152 0
 377 011c C046     		nop
 378 011e 00E0     		b	.L10
 379              	.L24:
 156:oled_ssd1331.c ****             err += dx; chYpos0 += sy;
 380              		.loc 1 156 0
 381 0120 C046     		nop
 382              	.L10:
 160:oled_ssd1331.c **** }
 383              		.loc 1 160 0
 384 0122 BD46     		mov	sp, r7
 385 0124 0AB0     		add	sp, sp, #40
 386              		@ sp needed
 387 0126 B0BD     		pop	{r4, r5, r7, pc}
 388              		.cfi_endproc
 389              	.LFE68:
 390              		.size	ssd1331_draw_line, .-ssd1331_draw_line
 391              		.section	.text.ssd1331_draw_v_line,"ax",%progbits
 392              		.align	2
 393              		.global	ssd1331_draw_v_line
 394              		.code	16
 395              		.thumb_func
 396              		.type	ssd1331_draw_v_line, %function
 397              	ssd1331_draw_v_line:
 398              	.LFB69:
 161:oled_ssd1331.c **** 
 162:oled_ssd1331.c **** void ssd1331_draw_v_line(uint8_t chXpos, uint8_t chYpos, uint8_t chHeight, uint16_t hwColor)
 163:oled_ssd1331.c **** {	
 399              		.loc 1 163 0
 400              		.cfi_startproc
 401              		@ args = 0, pretend = 0, frame = 16
 402              		@ frame_needed = 1, uses_anonymous_args = 0
 403 0000 B0B5     		push	{r4, r5, r7, lr}
ARM GAS  C:\Users\ROUSSMA\AppData\Local\Temp\cckXhTKH.s 			page 11


 404              		.cfi_def_cfa_offset 16
 405              		.cfi_offset 4, -16
 406              		.cfi_offset 5, -12
 407              		.cfi_offset 7, -8
 408              		.cfi_offset 14, -4
 409 0002 84B0     		sub	sp, sp, #16
 410              		.cfi_def_cfa_offset 32
 411 0004 00AF     		add	r7, sp, #0
 412              		.cfi_def_cfa_register 7
 413 0006 0500     		movs	r5, r0
 414 0008 0C00     		movs	r4, r1
 415 000a 1000     		movs	r0, r2
 416 000c 1900     		movs	r1, r3
 417 000e FB1D     		adds	r3, r7, #7
 418 0010 2A1C     		adds	r2, r5, #0
 419 0012 1A70     		strb	r2, [r3]
 420 0014 BB1D     		adds	r3, r7, #6
 421 0016 221C     		adds	r2, r4, #0
 422 0018 1A70     		strb	r2, [r3]
 423 001a 7B1D     		adds	r3, r7, #5
 424 001c 021C     		adds	r2, r0, #0
 425 001e 1A70     		strb	r2, [r3]
 426 0020 BB1C     		adds	r3, r7, #2
 427 0022 0A1C     		adds	r2, r1, #0
 428 0024 1A80     		strh	r2, [r3]
 164:oled_ssd1331.c **** 	uint16_t i, y1 = MIN(chYpos + chHeight, OLED_HEIGHT - 1);
 429              		.loc 1 164 0
 430 0026 BB1D     		adds	r3, r7, #6
 431 0028 1A78     		ldrb	r2, [r3]
 432 002a 7B1D     		adds	r3, r7, #5
 433 002c 1B78     		ldrb	r3, [r3]
 434 002e D318     		adds	r3, r2, r3
 435 0030 3F2B     		cmp	r3, #63
 436 0032 00DD     		ble	.L26
 437 0034 3F23     		movs	r3, #63
 438              	.L26:
 439 0036 0C22     		movs	r2, #12
 440 0038 BA18     		adds	r2, r7, r2
 441 003a 1380     		strh	r3, [r2]
 165:oled_ssd1331.c **** 
 166:oled_ssd1331.c **** 	if (chXpos >= OLED_WIDTH || chYpos >= OLED_HEIGHT) {
 442              		.loc 1 166 0
 443 003c FB1D     		adds	r3, r7, #7
 444 003e 1B78     		ldrb	r3, [r3]
 445 0040 5F2B     		cmp	r3, #95
 446 0042 24D8     		bhi	.L32
 447              		.loc 1 166 0 is_stmt 0 discriminator 1
 448 0044 BB1D     		adds	r3, r7, #6
 449 0046 1B78     		ldrb	r3, [r3]
 450 0048 3F2B     		cmp	r3, #63
 451 004a 20D8     		bhi	.L32
 167:oled_ssd1331.c **** 		return;
 168:oled_ssd1331.c **** 	}
 169:oled_ssd1331.c **** 	
 170:oled_ssd1331.c ****     for (i = chYpos; i < y1; i ++) {
 452              		.loc 1 170 0 is_stmt 1
 453 004c 0E23     		movs	r3, #14
ARM GAS  C:\Users\ROUSSMA\AppData\Local\Temp\cckXhTKH.s 			page 12


 454 004e FB18     		adds	r3, r7, r3
 455 0050 BA1D     		adds	r2, r7, #6
 456 0052 1278     		ldrb	r2, [r2]
 457 0054 1A80     		strh	r2, [r3]
 458 0056 11E0     		b	.L30
 459              	.L31:
 171:oled_ssd1331.c ****         ssd1331_draw_point(chXpos, i, hwColor);
 460              		.loc 1 171 0 discriminator 3
 461 0058 0E23     		movs	r3, #14
 462 005a FB18     		adds	r3, r7, r3
 463 005c 1B88     		ldrh	r3, [r3]
 464 005e D9B2     		uxtb	r1, r3
 465 0060 BB1C     		adds	r3, r7, #2
 466 0062 1A88     		ldrh	r2, [r3]
 467 0064 FB1D     		adds	r3, r7, #7
 468 0066 1B78     		ldrb	r3, [r3]
 469 0068 1800     		movs	r0, r3
 470 006a FFF7FEFF 		bl	ssd1331_draw_point
 170:oled_ssd1331.c ****         ssd1331_draw_point(chXpos, i, hwColor);
 471              		.loc 1 170 0 discriminator 3
 472 006e 0E23     		movs	r3, #14
 473 0070 FB18     		adds	r3, r7, r3
 474 0072 1A88     		ldrh	r2, [r3]
 475 0074 0E23     		movs	r3, #14
 476 0076 FB18     		adds	r3, r7, r3
 477 0078 0132     		adds	r2, r2, #1
 478 007a 1A80     		strh	r2, [r3]
 479              	.L30:
 170:oled_ssd1331.c ****         ssd1331_draw_point(chXpos, i, hwColor);
 480              		.loc 1 170 0 is_stmt 0 discriminator 1
 481 007c 0E23     		movs	r3, #14
 482 007e FA18     		adds	r2, r7, r3
 483 0080 0C23     		movs	r3, #12
 484 0082 FB18     		adds	r3, r7, r3
 485 0084 1288     		ldrh	r2, [r2]
 486 0086 1B88     		ldrh	r3, [r3]
 487 0088 9A42     		cmp	r2, r3
 488 008a E5D3     		bcc	.L31
 489 008c 00E0     		b	.L25
 490              	.L32:
 167:oled_ssd1331.c **** 		return;
 491              		.loc 1 167 0 is_stmt 1
 492 008e C046     		nop
 493              	.L25:
 172:oled_ssd1331.c ****     }
 173:oled_ssd1331.c **** }
 494              		.loc 1 173 0
 495 0090 BD46     		mov	sp, r7
 496 0092 04B0     		add	sp, sp, #16
 497              		@ sp needed
 498 0094 B0BD     		pop	{r4, r5, r7, pc}
 499              		.cfi_endproc
 500              	.LFE69:
 501              		.size	ssd1331_draw_v_line, .-ssd1331_draw_v_line
 502 0096 C046     		.section	.text.ssd1331_draw_h_line,"ax",%progbits
 503              		.align	2
 504              		.global	ssd1331_draw_h_line
ARM GAS  C:\Users\ROUSSMA\AppData\Local\Temp\cckXhTKH.s 			page 13


 505              		.code	16
 506              		.thumb_func
 507              		.type	ssd1331_draw_h_line, %function
 508              	ssd1331_draw_h_line:
 509              	.LFB70:
 174:oled_ssd1331.c **** 
 175:oled_ssd1331.c **** void ssd1331_draw_h_line(uint8_t chXpos, uint8_t chYpos, uint8_t chWidth, uint16_t hwColor)
 176:oled_ssd1331.c **** {	
 510              		.loc 1 176 0
 511              		.cfi_startproc
 512              		@ args = 0, pretend = 0, frame = 16
 513              		@ frame_needed = 1, uses_anonymous_args = 0
 514 0000 B0B5     		push	{r4, r5, r7, lr}
 515              		.cfi_def_cfa_offset 16
 516              		.cfi_offset 4, -16
 517              		.cfi_offset 5, -12
 518              		.cfi_offset 7, -8
 519              		.cfi_offset 14, -4
 520 0002 84B0     		sub	sp, sp, #16
 521              		.cfi_def_cfa_offset 32
 522 0004 00AF     		add	r7, sp, #0
 523              		.cfi_def_cfa_register 7
 524 0006 0500     		movs	r5, r0
 525 0008 0C00     		movs	r4, r1
 526 000a 1000     		movs	r0, r2
 527 000c 1900     		movs	r1, r3
 528 000e FB1D     		adds	r3, r7, #7
 529 0010 2A1C     		adds	r2, r5, #0
 530 0012 1A70     		strb	r2, [r3]
 531 0014 BB1D     		adds	r3, r7, #6
 532 0016 221C     		adds	r2, r4, #0
 533 0018 1A70     		strb	r2, [r3]
 534 001a 7B1D     		adds	r3, r7, #5
 535 001c 021C     		adds	r2, r0, #0
 536 001e 1A70     		strb	r2, [r3]
 537 0020 BB1C     		adds	r3, r7, #2
 538 0022 0A1C     		adds	r2, r1, #0
 539 0024 1A80     		strh	r2, [r3]
 177:oled_ssd1331.c **** 	uint16_t i, x1 = MIN(chXpos + chWidth, OLED_WIDTH- 1);
 540              		.loc 1 177 0
 541 0026 FB1D     		adds	r3, r7, #7
 542 0028 1A78     		ldrb	r2, [r3]
 543 002a 7B1D     		adds	r3, r7, #5
 544 002c 1B78     		ldrb	r3, [r3]
 545 002e D318     		adds	r3, r2, r3
 546 0030 5F2B     		cmp	r3, #95
 547 0032 00DD     		ble	.L34
 548 0034 5F23     		movs	r3, #95
 549              	.L34:
 550 0036 0C22     		movs	r2, #12
 551 0038 BA18     		adds	r2, r7, r2
 552 003a 1380     		strh	r3, [r2]
 178:oled_ssd1331.c **** 
 179:oled_ssd1331.c **** 	if (chXpos >= OLED_WIDTH || chYpos >= OLED_HEIGHT) {
 553              		.loc 1 179 0
 554 003c FB1D     		adds	r3, r7, #7
 555 003e 1B78     		ldrb	r3, [r3]
ARM GAS  C:\Users\ROUSSMA\AppData\Local\Temp\cckXhTKH.s 			page 14


 556 0040 5F2B     		cmp	r3, #95
 557 0042 24D8     		bhi	.L40
 558              		.loc 1 179 0 is_stmt 0 discriminator 1
 559 0044 BB1D     		adds	r3, r7, #6
 560 0046 1B78     		ldrb	r3, [r3]
 561 0048 3F2B     		cmp	r3, #63
 562 004a 20D8     		bhi	.L40
 180:oled_ssd1331.c **** 		return;
 181:oled_ssd1331.c **** 	}
 182:oled_ssd1331.c **** 	
 183:oled_ssd1331.c ****     for (i = chXpos; i < x1; i ++) {
 563              		.loc 1 183 0 is_stmt 1
 564 004c 0E23     		movs	r3, #14
 565 004e FB18     		adds	r3, r7, r3
 566 0050 FA1D     		adds	r2, r7, #7
 567 0052 1278     		ldrb	r2, [r2]
 568 0054 1A80     		strh	r2, [r3]
 569 0056 11E0     		b	.L38
 570              	.L39:
 184:oled_ssd1331.c ****         ssd1331_draw_point(i, chYpos, hwColor);
 571              		.loc 1 184 0 discriminator 3
 572 0058 0E23     		movs	r3, #14
 573 005a FB18     		adds	r3, r7, r3
 574 005c 1B88     		ldrh	r3, [r3]
 575 005e D8B2     		uxtb	r0, r3
 576 0060 BB1C     		adds	r3, r7, #2
 577 0062 1A88     		ldrh	r2, [r3]
 578 0064 BB1D     		adds	r3, r7, #6
 579 0066 1B78     		ldrb	r3, [r3]
 580 0068 1900     		movs	r1, r3
 581 006a FFF7FEFF 		bl	ssd1331_draw_point
 183:oled_ssd1331.c ****         ssd1331_draw_point(i, chYpos, hwColor);
 582              		.loc 1 183 0 discriminator 3
 583 006e 0E23     		movs	r3, #14
 584 0070 FB18     		adds	r3, r7, r3
 585 0072 1A88     		ldrh	r2, [r3]
 586 0074 0E23     		movs	r3, #14
 587 0076 FB18     		adds	r3, r7, r3
 588 0078 0132     		adds	r2, r2, #1
 589 007a 1A80     		strh	r2, [r3]
 590              	.L38:
 183:oled_ssd1331.c ****         ssd1331_draw_point(i, chYpos, hwColor);
 591              		.loc 1 183 0 is_stmt 0 discriminator 1
 592 007c 0E23     		movs	r3, #14
 593 007e FA18     		adds	r2, r7, r3
 594 0080 0C23     		movs	r3, #12
 595 0082 FB18     		adds	r3, r7, r3
 596 0084 1288     		ldrh	r2, [r2]
 597 0086 1B88     		ldrh	r3, [r3]
 598 0088 9A42     		cmp	r2, r3
 599 008a E5D3     		bcc	.L39
 600 008c 00E0     		b	.L33
 601              	.L40:
 180:oled_ssd1331.c **** 		return;
 602              		.loc 1 180 0 is_stmt 1
 603 008e C046     		nop
 604              	.L33:
ARM GAS  C:\Users\ROUSSMA\AppData\Local\Temp\cckXhTKH.s 			page 15


 185:oled_ssd1331.c ****     }
 186:oled_ssd1331.c **** }
 605              		.loc 1 186 0
 606 0090 BD46     		mov	sp, r7
 607 0092 04B0     		add	sp, sp, #16
 608              		@ sp needed
 609 0094 B0BD     		pop	{r4, r5, r7, pc}
 610              		.cfi_endproc
 611              	.LFE70:
 612              		.size	ssd1331_draw_h_line, .-ssd1331_draw_h_line
 613 0096 C046     		.section	.text.ssd1331_draw_rect,"ax",%progbits
 614              		.align	2
 615              		.global	ssd1331_draw_rect
 616              		.code	16
 617              		.thumb_func
 618              		.type	ssd1331_draw_rect, %function
 619              	ssd1331_draw_rect:
 620              	.LFB71:
 187:oled_ssd1331.c **** 
 188:oled_ssd1331.c **** void ssd1331_draw_rect(uint8_t chXpos, uint8_t chYpos, uint8_t chWidth, uint8_t chHeight, uint16_t 
 189:oled_ssd1331.c **** {
 621              		.loc 1 189 0
 622              		.cfi_startproc
 623              		@ args = 4, pretend = 0, frame = 8
 624              		@ frame_needed = 1, uses_anonymous_args = 0
 625 0000 B0B5     		push	{r4, r5, r7, lr}
 626              		.cfi_def_cfa_offset 16
 627              		.cfi_offset 4, -16
 628              		.cfi_offset 5, -12
 629              		.cfi_offset 7, -8
 630              		.cfi_offset 14, -4
 631 0002 82B0     		sub	sp, sp, #8
 632              		.cfi_def_cfa_offset 24
 633 0004 00AF     		add	r7, sp, #0
 634              		.cfi_def_cfa_register 7
 635 0006 0500     		movs	r5, r0
 636 0008 0C00     		movs	r4, r1
 637 000a 1000     		movs	r0, r2
 638 000c 1900     		movs	r1, r3
 639 000e FB1D     		adds	r3, r7, #7
 640 0010 2A1C     		adds	r2, r5, #0
 641 0012 1A70     		strb	r2, [r3]
 642 0014 BB1D     		adds	r3, r7, #6
 643 0016 221C     		adds	r2, r4, #0
 644 0018 1A70     		strb	r2, [r3]
 645 001a 7B1D     		adds	r3, r7, #5
 646 001c 021C     		adds	r2, r0, #0
 647 001e 1A70     		strb	r2, [r3]
 648 0020 3B1D     		adds	r3, r7, #4
 649 0022 0A1C     		adds	r2, r1, #0
 650 0024 1A70     		strb	r2, [r3]
 190:oled_ssd1331.c **** 	if (chXpos >= OLED_WIDTH || chYpos >= OLED_HEIGHT) {
 651              		.loc 1 190 0
 652 0026 FB1D     		adds	r3, r7, #7
 653 0028 1B78     		ldrb	r3, [r3]
 654 002a 5F2B     		cmp	r3, #95
 655 002c 3ED8     		bhi	.L45
ARM GAS  C:\Users\ROUSSMA\AppData\Local\Temp\cckXhTKH.s 			page 16


 656              		.loc 1 190 0 is_stmt 0 discriminator 1
 657 002e BB1D     		adds	r3, r7, #6
 658 0030 1B78     		ldrb	r3, [r3]
 659 0032 3F2B     		cmp	r3, #63
 660 0034 3AD8     		bhi	.L45
 191:oled_ssd1331.c **** 		return;
 192:oled_ssd1331.c **** 	}
 193:oled_ssd1331.c **** 
 194:oled_ssd1331.c **** 	ssd1331_draw_h_line(chXpos, chYpos, chWidth, hwColor);
 661              		.loc 1 194 0 is_stmt 1
 662 0036 1823     		movs	r3, #24
 663 0038 FB18     		adds	r3, r7, r3
 664 003a 1C88     		ldrh	r4, [r3]
 665 003c 7B1D     		adds	r3, r7, #5
 666 003e 1A78     		ldrb	r2, [r3]
 667 0040 BB1D     		adds	r3, r7, #6
 668 0042 1978     		ldrb	r1, [r3]
 669 0044 FB1D     		adds	r3, r7, #7
 670 0046 1878     		ldrb	r0, [r3]
 671 0048 2300     		movs	r3, r4
 672 004a FFF7FEFF 		bl	ssd1331_draw_h_line
 195:oled_ssd1331.c **** 	ssd1331_draw_h_line(chXpos, chYpos + chHeight, chWidth, hwColor);
 673              		.loc 1 195 0
 674 004e BA1D     		adds	r2, r7, #6
 675 0050 3B1D     		adds	r3, r7, #4
 676 0052 1278     		ldrb	r2, [r2]
 677 0054 1B78     		ldrb	r3, [r3]
 678 0056 D318     		adds	r3, r2, r3
 679 0058 D9B2     		uxtb	r1, r3
 680 005a 1823     		movs	r3, #24
 681 005c FB18     		adds	r3, r7, r3
 682 005e 1C88     		ldrh	r4, [r3]
 683 0060 7B1D     		adds	r3, r7, #5
 684 0062 1A78     		ldrb	r2, [r3]
 685 0064 FB1D     		adds	r3, r7, #7
 686 0066 1878     		ldrb	r0, [r3]
 687 0068 2300     		movs	r3, r4
 688 006a FFF7FEFF 		bl	ssd1331_draw_h_line
 196:oled_ssd1331.c **** 	ssd1331_draw_v_line(chXpos, chYpos, chHeight, hwColor);
 689              		.loc 1 196 0
 690 006e 1823     		movs	r3, #24
 691 0070 FB18     		adds	r3, r7, r3
 692 0072 1C88     		ldrh	r4, [r3]
 693 0074 3B1D     		adds	r3, r7, #4
 694 0076 1A78     		ldrb	r2, [r3]
 695 0078 BB1D     		adds	r3, r7, #6
 696 007a 1978     		ldrb	r1, [r3]
 697 007c FB1D     		adds	r3, r7, #7
 698 007e 1878     		ldrb	r0, [r3]
 699 0080 2300     		movs	r3, r4
 700 0082 FFF7FEFF 		bl	ssd1331_draw_v_line
 197:oled_ssd1331.c **** 	ssd1331_draw_v_line(chXpos + chWidth, chYpos, chHeight + 1, hwColor);
 701              		.loc 1 197 0
 702 0086 FA1D     		adds	r2, r7, #7
 703 0088 7B1D     		adds	r3, r7, #5
 704 008a 1278     		ldrb	r2, [r2]
 705 008c 1B78     		ldrb	r3, [r3]
ARM GAS  C:\Users\ROUSSMA\AppData\Local\Temp\cckXhTKH.s 			page 17


 706 008e D318     		adds	r3, r2, r3
 707 0090 D8B2     		uxtb	r0, r3
 708 0092 3B1D     		adds	r3, r7, #4
 709 0094 1B78     		ldrb	r3, [r3]
 710 0096 0133     		adds	r3, r3, #1
 711 0098 DAB2     		uxtb	r2, r3
 712 009a 1823     		movs	r3, #24
 713 009c FB18     		adds	r3, r7, r3
 714 009e 1C88     		ldrh	r4, [r3]
 715 00a0 BB1D     		adds	r3, r7, #6
 716 00a2 1978     		ldrb	r1, [r3]
 717 00a4 2300     		movs	r3, r4
 718 00a6 FFF7FEFF 		bl	ssd1331_draw_v_line
 719 00aa 00E0     		b	.L41
 720              	.L45:
 191:oled_ssd1331.c **** 	}
 721              		.loc 1 191 0
 722 00ac C046     		nop
 723              	.L41:
 198:oled_ssd1331.c **** }
 724              		.loc 1 198 0
 725 00ae BD46     		mov	sp, r7
 726 00b0 02B0     		add	sp, sp, #8
 727              		@ sp needed
 728 00b2 B0BD     		pop	{r4, r5, r7, pc}
 729              		.cfi_endproc
 730              	.LFE71:
 731              		.size	ssd1331_draw_rect, .-ssd1331_draw_rect
 732              		.section	.text.ssd1331_fill_rect,"ax",%progbits
 733              		.align	2
 734              		.global	ssd1331_fill_rect
 735              		.code	16
 736              		.thumb_func
 737              		.type	ssd1331_fill_rect, %function
 738              	ssd1331_fill_rect:
 739              	.LFB72:
 199:oled_ssd1331.c **** 
 200:oled_ssd1331.c **** void ssd1331_fill_rect(uint8_t chXpos, uint8_t chYpos, uint8_t chWidth, uint8_t chHeight, uint16_t 
 201:oled_ssd1331.c **** {
 740              		.loc 1 201 0
 741              		.cfi_startproc
 742              		@ args = 4, pretend = 0, frame = 16
 743              		@ frame_needed = 1, uses_anonymous_args = 0
 744 0000 B0B5     		push	{r4, r5, r7, lr}
 745              		.cfi_def_cfa_offset 16
 746              		.cfi_offset 4, -16
 747              		.cfi_offset 5, -12
 748              		.cfi_offset 7, -8
 749              		.cfi_offset 14, -4
 750 0002 84B0     		sub	sp, sp, #16
 751              		.cfi_def_cfa_offset 32
 752 0004 00AF     		add	r7, sp, #0
 753              		.cfi_def_cfa_register 7
 754 0006 0500     		movs	r5, r0
 755 0008 0C00     		movs	r4, r1
 756 000a 1000     		movs	r0, r2
 757 000c 1900     		movs	r1, r3
ARM GAS  C:\Users\ROUSSMA\AppData\Local\Temp\cckXhTKH.s 			page 18


 758 000e FB1D     		adds	r3, r7, #7
 759 0010 2A1C     		adds	r2, r5, #0
 760 0012 1A70     		strb	r2, [r3]
 761 0014 BB1D     		adds	r3, r7, #6
 762 0016 221C     		adds	r2, r4, #0
 763 0018 1A70     		strb	r2, [r3]
 764 001a 7B1D     		adds	r3, r7, #5
 765 001c 021C     		adds	r2, r0, #0
 766 001e 1A70     		strb	r2, [r3]
 767 0020 3B1D     		adds	r3, r7, #4
 768 0022 0A1C     		adds	r2, r1, #0
 769 0024 1A70     		strb	r2, [r3]
 202:oled_ssd1331.c **** 	uint16_t i, j;
 203:oled_ssd1331.c **** 
 204:oled_ssd1331.c **** 	if (chXpos >= OLED_WIDTH || chYpos >= OLED_HEIGHT) {
 770              		.loc 1 204 0
 771 0026 FB1D     		adds	r3, r7, #7
 772 0028 1B78     		ldrb	r3, [r3]
 773 002a 5F2B     		cmp	r3, #95
 774 002c 42D8     		bhi	.L54
 775              		.loc 1 204 0 is_stmt 0 discriminator 1
 776 002e BB1D     		adds	r3, r7, #6
 777 0030 1B78     		ldrb	r3, [r3]
 778 0032 3F2B     		cmp	r3, #63
 779 0034 3ED8     		bhi	.L54
 205:oled_ssd1331.c **** 		return;
 206:oled_ssd1331.c **** 	}
 207:oled_ssd1331.c **** 	
 208:oled_ssd1331.c **** 	for(i = 0; i < chHeight; i ++){
 780              		.loc 1 208 0 is_stmt 1
 781 0036 0E23     		movs	r3, #14
 782 0038 FB18     		adds	r3, r7, r3
 783 003a 0022     		movs	r2, #0
 784 003c 1A80     		strh	r2, [r3]
 785 003e 30E0     		b	.L50
 786              	.L53:
 209:oled_ssd1331.c **** 		for(j = 0; j < chWidth; j ++){
 787              		.loc 1 209 0
 788 0040 0C23     		movs	r3, #12
 789 0042 FB18     		adds	r3, r7, r3
 790 0044 0022     		movs	r2, #0
 791 0046 1A80     		strh	r2, [r3]
 792 0048 1CE0     		b	.L51
 793              	.L52:
 210:oled_ssd1331.c **** 			ssd1331_draw_point(chXpos + j, chYpos + i, hwColor);
 794              		.loc 1 210 0 discriminator 3
 795 004a 0C23     		movs	r3, #12
 796 004c FB18     		adds	r3, r7, r3
 797 004e 1B88     		ldrh	r3, [r3]
 798 0050 DAB2     		uxtb	r2, r3
 799 0052 FB1D     		adds	r3, r7, #7
 800 0054 1B78     		ldrb	r3, [r3]
 801 0056 D318     		adds	r3, r2, r3
 802 0058 D8B2     		uxtb	r0, r3
 803 005a 0E23     		movs	r3, #14
 804 005c FB18     		adds	r3, r7, r3
 805 005e 1B88     		ldrh	r3, [r3]
ARM GAS  C:\Users\ROUSSMA\AppData\Local\Temp\cckXhTKH.s 			page 19


 806 0060 DAB2     		uxtb	r2, r3
 807 0062 BB1D     		adds	r3, r7, #6
 808 0064 1B78     		ldrb	r3, [r3]
 809 0066 D318     		adds	r3, r2, r3
 810 0068 DBB2     		uxtb	r3, r3
 811 006a 2022     		movs	r2, #32
 812 006c BA18     		adds	r2, r7, r2
 813 006e 1288     		ldrh	r2, [r2]
 814 0070 1900     		movs	r1, r3
 815 0072 FFF7FEFF 		bl	ssd1331_draw_point
 209:oled_ssd1331.c **** 		for(j = 0; j < chWidth; j ++){
 816              		.loc 1 209 0 discriminator 3
 817 0076 0C23     		movs	r3, #12
 818 0078 FB18     		adds	r3, r7, r3
 819 007a 1A88     		ldrh	r2, [r3]
 820 007c 0C23     		movs	r3, #12
 821 007e FB18     		adds	r3, r7, r3
 822 0080 0132     		adds	r2, r2, #1
 823 0082 1A80     		strh	r2, [r3]
 824              	.L51:
 209:oled_ssd1331.c **** 		for(j = 0; j < chWidth; j ++){
 825              		.loc 1 209 0 is_stmt 0 discriminator 1
 826 0084 7B1D     		adds	r3, r7, #5
 827 0086 1B78     		ldrb	r3, [r3]
 828 0088 9BB2     		uxth	r3, r3
 829 008a 0C22     		movs	r2, #12
 830 008c BA18     		adds	r2, r7, r2
 831 008e 1288     		ldrh	r2, [r2]
 832 0090 9A42     		cmp	r2, r3
 833 0092 DAD3     		bcc	.L52
 208:oled_ssd1331.c **** 		for(j = 0; j < chWidth; j ++){
 834              		.loc 1 208 0 is_stmt 1 discriminator 2
 835 0094 0E23     		movs	r3, #14
 836 0096 FB18     		adds	r3, r7, r3
 837 0098 1A88     		ldrh	r2, [r3]
 838 009a 0E23     		movs	r3, #14
 839 009c FB18     		adds	r3, r7, r3
 840 009e 0132     		adds	r2, r2, #1
 841 00a0 1A80     		strh	r2, [r3]
 842              	.L50:
 208:oled_ssd1331.c **** 		for(j = 0; j < chWidth; j ++){
 843              		.loc 1 208 0 is_stmt 0 discriminator 1
 844 00a2 3B1D     		adds	r3, r7, #4
 845 00a4 1B78     		ldrb	r3, [r3]
 846 00a6 9BB2     		uxth	r3, r3
 847 00a8 0E22     		movs	r2, #14
 848 00aa BA18     		adds	r2, r7, r2
 849 00ac 1288     		ldrh	r2, [r2]
 850 00ae 9A42     		cmp	r2, r3
 851 00b0 C6D3     		bcc	.L53
 852 00b2 00E0     		b	.L46
 853              	.L54:
 205:oled_ssd1331.c **** 	}
 854              		.loc 1 205 0 is_stmt 1
 855 00b4 C046     		nop
 856              	.L46:
 211:oled_ssd1331.c **** 		}
ARM GAS  C:\Users\ROUSSMA\AppData\Local\Temp\cckXhTKH.s 			page 20


 212:oled_ssd1331.c **** 	}
 213:oled_ssd1331.c **** }
 857              		.loc 1 213 0
 858 00b6 BD46     		mov	sp, r7
 859 00b8 04B0     		add	sp, sp, #16
 860              		@ sp needed
 861 00ba B0BD     		pop	{r4, r5, r7, pc}
 862              		.cfi_endproc
 863              	.LFE72:
 864              		.size	ssd1331_fill_rect, .-ssd1331_fill_rect
 865              		.section	.text.ssd1331_draw_circle,"ax",%progbits
 866              		.align	2
 867              		.global	ssd1331_draw_circle
 868              		.code	16
 869              		.thumb_func
 870              		.type	ssd1331_draw_circle, %function
 871              	ssd1331_draw_circle:
 872              	.LFB73:
 214:oled_ssd1331.c **** 
 215:oled_ssd1331.c **** void ssd1331_draw_circle(uint8_t chXpos, uint8_t chYpos, uint8_t chRadius, uint16_t hwColor)
 216:oled_ssd1331.c **** {
 873              		.loc 1 216 0
 874              		.cfi_startproc
 875              		@ args = 0, pretend = 0, frame = 24
 876              		@ frame_needed = 1, uses_anonymous_args = 0
 877 0000 B0B5     		push	{r4, r5, r7, lr}
 878              		.cfi_def_cfa_offset 16
 879              		.cfi_offset 4, -16
 880              		.cfi_offset 5, -12
 881              		.cfi_offset 7, -8
 882              		.cfi_offset 14, -4
 883 0002 86B0     		sub	sp, sp, #24
 884              		.cfi_def_cfa_offset 40
 885 0004 00AF     		add	r7, sp, #0
 886              		.cfi_def_cfa_register 7
 887 0006 0500     		movs	r5, r0
 888 0008 0C00     		movs	r4, r1
 889 000a 1000     		movs	r0, r2
 890 000c 1900     		movs	r1, r3
 891 000e FB1D     		adds	r3, r7, #7
 892 0010 2A1C     		adds	r2, r5, #0
 893 0012 1A70     		strb	r2, [r3]
 894 0014 BB1D     		adds	r3, r7, #6
 895 0016 221C     		adds	r2, r4, #0
 896 0018 1A70     		strb	r2, [r3]
 897 001a 7B1D     		adds	r3, r7, #5
 898 001c 021C     		adds	r2, r0, #0
 899 001e 1A70     		strb	r2, [r3]
 900 0020 BB1C     		adds	r3, r7, #2
 901 0022 0A1C     		adds	r2, r1, #0
 902 0024 1A80     		strh	r2, [r3]
 217:oled_ssd1331.c **** 	int x = -chRadius, y = 0, err = 2 - 2 * chRadius, e2;
 903              		.loc 1 217 0
 904 0026 7B1D     		adds	r3, r7, #5
 905 0028 1B78     		ldrb	r3, [r3]
 906 002a 5B42     		rsbs	r3, r3, #0
 907 002c 7B61     		str	r3, [r7, #20]
ARM GAS  C:\Users\ROUSSMA\AppData\Local\Temp\cckXhTKH.s 			page 21


 908 002e 0023     		movs	r3, #0
 909 0030 3B61     		str	r3, [r7, #16]
 910 0032 7B1D     		adds	r3, r7, #5
 911 0034 1B78     		ldrb	r3, [r3]
 912 0036 0122     		movs	r2, #1
 913 0038 D31A     		subs	r3, r2, r3
 914 003a 5B00     		lsls	r3, r3, #1
 915 003c FB60     		str	r3, [r7, #12]
 218:oled_ssd1331.c **** 
 219:oled_ssd1331.c **** 	if (chXpos >= OLED_WIDTH || chYpos >= OLED_HEIGHT) {
 916              		.loc 1 219 0
 917 003e FB1D     		adds	r3, r7, #7
 918 0040 1B78     		ldrb	r3, [r3]
 919 0042 5F2B     		cmp	r3, #95
 920 0044 00D9     		bls	.LCB822
 921 0046 72E0     		b	.L61	@long jump
 922              	.LCB822:
 923              		.loc 1 219 0 is_stmt 0 discriminator 1
 924 0048 BB1D     		adds	r3, r7, #6
 925 004a 1B78     		ldrb	r3, [r3]
 926 004c 3F2B     		cmp	r3, #63
 927 004e 6ED8     		bhi	.L61
 928              	.L57:
 220:oled_ssd1331.c **** 		return;
 221:oled_ssd1331.c **** 	}
 222:oled_ssd1331.c **** 	
 223:oled_ssd1331.c ****     do {
 224:oled_ssd1331.c ****         ssd1331_draw_point(chXpos - x, chYpos + y, hwColor);
 929              		.loc 1 224 0 is_stmt 1
 930 0050 7B69     		ldr	r3, [r7, #20]
 931 0052 DBB2     		uxtb	r3, r3
 932 0054 FA1D     		adds	r2, r7, #7
 933 0056 1278     		ldrb	r2, [r2]
 934 0058 D31A     		subs	r3, r2, r3
 935 005a D8B2     		uxtb	r0, r3
 936 005c 3B69     		ldr	r3, [r7, #16]
 937 005e DAB2     		uxtb	r2, r3
 938 0060 BB1D     		adds	r3, r7, #6
 939 0062 1B78     		ldrb	r3, [r3]
 940 0064 D318     		adds	r3, r2, r3
 941 0066 D9B2     		uxtb	r1, r3
 942 0068 BB1C     		adds	r3, r7, #2
 943 006a 1B88     		ldrh	r3, [r3]
 944 006c 1A00     		movs	r2, r3
 945 006e FFF7FEFF 		bl	ssd1331_draw_point
 225:oled_ssd1331.c ****         ssd1331_draw_point(chXpos + x, chYpos + y, hwColor);
 946              		.loc 1 225 0
 947 0072 7B69     		ldr	r3, [r7, #20]
 948 0074 DAB2     		uxtb	r2, r3
 949 0076 FB1D     		adds	r3, r7, #7
 950 0078 1B78     		ldrb	r3, [r3]
 951 007a D318     		adds	r3, r2, r3
 952 007c D8B2     		uxtb	r0, r3
 953 007e 3B69     		ldr	r3, [r7, #16]
 954 0080 DAB2     		uxtb	r2, r3
 955 0082 BB1D     		adds	r3, r7, #6
 956 0084 1B78     		ldrb	r3, [r3]
ARM GAS  C:\Users\ROUSSMA\AppData\Local\Temp\cckXhTKH.s 			page 22


 957 0086 D318     		adds	r3, r2, r3
 958 0088 D9B2     		uxtb	r1, r3
 959 008a BB1C     		adds	r3, r7, #2
 960 008c 1B88     		ldrh	r3, [r3]
 961 008e 1A00     		movs	r2, r3
 962 0090 FFF7FEFF 		bl	ssd1331_draw_point
 226:oled_ssd1331.c ****         ssd1331_draw_point(chXpos + x, chYpos - y, hwColor);
 963              		.loc 1 226 0
 964 0094 7B69     		ldr	r3, [r7, #20]
 965 0096 DAB2     		uxtb	r2, r3
 966 0098 FB1D     		adds	r3, r7, #7
 967 009a 1B78     		ldrb	r3, [r3]
 968 009c D318     		adds	r3, r2, r3
 969 009e D8B2     		uxtb	r0, r3
 970 00a0 3B69     		ldr	r3, [r7, #16]
 971 00a2 DBB2     		uxtb	r3, r3
 972 00a4 BA1D     		adds	r2, r7, #6
 973 00a6 1278     		ldrb	r2, [r2]
 974 00a8 D31A     		subs	r3, r2, r3
 975 00aa D9B2     		uxtb	r1, r3
 976 00ac BB1C     		adds	r3, r7, #2
 977 00ae 1B88     		ldrh	r3, [r3]
 978 00b0 1A00     		movs	r2, r3
 979 00b2 FFF7FEFF 		bl	ssd1331_draw_point
 227:oled_ssd1331.c ****         ssd1331_draw_point(chXpos - x, chYpos - y, hwColor);
 980              		.loc 1 227 0
 981 00b6 7B69     		ldr	r3, [r7, #20]
 982 00b8 DBB2     		uxtb	r3, r3
 983 00ba FA1D     		adds	r2, r7, #7
 984 00bc 1278     		ldrb	r2, [r2]
 985 00be D31A     		subs	r3, r2, r3
 986 00c0 D8B2     		uxtb	r0, r3
 987 00c2 3B69     		ldr	r3, [r7, #16]
 988 00c4 DBB2     		uxtb	r3, r3
 989 00c6 BA1D     		adds	r2, r7, #6
 990 00c8 1278     		ldrb	r2, [r2]
 991 00ca D31A     		subs	r3, r2, r3
 992 00cc D9B2     		uxtb	r1, r3
 993 00ce BB1C     		adds	r3, r7, #2
 994 00d0 1B88     		ldrh	r3, [r3]
 995 00d2 1A00     		movs	r2, r3
 996 00d4 FFF7FEFF 		bl	ssd1331_draw_point
 228:oled_ssd1331.c ****         e2 = err;
 997              		.loc 1 228 0
 998 00d8 FB68     		ldr	r3, [r7, #12]
 999 00da BB60     		str	r3, [r7, #8]
 229:oled_ssd1331.c ****         if (e2 <= y) {
 1000              		.loc 1 229 0
 1001 00dc BA68     		ldr	r2, [r7, #8]
 1002 00de 3B69     		ldr	r3, [r7, #16]
 1003 00e0 9A42     		cmp	r2, r3
 1004 00e2 13DC     		bgt	.L59
 230:oled_ssd1331.c ****             err += ++ y * 2 + 1;
 1005              		.loc 1 230 0
 1006 00e4 3B69     		ldr	r3, [r7, #16]
 1007 00e6 0133     		adds	r3, r3, #1
 1008 00e8 3B61     		str	r3, [r7, #16]
ARM GAS  C:\Users\ROUSSMA\AppData\Local\Temp\cckXhTKH.s 			page 23


 1009 00ea 3B69     		ldr	r3, [r7, #16]
 1010 00ec 5B00     		lsls	r3, r3, #1
 1011 00ee 0133     		adds	r3, r3, #1
 1012 00f0 FA68     		ldr	r2, [r7, #12]
 1013 00f2 D318     		adds	r3, r2, r3
 1014 00f4 FB60     		str	r3, [r7, #12]
 231:oled_ssd1331.c ****             if(-x == y && e2 <= x) e2 = 0;
 1015              		.loc 1 231 0
 1016 00f6 7B69     		ldr	r3, [r7, #20]
 1017 00f8 5A42     		rsbs	r2, r3, #0
 1018 00fa 3B69     		ldr	r3, [r7, #16]
 1019 00fc 9A42     		cmp	r2, r3
 1020 00fe 05D1     		bne	.L59
 1021              		.loc 1 231 0 is_stmt 0 discriminator 1
 1022 0100 BA68     		ldr	r2, [r7, #8]
 1023 0102 7B69     		ldr	r3, [r7, #20]
 1024 0104 9A42     		cmp	r2, r3
 1025 0106 01DC     		bgt	.L59
 1026              		.loc 1 231 0 discriminator 2
 1027 0108 0023     		movs	r3, #0
 1028 010a BB60     		str	r3, [r7, #8]
 1029              	.L59:
 232:oled_ssd1331.c ****         }
 233:oled_ssd1331.c ****         if(e2 > x) err += ++ x * 2 + 1;
 1030              		.loc 1 233 0 is_stmt 1
 1031 010c BA68     		ldr	r2, [r7, #8]
 1032 010e 7B69     		ldr	r3, [r7, #20]
 1033 0110 9A42     		cmp	r2, r3
 1034 0112 08DD     		ble	.L60
 1035              		.loc 1 233 0 is_stmt 0 discriminator 1
 1036 0114 7B69     		ldr	r3, [r7, #20]
 1037 0116 0133     		adds	r3, r3, #1
 1038 0118 7B61     		str	r3, [r7, #20]
 1039 011a 7B69     		ldr	r3, [r7, #20]
 1040 011c 5B00     		lsls	r3, r3, #1
 1041 011e 0133     		adds	r3, r3, #1
 1042 0120 FA68     		ldr	r2, [r7, #12]
 1043 0122 D318     		adds	r3, r2, r3
 1044 0124 FB60     		str	r3, [r7, #12]
 1045              	.L60:
 234:oled_ssd1331.c ****     } while(x <= 0);
 1046              		.loc 1 234 0 is_stmt 1
 1047 0126 7B69     		ldr	r3, [r7, #20]
 1048 0128 002B     		cmp	r3, #0
 1049 012a 91DD     		ble	.L57
 1050 012c 00E0     		b	.L55
 1051              	.L61:
 220:oled_ssd1331.c **** 	}
 1052              		.loc 1 220 0
 1053 012e C046     		nop
 1054              	.L55:
 235:oled_ssd1331.c **** }
 1055              		.loc 1 235 0
 1056 0130 BD46     		mov	sp, r7
 1057 0132 06B0     		add	sp, sp, #24
 1058              		@ sp needed
 1059 0134 B0BD     		pop	{r4, r5, r7, pc}
ARM GAS  C:\Users\ROUSSMA\AppData\Local\Temp\cckXhTKH.s 			page 24


 1060              		.cfi_endproc
 1061              	.LFE73:
 1062              		.size	ssd1331_draw_circle, .-ssd1331_draw_circle
 1063 0136 C046     		.section	.text.ssd1331_clear_screen,"ax",%progbits
 1064              		.align	2
 1065              		.global	ssd1331_clear_screen
 1066              		.code	16
 1067              		.thumb_func
 1068              		.type	ssd1331_clear_screen, %function
 1069              	ssd1331_clear_screen:
 1070              	.LFB74:
 236:oled_ssd1331.c **** 
 237:oled_ssd1331.c **** void ssd1331_clear_screen(uint16_t hwColor)  
 238:oled_ssd1331.c **** {
 1071              		.loc 1 238 0
 1072              		.cfi_startproc
 1073              		@ args = 0, pretend = 0, frame = 16
 1074              		@ frame_needed = 1, uses_anonymous_args = 0
 1075 0000 80B5     		push	{r7, lr}
 1076              		.cfi_def_cfa_offset 8
 1077              		.cfi_offset 7, -8
 1078              		.cfi_offset 14, -4
 1079 0002 84B0     		sub	sp, sp, #16
 1080              		.cfi_def_cfa_offset 24
 1081 0004 00AF     		add	r7, sp, #0
 1082              		.cfi_def_cfa_register 7
 1083 0006 0200     		movs	r2, r0
 1084 0008 BB1D     		adds	r3, r7, #6
 1085 000a 1A80     		strh	r2, [r3]
 239:oled_ssd1331.c **** 	uint16_t i, j;
 240:oled_ssd1331.c **** 	
 241:oled_ssd1331.c **** 	for(i = 0; i < OLED_HEIGHT; i ++)
 1086              		.loc 1 241 0
 1087 000c 0E23     		movs	r3, #14
 1088 000e FB18     		adds	r3, r7, r3
 1089 0010 0022     		movs	r2, #0
 1090 0012 1A80     		strh	r2, [r3]
 1091 0014 24E0     		b	.L63
 1092              	.L66:
 242:oled_ssd1331.c ****     {
 243:oled_ssd1331.c **** 		for(j = 0; j < OLED_WIDTH; j ++)
 1093              		.loc 1 243 0
 1094 0016 0C23     		movs	r3, #12
 1095 0018 FB18     		adds	r3, r7, r3
 1096 001a 0022     		movs	r2, #0
 1097 001c 1A80     		strh	r2, [r3]
 1098 001e 13E0     		b	.L64
 1099              	.L65:
 244:oled_ssd1331.c ****         {
 245:oled_ssd1331.c **** 			ssd1331_draw_point(j, i, hwColor);
 1100              		.loc 1 245 0 discriminator 3
 1101 0020 0C23     		movs	r3, #12
 1102 0022 FB18     		adds	r3, r7, r3
 1103 0024 1B88     		ldrh	r3, [r3]
 1104 0026 D8B2     		uxtb	r0, r3
 1105 0028 0E23     		movs	r3, #14
 1106 002a FB18     		adds	r3, r7, r3
ARM GAS  C:\Users\ROUSSMA\AppData\Local\Temp\cckXhTKH.s 			page 25


 1107 002c 1B88     		ldrh	r3, [r3]
 1108 002e D9B2     		uxtb	r1, r3
 1109 0030 BB1D     		adds	r3, r7, #6
 1110 0032 1B88     		ldrh	r3, [r3]
 1111 0034 1A00     		movs	r2, r3
 1112 0036 FFF7FEFF 		bl	ssd1331_draw_point
 243:oled_ssd1331.c ****         {
 1113              		.loc 1 243 0 discriminator 3
 1114 003a 0C23     		movs	r3, #12
 1115 003c FB18     		adds	r3, r7, r3
 1116 003e 1A88     		ldrh	r2, [r3]
 1117 0040 0C23     		movs	r3, #12
 1118 0042 FB18     		adds	r3, r7, r3
 1119 0044 0132     		adds	r2, r2, #1
 1120 0046 1A80     		strh	r2, [r3]
 1121              	.L64:
 243:oled_ssd1331.c ****         {
 1122              		.loc 1 243 0 is_stmt 0 discriminator 1
 1123 0048 0C23     		movs	r3, #12
 1124 004a FB18     		adds	r3, r7, r3
 1125 004c 1B88     		ldrh	r3, [r3]
 1126 004e 5F2B     		cmp	r3, #95
 1127 0050 E6D9     		bls	.L65
 241:oled_ssd1331.c ****     {
 1128              		.loc 1 241 0 is_stmt 1 discriminator 2
 1129 0052 0E23     		movs	r3, #14
 1130 0054 FB18     		adds	r3, r7, r3
 1131 0056 1A88     		ldrh	r2, [r3]
 1132 0058 0E23     		movs	r3, #14
 1133 005a FB18     		adds	r3, r7, r3
 1134 005c 0132     		adds	r2, r2, #1
 1135 005e 1A80     		strh	r2, [r3]
 1136              	.L63:
 241:oled_ssd1331.c ****     {
 1137              		.loc 1 241 0 is_stmt 0 discriminator 1
 1138 0060 0E23     		movs	r3, #14
 1139 0062 FB18     		adds	r3, r7, r3
 1140 0064 1B88     		ldrh	r3, [r3]
 1141 0066 3F2B     		cmp	r3, #63
 1142 0068 D5D9     		bls	.L66
 246:oled_ssd1331.c **** 		}
 247:oled_ssd1331.c **** 	}
 248:oled_ssd1331.c **** }
 1143              		.loc 1 248 0 is_stmt 1
 1144 006a C046     		nop
 1145 006c BD46     		mov	sp, r7
 1146 006e 04B0     		add	sp, sp, #16
 1147              		@ sp needed
 1148 0070 80BD     		pop	{r7, pc}
 1149              		.cfi_endproc
 1150              	.LFE74:
 1151              		.size	ssd1331_clear_screen, .-ssd1331_clear_screen
 1152 0072 C046     		.section	.text.ssd1331_display_char,"ax",%progbits
 1153              		.align	2
 1154              		.global	ssd1331_display_char
 1155              		.code	16
 1156              		.thumb_func
ARM GAS  C:\Users\ROUSSMA\AppData\Local\Temp\cckXhTKH.s 			page 26


 1157              		.type	ssd1331_display_char, %function
 1158              	ssd1331_display_char:
 1159              	.LFB75:
 249:oled_ssd1331.c **** 
 250:oled_ssd1331.c **** /**
 251:oled_ssd1331.c ****   * @brief Displays one character at the specified position    
 252:oled_ssd1331.c ****   *         
 253:oled_ssd1331.c ****   * @param  chXpos: Specifies the X position
 254:oled_ssd1331.c ****   * @param  chYpos: Specifies the Y position
 255:oled_ssd1331.c ****   * @param  chSize: 
 256:oled_ssd1331.c ****   * @param  chMode
 257:oled_ssd1331.c ****   * @retval 
 258:oled_ssd1331.c **** **/
 259:oled_ssd1331.c **** void ssd1331_display_char(uint8_t chXpos, uint8_t chYpos, uint8_t chChr, uint8_t chSize, uint16_t h
 260:oled_ssd1331.c **** {      	
 1160              		.loc 1 260 0
 1161              		.cfi_startproc
 1162              		@ args = 4, pretend = 0, frame = 16
 1163              		@ frame_needed = 1, uses_anonymous_args = 0
 1164 0000 B0B5     		push	{r4, r5, r7, lr}
 1165              		.cfi_def_cfa_offset 16
 1166              		.cfi_offset 4, -16
 1167              		.cfi_offset 5, -12
 1168              		.cfi_offset 7, -8
 1169              		.cfi_offset 14, -4
 1170 0002 84B0     		sub	sp, sp, #16
 1171              		.cfi_def_cfa_offset 32
 1172 0004 00AF     		add	r7, sp, #0
 1173              		.cfi_def_cfa_register 7
 1174 0006 0500     		movs	r5, r0
 1175 0008 0C00     		movs	r4, r1
 1176 000a 1000     		movs	r0, r2
 1177 000c 1900     		movs	r1, r3
 1178 000e FB1D     		adds	r3, r7, #7
 1179 0010 2A1C     		adds	r2, r5, #0
 1180 0012 1A70     		strb	r2, [r3]
 1181 0014 BB1D     		adds	r3, r7, #6
 1182 0016 221C     		adds	r2, r4, #0
 1183 0018 1A70     		strb	r2, [r3]
 1184 001a 7B1D     		adds	r3, r7, #5
 1185 001c 021C     		adds	r2, r0, #0
 1186 001e 1A70     		strb	r2, [r3]
 1187 0020 3B1D     		adds	r3, r7, #4
 1188 0022 0A1C     		adds	r2, r1, #0
 1189 0024 1A70     		strb	r2, [r3]
 261:oled_ssd1331.c **** 	uint8_t i, j; 
 262:oled_ssd1331.c ****     uint8_t chTemp = 0;
 1190              		.loc 1 262 0
 1191 0026 0D23     		movs	r3, #13
 1192 0028 FB18     		adds	r3, r7, r3
 1193 002a 0022     		movs	r2, #0
 1194 002c 1A70     		strb	r2, [r3]
 263:oled_ssd1331.c **** 	uint8_t chYpos0 = chYpos;
 1195              		.loc 1 263 0
 1196 002e 0C23     		movs	r3, #12
 1197 0030 FB18     		adds	r3, r7, r3
 1198 0032 BA1D     		adds	r2, r7, #6
ARM GAS  C:\Users\ROUSSMA\AppData\Local\Temp\cckXhTKH.s 			page 27


 1199 0034 1278     		ldrb	r2, [r2]
 1200 0036 1A70     		strb	r2, [r3]
 264:oled_ssd1331.c **** 
 265:oled_ssd1331.c **** 	if (chXpos >= OLED_WIDTH || chYpos >= OLED_HEIGHT) {
 1201              		.loc 1 265 0
 1202 0038 FB1D     		adds	r3, r7, #7
 1203 003a 1B78     		ldrb	r3, [r3]
 1204 003c 5F2B     		cmp	r3, #95
 1205 003e 00D9     		bls	.LCB1079
 1206 0040 82E0     		b	.L80	@long jump
 1207              	.LCB1079:
 1208              		.loc 1 265 0 is_stmt 0 discriminator 1
 1209 0042 BB1D     		adds	r3, r7, #6
 1210 0044 1B78     		ldrb	r3, [r3]
 1211 0046 3F2B     		cmp	r3, #63
 1212 0048 00D9     		bls	.LCB1083
 1213 004a 7DE0     		b	.L80	@long jump
 1214              	.LCB1083:
 266:oled_ssd1331.c **** 		return;
 267:oled_ssd1331.c **** 	}
 268:oled_ssd1331.c **** 					   
 269:oled_ssd1331.c ****     for (i = 0; i < chSize; i ++) {   
 1215              		.loc 1 269 0 is_stmt 1
 1216 004c 0F23     		movs	r3, #15
 1217 004e FB18     		adds	r3, r7, r3
 1218 0050 0022     		movs	r2, #0
 1219 0052 1A70     		strb	r2, [r3]
 1220 0054 70E0     		b	.L71
 1221              	.L79:
 270:oled_ssd1331.c **** 		if (FONT_1206 == chSize) {
 1222              		.loc 1 270 0
 1223 0056 3B1D     		adds	r3, r7, #4
 1224 0058 1B78     		ldrb	r3, [r3]
 1225 005a 0C2B     		cmp	r3, #12
 1226 005c 11D1     		bne	.L72
 271:oled_ssd1331.c **** 			chTemp = c_chFont1206[chChr - 0x20][i];  
 1227              		.loc 1 271 0
 1228 005e 7B1D     		adds	r3, r7, #5
 1229 0060 1B78     		ldrb	r3, [r3]
 1230 0062 203B     		subs	r3, r3, #32
 1231 0064 1A00     		movs	r2, r3
 1232 0066 0F23     		movs	r3, #15
 1233 0068 FB18     		adds	r3, r7, r3
 1234 006a 1878     		ldrb	r0, [r3]
 1235 006c 0D23     		movs	r3, #13
 1236 006e F918     		adds	r1, r7, r3
 1237 0070 374C     		ldr	r4, .L81
 1238 0072 1300     		movs	r3, r2
 1239 0074 5B00     		lsls	r3, r3, #1
 1240 0076 9B18     		adds	r3, r3, r2
 1241 0078 9B00     		lsls	r3, r3, #2
 1242 007a E318     		adds	r3, r4, r3
 1243 007c 1B5C     		ldrb	r3, [r3, r0]
 1244 007e 0B70     		strb	r3, [r1]
 1245 0080 11E0     		b	.L73
 1246              	.L72:
 272:oled_ssd1331.c **** 		} else if (FONT_1608 == chSize) { 
ARM GAS  C:\Users\ROUSSMA\AppData\Local\Temp\cckXhTKH.s 			page 28


 1247              		.loc 1 272 0
 1248 0082 3B1D     		adds	r3, r7, #4
 1249 0084 1B78     		ldrb	r3, [r3]
 1250 0086 102B     		cmp	r3, #16
 1251 0088 0DD1     		bne	.L73
 273:oled_ssd1331.c **** 			chTemp = c_chFont1608[chChr - 0x20][i];
 1252              		.loc 1 273 0
 1253 008a 7B1D     		adds	r3, r7, #5
 1254 008c 1B78     		ldrb	r3, [r3]
 1255 008e 203B     		subs	r3, r3, #32
 1256 0090 1900     		movs	r1, r3
 1257 0092 0F23     		movs	r3, #15
 1258 0094 FB18     		adds	r3, r7, r3
 1259 0096 1A78     		ldrb	r2, [r3]
 1260 0098 0D23     		movs	r3, #13
 1261 009a FB18     		adds	r3, r7, r3
 1262 009c 2D48     		ldr	r0, .L81+4
 1263 009e 0901     		lsls	r1, r1, #4
 1264 00a0 4118     		adds	r1, r0, r1
 1265 00a2 8A5C     		ldrb	r2, [r1, r2]
 1266 00a4 1A70     		strb	r2, [r3]
 1267              	.L73:
 274:oled_ssd1331.c **** 		}
 275:oled_ssd1331.c **** 		
 276:oled_ssd1331.c ****         for (j = 0; j < 8; j ++) {
 1268              		.loc 1 276 0
 1269 00a6 0E23     		movs	r3, #14
 1270 00a8 FB18     		adds	r3, r7, r3
 1271 00aa 0022     		movs	r2, #0
 1272 00ac 1A70     		strb	r2, [r3]
 1273 00ae 37E0     		b	.L74
 1274              	.L78:
 277:oled_ssd1331.c ****     		if (chTemp & 0x80) {
 1275              		.loc 1 277 0
 1276 00b0 0D23     		movs	r3, #13
 1277 00b2 FB18     		adds	r3, r7, r3
 1278 00b4 1B78     		ldrb	r3, [r3]
 1279 00b6 5BB2     		sxtb	r3, r3
 1280 00b8 002B     		cmp	r3, #0
 1281 00ba 09DA     		bge	.L75
 278:oled_ssd1331.c **** 				ssd1331_draw_point(chXpos, chYpos, hwColor);
 1282              		.loc 1 278 0
 1283 00bc 2023     		movs	r3, #32
 1284 00be FB18     		adds	r3, r7, r3
 1285 00c0 1A88     		ldrh	r2, [r3]
 1286 00c2 BB1D     		adds	r3, r7, #6
 1287 00c4 1978     		ldrb	r1, [r3]
 1288 00c6 FB1D     		adds	r3, r7, #7
 1289 00c8 1B78     		ldrb	r3, [r3]
 1290 00ca 1800     		movs	r0, r3
 1291 00cc FFF7FEFF 		bl	ssd1331_draw_point
 1292              	.L75:
 279:oled_ssd1331.c ****     		}			
 280:oled_ssd1331.c **** 			chTemp <<= 1;
 1293              		.loc 1 280 0
 1294 00d0 0D23     		movs	r3, #13
 1295 00d2 FA18     		adds	r2, r7, r3
ARM GAS  C:\Users\ROUSSMA\AppData\Local\Temp\cckXhTKH.s 			page 29


 1296 00d4 0D23     		movs	r3, #13
 1297 00d6 FB18     		adds	r3, r7, r3
 1298 00d8 1B78     		ldrb	r3, [r3]
 1299 00da DB18     		adds	r3, r3, r3
 1300 00dc 1370     		strb	r3, [r2]
 281:oled_ssd1331.c **** 			chYpos ++;
 1301              		.loc 1 281 0
 1302 00de BB1D     		adds	r3, r7, #6
 1303 00e0 1A78     		ldrb	r2, [r3]
 1304 00e2 BB1D     		adds	r3, r7, #6
 1305 00e4 0132     		adds	r2, r2, #1
 1306 00e6 1A70     		strb	r2, [r3]
 282:oled_ssd1331.c **** 			if ((chYpos - chYpos0) == chSize) {
 1307              		.loc 1 282 0
 1308 00e8 BB1D     		adds	r3, r7, #6
 1309 00ea 1A78     		ldrb	r2, [r3]
 1310 00ec 0C23     		movs	r3, #12
 1311 00ee FB18     		adds	r3, r7, r3
 1312 00f0 1B78     		ldrb	r3, [r3]
 1313 00f2 D21A     		subs	r2, r2, r3
 1314 00f4 3B1D     		adds	r3, r7, #4
 1315 00f6 1B78     		ldrb	r3, [r3]
 1316 00f8 9A42     		cmp	r2, r3
 1317 00fa 0AD1     		bne	.L76
 283:oled_ssd1331.c **** 				chYpos = chYpos0;
 1318              		.loc 1 283 0
 1319 00fc BB1D     		adds	r3, r7, #6
 1320 00fe 0C22     		movs	r2, #12
 1321 0100 BA18     		adds	r2, r7, r2
 1322 0102 1278     		ldrb	r2, [r2]
 1323 0104 1A70     		strb	r2, [r3]
 284:oled_ssd1331.c **** 				chXpos ++;
 1324              		.loc 1 284 0
 1325 0106 FB1D     		adds	r3, r7, #7
 1326 0108 1A78     		ldrb	r2, [r3]
 1327 010a FB1D     		adds	r3, r7, #7
 1328 010c 0132     		adds	r2, r2, #1
 1329 010e 1A70     		strb	r2, [r3]
 285:oled_ssd1331.c **** 				break;
 1330              		.loc 1 285 0
 1331 0110 0BE0     		b	.L77
 1332              	.L76:
 276:oled_ssd1331.c ****     		if (chTemp & 0x80) {
 1333              		.loc 1 276 0 discriminator 2
 1334 0112 0E23     		movs	r3, #14
 1335 0114 FB18     		adds	r3, r7, r3
 1336 0116 1A78     		ldrb	r2, [r3]
 1337 0118 0E23     		movs	r3, #14
 1338 011a FB18     		adds	r3, r7, r3
 1339 011c 0132     		adds	r2, r2, #1
 1340 011e 1A70     		strb	r2, [r3]
 1341              	.L74:
 276:oled_ssd1331.c ****     		if (chTemp & 0x80) {
 1342              		.loc 1 276 0 is_stmt 0 discriminator 1
 1343 0120 0E23     		movs	r3, #14
 1344 0122 FB18     		adds	r3, r7, r3
 1345 0124 1B78     		ldrb	r3, [r3]
ARM GAS  C:\Users\ROUSSMA\AppData\Local\Temp\cckXhTKH.s 			page 30


 1346 0126 072B     		cmp	r3, #7
 1347 0128 C2D9     		bls	.L78
 1348              	.L77:
 269:oled_ssd1331.c **** 		if (FONT_1206 == chSize) {
 1349              		.loc 1 269 0 is_stmt 1 discriminator 2
 1350 012a 0F23     		movs	r3, #15
 1351 012c FB18     		adds	r3, r7, r3
 1352 012e 1A78     		ldrb	r2, [r3]
 1353 0130 0F23     		movs	r3, #15
 1354 0132 FB18     		adds	r3, r7, r3
 1355 0134 0132     		adds	r2, r2, #1
 1356 0136 1A70     		strb	r2, [r3]
 1357              	.L71:
 269:oled_ssd1331.c **** 		if (FONT_1206 == chSize) {
 1358              		.loc 1 269 0 is_stmt 0 discriminator 1
 1359 0138 0F23     		movs	r3, #15
 1360 013a FA18     		adds	r2, r7, r3
 1361 013c 3B1D     		adds	r3, r7, #4
 1362 013e 1278     		ldrb	r2, [r2]
 1363 0140 1B78     		ldrb	r3, [r3]
 1364 0142 9A42     		cmp	r2, r3
 1365 0144 87D3     		bcc	.L79
 1366 0146 00E0     		b	.L67
 1367              	.L80:
 266:oled_ssd1331.c **** 	}
 1368              		.loc 1 266 0 is_stmt 1
 1369 0148 C046     		nop
 1370              	.L67:
 286:oled_ssd1331.c **** 			}
 287:oled_ssd1331.c **** 		}  	 
 288:oled_ssd1331.c ****     } 
 289:oled_ssd1331.c **** }
 1371              		.loc 1 289 0
 1372 014a BD46     		mov	sp, r7
 1373 014c 04B0     		add	sp, sp, #16
 1374              		@ sp needed
 1375 014e B0BD     		pop	{r4, r5, r7, pc}
 1376              	.L82:
 1377              		.align	2
 1378              	.L81:
 1379 0150 00000000 		.word	c_chFont1206
 1380 0154 00000000 		.word	c_chFont1608
 1381              		.cfi_endproc
 1382              	.LFE75:
 1383              		.size	ssd1331_display_char, .-ssd1331_display_char
 1384              		.section	.text.ssd1331_display_string,"ax",%progbits
 1385              		.align	2
 1386              		.global	ssd1331_display_string
 1387              		.code	16
 1388              		.thumb_func
 1389              		.type	ssd1331_display_string, %function
 1390              	ssd1331_display_string:
 1391              	.LFB76:
 290:oled_ssd1331.c **** 
 291:oled_ssd1331.c **** /**
 292:oled_ssd1331.c ****   * @brief  Displays a string on the screen
 293:oled_ssd1331.c ****   *         
ARM GAS  C:\Users\ROUSSMA\AppData\Local\Temp\cckXhTKH.s 			page 31


 294:oled_ssd1331.c ****   * @param  chXpos: Specifies the X position
 295:oled_ssd1331.c ****   * @param  chYpos: Specifies the Y position
 296:oled_ssd1331.c ****   * @param  pchString: Pointer to a string to display on the screen 
 297:oled_ssd1331.c ****   *         
 298:oled_ssd1331.c ****   * @retval  None
 299:oled_ssd1331.c **** **/
 300:oled_ssd1331.c **** void ssd1331_display_string(uint8_t chXpos, uint8_t chYpos, const uint8_t *pchString, uint8_t chSiz
 301:oled_ssd1331.c **** {
 1392              		.loc 1 301 0
 1393              		.cfi_startproc
 1394              		@ args = 4, pretend = 0, frame = 8
 1395              		@ frame_needed = 1, uses_anonymous_args = 0
 1396 0000 90B5     		push	{r4, r7, lr}
 1397              		.cfi_def_cfa_offset 12
 1398              		.cfi_offset 4, -12
 1399              		.cfi_offset 7, -8
 1400              		.cfi_offset 14, -4
 1401 0002 85B0     		sub	sp, sp, #20
 1402              		.cfi_def_cfa_offset 32
 1403 0004 02AF     		add	r7, sp, #8
 1404              		.cfi_def_cfa 7, 24
 1405 0006 0400     		movs	r4, r0
 1406 0008 0800     		movs	r0, r1
 1407 000a 3A60     		str	r2, [r7]
 1408 000c 1900     		movs	r1, r3
 1409 000e FB1D     		adds	r3, r7, #7
 1410 0010 221C     		adds	r2, r4, #0
 1411 0012 1A70     		strb	r2, [r3]
 1412 0014 BB1D     		adds	r3, r7, #6
 1413 0016 021C     		adds	r2, r0, #0
 1414 0018 1A70     		strb	r2, [r3]
 1415 001a 7B1D     		adds	r3, r7, #5
 1416 001c 0A1C     		adds	r2, r1, #0
 1417 001e 1A70     		strb	r2, [r3]
 302:oled_ssd1331.c **** 	if (chXpos >= OLED_WIDTH || chYpos >= OLED_HEIGHT) {
 1418              		.loc 1 302 0
 1419 0020 FB1D     		adds	r3, r7, #7
 1420 0022 1B78     		ldrb	r3, [r3]
 1421 0024 5F2B     		cmp	r3, #95
 1422 0026 4BD8     		bhi	.L90
 1423              		.loc 1 302 0 is_stmt 0 discriminator 1
 1424 0028 BB1D     		adds	r3, r7, #6
 1425 002a 1B78     		ldrb	r3, [r3]
 1426 002c 3F2B     		cmp	r3, #63
 1427 002e 47D8     		bhi	.L90
 303:oled_ssd1331.c **** 		return;
 304:oled_ssd1331.c **** 	}
 305:oled_ssd1331.c **** 	
 306:oled_ssd1331.c ****     while (*pchString != '\0') {       
 1428              		.loc 1 306 0 is_stmt 1
 1429 0030 41E0     		b	.L87
 1430              	.L89:
 307:oled_ssd1331.c ****         if (chXpos > (OLED_WIDTH - chSize / 2)) {
 1431              		.loc 1 307 0
 1432 0032 FB1D     		adds	r3, r7, #7
 1433 0034 1A78     		ldrb	r2, [r3]
 1434 0036 7B1D     		adds	r3, r7, #5
ARM GAS  C:\Users\ROUSSMA\AppData\Local\Temp\cckXhTKH.s 			page 32


 1435 0038 1B78     		ldrb	r3, [r3]
 1436 003a 5B08     		lsrs	r3, r3, #1
 1437 003c DBB2     		uxtb	r3, r3
 1438 003e 1900     		movs	r1, r3
 1439 0040 6023     		movs	r3, #96
 1440 0042 5B1A     		subs	r3, r3, r1
 1441 0044 9A42     		cmp	r2, r3
 1442 0046 1BDD     		ble	.L88
 308:oled_ssd1331.c **** 			chXpos = 0;
 1443              		.loc 1 308 0
 1444 0048 FB1D     		adds	r3, r7, #7
 1445 004a 0022     		movs	r2, #0
 1446 004c 1A70     		strb	r2, [r3]
 309:oled_ssd1331.c **** 			chYpos += chSize;
 1447              		.loc 1 309 0
 1448 004e BB1D     		adds	r3, r7, #6
 1449 0050 B91D     		adds	r1, r7, #6
 1450 0052 7A1D     		adds	r2, r7, #5
 1451 0054 0978     		ldrb	r1, [r1]
 1452 0056 1278     		ldrb	r2, [r2]
 1453 0058 8A18     		adds	r2, r1, r2
 1454 005a 1A70     		strb	r2, [r3]
 310:oled_ssd1331.c **** 			if (chYpos > (OLED_HEIGHT - chSize)) {
 1455              		.loc 1 310 0
 1456 005c BB1D     		adds	r3, r7, #6
 1457 005e 1A78     		ldrb	r2, [r3]
 1458 0060 7B1D     		adds	r3, r7, #5
 1459 0062 1B78     		ldrb	r3, [r3]
 1460 0064 4021     		movs	r1, #64
 1461 0066 CB1A     		subs	r3, r1, r3
 1462 0068 9A42     		cmp	r2, r3
 1463 006a 09DD     		ble	.L88
 311:oled_ssd1331.c **** 				chYpos = chXpos = 0;
 1464              		.loc 1 311 0
 1465 006c FB1D     		adds	r3, r7, #7
 1466 006e 0022     		movs	r2, #0
 1467 0070 1A70     		strb	r2, [r3]
 1468 0072 BB1D     		adds	r3, r7, #6
 1469 0074 FA1D     		adds	r2, r7, #7
 1470 0076 1278     		ldrb	r2, [r2]
 1471 0078 1A70     		strb	r2, [r3]
 312:oled_ssd1331.c **** 				ssd1331_clear_screen(0x00);
 1472              		.loc 1 312 0
 1473 007a 0020     		movs	r0, #0
 1474 007c FFF7FEFF 		bl	ssd1331_clear_screen
 1475              	.L88:
 313:oled_ssd1331.c **** 			}
 314:oled_ssd1331.c **** 		}
 315:oled_ssd1331.c **** 		
 316:oled_ssd1331.c ****         ssd1331_display_char(chXpos, chYpos, *pchString, chSize, hwColor);
 1476              		.loc 1 316 0
 1477 0080 3B68     		ldr	r3, [r7]
 1478 0082 1A78     		ldrb	r2, [r3]
 1479 0084 7B1D     		adds	r3, r7, #5
 1480 0086 1C78     		ldrb	r4, [r3]
 1481 0088 BB1D     		adds	r3, r7, #6
 1482 008a 1978     		ldrb	r1, [r3]
ARM GAS  C:\Users\ROUSSMA\AppData\Local\Temp\cckXhTKH.s 			page 33


 1483 008c FB1D     		adds	r3, r7, #7
 1484 008e 1878     		ldrb	r0, [r3]
 1485 0090 1823     		movs	r3, #24
 1486 0092 FB18     		adds	r3, r7, r3
 1487 0094 1B88     		ldrh	r3, [r3]
 1488 0096 0093     		str	r3, [sp]
 1489 0098 2300     		movs	r3, r4
 1490 009a FFF7FEFF 		bl	ssd1331_display_char
 317:oled_ssd1331.c ****         chXpos += chSize / 2;
 1491              		.loc 1 317 0
 1492 009e 7B1D     		adds	r3, r7, #5
 1493 00a0 1B78     		ldrb	r3, [r3]
 1494 00a2 5B08     		lsrs	r3, r3, #1
 1495 00a4 D9B2     		uxtb	r1, r3
 1496 00a6 FB1D     		adds	r3, r7, #7
 1497 00a8 FA1D     		adds	r2, r7, #7
 1498 00aa 1278     		ldrb	r2, [r2]
 1499 00ac 8A18     		adds	r2, r1, r2
 1500 00ae 1A70     		strb	r2, [r3]
 318:oled_ssd1331.c ****         pchString ++;
 1501              		.loc 1 318 0
 1502 00b0 3B68     		ldr	r3, [r7]
 1503 00b2 0133     		adds	r3, r3, #1
 1504 00b4 3B60     		str	r3, [r7]
 1505              	.L87:
 306:oled_ssd1331.c ****         if (chXpos > (OLED_WIDTH - chSize / 2)) {
 1506              		.loc 1 306 0
 1507 00b6 3B68     		ldr	r3, [r7]
 1508 00b8 1B78     		ldrb	r3, [r3]
 1509 00ba 002B     		cmp	r3, #0
 1510 00bc B9D1     		bne	.L89
 1511 00be 00E0     		b	.L83
 1512              	.L90:
 303:oled_ssd1331.c **** 	}
 1513              		.loc 1 303 0
 1514 00c0 C046     		nop
 1515              	.L83:
 319:oled_ssd1331.c ****     } 
 320:oled_ssd1331.c **** }
 1516              		.loc 1 320 0
 1517 00c2 BD46     		mov	sp, r7
 1518 00c4 03B0     		add	sp, sp, #12
 1519              		@ sp needed
 1520 00c6 90BD     		pop	{r4, r7, pc}
 1521              		.cfi_endproc
 1522              	.LFE76:
 1523              		.size	ssd1331_display_string, .-ssd1331_display_string
 1524              		.section	.text.ssd1331_draw_1616char,"ax",%progbits
 1525              		.align	2
 1526              		.global	ssd1331_draw_1616char
 1527              		.code	16
 1528              		.thumb_func
 1529              		.type	ssd1331_draw_1616char, %function
 1530              	ssd1331_draw_1616char:
 1531              	.LFB77:
 321:oled_ssd1331.c **** 
 322:oled_ssd1331.c **** void ssd1331_draw_1616char(uint8_t chXpos, uint8_t chYpos, uint8_t chChar, uint16_t hwColor)
ARM GAS  C:\Users\ROUSSMA\AppData\Local\Temp\cckXhTKH.s 			page 34


 323:oled_ssd1331.c **** {
 1532              		.loc 1 323 0
 1533              		.cfi_startproc
 1534              		@ args = 0, pretend = 0, frame = 16
 1535              		@ frame_needed = 1, uses_anonymous_args = 0
 1536 0000 B0B5     		push	{r4, r5, r7, lr}
 1537              		.cfi_def_cfa_offset 16
 1538              		.cfi_offset 4, -16
 1539              		.cfi_offset 5, -12
 1540              		.cfi_offset 7, -8
 1541              		.cfi_offset 14, -4
 1542 0002 84B0     		sub	sp, sp, #16
 1543              		.cfi_def_cfa_offset 32
 1544 0004 00AF     		add	r7, sp, #0
 1545              		.cfi_def_cfa_register 7
 1546 0006 0500     		movs	r5, r0
 1547 0008 0C00     		movs	r4, r1
 1548 000a 1000     		movs	r0, r2
 1549 000c 1900     		movs	r1, r3
 1550 000e FB1D     		adds	r3, r7, #7
 1551 0010 2A1C     		adds	r2, r5, #0
 1552 0012 1A70     		strb	r2, [r3]
 1553 0014 BB1D     		adds	r3, r7, #6
 1554 0016 221C     		adds	r2, r4, #0
 1555 0018 1A70     		strb	r2, [r3]
 1556 001a 7B1D     		adds	r3, r7, #5
 1557 001c 021C     		adds	r2, r0, #0
 1558 001e 1A70     		strb	r2, [r3]
 1559 0020 BB1C     		adds	r3, r7, #2
 1560 0022 0A1C     		adds	r2, r1, #0
 1561 0024 1A80     		strh	r2, [r3]
 324:oled_ssd1331.c **** 	uint8_t i, j;
 325:oled_ssd1331.c **** 	uint8_t chTemp = 0, chYpos0 = chYpos;
 1562              		.loc 1 325 0
 1563 0026 0D23     		movs	r3, #13
 1564 0028 FB18     		adds	r3, r7, r3
 1565 002a 0022     		movs	r2, #0
 1566 002c 1A70     		strb	r2, [r3]
 1567 002e 0C23     		movs	r3, #12
 1568 0030 FB18     		adds	r3, r7, r3
 1569 0032 BA1D     		adds	r2, r7, #6
 1570 0034 1278     		ldrb	r2, [r2]
 1571 0036 1A70     		strb	r2, [r3]
 326:oled_ssd1331.c **** 
 327:oled_ssd1331.c **** 	for (i = 0; i < 32; i ++) {
 1572              		.loc 1 327 0
 1573 0038 0F23     		movs	r3, #15
 1574 003a FB18     		adds	r3, r7, r3
 1575 003c 0022     		movs	r2, #0
 1576 003e 1A70     		strb	r2, [r3]
 1577 0040 53E0     		b	.L92
 1578              	.L98:
 328:oled_ssd1331.c **** 		chTemp = c_chFont1612[chChar - 0x30][i];
 1579              		.loc 1 328 0
 1580 0042 7B1D     		adds	r3, r7, #5
 1581 0044 1B78     		ldrb	r3, [r3]
 1582 0046 303B     		subs	r3, r3, #48
ARM GAS  C:\Users\ROUSSMA\AppData\Local\Temp\cckXhTKH.s 			page 35


 1583 0048 1900     		movs	r1, r3
 1584 004a 0F23     		movs	r3, #15
 1585 004c FB18     		adds	r3, r7, r3
 1586 004e 1A78     		ldrb	r2, [r3]
 1587 0050 0D23     		movs	r3, #13
 1588 0052 FB18     		adds	r3, r7, r3
 1589 0054 2948     		ldr	r0, .L99
 1590 0056 4901     		lsls	r1, r1, #5
 1591 0058 4118     		adds	r1, r0, r1
 1592 005a 8A5C     		ldrb	r2, [r1, r2]
 1593 005c 1A70     		strb	r2, [r3]
 329:oled_ssd1331.c **** 		for (j = 0; j < 8; j ++) {
 1594              		.loc 1 329 0
 1595 005e 0E23     		movs	r3, #14
 1596 0060 FB18     		adds	r3, r7, r3
 1597 0062 0022     		movs	r2, #0
 1598 0064 1A70     		strb	r2, [r3]
 1599 0066 34E0     		b	.L93
 1600              	.L97:
 330:oled_ssd1331.c **** 			if (chTemp & 0x80) {
 1601              		.loc 1 330 0
 1602 0068 0D23     		movs	r3, #13
 1603 006a FB18     		adds	r3, r7, r3
 1604 006c 1B78     		ldrb	r3, [r3]
 1605 006e 5BB2     		sxtb	r3, r3
 1606 0070 002B     		cmp	r3, #0
 1607 0072 08DA     		bge	.L94
 331:oled_ssd1331.c **** 				ssd1331_draw_point(chXpos, chYpos, hwColor);
 1608              		.loc 1 331 0
 1609 0074 BB1C     		adds	r3, r7, #2
 1610 0076 1A88     		ldrh	r2, [r3]
 1611 0078 BB1D     		adds	r3, r7, #6
 1612 007a 1978     		ldrb	r1, [r3]
 1613 007c FB1D     		adds	r3, r7, #7
 1614 007e 1B78     		ldrb	r3, [r3]
 1615 0080 1800     		movs	r0, r3
 1616 0082 FFF7FEFF 		bl	ssd1331_draw_point
 1617              	.L94:
 332:oled_ssd1331.c ****     		}
 333:oled_ssd1331.c **** 			chTemp <<= 1;
 1618              		.loc 1 333 0
 1619 0086 0D23     		movs	r3, #13
 1620 0088 FA18     		adds	r2, r7, r3
 1621 008a 0D23     		movs	r3, #13
 1622 008c FB18     		adds	r3, r7, r3
 1623 008e 1B78     		ldrb	r3, [r3]
 1624 0090 DB18     		adds	r3, r3, r3
 1625 0092 1370     		strb	r3, [r2]
 334:oled_ssd1331.c **** 			chYpos ++;
 1626              		.loc 1 334 0
 1627 0094 BB1D     		adds	r3, r7, #6
 1628 0096 1A78     		ldrb	r2, [r3]
 1629 0098 BB1D     		adds	r3, r7, #6
 1630 009a 0132     		adds	r2, r2, #1
 1631 009c 1A70     		strb	r2, [r3]
 335:oled_ssd1331.c **** 			if ((chYpos - chYpos0) == 16) {
 1632              		.loc 1 335 0
ARM GAS  C:\Users\ROUSSMA\AppData\Local\Temp\cckXhTKH.s 			page 36


 1633 009e BB1D     		adds	r3, r7, #6
 1634 00a0 1A78     		ldrb	r2, [r3]
 1635 00a2 0C23     		movs	r3, #12
 1636 00a4 FB18     		adds	r3, r7, r3
 1637 00a6 1B78     		ldrb	r3, [r3]
 1638 00a8 D31A     		subs	r3, r2, r3
 1639 00aa 102B     		cmp	r3, #16
 1640 00ac 0AD1     		bne	.L95
 336:oled_ssd1331.c **** 				chYpos = chYpos0;
 1641              		.loc 1 336 0
 1642 00ae BB1D     		adds	r3, r7, #6
 1643 00b0 0C22     		movs	r2, #12
 1644 00b2 BA18     		adds	r2, r7, r2
 1645 00b4 1278     		ldrb	r2, [r2]
 1646 00b6 1A70     		strb	r2, [r3]
 337:oled_ssd1331.c **** 				chXpos ++;
 1647              		.loc 1 337 0
 1648 00b8 FB1D     		adds	r3, r7, #7
 1649 00ba 1A78     		ldrb	r2, [r3]
 1650 00bc FB1D     		adds	r3, r7, #7
 1651 00be 0132     		adds	r2, r2, #1
 1652 00c0 1A70     		strb	r2, [r3]
 338:oled_ssd1331.c **** 				break;
 1653              		.loc 1 338 0
 1654 00c2 0BE0     		b	.L96
 1655              	.L95:
 329:oled_ssd1331.c **** 			if (chTemp & 0x80) {
 1656              		.loc 1 329 0 discriminator 2
 1657 00c4 0E23     		movs	r3, #14
 1658 00c6 FB18     		adds	r3, r7, r3
 1659 00c8 1A78     		ldrb	r2, [r3]
 1660 00ca 0E23     		movs	r3, #14
 1661 00cc FB18     		adds	r3, r7, r3
 1662 00ce 0132     		adds	r2, r2, #1
 1663 00d0 1A70     		strb	r2, [r3]
 1664              	.L93:
 329:oled_ssd1331.c **** 			if (chTemp & 0x80) {
 1665              		.loc 1 329 0 is_stmt 0 discriminator 1
 1666 00d2 0E23     		movs	r3, #14
 1667 00d4 FB18     		adds	r3, r7, r3
 1668 00d6 1B78     		ldrb	r3, [r3]
 1669 00d8 072B     		cmp	r3, #7
 1670 00da C5D9     		bls	.L97
 1671              	.L96:
 327:oled_ssd1331.c **** 		chTemp = c_chFont1612[chChar - 0x30][i];
 1672              		.loc 1 327 0 is_stmt 1 discriminator 2
 1673 00dc 0F23     		movs	r3, #15
 1674 00de FB18     		adds	r3, r7, r3
 1675 00e0 1A78     		ldrb	r2, [r3]
 1676 00e2 0F23     		movs	r3, #15
 1677 00e4 FB18     		adds	r3, r7, r3
 1678 00e6 0132     		adds	r2, r2, #1
 1679 00e8 1A70     		strb	r2, [r3]
 1680              	.L92:
 327:oled_ssd1331.c **** 		chTemp = c_chFont1612[chChar - 0x30][i];
 1681              		.loc 1 327 0 is_stmt 0 discriminator 1
 1682 00ea 0F23     		movs	r3, #15
ARM GAS  C:\Users\ROUSSMA\AppData\Local\Temp\cckXhTKH.s 			page 37


 1683 00ec FB18     		adds	r3, r7, r3
 1684 00ee 1B78     		ldrb	r3, [r3]
 1685 00f0 1F2B     		cmp	r3, #31
 1686 00f2 A6D9     		bls	.L98
 339:oled_ssd1331.c **** 			}
 340:oled_ssd1331.c **** 		}
 341:oled_ssd1331.c **** 	}
 342:oled_ssd1331.c **** }
 1687              		.loc 1 342 0 is_stmt 1
 1688 00f4 C046     		nop
 1689 00f6 BD46     		mov	sp, r7
 1690 00f8 04B0     		add	sp, sp, #16
 1691              		@ sp needed
 1692 00fa B0BD     		pop	{r4, r5, r7, pc}
 1693              	.L100:
 1694              		.align	2
 1695              	.L99:
 1696 00fc 00000000 		.word	c_chFont1612
 1697              		.cfi_endproc
 1698              	.LFE77:
 1699              		.size	ssd1331_draw_1616char, .-ssd1331_draw_1616char
 1700              		.section	.text.ssd1331_draw_3216char,"ax",%progbits
 1701              		.align	2
 1702              		.global	ssd1331_draw_3216char
 1703              		.code	16
 1704              		.thumb_func
 1705              		.type	ssd1331_draw_3216char, %function
 1706              	ssd1331_draw_3216char:
 1707              	.LFB78:
 343:oled_ssd1331.c **** 
 344:oled_ssd1331.c **** void ssd1331_draw_3216char(uint8_t chXpos, uint8_t chYpos, uint8_t chChar, uint16_t hwColor)
 345:oled_ssd1331.c **** {
 1708              		.loc 1 345 0
 1709              		.cfi_startproc
 1710              		@ args = 0, pretend = 0, frame = 16
 1711              		@ frame_needed = 1, uses_anonymous_args = 0
 1712 0000 B0B5     		push	{r4, r5, r7, lr}
 1713              		.cfi_def_cfa_offset 16
 1714              		.cfi_offset 4, -16
 1715              		.cfi_offset 5, -12
 1716              		.cfi_offset 7, -8
 1717              		.cfi_offset 14, -4
 1718 0002 84B0     		sub	sp, sp, #16
 1719              		.cfi_def_cfa_offset 32
 1720 0004 00AF     		add	r7, sp, #0
 1721              		.cfi_def_cfa_register 7
 1722 0006 0500     		movs	r5, r0
 1723 0008 0C00     		movs	r4, r1
 1724 000a 1000     		movs	r0, r2
 1725 000c 1900     		movs	r1, r3
 1726 000e FB1D     		adds	r3, r7, #7
 1727 0010 2A1C     		adds	r2, r5, #0
 1728 0012 1A70     		strb	r2, [r3]
 1729 0014 BB1D     		adds	r3, r7, #6
 1730 0016 221C     		adds	r2, r4, #0
 1731 0018 1A70     		strb	r2, [r3]
 1732 001a 7B1D     		adds	r3, r7, #5
ARM GAS  C:\Users\ROUSSMA\AppData\Local\Temp\cckXhTKH.s 			page 38


 1733 001c 021C     		adds	r2, r0, #0
 1734 001e 1A70     		strb	r2, [r3]
 1735 0020 BB1C     		adds	r3, r7, #2
 1736 0022 0A1C     		adds	r2, r1, #0
 1737 0024 1A80     		strh	r2, [r3]
 346:oled_ssd1331.c **** 	uint8_t i, j;
 347:oled_ssd1331.c **** 	uint8_t chTemp = 0, chYpos0 = chYpos;
 1738              		.loc 1 347 0
 1739 0026 0D23     		movs	r3, #13
 1740 0028 FB18     		adds	r3, r7, r3
 1741 002a 0022     		movs	r2, #0
 1742 002c 1A70     		strb	r2, [r3]
 1743 002e 0C23     		movs	r3, #12
 1744 0030 FB18     		adds	r3, r7, r3
 1745 0032 BA1D     		adds	r2, r7, #6
 1746 0034 1278     		ldrb	r2, [r2]
 1747 0036 1A70     		strb	r2, [r3]
 348:oled_ssd1331.c **** 
 349:oled_ssd1331.c **** 	for (i = 0; i < 64; i ++) {
 1748              		.loc 1 349 0
 1749 0038 0F23     		movs	r3, #15
 1750 003a FB18     		adds	r3, r7, r3
 1751 003c 0022     		movs	r2, #0
 1752 003e 1A70     		strb	r2, [r3]
 1753 0040 53E0     		b	.L102
 1754              	.L108:
 350:oled_ssd1331.c **** 		chTemp = c_chFont3216[chChar - 0x30][i];
 1755              		.loc 1 350 0
 1756 0042 7B1D     		adds	r3, r7, #5
 1757 0044 1B78     		ldrb	r3, [r3]
 1758 0046 303B     		subs	r3, r3, #48
 1759 0048 1900     		movs	r1, r3
 1760 004a 0F23     		movs	r3, #15
 1761 004c FB18     		adds	r3, r7, r3
 1762 004e 1A78     		ldrb	r2, [r3]
 1763 0050 0D23     		movs	r3, #13
 1764 0052 FB18     		adds	r3, r7, r3
 1765 0054 2948     		ldr	r0, .L109
 1766 0056 8901     		lsls	r1, r1, #6
 1767 0058 4118     		adds	r1, r0, r1
 1768 005a 8A5C     		ldrb	r2, [r1, r2]
 1769 005c 1A70     		strb	r2, [r3]
 351:oled_ssd1331.c **** 		for (j = 0; j < 8; j ++) {
 1770              		.loc 1 351 0
 1771 005e 0E23     		movs	r3, #14
 1772 0060 FB18     		adds	r3, r7, r3
 1773 0062 0022     		movs	r2, #0
 1774 0064 1A70     		strb	r2, [r3]
 1775 0066 34E0     		b	.L103
 1776              	.L107:
 352:oled_ssd1331.c **** 			if (chTemp & 0x80) {
 1777              		.loc 1 352 0
 1778 0068 0D23     		movs	r3, #13
 1779 006a FB18     		adds	r3, r7, r3
 1780 006c 1B78     		ldrb	r3, [r3]
 1781 006e 5BB2     		sxtb	r3, r3
 1782 0070 002B     		cmp	r3, #0
ARM GAS  C:\Users\ROUSSMA\AppData\Local\Temp\cckXhTKH.s 			page 39


 1783 0072 08DA     		bge	.L104
 353:oled_ssd1331.c **** 				ssd1331_draw_point(chXpos, chYpos, hwColor);
 1784              		.loc 1 353 0
 1785 0074 BB1C     		adds	r3, r7, #2
 1786 0076 1A88     		ldrh	r2, [r3]
 1787 0078 BB1D     		adds	r3, r7, #6
 1788 007a 1978     		ldrb	r1, [r3]
 1789 007c FB1D     		adds	r3, r7, #7
 1790 007e 1B78     		ldrb	r3, [r3]
 1791 0080 1800     		movs	r0, r3
 1792 0082 FFF7FEFF 		bl	ssd1331_draw_point
 1793              	.L104:
 354:oled_ssd1331.c ****     		}
 355:oled_ssd1331.c **** 			chTemp <<= 1;
 1794              		.loc 1 355 0
 1795 0086 0D23     		movs	r3, #13
 1796 0088 FA18     		adds	r2, r7, r3
 1797 008a 0D23     		movs	r3, #13
 1798 008c FB18     		adds	r3, r7, r3
 1799 008e 1B78     		ldrb	r3, [r3]
 1800 0090 DB18     		adds	r3, r3, r3
 1801 0092 1370     		strb	r3, [r2]
 356:oled_ssd1331.c **** 			chYpos ++;
 1802              		.loc 1 356 0
 1803 0094 BB1D     		adds	r3, r7, #6
 1804 0096 1A78     		ldrb	r2, [r3]
 1805 0098 BB1D     		adds	r3, r7, #6
 1806 009a 0132     		adds	r2, r2, #1
 1807 009c 1A70     		strb	r2, [r3]
 357:oled_ssd1331.c **** 			if ((chYpos - chYpos0) == 32) {
 1808              		.loc 1 357 0
 1809 009e BB1D     		adds	r3, r7, #6
 1810 00a0 1A78     		ldrb	r2, [r3]
 1811 00a2 0C23     		movs	r3, #12
 1812 00a4 FB18     		adds	r3, r7, r3
 1813 00a6 1B78     		ldrb	r3, [r3]
 1814 00a8 D31A     		subs	r3, r2, r3
 1815 00aa 202B     		cmp	r3, #32
 1816 00ac 0AD1     		bne	.L105
 358:oled_ssd1331.c **** 				chYpos = chYpos0;
 1817              		.loc 1 358 0
 1818 00ae BB1D     		adds	r3, r7, #6
 1819 00b0 0C22     		movs	r2, #12
 1820 00b2 BA18     		adds	r2, r7, r2
 1821 00b4 1278     		ldrb	r2, [r2]
 1822 00b6 1A70     		strb	r2, [r3]
 359:oled_ssd1331.c **** 				chXpos ++;
 1823              		.loc 1 359 0
 1824 00b8 FB1D     		adds	r3, r7, #7
 1825 00ba 1A78     		ldrb	r2, [r3]
 1826 00bc FB1D     		adds	r3, r7, #7
 1827 00be 0132     		adds	r2, r2, #1
 1828 00c0 1A70     		strb	r2, [r3]
 360:oled_ssd1331.c **** 				break;
 1829              		.loc 1 360 0
 1830 00c2 0BE0     		b	.L106
 1831              	.L105:
ARM GAS  C:\Users\ROUSSMA\AppData\Local\Temp\cckXhTKH.s 			page 40


 351:oled_ssd1331.c **** 			if (chTemp & 0x80) {
 1832              		.loc 1 351 0 discriminator 2
 1833 00c4 0E23     		movs	r3, #14
 1834 00c6 FB18     		adds	r3, r7, r3
 1835 00c8 1A78     		ldrb	r2, [r3]
 1836 00ca 0E23     		movs	r3, #14
 1837 00cc FB18     		adds	r3, r7, r3
 1838 00ce 0132     		adds	r2, r2, #1
 1839 00d0 1A70     		strb	r2, [r3]
 1840              	.L103:
 351:oled_ssd1331.c **** 			if (chTemp & 0x80) {
 1841              		.loc 1 351 0 is_stmt 0 discriminator 1
 1842 00d2 0E23     		movs	r3, #14
 1843 00d4 FB18     		adds	r3, r7, r3
 1844 00d6 1B78     		ldrb	r3, [r3]
 1845 00d8 072B     		cmp	r3, #7
 1846 00da C5D9     		bls	.L107
 1847              	.L106:
 349:oled_ssd1331.c **** 		chTemp = c_chFont3216[chChar - 0x30][i];
 1848              		.loc 1 349 0 is_stmt 1 discriminator 2
 1849 00dc 0F23     		movs	r3, #15
 1850 00de FB18     		adds	r3, r7, r3
 1851 00e0 1A78     		ldrb	r2, [r3]
 1852 00e2 0F23     		movs	r3, #15
 1853 00e4 FB18     		adds	r3, r7, r3
 1854 00e6 0132     		adds	r2, r2, #1
 1855 00e8 1A70     		strb	r2, [r3]
 1856              	.L102:
 349:oled_ssd1331.c **** 		chTemp = c_chFont3216[chChar - 0x30][i];
 1857              		.loc 1 349 0 is_stmt 0 discriminator 1
 1858 00ea 0F23     		movs	r3, #15
 1859 00ec FB18     		adds	r3, r7, r3
 1860 00ee 1B78     		ldrb	r3, [r3]
 1861 00f0 3F2B     		cmp	r3, #63
 1862 00f2 A6D9     		bls	.L108
 361:oled_ssd1331.c **** 			}
 362:oled_ssd1331.c **** 		}
 363:oled_ssd1331.c **** 	}
 364:oled_ssd1331.c **** }
 1863              		.loc 1 364 0 is_stmt 1
 1864 00f4 C046     		nop
 1865 00f6 BD46     		mov	sp, r7
 1866 00f8 04B0     		add	sp, sp, #16
 1867              		@ sp needed
 1868 00fa B0BD     		pop	{r4, r5, r7, pc}
 1869              	.L110:
 1870              		.align	2
 1871              	.L109:
 1872 00fc 00000000 		.word	c_chFont3216
 1873              		.cfi_endproc
 1874              	.LFE78:
 1875              		.size	ssd1331_draw_3216char, .-ssd1331_draw_3216char
 1876              		.section	.text._pow,"ax",%progbits
 1877              		.align	2
 1878              		.code	16
 1879              		.thumb_func
 1880              		.type	_pow, %function
ARM GAS  C:\Users\ROUSSMA\AppData\Local\Temp\cckXhTKH.s 			page 41


 1881              	_pow:
 1882              	.LFB79:
 365:oled_ssd1331.c **** 
 366:oled_ssd1331.c **** static uint32_t _pow(uint8_t m, uint8_t n)
 367:oled_ssd1331.c **** {
 1883              		.loc 1 367 0
 1884              		.cfi_startproc
 1885              		@ args = 0, pretend = 0, frame = 16
 1886              		@ frame_needed = 1, uses_anonymous_args = 0
 1887 0000 80B5     		push	{r7, lr}
 1888              		.cfi_def_cfa_offset 8
 1889              		.cfi_offset 7, -8
 1890              		.cfi_offset 14, -4
 1891 0002 84B0     		sub	sp, sp, #16
 1892              		.cfi_def_cfa_offset 24
 1893 0004 00AF     		add	r7, sp, #0
 1894              		.cfi_def_cfa_register 7
 1895 0006 0200     		movs	r2, r0
 1896 0008 FB1D     		adds	r3, r7, #7
 1897 000a 1A70     		strb	r2, [r3]
 1898 000c BB1D     		adds	r3, r7, #6
 1899 000e 0A1C     		adds	r2, r1, #0
 1900 0010 1A70     		strb	r2, [r3]
 368:oled_ssd1331.c **** 	uint32_t result = 1;
 1901              		.loc 1 368 0
 1902 0012 0123     		movs	r3, #1
 1903 0014 FB60     		str	r3, [r7, #12]
 369:oled_ssd1331.c **** 	
 370:oled_ssd1331.c **** 	while(n --) result *= m;    
 1904              		.loc 1 370 0
 1905 0016 04E0     		b	.L112
 1906              	.L113:
 1907              		.loc 1 370 0 is_stmt 0 discriminator 2
 1908 0018 FB1D     		adds	r3, r7, #7
 1909 001a 1A78     		ldrb	r2, [r3]
 1910 001c FB68     		ldr	r3, [r7, #12]
 1911 001e 5343     		muls	r3, r2
 1912 0020 FB60     		str	r3, [r7, #12]
 1913              	.L112:
 1914              		.loc 1 370 0 discriminator 1
 1915 0022 BB1D     		adds	r3, r7, #6
 1916 0024 1B78     		ldrb	r3, [r3]
 1917 0026 BA1D     		adds	r2, r7, #6
 1918 0028 591E     		subs	r1, r3, #1
 1919 002a 1170     		strb	r1, [r2]
 1920 002c 002B     		cmp	r3, #0
 1921 002e F3D1     		bne	.L113
 371:oled_ssd1331.c **** 	return result;
 1922              		.loc 1 371 0 is_stmt 1
 1923 0030 FB68     		ldr	r3, [r7, #12]
 372:oled_ssd1331.c **** }
 1924              		.loc 1 372 0
 1925 0032 1800     		movs	r0, r3
 1926 0034 BD46     		mov	sp, r7
 1927 0036 04B0     		add	sp, sp, #16
 1928              		@ sp needed
 1929 0038 80BD     		pop	{r7, pc}
ARM GAS  C:\Users\ROUSSMA\AppData\Local\Temp\cckXhTKH.s 			page 42


 1930              		.cfi_endproc
 1931              	.LFE79:
 1932              		.size	_pow, .-_pow
 1933              		.global	__aeabi_uidiv
 1934              		.global	__aeabi_uidivmod
 1935 003a C046     		.section	.text.ssd1331_display_num,"ax",%progbits
 1936              		.align	2
 1937              		.global	ssd1331_display_num
 1938              		.code	16
 1939              		.thumb_func
 1940              		.type	ssd1331_display_num, %function
 1941              	ssd1331_display_num:
 1942              	.LFB80:
 373:oled_ssd1331.c **** 
 374:oled_ssd1331.c **** 
 375:oled_ssd1331.c **** void ssd1331_display_num(uint8_t chXpos, uint8_t chYpos, uint32_t chNum, uint8_t chLen, uint8_t chS
 376:oled_ssd1331.c **** {         	
 1943              		.loc 1 376 0
 1944              		.cfi_startproc
 1945              		@ args = 8, pretend = 0, frame = 16
 1946              		@ frame_needed = 1, uses_anonymous_args = 0
 1947 0000 90B5     		push	{r4, r7, lr}
 1948              		.cfi_def_cfa_offset 12
 1949              		.cfi_offset 4, -12
 1950              		.cfi_offset 7, -8
 1951              		.cfi_offset 14, -4
 1952 0002 87B0     		sub	sp, sp, #28
 1953              		.cfi_def_cfa_offset 40
 1954 0004 02AF     		add	r7, sp, #8
 1955              		.cfi_def_cfa 7, 32
 1956 0006 0400     		movs	r4, r0
 1957 0008 0800     		movs	r0, r1
 1958 000a 3A60     		str	r2, [r7]
 1959 000c 1900     		movs	r1, r3
 1960 000e FB1D     		adds	r3, r7, #7
 1961 0010 221C     		adds	r2, r4, #0
 1962 0012 1A70     		strb	r2, [r3]
 1963 0014 BB1D     		adds	r3, r7, #6
 1964 0016 021C     		adds	r2, r0, #0
 1965 0018 1A70     		strb	r2, [r3]
 1966 001a 7B1D     		adds	r3, r7, #5
 1967 001c 0A1C     		adds	r2, r1, #0
 1968 001e 1A70     		strb	r2, [r3]
 377:oled_ssd1331.c **** 	uint8_t i;
 378:oled_ssd1331.c **** 	uint8_t chTemp, chShow = 0;
 1969              		.loc 1 378 0
 1970 0020 0E23     		movs	r3, #14
 1971 0022 FB18     		adds	r3, r7, r3
 1972 0024 0022     		movs	r2, #0
 1973 0026 1A70     		strb	r2, [r3]
 379:oled_ssd1331.c **** 
 380:oled_ssd1331.c **** 	if (chXpos >= OLED_WIDTH || chYpos >= OLED_HEIGHT) {
 1974              		.loc 1 380 0
 1975 0028 FB1D     		adds	r3, r7, #7
 1976 002a 1B78     		ldrb	r3, [r3]
 1977 002c 5F2B     		cmp	r3, #95
 1978 002e 00D9     		bls	.LCB1797
ARM GAS  C:\Users\ROUSSMA\AppData\Local\Temp\cckXhTKH.s 			page 43


 1979 0030 85E0     		b	.L124	@long jump
 1980              	.LCB1797:
 1981              		.loc 1 380 0 is_stmt 0 discriminator 1
 1982 0032 BB1D     		adds	r3, r7, #6
 1983 0034 1B78     		ldrb	r3, [r3]
 1984 0036 3F2B     		cmp	r3, #63
 1985 0038 00D9     		bls	.LCB1801
 1986 003a 80E0     		b	.L124	@long jump
 1987              	.LCB1801:
 381:oled_ssd1331.c **** 		return;
 382:oled_ssd1331.c **** 	}
 383:oled_ssd1331.c **** 	
 384:oled_ssd1331.c **** 	for(i = 0; i < chLen; i ++) {
 1988              		.loc 1 384 0 is_stmt 1
 1989 003c 0F23     		movs	r3, #15
 1990 003e FB18     		adds	r3, r7, r3
 1991 0040 0022     		movs	r2, #0
 1992 0042 1A70     		strb	r2, [r3]
 1993 0044 73E0     		b	.L119
 1994              	.L123:
 385:oled_ssd1331.c **** 		chTemp = (chNum / _pow(10, chLen - i - 1)) % 10;
 1995              		.loc 1 385 0
 1996 0046 7A1D     		adds	r2, r7, #5
 1997 0048 0F23     		movs	r3, #15
 1998 004a FB18     		adds	r3, r7, r3
 1999 004c 1278     		ldrb	r2, [r2]
 2000 004e 1B78     		ldrb	r3, [r3]
 2001 0050 D31A     		subs	r3, r2, r3
 2002 0052 DBB2     		uxtb	r3, r3
 2003 0054 013B     		subs	r3, r3, #1
 2004 0056 DBB2     		uxtb	r3, r3
 2005 0058 1900     		movs	r1, r3
 2006 005a 0A20     		movs	r0, #10
 2007 005c FFF7FEFF 		bl	_pow
 2008 0060 0300     		movs	r3, r0
 2009 0062 1900     		movs	r1, r3
 2010 0064 3868     		ldr	r0, [r7]
 2011 0066 FFF7FEFF 		bl	__aeabi_uidiv
 2012 006a 0300     		movs	r3, r0
 2013 006c 0A21     		movs	r1, #10
 2014 006e 1800     		movs	r0, r3
 2015 0070 FFF7FEFF 		bl	__aeabi_uidivmod
 2016 0074 0B00     		movs	r3, r1
 2017 0076 1A00     		movs	r2, r3
 2018 0078 0D23     		movs	r3, #13
 2019 007a FB18     		adds	r3, r7, r3
 2020 007c 1A70     		strb	r2, [r3]
 386:oled_ssd1331.c **** 		if(chShow == 0 && i < (chLen - 1)) {
 2021              		.loc 1 386 0
 2022 007e 0E23     		movs	r3, #14
 2023 0080 FB18     		adds	r3, r7, r3
 2024 0082 1B78     		ldrb	r3, [r3]
 2025 0084 002B     		cmp	r3, #0
 2026 0086 2CD1     		bne	.L120
 2027              		.loc 1 386 0 is_stmt 0 discriminator 1
 2028 0088 0F23     		movs	r3, #15
 2029 008a FB18     		adds	r3, r7, r3
ARM GAS  C:\Users\ROUSSMA\AppData\Local\Temp\cckXhTKH.s 			page 44


 2030 008c 1A78     		ldrb	r2, [r3]
 2031 008e 7B1D     		adds	r3, r7, #5
 2032 0090 1B78     		ldrb	r3, [r3]
 2033 0092 013B     		subs	r3, r3, #1
 2034 0094 9A42     		cmp	r2, r3
 2035 0096 24DA     		bge	.L120
 387:oled_ssd1331.c **** 			if(chTemp == 0) {
 2036              		.loc 1 387 0 is_stmt 1
 2037 0098 0D23     		movs	r3, #13
 2038 009a FB18     		adds	r3, r7, r3
 2039 009c 1B78     		ldrb	r3, [r3]
 2040 009e 002B     		cmp	r3, #0
 2041 00a0 1BD1     		bne	.L121
 388:oled_ssd1331.c **** 				ssd1331_display_char(chXpos + (chSize / 2) * i, chYpos, ' ', chSize, hwColor);
 2042              		.loc 1 388 0
 2043 00a2 2023     		movs	r3, #32
 2044 00a4 FB18     		adds	r3, r7, r3
 2045 00a6 1B78     		ldrb	r3, [r3]
 2046 00a8 5B08     		lsrs	r3, r3, #1
 2047 00aa DBB2     		uxtb	r3, r3
 2048 00ac 0F22     		movs	r2, #15
 2049 00ae BA18     		adds	r2, r7, r2
 2050 00b0 1278     		ldrb	r2, [r2]
 2051 00b2 5343     		muls	r3, r2
 2052 00b4 DAB2     		uxtb	r2, r3
 2053 00b6 FB1D     		adds	r3, r7, #7
 2054 00b8 1B78     		ldrb	r3, [r3]
 2055 00ba D318     		adds	r3, r2, r3
 2056 00bc D8B2     		uxtb	r0, r3
 2057 00be 2023     		movs	r3, #32
 2058 00c0 FB18     		adds	r3, r7, r3
 2059 00c2 1A78     		ldrb	r2, [r3]
 2060 00c4 BB1D     		adds	r3, r7, #6
 2061 00c6 1978     		ldrb	r1, [r3]
 2062 00c8 2423     		movs	r3, #36
 2063 00ca FB18     		adds	r3, r7, r3
 2064 00cc 1B88     		ldrh	r3, [r3]
 2065 00ce 0093     		str	r3, [sp]
 2066 00d0 1300     		movs	r3, r2
 2067 00d2 2022     		movs	r2, #32
 2068 00d4 FFF7FEFF 		bl	ssd1331_display_char
 389:oled_ssd1331.c **** 				continue;
 2069              		.loc 1 389 0
 2070 00d8 22E0     		b	.L122
 2071              	.L121:
 390:oled_ssd1331.c **** 			} else {
 391:oled_ssd1331.c **** 				chShow = 1;
 2072              		.loc 1 391 0
 2073 00da 0E23     		movs	r3, #14
 2074 00dc FB18     		adds	r3, r7, r3
 2075 00de 0122     		movs	r2, #1
 2076 00e0 1A70     		strb	r2, [r3]
 2077              	.L120:
 392:oled_ssd1331.c **** 			}	 
 393:oled_ssd1331.c **** 		}
 394:oled_ssd1331.c **** 	 	ssd1331_display_char(chXpos + (chSize / 2) * i, chYpos, chTemp + '0', chSize, hwColor); 
 2078              		.loc 1 394 0
ARM GAS  C:\Users\ROUSSMA\AppData\Local\Temp\cckXhTKH.s 			page 45


 2079 00e2 2023     		movs	r3, #32
 2080 00e4 FB18     		adds	r3, r7, r3
 2081 00e6 1B78     		ldrb	r3, [r3]
 2082 00e8 5B08     		lsrs	r3, r3, #1
 2083 00ea DBB2     		uxtb	r3, r3
 2084 00ec 0F22     		movs	r2, #15
 2085 00ee BA18     		adds	r2, r7, r2
 2086 00f0 1278     		ldrb	r2, [r2]
 2087 00f2 5343     		muls	r3, r2
 2088 00f4 DAB2     		uxtb	r2, r3
 2089 00f6 FB1D     		adds	r3, r7, #7
 2090 00f8 1B78     		ldrb	r3, [r3]
 2091 00fa D318     		adds	r3, r2, r3
 2092 00fc D8B2     		uxtb	r0, r3
 2093 00fe 0D23     		movs	r3, #13
 2094 0100 FB18     		adds	r3, r7, r3
 2095 0102 1B78     		ldrb	r3, [r3]
 2096 0104 3033     		adds	r3, r3, #48
 2097 0106 DAB2     		uxtb	r2, r3
 2098 0108 2023     		movs	r3, #32
 2099 010a FB18     		adds	r3, r7, r3
 2100 010c 1C78     		ldrb	r4, [r3]
 2101 010e BB1D     		adds	r3, r7, #6
 2102 0110 1978     		ldrb	r1, [r3]
 2103 0112 2423     		movs	r3, #36
 2104 0114 FB18     		adds	r3, r7, r3
 2105 0116 1B88     		ldrh	r3, [r3]
 2106 0118 0093     		str	r3, [sp]
 2107 011a 2300     		movs	r3, r4
 2108 011c FFF7FEFF 		bl	ssd1331_display_char
 2109              	.L122:
 384:oled_ssd1331.c **** 		chTemp = (chNum / _pow(10, chLen - i - 1)) % 10;
 2110              		.loc 1 384 0 discriminator 2
 2111 0120 0F23     		movs	r3, #15
 2112 0122 FB18     		adds	r3, r7, r3
 2113 0124 1A78     		ldrb	r2, [r3]
 2114 0126 0F23     		movs	r3, #15
 2115 0128 FB18     		adds	r3, r7, r3
 2116 012a 0132     		adds	r2, r2, #1
 2117 012c 1A70     		strb	r2, [r3]
 2118              	.L119:
 384:oled_ssd1331.c **** 		chTemp = (chNum / _pow(10, chLen - i - 1)) % 10;
 2119              		.loc 1 384 0 is_stmt 0 discriminator 1
 2120 012e 0F23     		movs	r3, #15
 2121 0130 FA18     		adds	r2, r7, r3
 2122 0132 7B1D     		adds	r3, r7, #5
 2123 0134 1278     		ldrb	r2, [r2]
 2124 0136 1B78     		ldrb	r3, [r3]
 2125 0138 9A42     		cmp	r2, r3
 2126 013a 84D3     		bcc	.L123
 2127 013c 00E0     		b	.L115
 2128              	.L124:
 381:oled_ssd1331.c **** 	}
 2129              		.loc 1 381 0 is_stmt 1
 2130 013e C046     		nop
 2131              	.L115:
 395:oled_ssd1331.c **** 	}
ARM GAS  C:\Users\ROUSSMA\AppData\Local\Temp\cckXhTKH.s 			page 46


 396:oled_ssd1331.c **** } 
 2132              		.loc 1 396 0
 2133 0140 BD46     		mov	sp, r7
 2134 0142 05B0     		add	sp, sp, #20
 2135              		@ sp needed
 2136 0144 90BD     		pop	{r4, r7, pc}
 2137              		.cfi_endproc
 2138              	.LFE80:
 2139              		.size	ssd1331_display_num, .-ssd1331_display_num
 2140 0146 C046     		.section	.text.ssd1331_draw_bitmap,"ax",%progbits
 2141              		.align	2
 2142              		.global	ssd1331_draw_bitmap
 2143              		.code	16
 2144              		.thumb_func
 2145              		.type	ssd1331_draw_bitmap, %function
 2146              	ssd1331_draw_bitmap:
 2147              	.LFB81:
 397:oled_ssd1331.c **** 
 398:oled_ssd1331.c **** /**
 399:oled_ssd1331.c ****   * @brief  Displays a string on the screen
 400:oled_ssd1331.c ****   *         
 401:oled_ssd1331.c ****   * @param  chXpos: Specifies the X position
 402:oled_ssd1331.c ****   * @param  chYpos: Specifies the Y position
 403:oled_ssd1331.c ****   * @param  pchBmp: Pointer to a image to display on the screen 
 404:oled_ssd1331.c ****   * @param  chWidth: Specifies the width of the image
 405:oled_ssd1331.c ****   * @param  chHeight: Specifies the height of the image
 406:oled_ssd1331.c ****   * @param  hwColor: Specifies the color of the image
 407:oled_ssd1331.c ****   *         
 408:oled_ssd1331.c ****   * @retval  None
 409:oled_ssd1331.c **** **/
 410:oled_ssd1331.c **** void ssd1331_draw_bitmap(uint8_t chXpos, uint8_t chYpos, const uint8_t *pchBmp, uint8_t chWidth, ui
 411:oled_ssd1331.c **** {
 2148              		.loc 1 411 0
 2149              		.cfi_startproc
 2150              		@ args = 8, pretend = 0, frame = 16
 2151              		@ frame_needed = 1, uses_anonymous_args = 0
 2152 0000 90B5     		push	{r4, r7, lr}
 2153              		.cfi_def_cfa_offset 12
 2154              		.cfi_offset 4, -12
 2155              		.cfi_offset 7, -8
 2156              		.cfi_offset 14, -4
 2157 0002 85B0     		sub	sp, sp, #20
 2158              		.cfi_def_cfa_offset 32
 2159 0004 00AF     		add	r7, sp, #0
 2160              		.cfi_def_cfa_register 7
 2161 0006 0400     		movs	r4, r0
 2162 0008 0800     		movs	r0, r1
 2163 000a 3A60     		str	r2, [r7]
 2164 000c 1900     		movs	r1, r3
 2165 000e FB1D     		adds	r3, r7, #7
 2166 0010 221C     		adds	r2, r4, #0
 2167 0012 1A70     		strb	r2, [r3]
 2168 0014 BB1D     		adds	r3, r7, #6
 2169 0016 021C     		adds	r2, r0, #0
 2170 0018 1A70     		strb	r2, [r3]
 2171 001a 7B1D     		adds	r3, r7, #5
 2172 001c 0A1C     		adds	r2, r1, #0
ARM GAS  C:\Users\ROUSSMA\AppData\Local\Temp\cckXhTKH.s 			page 47


 2173 001e 1A70     		strb	r2, [r3]
 412:oled_ssd1331.c **** 	uint16_t i, j, byteWidth = (chWidth + 7) / 8;
 2174              		.loc 1 412 0
 2175 0020 7B1D     		adds	r3, r7, #5
 2176 0022 1B78     		ldrb	r3, [r3]
 2177 0024 0733     		adds	r3, r3, #7
 2178 0026 002B     		cmp	r3, #0
 2179 0028 00DA     		bge	.L126
 2180 002a 0733     		adds	r3, r3, #7
 2181              	.L126:
 2182 002c DB10     		asrs	r3, r3, #3
 2183 002e 1A00     		movs	r2, r3
 2184 0030 0A23     		movs	r3, #10
 2185 0032 FB18     		adds	r3, r7, r3
 2186 0034 1A80     		strh	r2, [r3]
 413:oled_ssd1331.c **** 	
 414:oled_ssd1331.c ****     for(j = 0; j < chHeight; j ++){
 2187              		.loc 1 414 0
 2188 0036 0C23     		movs	r3, #12
 2189 0038 FB18     		adds	r3, r7, r3
 2190 003a 0022     		movs	r2, #0
 2191 003c 1A80     		strh	r2, [r3]
 2192 003e 4CE0     		b	.L127
 2193              	.L131:
 415:oled_ssd1331.c ****         for(i = 0; i < chWidth; i ++ ) {
 2194              		.loc 1 415 0
 2195 0040 0E23     		movs	r3, #14
 2196 0042 FB18     		adds	r3, r7, r3
 2197 0044 0022     		movs	r2, #0
 2198 0046 1A80     		strh	r2, [r3]
 2199 0048 38E0     		b	.L128
 2200              	.L130:
 416:oled_ssd1331.c ****             if(*(pchBmp + j * byteWidth + i / 8) & (128 >> (i & 7))) {
 2201              		.loc 1 416 0
 2202 004a 0C23     		movs	r3, #12
 2203 004c FB18     		adds	r3, r7, r3
 2204 004e 1B88     		ldrh	r3, [r3]
 2205 0050 0A22     		movs	r2, #10
 2206 0052 BA18     		adds	r2, r7, r2
 2207 0054 1288     		ldrh	r2, [r2]
 2208 0056 5343     		muls	r3, r2
 2209 0058 1A00     		movs	r2, r3
 2210 005a 0E23     		movs	r3, #14
 2211 005c FB18     		adds	r3, r7, r3
 2212 005e 1B88     		ldrh	r3, [r3]
 2213 0060 DB08     		lsrs	r3, r3, #3
 2214 0062 9BB2     		uxth	r3, r3
 2215 0064 D318     		adds	r3, r2, r3
 2216 0066 3A68     		ldr	r2, [r7]
 2217 0068 D318     		adds	r3, r2, r3
 2218 006a 1B78     		ldrb	r3, [r3]
 2219 006c 1900     		movs	r1, r3
 2220 006e 0E23     		movs	r3, #14
 2221 0070 FB18     		adds	r3, r7, r3
 2222 0072 1B88     		ldrh	r3, [r3]
 2223 0074 0722     		movs	r2, #7
 2224 0076 1340     		ands	r3, r2
ARM GAS  C:\Users\ROUSSMA\AppData\Local\Temp\cckXhTKH.s 			page 48


 2225 0078 8022     		movs	r2, #128
 2226 007a 1A41     		asrs	r2, r2, r3
 2227 007c 1300     		movs	r3, r2
 2228 007e 0B40     		ands	r3, r1
 2229 0080 15D0     		beq	.L129
 417:oled_ssd1331.c ****                 ssd1331_draw_point(chXpos + i, chYpos + j, hwColor);
 2230              		.loc 1 417 0
 2231 0082 0E23     		movs	r3, #14
 2232 0084 FB18     		adds	r3, r7, r3
 2233 0086 1B88     		ldrh	r3, [r3]
 2234 0088 DAB2     		uxtb	r2, r3
 2235 008a FB1D     		adds	r3, r7, #7
 2236 008c 1B78     		ldrb	r3, [r3]
 2237 008e D318     		adds	r3, r2, r3
 2238 0090 D8B2     		uxtb	r0, r3
 2239 0092 0C23     		movs	r3, #12
 2240 0094 FB18     		adds	r3, r7, r3
 2241 0096 1B88     		ldrh	r3, [r3]
 2242 0098 DAB2     		uxtb	r2, r3
 2243 009a BB1D     		adds	r3, r7, #6
 2244 009c 1B78     		ldrb	r3, [r3]
 2245 009e D318     		adds	r3, r2, r3
 2246 00a0 D9B2     		uxtb	r1, r3
 2247 00a2 2423     		movs	r3, #36
 2248 00a4 FB18     		adds	r3, r7, r3
 2249 00a6 1B88     		ldrh	r3, [r3]
 2250 00a8 1A00     		movs	r2, r3
 2251 00aa FFF7FEFF 		bl	ssd1331_draw_point
 2252              	.L129:
 415:oled_ssd1331.c ****         for(i = 0; i < chWidth; i ++ ) {
 2253              		.loc 1 415 0 discriminator 2
 2254 00ae 0E23     		movs	r3, #14
 2255 00b0 FB18     		adds	r3, r7, r3
 2256 00b2 1A88     		ldrh	r2, [r3]
 2257 00b4 0E23     		movs	r3, #14
 2258 00b6 FB18     		adds	r3, r7, r3
 2259 00b8 0132     		adds	r2, r2, #1
 2260 00ba 1A80     		strh	r2, [r3]
 2261              	.L128:
 415:oled_ssd1331.c ****         for(i = 0; i < chWidth; i ++ ) {
 2262              		.loc 1 415 0 is_stmt 0 discriminator 1
 2263 00bc 7B1D     		adds	r3, r7, #5
 2264 00be 1B78     		ldrb	r3, [r3]
 2265 00c0 9BB2     		uxth	r3, r3
 2266 00c2 0E22     		movs	r2, #14
 2267 00c4 BA18     		adds	r2, r7, r2
 2268 00c6 1288     		ldrh	r2, [r2]
 2269 00c8 9A42     		cmp	r2, r3
 2270 00ca BED3     		bcc	.L130
 414:oled_ssd1331.c ****         for(i = 0; i < chWidth; i ++ ) {
 2271              		.loc 1 414 0 is_stmt 1 discriminator 2
 2272 00cc 0C23     		movs	r3, #12
 2273 00ce FB18     		adds	r3, r7, r3
 2274 00d0 1A88     		ldrh	r2, [r3]
 2275 00d2 0C23     		movs	r3, #12
 2276 00d4 FB18     		adds	r3, r7, r3
 2277 00d6 0132     		adds	r2, r2, #1
ARM GAS  C:\Users\ROUSSMA\AppData\Local\Temp\cckXhTKH.s 			page 49


 2278 00d8 1A80     		strh	r2, [r3]
 2279              	.L127:
 414:oled_ssd1331.c ****         for(i = 0; i < chWidth; i ++ ) {
 2280              		.loc 1 414 0 is_stmt 0 discriminator 1
 2281 00da 2023     		movs	r3, #32
 2282 00dc FB18     		adds	r3, r7, r3
 2283 00de 1B78     		ldrb	r3, [r3]
 2284 00e0 9BB2     		uxth	r3, r3
 2285 00e2 0C22     		movs	r2, #12
 2286 00e4 BA18     		adds	r2, r7, r2
 2287 00e6 1288     		ldrh	r2, [r2]
 2288 00e8 9A42     		cmp	r2, r3
 2289 00ea A9D3     		bcc	.L131
 418:oled_ssd1331.c ****             }
 419:oled_ssd1331.c ****         }
 420:oled_ssd1331.c ****     }
 421:oled_ssd1331.c **** }
 2290              		.loc 1 421 0 is_stmt 1
 2291 00ec C046     		nop
 2292 00ee BD46     		mov	sp, r7
 2293 00f0 05B0     		add	sp, sp, #20
 2294              		@ sp needed
 2295 00f2 90BD     		pop	{r4, r7, pc}
 2296              		.cfi_endproc
 2297              	.LFE81:
 2298              		.size	ssd1331_draw_bitmap, .-ssd1331_draw_bitmap
 2299              		.section	.text.ssd1331_init,"ax",%progbits
 2300              		.align	2
 2301              		.global	ssd1331_init
 2302              		.code	16
 2303              		.thumb_func
 2304              		.type	ssd1331_init, %function
 2305              	ssd1331_init:
 2306              	.LFB82:
 422:oled_ssd1331.c **** 
 423:oled_ssd1331.c **** void ssd1331_init(void)
 424:oled_ssd1331.c **** {
 2307              		.loc 1 424 0
 2308              		.cfi_startproc
 2309              		@ args = 0, pretend = 0, frame = 0
 2310              		@ frame_needed = 1, uses_anonymous_args = 0
 2311 0000 80B5     		push	{r7, lr}
 2312              		.cfi_def_cfa_offset 8
 2313              		.cfi_offset 7, -8
 2314              		.cfi_offset 14, -4
 2315 0002 00AF     		add	r7, sp, #0
 2316              		.cfi_def_cfa_register 7
 425:oled_ssd1331.c **** 
 426:oled_ssd1331.c ****     OLED_Reset_Write(1);
 2317              		.loc 1 426 0
 2318 0004 0120     		movs	r0, #1
 2319 0006 FFF7FEFF 		bl	OLED_Reset_Write
 427:oled_ssd1331.c ****     CyDelay(10);
 2320              		.loc 1 427 0
 2321 000a 0A20     		movs	r0, #10
 2322 000c FFF7FEFF 		bl	CyDelay
 428:oled_ssd1331.c ****     OLED_Reset_Write(0);
ARM GAS  C:\Users\ROUSSMA\AppData\Local\Temp\cckXhTKH.s 			page 50


 2323              		.loc 1 428 0
 2324 0010 0020     		movs	r0, #0
 2325 0012 FFF7FEFF 		bl	OLED_Reset_Write
 429:oled_ssd1331.c ****     CyDelay(10);
 2326              		.loc 1 429 0
 2327 0016 0A20     		movs	r0, #10
 2328 0018 FFF7FEFF 		bl	CyDelay
 430:oled_ssd1331.c ****     OLED_Reset_Write(1);
 2329              		.loc 1 430 0
 2330 001c 0120     		movs	r0, #1
 2331 001e FFF7FEFF 		bl	OLED_Reset_Write
 431:oled_ssd1331.c **** 
 432:oled_ssd1331.c ****     
 433:oled_ssd1331.c **** 	
 434:oled_ssd1331.c **** 	ssd1331_write_byte(DISPLAY_OFF, SSD1331_CMD);          //Display Off
 2332              		.loc 1 434 0
 2333 0022 0021     		movs	r1, #0
 2334 0024 AE20     		movs	r0, #174
 2335 0026 FFF7FEFF 		bl	ssd1331_write_byte
 435:oled_ssd1331.c ****     ssd1331_write_byte(SET_REMAP, SSD1331_CMD);          
 2336              		.loc 1 435 0
 2337 002a 0021     		movs	r1, #0
 2338 002c A020     		movs	r0, #160
 2339 002e FFF7FEFF 		bl	ssd1331_write_byte
 436:oled_ssd1331.c ****     ssd1331_write_byte(0x72, SSD1331_CMD);             
 2340              		.loc 1 436 0
 2341 0032 0021     		movs	r1, #0
 2342 0034 7220     		movs	r0, #114
 2343 0036 FFF7FEFF 		bl	ssd1331_write_byte
 437:oled_ssd1331.c ****     ssd1331_write_byte(SET_DISPLAY_START_LINE, SSD1331_CMD);//Set display Start Line
 2344              		.loc 1 437 0
 2345 003a 0021     		movs	r1, #0
 2346 003c A120     		movs	r0, #161
 2347 003e FFF7FEFF 		bl	ssd1331_write_byte
 438:oled_ssd1331.c ****     ssd1331_write_byte(0x0, SSD1331_CMD);
 2348              		.loc 1 438 0
 2349 0042 0021     		movs	r1, #0
 2350 0044 0020     		movs	r0, #0
 2351 0046 FFF7FEFF 		bl	ssd1331_write_byte
 439:oled_ssd1331.c ****     ssd1331_write_byte(SET_DISPLAY_OFFSET, SSD1331_CMD);   //Set display offset
 2352              		.loc 1 439 0
 2353 004a 0021     		movs	r1, #0
 2354 004c A220     		movs	r0, #162
 2355 004e FFF7FEFF 		bl	ssd1331_write_byte
 440:oled_ssd1331.c ****     ssd1331_write_byte(0x0, SSD1331_CMD);
 2356              		.loc 1 440 0
 2357 0052 0021     		movs	r1, #0
 2358 0054 0020     		movs	r0, #0
 2359 0056 FFF7FEFF 		bl	ssd1331_write_byte
 441:oled_ssd1331.c ****     ssd1331_write_byte(NORMAL_DISPLAY, SSD1331_CMD);       //Set display mode
 2360              		.loc 1 441 0
 2361 005a 0021     		movs	r1, #0
 2362 005c A420     		movs	r0, #164
 2363 005e FFF7FEFF 		bl	ssd1331_write_byte
 442:oled_ssd1331.c ****     //ssd1331_write_byte(ENTIRE_DISPLAY_ON, SSD1331_CMD);
 443:oled_ssd1331.c ****     ssd1331_write_byte(SET_MULTIPLEX_RATIO, SSD1331_CMD);  //Set multiplex ratio
 2364              		.loc 1 443 0
ARM GAS  C:\Users\ROUSSMA\AppData\Local\Temp\cckXhTKH.s 			page 51


 2365 0062 0021     		movs	r1, #0
 2366 0064 A820     		movs	r0, #168
 2367 0066 FFF7FEFF 		bl	ssd1331_write_byte
 444:oled_ssd1331.c ****     ssd1331_write_byte(0x3F, SSD1331_CMD);     
 2368              		.loc 1 444 0
 2369 006a 0021     		movs	r1, #0
 2370 006c 3F20     		movs	r0, #63
 2371 006e FFF7FEFF 		bl	ssd1331_write_byte
 445:oled_ssd1331.c ****     ssd1331_write_byte(SET_MASTER_CONFIGURE, SSD1331_CMD); //Set master configuration
 2372              		.loc 1 445 0
 2373 0072 0021     		movs	r1, #0
 2374 0074 AD20     		movs	r0, #173
 2375 0076 FFF7FEFF 		bl	ssd1331_write_byte
 446:oled_ssd1331.c ****     ssd1331_write_byte(0x8E, SSD1331_CMD);
 2376              		.loc 1 446 0
 2377 007a 0021     		movs	r1, #0
 2378 007c 8E20     		movs	r0, #142
 2379 007e FFF7FEFF 		bl	ssd1331_write_byte
 447:oled_ssd1331.c ****     ssd1331_write_byte(POWER_SAVE_MODE, SSD1331_CMD);      //Set Power Save Mode
 2380              		.loc 1 447 0
 2381 0082 0021     		movs	r1, #0
 2382 0084 B020     		movs	r0, #176
 2383 0086 FFF7FEFF 		bl	ssd1331_write_byte
 448:oled_ssd1331.c ****     ssd1331_write_byte(0x00, SSD1331_CMD);                     //0x00
 2384              		.loc 1 448 0
 2385 008a 0021     		movs	r1, #0
 2386 008c 0020     		movs	r0, #0
 2387 008e FFF7FEFF 		bl	ssd1331_write_byte
 449:oled_ssd1331.c ****     ssd1331_write_byte(PHASE_PERIOD_ADJUSTMENT, SSD1331_CMD);//phase 1 and 2 period adjustment
 2388              		.loc 1 449 0
 2389 0092 0021     		movs	r1, #0
 2390 0094 B120     		movs	r0, #177
 2391 0096 FFF7FEFF 		bl	ssd1331_write_byte
 450:oled_ssd1331.c ****     ssd1331_write_byte(0x31, SSD1331_CMD);                     //0x31
 2392              		.loc 1 450 0
 2393 009a 0021     		movs	r1, #0
 2394 009c 3120     		movs	r0, #49
 2395 009e FFF7FEFF 		bl	ssd1331_write_byte
 451:oled_ssd1331.c ****     ssd1331_write_byte(DISPLAY_CLOCK_DIV, SSD1331_CMD);    //display clock divider/oscillator frequ
 2396              		.loc 1 451 0
 2397 00a2 0021     		movs	r1, #0
 2398 00a4 B320     		movs	r0, #179
 2399 00a6 FFF7FEFF 		bl	ssd1331_write_byte
 452:oled_ssd1331.c ****     ssd1331_write_byte(0xF0, SSD1331_CMD);
 2400              		.loc 1 452 0
 2401 00aa 0021     		movs	r1, #0
 2402 00ac F020     		movs	r0, #240
 2403 00ae FFF7FEFF 		bl	ssd1331_write_byte
 453:oled_ssd1331.c ****     ssd1331_write_byte(SET_PRECHARGE_SPEED_B, SSD1331_CMD);//Set Second Pre-change Speed For ColorB
 2404              		.loc 1 453 0
 2405 00b2 0021     		movs	r1, #0
 2406 00b4 8B20     		movs	r0, #139
 2407 00b6 FFF7FEFF 		bl	ssd1331_write_byte
 454:oled_ssd1331.c ****     ssd1331_write_byte(0x78, SSD1331_CMD);                     //120
 2408              		.loc 1 454 0
 2409 00ba 0021     		movs	r1, #0
 2410 00bc 7820     		movs	r0, #120
ARM GAS  C:\Users\ROUSSMA\AppData\Local\Temp\cckXhTKH.s 			page 52


 2411 00be FFF7FEFF 		bl	ssd1331_write_byte
 455:oled_ssd1331.c ****     ssd1331_write_byte(SET_PRECHARGE_SPEED_C, SSD1331_CMD);//Set Second Pre-change Speed For ColorC
 2412              		.loc 1 455 0
 2413 00c2 0021     		movs	r1, #0
 2414 00c4 8C20     		movs	r0, #140
 2415 00c6 FFF7FEFF 		bl	ssd1331_write_byte
 456:oled_ssd1331.c ****     ssd1331_write_byte(0x64, SSD1331_CMD);                     //100
 2416              		.loc 1 456 0
 2417 00ca 0021     		movs	r1, #0
 2418 00cc 6420     		movs	r0, #100
 2419 00ce FFF7FEFF 		bl	ssd1331_write_byte
 457:oled_ssd1331.c ****     ssd1331_write_byte(SET_PRECHARGE_VOLTAGE, SSD1331_CMD);//Set Pre-Change Level
 2420              		.loc 1 457 0
 2421 00d2 0021     		movs	r1, #0
 2422 00d4 BB20     		movs	r0, #187
 2423 00d6 FFF7FEFF 		bl	ssd1331_write_byte
 458:oled_ssd1331.c ****     ssd1331_write_byte(0x3A, SSD1331_CMD);
 2424              		.loc 1 458 0
 2425 00da 0021     		movs	r1, #0
 2426 00dc 3A20     		movs	r0, #58
 2427 00de FFF7FEFF 		bl	ssd1331_write_byte
 459:oled_ssd1331.c ****     ssd1331_write_byte(SET_V_VOLTAGE, SSD1331_CMD);        //Set vcomH
 2428              		.loc 1 459 0
 2429 00e2 0021     		movs	r1, #0
 2430 00e4 BE20     		movs	r0, #190
 2431 00e6 FFF7FEFF 		bl	ssd1331_write_byte
 460:oled_ssd1331.c ****     ssd1331_write_byte(0x3E, SSD1331_CMD);
 2432              		.loc 1 460 0
 2433 00ea 0021     		movs	r1, #0
 2434 00ec 3E20     		movs	r0, #62
 2435 00ee FFF7FEFF 		bl	ssd1331_write_byte
 461:oled_ssd1331.c ****     ssd1331_write_byte(MASTER_CURRENT_CONTROL, SSD1331_CMD);//master current control
 2436              		.loc 1 461 0
 2437 00f2 0021     		movs	r1, #0
 2438 00f4 8720     		movs	r0, #135
 2439 00f6 FFF7FEFF 		bl	ssd1331_write_byte
 462:oled_ssd1331.c ****     ssd1331_write_byte(0x06, SSD1331_CMD);                     //6
 2440              		.loc 1 462 0
 2441 00fa 0021     		movs	r1, #0
 2442 00fc 0620     		movs	r0, #6
 2443 00fe FFF7FEFF 		bl	ssd1331_write_byte
 463:oled_ssd1331.c ****     
 464:oled_ssd1331.c ****     ssd1331_write_byte(SET_CONTRAST_A, SSD1331_CMD);       //Set contrast for color A
 2444              		.loc 1 464 0
 2445 0102 0021     		movs	r1, #0
 2446 0104 8120     		movs	r0, #129
 2447 0106 FFF7FEFF 		bl	ssd1331_write_byte
 465:oled_ssd1331.c ****     ssd1331_write_byte(0xFF, SSD1331_CMD);                     //145 0x91
 2448              		.loc 1 465 0
 2449 010a 0021     		movs	r1, #0
 2450 010c FF20     		movs	r0, #255
 2451 010e FFF7FEFF 		bl	ssd1331_write_byte
 466:oled_ssd1331.c ****     ssd1331_write_byte(SET_CONTRAST_B, SSD1331_CMD);       //Set contrast for color B
 2452              		.loc 1 466 0
 2453 0112 0021     		movs	r1, #0
 2454 0114 8220     		movs	r0, #130
 2455 0116 FFF7FEFF 		bl	ssd1331_write_byte
ARM GAS  C:\Users\ROUSSMA\AppData\Local\Temp\cckXhTKH.s 			page 53


 467:oled_ssd1331.c ****     ssd1331_write_byte(0xFF, SSD1331_CMD);                     //80 0x50
 2456              		.loc 1 467 0
 2457 011a 0021     		movs	r1, #0
 2458 011c FF20     		movs	r0, #255
 2459 011e FFF7FEFF 		bl	ssd1331_write_byte
 468:oled_ssd1331.c ****     ssd1331_write_byte(SET_CONTRAST_C, SSD1331_CMD);       //Set contrast for color C
 2460              		.loc 1 468 0
 2461 0122 0021     		movs	r1, #0
 2462 0124 8320     		movs	r0, #131
 2463 0126 FFF7FEFF 		bl	ssd1331_write_byte
 469:oled_ssd1331.c ****     ssd1331_write_byte(0xFF, SSD1331_CMD);                     //125 0x7D              
 2464              		.loc 1 469 0
 2465 012a 0021     		movs	r1, #0
 2466 012c FF20     		movs	r0, #255
 2467 012e FFF7FEFF 		bl	ssd1331_write_byte
 470:oled_ssd1331.c **** 
 471:oled_ssd1331.c ****     ssd1331_write_byte(DEACTIVE_SCROLLING, SSD1331_CMD);   //disable scrolling
 2468              		.loc 1 471 0
 2469 0132 0021     		movs	r1, #0
 2470 0134 2E20     		movs	r0, #46
 2471 0136 FFF7FEFF 		bl	ssd1331_write_byte
 472:oled_ssd1331.c ****     ssd1331_write_byte(NORMAL_BRIGHTNESS_DISPLAY_ON, SSD1331_CMD);//set display on
 2472              		.loc 1 472 0
 2473 013a 0021     		movs	r1, #0
 2474 013c AF20     		movs	r0, #175
 2475 013e FFF7FEFF 		bl	ssd1331_write_byte
 473:oled_ssd1331.c **** 
 474:oled_ssd1331.c **** }
 2476              		.loc 1 474 0
 2477 0142 C046     		nop
 2478 0144 BD46     		mov	sp, r7
 2479              		@ sp needed
 2480 0146 80BD     		pop	{r7, pc}
 2481              		.cfi_endproc
 2482              	.LFE82:
 2483              		.size	ssd1331_init, .-ssd1331_init
 2484              		.text
 2485              	.Letext0:
 2486              		.file 2 "c:\\program files (x86)\\cypress\\psoc creator\\4.1\\psoc creator\\import\\gnu\\arm\\5.4.
 2487              		.file 3 "c:\\program files (x86)\\cypress\\psoc creator\\4.1\\psoc creator\\import\\gnu\\arm\\5.4.
 2488              		.file 4 "fonts.h"