ARM GAS  C:\Users\ROUSSMA\AppData\Local\Temp\ccQYW0G6.s 			page 1


   1              		.syntax unified
   2              		.cpu cortex-m0
   3              		.fpu softvfp
   4              		.eabi_attribute 20, 1
   5              		.eabi_attribute 21, 1
   6              		.eabi_attribute 23, 3
   7              		.eabi_attribute 24, 1
   8              		.eabi_attribute 25, 1
   9              		.eabi_attribute 26, 1
  10              		.eabi_attribute 30, 6
  11              		.eabi_attribute 34, 0
  12              		.eabi_attribute 18, 4
  13              		.thumb
  14              		.syntax unified
  15              		.file	"SCB_EZI2C.c"
  16              		.text
  17              	.Ltext0:
  18              		.cfi_sections	.debug_frame
  19              		.comm	SCB_curStatus,1,1
  20              		.comm	SCB_fsmState,1,1
  21              		.comm	SCB_dataBuffer1,4,4
  22              		.comm	SCB_bufSizeBuf1,2,2
  23              		.comm	SCB_protectBuf1,2,2
  24              		.comm	SCB_offsetBuf1,2,2
  25              		.comm	SCB_indexBuf1,2,2
  26              		.section	.text.SCB_EzI2CInit,"ax",%progbits
  27              		.align	2
  28              		.global	SCB_EzI2CInit
  29              		.code	16
  30              		.thumb_func
  31              		.type	SCB_EzI2CInit, %function
  32              	SCB_EzI2CInit:
  33              	.LFB2:
  34              		.file 1 "Generated_Source\\PSoC4\\SCB_EZI2C.c"
   1:Generated_Source\PSoC4/SCB_EZI2C.c **** /***************************************************************************//**
   2:Generated_Source\PSoC4/SCB_EZI2C.c **** * \file SCB_EZI2C.c
   3:Generated_Source\PSoC4/SCB_EZI2C.c **** * \version 3.20
   4:Generated_Source\PSoC4/SCB_EZI2C.c **** *
   5:Generated_Source\PSoC4/SCB_EZI2C.c **** * \brief
   6:Generated_Source\PSoC4/SCB_EZI2C.c **** *  This file provides the source code to the API for the SCB Component in
   7:Generated_Source\PSoC4/SCB_EZI2C.c **** *  EZI2C mode.
   8:Generated_Source\PSoC4/SCB_EZI2C.c **** *
   9:Generated_Source\PSoC4/SCB_EZI2C.c **** * Note:
  10:Generated_Source\PSoC4/SCB_EZI2C.c **** *
  11:Generated_Source\PSoC4/SCB_EZI2C.c **** *******************************************************************************
  12:Generated_Source\PSoC4/SCB_EZI2C.c **** * \copyright
  13:Generated_Source\PSoC4/SCB_EZI2C.c **** * Copyright 2013-2016, Cypress Semiconductor Corporation.  All rights reserved.
  14:Generated_Source\PSoC4/SCB_EZI2C.c **** * You may use this file only in accordance with the license, terms, conditions,
  15:Generated_Source\PSoC4/SCB_EZI2C.c **** * disclaimers, and limitations in the end user license agreement accompanying
  16:Generated_Source\PSoC4/SCB_EZI2C.c **** * the software package with which this file was provided.
  17:Generated_Source\PSoC4/SCB_EZI2C.c **** *******************************************************************************/
  18:Generated_Source\PSoC4/SCB_EZI2C.c **** 
  19:Generated_Source\PSoC4/SCB_EZI2C.c **** #include "SCB_PVT.h"
  20:Generated_Source\PSoC4/SCB_EZI2C.c **** #include "SCB_EZI2C_PVT.h"
  21:Generated_Source\PSoC4/SCB_EZI2C.c **** 
  22:Generated_Source\PSoC4/SCB_EZI2C.c **** 
  23:Generated_Source\PSoC4/SCB_EZI2C.c **** /***************************************
ARM GAS  C:\Users\ROUSSMA\AppData\Local\Temp\ccQYW0G6.s 			page 2


  24:Generated_Source\PSoC4/SCB_EZI2C.c **** *      EZI2C Private Vars
  25:Generated_Source\PSoC4/SCB_EZI2C.c **** ***************************************/
  26:Generated_Source\PSoC4/SCB_EZI2C.c **** 
  27:Generated_Source\PSoC4/SCB_EZI2C.c **** volatile uint8 SCB_curStatus; /* Status byte */
  28:Generated_Source\PSoC4/SCB_EZI2C.c **** uint8 SCB_fsmState;           /* FSM state   */
  29:Generated_Source\PSoC4/SCB_EZI2C.c **** 
  30:Generated_Source\PSoC4/SCB_EZI2C.c **** /* Variables intended to be used with Buffer 1: Primary slave address */
  31:Generated_Source\PSoC4/SCB_EZI2C.c **** volatile uint8 * SCB_dataBuffer1; /* Pointer to data buffer 1 */
  32:Generated_Source\PSoC4/SCB_EZI2C.c **** uint16 SCB_bufSizeBuf1;           /* Size of buffer 1 in bytes      */
  33:Generated_Source\PSoC4/SCB_EZI2C.c **** uint16 SCB_protectBuf1;           /* Start index of write protected area buffer 1 */
  34:Generated_Source\PSoC4/SCB_EZI2C.c **** uint16 SCB_offsetBuf1; /* Current offset within buffer 1 */
  35:Generated_Source\PSoC4/SCB_EZI2C.c **** uint16 SCB_indexBuf1;             /* Current index within buffer 1  */
  36:Generated_Source\PSoC4/SCB_EZI2C.c **** 
  37:Generated_Source\PSoC4/SCB_EZI2C.c **** #if(SCB_SECONDARY_ADDRESS_ENABLE_CONST)
  38:Generated_Source\PSoC4/SCB_EZI2C.c ****     uint8 SCB_addrBuf1; /* Primary slave address. Used for software comparison   */
  39:Generated_Source\PSoC4/SCB_EZI2C.c ****     uint8 SCB_addrBuf2; /* Secondary slave address. Used for software comparison */
  40:Generated_Source\PSoC4/SCB_EZI2C.c **** 
  41:Generated_Source\PSoC4/SCB_EZI2C.c ****     /* Variables intended to be used with Buffer 2: Primary slave address */
  42:Generated_Source\PSoC4/SCB_EZI2C.c ****     volatile uint8 * SCB_dataBuffer2; /* Pointer to data buffer 2 */
  43:Generated_Source\PSoC4/SCB_EZI2C.c ****     uint16 SCB_bufSizeBuf2;           /* Size of buffer 2 in bytes */
  44:Generated_Source\PSoC4/SCB_EZI2C.c ****     uint16 SCB_protectBuf2;           /* Start index of write protected area buffer 2 */
  45:Generated_Source\PSoC4/SCB_EZI2C.c ****     uint16 SCB_offsetBuf2; /* Current offset within buffer 2 */
  46:Generated_Source\PSoC4/SCB_EZI2C.c ****     uint16 SCB_indexBuf2;             /* Current index within buffer 2 */
  47:Generated_Source\PSoC4/SCB_EZI2C.c **** #endif /* (SCB_SECONDARY_ADDRESS_ENABLE_CONST) */
  48:Generated_Source\PSoC4/SCB_EZI2C.c **** 
  49:Generated_Source\PSoC4/SCB_EZI2C.c **** 
  50:Generated_Source\PSoC4/SCB_EZI2C.c **** /***************************************
  51:Generated_Source\PSoC4/SCB_EZI2C.c **** *      EZI2C Private Functions
  52:Generated_Source\PSoC4/SCB_EZI2C.c **** ***************************************/
  53:Generated_Source\PSoC4/SCB_EZI2C.c **** 
  54:Generated_Source\PSoC4/SCB_EZI2C.c **** #if(SCB_SECONDARY_ADDRESS_ENABLE_CONST)
  55:Generated_Source\PSoC4/SCB_EZI2C.c ****     static uint32 SCB_EzI2CUpdateRxMatchReg(uint32 addr1, uint32 addr2);
  56:Generated_Source\PSoC4/SCB_EZI2C.c **** #endif /* (SCB_SECONDARY_ADDRESS_ENABLE_CONST) */
  57:Generated_Source\PSoC4/SCB_EZI2C.c **** 
  58:Generated_Source\PSoC4/SCB_EZI2C.c **** #if(SCB_SCB_MODE_UNCONFIG_CONST_CFG)
  59:Generated_Source\PSoC4/SCB_EZI2C.c **** 
  60:Generated_Source\PSoC4/SCB_EZI2C.c ****     /***************************************
  61:Generated_Source\PSoC4/SCB_EZI2C.c ****     *  Configuration Structure Initialization
  62:Generated_Source\PSoC4/SCB_EZI2C.c ****     ***************************************/
  63:Generated_Source\PSoC4/SCB_EZI2C.c **** 
  64:Generated_Source\PSoC4/SCB_EZI2C.c ****     /* Constant configuration of EZI2C */
  65:Generated_Source\PSoC4/SCB_EZI2C.c ****     const SCB_EZI2C_INIT_STRUCT SCB_configEzI2C =
  66:Generated_Source\PSoC4/SCB_EZI2C.c ****     {
  67:Generated_Source\PSoC4/SCB_EZI2C.c ****         SCB_EZI2C_CLOCK_STRETCHING,
  68:Generated_Source\PSoC4/SCB_EZI2C.c ****         SCB_EZI2C_MEDIAN_FILTER_ENABLE,
  69:Generated_Source\PSoC4/SCB_EZI2C.c ****         SCB_EZI2C_NUMBER_OF_ADDRESSES,
  70:Generated_Source\PSoC4/SCB_EZI2C.c ****         SCB_EZI2C_PRIMARY_SLAVE_ADDRESS,
  71:Generated_Source\PSoC4/SCB_EZI2C.c ****         SCB_EZI2C_SECONDARY_SLAVE_ADDRESS,
  72:Generated_Source\PSoC4/SCB_EZI2C.c ****         SCB_EZI2C_SUB_ADDRESS_SIZE,
  73:Generated_Source\PSoC4/SCB_EZI2C.c ****         SCB_EZI2C_WAKE_ENABLE,
  74:Generated_Source\PSoC4/SCB_EZI2C.c ****         SCB_EZI2C_BYTE_MODE_ENABLE
  75:Generated_Source\PSoC4/SCB_EZI2C.c ****     };
  76:Generated_Source\PSoC4/SCB_EZI2C.c **** 
  77:Generated_Source\PSoC4/SCB_EZI2C.c ****     /*******************************************************************************
  78:Generated_Source\PSoC4/SCB_EZI2C.c ****     * Function Name: SCB_EzI2CInit
  79:Generated_Source\PSoC4/SCB_EZI2C.c ****     ****************************************************************************//**
  80:Generated_Source\PSoC4/SCB_EZI2C.c ****     *
ARM GAS  C:\Users\ROUSSMA\AppData\Local\Temp\ccQYW0G6.s 			page 3


  81:Generated_Source\PSoC4/SCB_EZI2C.c ****     *  Configures the SCB for EZI2C operation.
  82:Generated_Source\PSoC4/SCB_EZI2C.c ****     *
  83:Generated_Source\PSoC4/SCB_EZI2C.c ****     *  This function is intended specifically to be used when the SCB 
  84:Generated_Source\PSoC4/SCB_EZI2C.c ****     *  configuration is set to “Unconfigured SCB” in the customizer. 
  85:Generated_Source\PSoC4/SCB_EZI2C.c ****     *  After initializing the SCB in EZI2C mode using this function, 
  86:Generated_Source\PSoC4/SCB_EZI2C.c ****     *  the component can be enabled using the SCB_Start() or 
  87:Generated_Source\PSoC4/SCB_EZI2C.c ****     * SCB_Enable() function.
  88:Generated_Source\PSoC4/SCB_EZI2C.c ****     *  This function uses a pointer to a structure that provides the configuration 
  89:Generated_Source\PSoC4/SCB_EZI2C.c ****     *  settings. This structure contains the same information that would otherwise 
  90:Generated_Source\PSoC4/SCB_EZI2C.c ****     *  be provided by the customizer settings.
  91:Generated_Source\PSoC4/SCB_EZI2C.c ****     *
  92:Generated_Source\PSoC4/SCB_EZI2C.c ****     * \param config: pointer to a structure that contains the following list of 
  93:Generated_Source\PSoC4/SCB_EZI2C.c ****     *  fields. These fields match the selections available in the customizer. 
  94:Generated_Source\PSoC4/SCB_EZI2C.c ****     *  Refer to the customizer for further description of the settings.
  95:Generated_Source\PSoC4/SCB_EZI2C.c ****     *
  96:Generated_Source\PSoC4/SCB_EZI2C.c ****     *******************************************************************************/
  97:Generated_Source\PSoC4/SCB_EZI2C.c ****     void SCB_EzI2CInit(const SCB_EZI2C_INIT_STRUCT *config)
  98:Generated_Source\PSoC4/SCB_EZI2C.c ****     {
  99:Generated_Source\PSoC4/SCB_EZI2C.c ****         if(NULL == config)
 100:Generated_Source\PSoC4/SCB_EZI2C.c ****         {
 101:Generated_Source\PSoC4/SCB_EZI2C.c ****             CYASSERT(0u != 0u); /* Halt execution due to bad function parameter */
 102:Generated_Source\PSoC4/SCB_EZI2C.c ****         }
 103:Generated_Source\PSoC4/SCB_EZI2C.c ****         else
 104:Generated_Source\PSoC4/SCB_EZI2C.c ****         {
 105:Generated_Source\PSoC4/SCB_EZI2C.c ****             /* Configure pins */
 106:Generated_Source\PSoC4/SCB_EZI2C.c ****             SCB_SetPins(SCB_SCB_MODE_EZI2C, SCB_DUMMY_PARAM,
 107:Generated_Source\PSoC4/SCB_EZI2C.c ****                                                                       SCB_DUMMY_PARAM);
 108:Generated_Source\PSoC4/SCB_EZI2C.c **** 
 109:Generated_Source\PSoC4/SCB_EZI2C.c ****             /* Store internal configuration */
 110:Generated_Source\PSoC4/SCB_EZI2C.c ****             SCB_scbMode       = (uint8) SCB_SCB_MODE_EZI2C;
 111:Generated_Source\PSoC4/SCB_EZI2C.c ****             SCB_scbEnableWake = (uint8) config->enableWake;
 112:Generated_Source\PSoC4/SCB_EZI2C.c ****             SCB_scbEnableIntr = (uint8) SCB_SCB_IRQ_INTERNAL;
 113:Generated_Source\PSoC4/SCB_EZI2C.c **** 
 114:Generated_Source\PSoC4/SCB_EZI2C.c ****             SCB_numberOfAddr  = (uint8) config->numberOfAddresses;
 115:Generated_Source\PSoC4/SCB_EZI2C.c ****             SCB_subAddrSize   = (uint8) config->subAddrSize;
 116:Generated_Source\PSoC4/SCB_EZI2C.c **** 
 117:Generated_Source\PSoC4/SCB_EZI2C.c ****         #if (SCB_CY_SCBIP_V0)
 118:Generated_Source\PSoC4/SCB_EZI2C.c ****             /* Adjust SDA filter settings. Ticket ID#150521 */
 119:Generated_Source\PSoC4/SCB_EZI2C.c ****             SCB_SET_I2C_CFG_SDA_FILT_TRIM(SCB_EC_AM_I2C_CFG_SDA_FILT_TRIM);
 120:Generated_Source\PSoC4/SCB_EZI2C.c ****         #endif /* (SCB_CY_SCBIP_V0) */
 121:Generated_Source\PSoC4/SCB_EZI2C.c **** 
 122:Generated_Source\PSoC4/SCB_EZI2C.c ****             /* Adjust AF and DF filter settings, AF = 1, DF = 0. Ticket ID#176179 */
 123:Generated_Source\PSoC4/SCB_EZI2C.c ****             SCB_I2C_CFG_ANALOG_FITER_ENABLE;
 124:Generated_Source\PSoC4/SCB_EZI2C.c **** 
 125:Generated_Source\PSoC4/SCB_EZI2C.c ****             /* Configure I2C interface */
 126:Generated_Source\PSoC4/SCB_EZI2C.c ****             SCB_CTRL_REG     = SCB_GET_CTRL_BYTE_MODE  (config->enableByteMode)    |
 127:Generated_Source\PSoC4/SCB_EZI2C.c ****                                             SCB_GET_CTRL_ADDR_ACCEPT(config->numberOfAddresses) |
 128:Generated_Source\PSoC4/SCB_EZI2C.c ****                                             SCB_GET_CTRL_EC_AM_MODE (config->enableWake);
 129:Generated_Source\PSoC4/SCB_EZI2C.c **** 
 130:Generated_Source\PSoC4/SCB_EZI2C.c ****             SCB_I2C_CTRL_REG = SCB_EZI2C_CTRL;
 131:Generated_Source\PSoC4/SCB_EZI2C.c **** 
 132:Generated_Source\PSoC4/SCB_EZI2C.c ****             /* Configure RX direction */
 133:Generated_Source\PSoC4/SCB_EZI2C.c ****             SCB_RX_CTRL_REG = SCB_EZI2C_RX_CTRL |
 134:Generated_Source\PSoC4/SCB_EZI2C.c ****                                         SCB_GET_RX_CTRL_MEDIAN(SCB_DIGITAL_FILTER_DISABLE);
 135:Generated_Source\PSoC4/SCB_EZI2C.c ****                                                 ;
 136:Generated_Source\PSoC4/SCB_EZI2C.c ****             SCB_RX_FIFO_CTRL_REG = SCB_CLEAR_REG;
 137:Generated_Source\PSoC4/SCB_EZI2C.c **** 
ARM GAS  C:\Users\ROUSSMA\AppData\Local\Temp\ccQYW0G6.s 			page 4


 138:Generated_Source\PSoC4/SCB_EZI2C.c ****             /* Set default address and mask */
 139:Generated_Source\PSoC4/SCB_EZI2C.c ****             if(SCB_EZI2C_PRIMARY_ADDRESS == config->numberOfAddresses)
 140:Generated_Source\PSoC4/SCB_EZI2C.c ****             {
 141:Generated_Source\PSoC4/SCB_EZI2C.c ****                 SCB_RX_MATCH_REG = SCB_EzI2CUpdateRxMatchReg(config->primarySlaveAddr,
 142:Generated_Source\PSoC4/SCB_EZI2C.c ****                                                                                        config->prim
 143:Generated_Source\PSoC4/SCB_EZI2C.c ****             }
 144:Generated_Source\PSoC4/SCB_EZI2C.c ****             else
 145:Generated_Source\PSoC4/SCB_EZI2C.c ****             {
 146:Generated_Source\PSoC4/SCB_EZI2C.c ****                 SCB_RX_MATCH_REG = SCB_EzI2CUpdateRxMatchReg(config->primarySlaveAddr,
 147:Generated_Source\PSoC4/SCB_EZI2C.c ****                                                                                        config->seco
 148:Generated_Source\PSoC4/SCB_EZI2C.c ****             }
 149:Generated_Source\PSoC4/SCB_EZI2C.c **** 
 150:Generated_Source\PSoC4/SCB_EZI2C.c ****             /* Configure TX direction */
 151:Generated_Source\PSoC4/SCB_EZI2C.c ****             SCB_TX_CTRL_REG      = SCB_EZI2C_TX_CTRL;
 152:Generated_Source\PSoC4/SCB_EZI2C.c ****             SCB_TX_FIFO_CTRL_REG = ((0u != (config->enableClockStretch)) ?
 153:Generated_Source\PSoC4/SCB_EZI2C.c ****                                                  SCB_CLEAR_REG : SCB_EZI2C_TX_FIFO_CTRL);
 154:Generated_Source\PSoC4/SCB_EZI2C.c **** 
 155:Generated_Source\PSoC4/SCB_EZI2C.c ****             /* Configure interrupt sources */
 156:Generated_Source\PSoC4/SCB_EZI2C.c ****         #if (!SCB_CY_SCBIP_V1)
 157:Generated_Source\PSoC4/SCB_EZI2C.c ****            SCB_INTR_SPI_EC_MASK_REG = SCB_NO_INTR_SOURCES;
 158:Generated_Source\PSoC4/SCB_EZI2C.c ****         #endif /* (!SCB_CY_SCBIP_V1) */
 159:Generated_Source\PSoC4/SCB_EZI2C.c **** 
 160:Generated_Source\PSoC4/SCB_EZI2C.c ****             SCB_INTR_I2C_EC_MASK_REG = SCB_NO_INTR_SOURCES;
 161:Generated_Source\PSoC4/SCB_EZI2C.c ****             SCB_INTR_MASTER_MASK_REG = SCB_NO_INTR_SOURCES;
 162:Generated_Source\PSoC4/SCB_EZI2C.c ****             SCB_INTR_SLAVE_MASK_REG  = SCB_EZI2C_INTR_SLAVE_MASK;
 163:Generated_Source\PSoC4/SCB_EZI2C.c ****             SCB_INTR_TX_MASK_REG     = SCB_NO_INTR_SOURCES;
 164:Generated_Source\PSoC4/SCB_EZI2C.c **** 
 165:Generated_Source\PSoC4/SCB_EZI2C.c ****             /* Configure interrupt with EZI2C handler but do not enable it */
 166:Generated_Source\PSoC4/SCB_EZI2C.c ****             CyIntDisable    (SCB_ISR_NUMBER);
 167:Generated_Source\PSoC4/SCB_EZI2C.c ****             CyIntSetPriority(SCB_ISR_NUMBER, SCB_ISR_PRIORITY);
 168:Generated_Source\PSoC4/SCB_EZI2C.c ****             (void) CyIntSetVector(SCB_ISR_NUMBER, (0u != (config->enableClockStretch)) ?
 169:Generated_Source\PSoC4/SCB_EZI2C.c ****                                                                       (&SCB_EZI2C_STRETCH_ISR) :
 170:Generated_Source\PSoC4/SCB_EZI2C.c ****                                                                       (&SCB_EZI2C_NO_STRETCH_ISR));
 171:Generated_Source\PSoC4/SCB_EZI2C.c **** 
 172:Generated_Source\PSoC4/SCB_EZI2C.c ****             if(0u != (config->enableClockStretch))
 173:Generated_Source\PSoC4/SCB_EZI2C.c ****             {
 174:Generated_Source\PSoC4/SCB_EZI2C.c ****                 /* Configure interrupt sources */
 175:Generated_Source\PSoC4/SCB_EZI2C.c ****                 SCB_INTR_SLAVE_MASK_REG |= SCB_INTR_SLAVE_I2C_ADDR_MATCH;
 176:Generated_Source\PSoC4/SCB_EZI2C.c ****                 SCB_INTR_RX_MASK_REG     = SCB_NO_INTR_SOURCES;
 177:Generated_Source\PSoC4/SCB_EZI2C.c ****             }
 178:Generated_Source\PSoC4/SCB_EZI2C.c ****             else
 179:Generated_Source\PSoC4/SCB_EZI2C.c ****             {
 180:Generated_Source\PSoC4/SCB_EZI2C.c ****                 /* Enable Auto ACK/NACK features */
 181:Generated_Source\PSoC4/SCB_EZI2C.c ****                 SCB_I2C_CTRL_REG |= SCB_EZI2C_CTRL_AUTO;
 182:Generated_Source\PSoC4/SCB_EZI2C.c **** 
 183:Generated_Source\PSoC4/SCB_EZI2C.c ****                 /* Configure RX interrupt source */
 184:Generated_Source\PSoC4/SCB_EZI2C.c ****                 SCB_INTR_SLAVE_MASK_REG |= SCB_INTR_SLAVE_I2C_START;
 185:Generated_Source\PSoC4/SCB_EZI2C.c ****                 SCB_INTR_RX_MASK_REG     = SCB_INTR_RX_NOT_EMPTY;
 186:Generated_Source\PSoC4/SCB_EZI2C.c ****             }
 187:Generated_Source\PSoC4/SCB_EZI2C.c **** 
 188:Generated_Source\PSoC4/SCB_EZI2C.c ****             /* Configure global variables */
 189:Generated_Source\PSoC4/SCB_EZI2C.c ****             SCB_fsmState = SCB_EZI2C_FSM_IDLE;
 190:Generated_Source\PSoC4/SCB_EZI2C.c **** 
 191:Generated_Source\PSoC4/SCB_EZI2C.c ****             SCB_curStatus  = 0u;
 192:Generated_Source\PSoC4/SCB_EZI2C.c ****             SCB_indexBuf1  = 0u;
 193:Generated_Source\PSoC4/SCB_EZI2C.c ****             SCB_offsetBuf1 = 0u;
 194:Generated_Source\PSoC4/SCB_EZI2C.c ****             SCB_indexBuf2  = 0u;
ARM GAS  C:\Users\ROUSSMA\AppData\Local\Temp\ccQYW0G6.s 			page 5


 195:Generated_Source\PSoC4/SCB_EZI2C.c ****             SCB_offsetBuf2 = 0u;
 196:Generated_Source\PSoC4/SCB_EZI2C.c **** 
 197:Generated_Source\PSoC4/SCB_EZI2C.c ****             SCB_addrBuf1 = (uint8) config->primarySlaveAddr;
 198:Generated_Source\PSoC4/SCB_EZI2C.c ****             SCB_addrBuf2 = (uint8) config->secondarySlaveAddr;
 199:Generated_Source\PSoC4/SCB_EZI2C.c ****         }
 200:Generated_Source\PSoC4/SCB_EZI2C.c ****     }
 201:Generated_Source\PSoC4/SCB_EZI2C.c **** 
 202:Generated_Source\PSoC4/SCB_EZI2C.c **** #else
 203:Generated_Source\PSoC4/SCB_EZI2C.c **** 
 204:Generated_Source\PSoC4/SCB_EZI2C.c ****     /*******************************************************************************
 205:Generated_Source\PSoC4/SCB_EZI2C.c ****     * Function Name: SCB_EzI2CInit
 206:Generated_Source\PSoC4/SCB_EZI2C.c ****     ****************************************************************************//**
 207:Generated_Source\PSoC4/SCB_EZI2C.c ****     *
 208:Generated_Source\PSoC4/SCB_EZI2C.c ****     *  Configures the SCB for the EZI2C operation.
 209:Generated_Source\PSoC4/SCB_EZI2C.c ****     *
 210:Generated_Source\PSoC4/SCB_EZI2C.c ****     *******************************************************************************/
 211:Generated_Source\PSoC4/SCB_EZI2C.c ****     void SCB_EzI2CInit(void)
 212:Generated_Source\PSoC4/SCB_EZI2C.c ****     {
  35              		.loc 1 212 0
  36              		.cfi_startproc
  37              		@ args = 0, pretend = 0, frame = 0
  38              		@ frame_needed = 1, uses_anonymous_args = 0
  39 0000 80B5     		push	{r7, lr}
  40              		.cfi_def_cfa_offset 8
  41              		.cfi_offset 7, -8
  42              		.cfi_offset 14, -4
  43 0002 00AF     		add	r7, sp, #0
  44              		.cfi_def_cfa_register 7
 213:Generated_Source\PSoC4/SCB_EZI2C.c ****         /* Configure I2C interface */
 214:Generated_Source\PSoC4/SCB_EZI2C.c ****         SCB_CTRL_REG     = SCB_EZI2C_DEFAULT_CTRL;
  45              		.loc 1 214 0
  46 0004 214B     		ldr	r3, .L2
  47 0006 0022     		movs	r2, #0
  48 0008 1A60     		str	r2, [r3]
 215:Generated_Source\PSoC4/SCB_EZI2C.c ****         SCB_I2C_CTRL_REG = SCB_EZI2C_DEFAULT_I2C_CTRL;
  49              		.loc 1 215 0
  50 000a 214B     		ldr	r3, .L2+4
  51 000c 214A     		ldr	r2, .L2+8
  52 000e 1A60     		str	r2, [r3]
 216:Generated_Source\PSoC4/SCB_EZI2C.c **** 
 217:Generated_Source\PSoC4/SCB_EZI2C.c ****     #if (SCB_CY_SCBIP_V0)
 218:Generated_Source\PSoC4/SCB_EZI2C.c ****         /* Adjust SDA filter settings. Ticket ID#150521 */
 219:Generated_Source\PSoC4/SCB_EZI2C.c ****         SCB_SET_I2C_CFG_SDA_FILT_TRIM(SCB_EC_AM_I2C_CFG_SDA_FILT_TRIM);
 220:Generated_Source\PSoC4/SCB_EZI2C.c ****     #endif /* (SCB_CY_SCBIP_V0) */
 221:Generated_Source\PSoC4/SCB_EZI2C.c **** 
 222:Generated_Source\PSoC4/SCB_EZI2C.c ****         /* Configure RX direction */
 223:Generated_Source\PSoC4/SCB_EZI2C.c ****         SCB_RX_CTRL_REG      = SCB_EZI2C_DEFAULT_RX_CTRL;
  53              		.loc 1 223 0
  54 0010 214B     		ldr	r3, .L2+12
  55 0012 224A     		ldr	r2, .L2+16
  56 0014 1A60     		str	r2, [r3]
 224:Generated_Source\PSoC4/SCB_EZI2C.c ****         SCB_RX_FIFO_CTRL_REG = SCB_EZI2C_DEFAULT_RX_FIFO_CTRL;
  57              		.loc 1 224 0
  58 0016 224B     		ldr	r3, .L2+20
  59 0018 0022     		movs	r2, #0
  60 001a 1A60     		str	r2, [r3]
 225:Generated_Source\PSoC4/SCB_EZI2C.c **** 
ARM GAS  C:\Users\ROUSSMA\AppData\Local\Temp\ccQYW0G6.s 			page 6


 226:Generated_Source\PSoC4/SCB_EZI2C.c ****         /* Set default address and mask */
 227:Generated_Source\PSoC4/SCB_EZI2C.c ****         SCB_RX_MATCH_REG     = SCB_EZI2C_DEFAULT_RX_MATCH;
  61              		.loc 1 227 0
  62 001c 214B     		ldr	r3, .L2+24
  63 001e 224A     		ldr	r2, .L2+28
  64 0020 1A60     		str	r2, [r3]
 228:Generated_Source\PSoC4/SCB_EZI2C.c **** 
 229:Generated_Source\PSoC4/SCB_EZI2C.c ****         /* Configure TX direction */
 230:Generated_Source\PSoC4/SCB_EZI2C.c ****         SCB_TX_CTRL_REG      = SCB_EZI2C_DEFAULT_TX_CTRL;
  65              		.loc 1 230 0
  66 0022 224B     		ldr	r3, .L2+32
  67 0024 1D4A     		ldr	r2, .L2+16
  68 0026 1A60     		str	r2, [r3]
 231:Generated_Source\PSoC4/SCB_EZI2C.c ****         SCB_TX_FIFO_CTRL_REG = SCB_EZI2C_DEFAULT_TX_FIFO_CTRL;
  69              		.loc 1 231 0
  70 0028 214B     		ldr	r3, .L2+36
  71 002a 0022     		movs	r2, #0
  72 002c 1A60     		str	r2, [r3]
 232:Generated_Source\PSoC4/SCB_EZI2C.c **** 
 233:Generated_Source\PSoC4/SCB_EZI2C.c ****         /* Configure interrupt with EZI2C handler but do not enable it */
 234:Generated_Source\PSoC4/SCB_EZI2C.c ****     #if !defined (CY_EXTERNAL_INTERRUPT_CONFIG)
 235:Generated_Source\PSoC4/SCB_EZI2C.c ****         CyIntDisable    (SCB_ISR_NUMBER);
  73              		.loc 1 235 0
  74 002e 0A20     		movs	r0, #10
  75 0030 FFF7FEFF 		bl	CyIntDisable
 236:Generated_Source\PSoC4/SCB_EZI2C.c ****         CyIntSetPriority(SCB_ISR_NUMBER, SCB_ISR_PRIORITY);
  76              		.loc 1 236 0
  77 0034 0321     		movs	r1, #3
  78 0036 0A20     		movs	r0, #10
  79 0038 FFF7FEFF 		bl	CyIntSetPriority
 237:Generated_Source\PSoC4/SCB_EZI2C.c **** 
 238:Generated_Source\PSoC4/SCB_EZI2C.c ****     #if (SCB_EZI2C_SCL_STRETCH_ENABLE_CONST)
 239:Generated_Source\PSoC4/SCB_EZI2C.c ****         (void) CyIntSetVector(SCB_ISR_NUMBER, &SCB_EZI2C_STRETCH_ISR);
  80              		.loc 1 239 0
  81 003c 1D4B     		ldr	r3, .L2+40
  82 003e 1900     		movs	r1, r3
  83 0040 0A20     		movs	r0, #10
  84 0042 FFF7FEFF 		bl	CyIntSetVector
 240:Generated_Source\PSoC4/SCB_EZI2C.c ****     #else
 241:Generated_Source\PSoC4/SCB_EZI2C.c ****         (void) CyIntSetVector(SCB_ISR_NUMBER, &SCB_EZI2C_NO_STRETCH_ISR);
 242:Generated_Source\PSoC4/SCB_EZI2C.c ****     #endif /* (SCB_EZI2C_SCL_STRETCH_ENABLE_CONST) */
 243:Generated_Source\PSoC4/SCB_EZI2C.c **** 
 244:Generated_Source\PSoC4/SCB_EZI2C.c ****     #endif /* !defined (CY_EXTERNAL_INTERRUPT_CONFIG) */
 245:Generated_Source\PSoC4/SCB_EZI2C.c **** 
 246:Generated_Source\PSoC4/SCB_EZI2C.c ****         /* Configure interrupt sources */
 247:Generated_Source\PSoC4/SCB_EZI2C.c ****     #if (!SCB_CY_SCBIP_V1)
 248:Generated_Source\PSoC4/SCB_EZI2C.c ****         SCB_INTR_SPI_EC_MASK_REG = SCB_EZI2C_DEFAULT_INTR_SPI_EC_MASK;
  85              		.loc 1 248 0
  86 0046 1C4B     		ldr	r3, .L2+44
  87 0048 0022     		movs	r2, #0
  88 004a 1A60     		str	r2, [r3]
 249:Generated_Source\PSoC4/SCB_EZI2C.c ****     #endif /* (!SCB_CY_SCBIP_V1) */
 250:Generated_Source\PSoC4/SCB_EZI2C.c **** 
 251:Generated_Source\PSoC4/SCB_EZI2C.c ****         SCB_INTR_I2C_EC_MASK_REG = SCB_EZI2C_DEFAULT_INTR_I2C_EC_MASK;
  89              		.loc 1 251 0
  90 004c 1B4B     		ldr	r3, .L2+48
  91 004e 0022     		movs	r2, #0
ARM GAS  C:\Users\ROUSSMA\AppData\Local\Temp\ccQYW0G6.s 			page 7


  92 0050 1A60     		str	r2, [r3]
 252:Generated_Source\PSoC4/SCB_EZI2C.c ****         SCB_INTR_SLAVE_MASK_REG  = SCB_EZI2C_DEFAULT_INTR_SLAVE_MASK;
  93              		.loc 1 252 0
  94 0052 1B4B     		ldr	r3, .L2+52
  95 0054 5222     		movs	r2, #82
  96 0056 FF32     		adds	r2, r2, #255
  97 0058 1A60     		str	r2, [r3]
 253:Generated_Source\PSoC4/SCB_EZI2C.c ****         SCB_INTR_MASTER_MASK_REG = SCB_EZI2C_DEFAULT_INTR_MASTER_MASK;
  98              		.loc 1 253 0
  99 005a 1A4B     		ldr	r3, .L2+56
 100 005c 0022     		movs	r2, #0
 101 005e 1A60     		str	r2, [r3]
 254:Generated_Source\PSoC4/SCB_EZI2C.c ****         SCB_INTR_RX_MASK_REG     = SCB_EZI2C_DEFAULT_INTR_RX_MASK;
 102              		.loc 1 254 0
 103 0060 194B     		ldr	r3, .L2+60
 104 0062 0022     		movs	r2, #0
 105 0064 1A60     		str	r2, [r3]
 255:Generated_Source\PSoC4/SCB_EZI2C.c ****         SCB_INTR_TX_MASK_REG     = SCB_EZI2C_DEFAULT_INTR_TX_MASK;
 106              		.loc 1 255 0
 107 0066 194B     		ldr	r3, .L2+64
 108 0068 0022     		movs	r2, #0
 109 006a 1A60     		str	r2, [r3]
 256:Generated_Source\PSoC4/SCB_EZI2C.c **** 
 257:Generated_Source\PSoC4/SCB_EZI2C.c ****         /* Configure global variables */
 258:Generated_Source\PSoC4/SCB_EZI2C.c ****         SCB_fsmState = SCB_EZI2C_FSM_IDLE;
 110              		.loc 1 258 0
 111 006c 184B     		ldr	r3, .L2+68
 112 006e 0222     		movs	r2, #2
 113 0070 1A70     		strb	r2, [r3]
 259:Generated_Source\PSoC4/SCB_EZI2C.c **** 
 260:Generated_Source\PSoC4/SCB_EZI2C.c ****         SCB_curStatus  = 0u;
 114              		.loc 1 260 0
 115 0072 184B     		ldr	r3, .L2+72
 116 0074 0022     		movs	r2, #0
 117 0076 1A70     		strb	r2, [r3]
 261:Generated_Source\PSoC4/SCB_EZI2C.c ****         SCB_indexBuf1  = 0u;
 118              		.loc 1 261 0
 119 0078 174B     		ldr	r3, .L2+76
 120 007a 0022     		movs	r2, #0
 121 007c 1A80     		strh	r2, [r3]
 262:Generated_Source\PSoC4/SCB_EZI2C.c ****         SCB_offsetBuf1 = 0u;
 122              		.loc 1 262 0
 123 007e 174B     		ldr	r3, .L2+80
 124 0080 0022     		movs	r2, #0
 125 0082 1A80     		strh	r2, [r3]
 263:Generated_Source\PSoC4/SCB_EZI2C.c **** 
 264:Generated_Source\PSoC4/SCB_EZI2C.c ****     #if(SCB_SECONDARY_ADDRESS_ENABLE_CONST)
 265:Generated_Source\PSoC4/SCB_EZI2C.c ****         SCB_indexBuf2  = 0u;
 266:Generated_Source\PSoC4/SCB_EZI2C.c ****         SCB_offsetBuf2 = 0u;
 267:Generated_Source\PSoC4/SCB_EZI2C.c **** 
 268:Generated_Source\PSoC4/SCB_EZI2C.c ****         SCB_addrBuf1 = SCB_EZI2C_PRIMARY_SLAVE_ADDRESS;
 269:Generated_Source\PSoC4/SCB_EZI2C.c ****         SCB_addrBuf2 = SCB_EZI2C_SECONDARY_SLAVE_ADDRESS;
 270:Generated_Source\PSoC4/SCB_EZI2C.c ****     #endif /* (SCB_SECONDARY_ADDRESS_ENABLE_CONST) */
 271:Generated_Source\PSoC4/SCB_EZI2C.c ****     }
 126              		.loc 1 271 0
 127 0084 C046     		nop
 128 0086 BD46     		mov	sp, r7
ARM GAS  C:\Users\ROUSSMA\AppData\Local\Temp\ccQYW0G6.s 			page 8


 129              		@ sp needed
 130 0088 80BD     		pop	{r7, pc}
 131              	.L3:
 132 008a C046     		.align	2
 133              	.L2:
 134 008c 00002540 		.word	1076166656
 135 0090 60002540 		.word	1076166752
 136 0094 00080040 		.word	1073743872
 137 0098 00032540 		.word	1076167424
 138 009c 07010080 		.word	-2147483385
 139 00a0 04032540 		.word	1076167428
 140 00a4 10032540 		.word	1076167440
 141 00a8 1000FE00 		.word	16646160
 142 00ac 00022540 		.word	1076167168
 143 00b0 04022540 		.word	1076167172
 144 00b4 00000000 		.word	SCB_EZI2C_STRETCH_ISR
 145 00b8 C80E2540 		.word	1076170440
 146 00bc 880E2540 		.word	1076170376
 147 00c0 480F2540 		.word	1076170568
 148 00c4 080F2540 		.word	1076170504
 149 00c8 C80F2540 		.word	1076170696
 150 00cc 880F2540 		.word	1076170632
 151 00d0 00000000 		.word	SCB_fsmState
 152 00d4 00000000 		.word	SCB_curStatus
 153 00d8 00000000 		.word	SCB_indexBuf1
 154 00dc 00000000 		.word	SCB_offsetBuf1
 155              		.cfi_endproc
 156              	.LFE2:
 157              		.size	SCB_EzI2CInit, .-SCB_EzI2CInit
 158              		.section	.text.SCB_EzI2CStop,"ax",%progbits
 159              		.align	2
 160              		.global	SCB_EzI2CStop
 161              		.code	16
 162              		.thumb_func
 163              		.type	SCB_EzI2CStop, %function
 164              	SCB_EzI2CStop:
 165              	.LFB3:
 272:Generated_Source\PSoC4/SCB_EZI2C.c **** #endif /* (SCB_SCB_MODE_UNCONFIG_CONST_CFG) */
 273:Generated_Source\PSoC4/SCB_EZI2C.c **** 
 274:Generated_Source\PSoC4/SCB_EZI2C.c **** 
 275:Generated_Source\PSoC4/SCB_EZI2C.c **** /*******************************************************************************
 276:Generated_Source\PSoC4/SCB_EZI2C.c **** * Function Name: SCB_EzI2CStop
 277:Generated_Source\PSoC4/SCB_EZI2C.c **** ****************************************************************************//**
 278:Generated_Source\PSoC4/SCB_EZI2C.c **** *
 279:Generated_Source\PSoC4/SCB_EZI2C.c **** *  Resets the EZI2C FSM into the default state.
 280:Generated_Source\PSoC4/SCB_EZI2C.c **** *
 281:Generated_Source\PSoC4/SCB_EZI2C.c **** *******************************************************************************/
 282:Generated_Source\PSoC4/SCB_EZI2C.c **** void SCB_EzI2CStop(void)
 283:Generated_Source\PSoC4/SCB_EZI2C.c **** {
 166              		.loc 1 283 0
 167              		.cfi_startproc
 168              		@ args = 0, pretend = 0, frame = 0
 169              		@ frame_needed = 1, uses_anonymous_args = 0
 170 0000 80B5     		push	{r7, lr}
 171              		.cfi_def_cfa_offset 8
 172              		.cfi_offset 7, -8
 173              		.cfi_offset 14, -4
ARM GAS  C:\Users\ROUSSMA\AppData\Local\Temp\ccQYW0G6.s 			page 9


 174 0002 00AF     		add	r7, sp, #0
 175              		.cfi_def_cfa_register 7
 284:Generated_Source\PSoC4/SCB_EZI2C.c ****     SCB_fsmState = SCB_EZI2C_FSM_IDLE;
 176              		.loc 1 284 0
 177 0004 024B     		ldr	r3, .L5
 178 0006 0222     		movs	r2, #2
 179 0008 1A70     		strb	r2, [r3]
 285:Generated_Source\PSoC4/SCB_EZI2C.c **** }
 180              		.loc 1 285 0
 181 000a C046     		nop
 182 000c BD46     		mov	sp, r7
 183              		@ sp needed
 184 000e 80BD     		pop	{r7, pc}
 185              	.L6:
 186              		.align	2
 187              	.L5:
 188 0010 00000000 		.word	SCB_fsmState
 189              		.cfi_endproc
 190              	.LFE3:
 191              		.size	SCB_EzI2CStop, .-SCB_EzI2CStop
 192              		.section	.text.SCB_EzI2CGetActivity,"ax",%progbits
 193              		.align	2
 194              		.global	SCB_EzI2CGetActivity
 195              		.code	16
 196              		.thumb_func
 197              		.type	SCB_EzI2CGetActivity, %function
 198              	SCB_EzI2CGetActivity:
 199              	.LFB4:
 286:Generated_Source\PSoC4/SCB_EZI2C.c **** 
 287:Generated_Source\PSoC4/SCB_EZI2C.c **** 
 288:Generated_Source\PSoC4/SCB_EZI2C.c **** /*******************************************************************************
 289:Generated_Source\PSoC4/SCB_EZI2C.c **** * Function Name: SCB_EzI2CGetActivity
 290:Generated_Source\PSoC4/SCB_EZI2C.c **** ****************************************************************************//**
 291:Generated_Source\PSoC4/SCB_EZI2C.c **** *
 292:Generated_Source\PSoC4/SCB_EZI2C.c **** *  Returns the EZI2C slave status.
 293:Generated_Source\PSoC4/SCB_EZI2C.c **** *  The read, write and error status flags reset to zero after this function
 294:Generated_Source\PSoC4/SCB_EZI2C.c **** *  call. The busy status flag is cleared when the transaction intended for
 295:Generated_Source\PSoC4/SCB_EZI2C.c **** *  the EZI2C slave completes.
 296:Generated_Source\PSoC4/SCB_EZI2C.c **** *
 297:Generated_Source\PSoC4/SCB_EZI2C.c **** * \return
 298:Generated_Source\PSoC4/SCB_EZI2C.c **** *  Returns the status of the EZI2C Slave activity.
 299:Generated_Source\PSoC4/SCB_EZI2C.c **** *  - SCB_EZI2C_STATUS_READ1 - Read transfer complete. The transfer 
 300:Generated_Source\PSoC4/SCB_EZI2C.c **** *    used the primary slave address. The error condition status bit must be 
 301:Generated_Source\PSoC4/SCB_EZI2C.c **** *    checked to ensure that read transfer was completed successfully.
 302:Generated_Source\PSoC4/SCB_EZI2C.c **** *  - SCB_EZI2C_STATUS_WRITE1 - Write transfer complete. The buffer 
 303:Generated_Source\PSoC4/SCB_EZI2C.c **** *    content was modified. The transfer used the primary slave address. 
 304:Generated_Source\PSoC4/SCB_EZI2C.c **** *    The error condition status bit must be checked to ensure that write 
 305:Generated_Source\PSoC4/SCB_EZI2C.c **** *    transfer was completed successfully.
 306:Generated_Source\PSoC4/SCB_EZI2C.c **** *  - SCB_EZI2C_STATUS_READ2 - Read transfer complete. The transfer
 307:Generated_Source\PSoC4/SCB_EZI2C.c **** *    used the secondary slave address. The error condition status bit must be 
 308:Generated_Source\PSoC4/SCB_EZI2C.c **** *    checked to ensure that read transfer was completed successfully.
 309:Generated_Source\PSoC4/SCB_EZI2C.c **** *  - SCB_EZI2C_STATUS_WRITE2 - Write transfer complete. The buffer
 310:Generated_Source\PSoC4/SCB_EZI2C.c **** *    content was modified. The transfer used the secondary slave address. 
 311:Generated_Source\PSoC4/SCB_EZI2C.c **** *    The error condition status bit must be checked to ensure that write 
 312:Generated_Source\PSoC4/SCB_EZI2C.c **** *    transfer was completed successfully.
 313:Generated_Source\PSoC4/SCB_EZI2C.c **** *  - SCB_EZI2C_STATUS_BUSY - A transfer intended for the primary 
 314:Generated_Source\PSoC4/SCB_EZI2C.c **** *    or secondary address is in progress. The status bit is set after an 
ARM GAS  C:\Users\ROUSSMA\AppData\Local\Temp\ccQYW0G6.s 			page 10


 315:Generated_Source\PSoC4/SCB_EZI2C.c **** *    address match and cleared on a Stop or ReStart condition.
 316:Generated_Source\PSoC4/SCB_EZI2C.c **** *  - SCB_EZI2C_STATUS_ERR - An error occurred during a transfer 
 317:Generated_Source\PSoC4/SCB_EZI2C.c **** *    intended for the primary or secondary slave address. The sources of error
 318:Generated_Source\PSoC4/SCB_EZI2C.c **** *    are: misplaced Start or Stop condition or lost arbitration while slave 
 319:Generated_Source\PSoC4/SCB_EZI2C.c **** *    drives SDA.
 320:Generated_Source\PSoC4/SCB_EZI2C.c **** *    The write buffer may contain invalid byte or part of the transaction when 
 321:Generated_Source\PSoC4/SCB_EZI2C.c **** *    SCB_EZI2C_STATUS_ERR and SCB_EZI2C_STATUS_WRITE1/2 
 322:Generated_Source\PSoC4/SCB_EZI2C.c **** *    is set. It is recommended to discard buffer content in this case.
 323:Generated_Source\PSoC4/SCB_EZI2C.c **** *
 324:Generated_Source\PSoC4/SCB_EZI2C.c **** * \globalvars
 325:Generated_Source\PSoC4/SCB_EZI2C.c **** *  SCB_curStatus - used to store the current status of the EZI2C 
 326:Generated_Source\PSoC4/SCB_EZI2C.c **** *  slave.
 327:Generated_Source\PSoC4/SCB_EZI2C.c **** *
 328:Generated_Source\PSoC4/SCB_EZI2C.c **** *******************************************************************************/
 329:Generated_Source\PSoC4/SCB_EZI2C.c **** uint32 SCB_EzI2CGetActivity(void)
 330:Generated_Source\PSoC4/SCB_EZI2C.c **** {
 200              		.loc 1 330 0
 201              		.cfi_startproc
 202              		@ args = 0, pretend = 0, frame = 8
 203              		@ frame_needed = 1, uses_anonymous_args = 0
 204 0000 80B5     		push	{r7, lr}
 205              		.cfi_def_cfa_offset 8
 206              		.cfi_offset 7, -8
 207              		.cfi_offset 14, -4
 208 0002 82B0     		sub	sp, sp, #8
 209              		.cfi_def_cfa_offset 16
 210 0004 00AF     		add	r7, sp, #0
 211              		.cfi_def_cfa_register 7
 331:Generated_Source\PSoC4/SCB_EZI2C.c ****     uint32 status;
 332:Generated_Source\PSoC4/SCB_EZI2C.c **** 
 333:Generated_Source\PSoC4/SCB_EZI2C.c ****     SCB_DisableInt();  /* Lock from interruption */
 212              		.loc 1 333 0
 213 0006 0A20     		movs	r0, #10
 214 0008 FFF7FEFF 		bl	CyIntDisable
 334:Generated_Source\PSoC4/SCB_EZI2C.c **** 
 335:Generated_Source\PSoC4/SCB_EZI2C.c ****     status = SCB_curStatus;
 215              		.loc 1 335 0
 216 000c 094B     		ldr	r3, .L9
 217 000e 1B78     		ldrb	r3, [r3]
 218 0010 DBB2     		uxtb	r3, r3
 219 0012 7B60     		str	r3, [r7, #4]
 336:Generated_Source\PSoC4/SCB_EZI2C.c **** 
 337:Generated_Source\PSoC4/SCB_EZI2C.c ****     /* Relay on address match event from HW as bus busy status */
 338:Generated_Source\PSoC4/SCB_EZI2C.c ****     #if(SCB_EZI2C_SCL_STRETCH_DISABLE)
 339:Generated_Source\PSoC4/SCB_EZI2C.c ****     {
 340:Generated_Source\PSoC4/SCB_EZI2C.c ****         /* For SCB_CY_SCBIP_V0 the wake is prohibited by customizer */
 341:Generated_Source\PSoC4/SCB_EZI2C.c ****         #if(SCB_EZI2C_EC_AM_ENABLE)
 342:Generated_Source\PSoC4/SCB_EZI2C.c ****         {
 343:Generated_Source\PSoC4/SCB_EZI2C.c ****             status |= SCB_CHECK_INTR_I2C_EC(SCB_INTR_I2C_EC_WAKE_UP) ?
 344:Generated_Source\PSoC4/SCB_EZI2C.c ****                         SCB_EZI2C_STATUS_BUSY : 0u;
 345:Generated_Source\PSoC4/SCB_EZI2C.c ****         }
 346:Generated_Source\PSoC4/SCB_EZI2C.c ****         #else
 347:Generated_Source\PSoC4/SCB_EZI2C.c ****         {
 348:Generated_Source\PSoC4/SCB_EZI2C.c ****             status |= SCB_CHECK_INTR_SLAVE(SCB_INTR_SLAVE_I2C_ADDR_MATCH) ?
 349:Generated_Source\PSoC4/SCB_EZI2C.c ****                         SCB_EZI2C_STATUS_BUSY : 0u;
 350:Generated_Source\PSoC4/SCB_EZI2C.c ****         }
 351:Generated_Source\PSoC4/SCB_EZI2C.c ****         #endif
ARM GAS  C:\Users\ROUSSMA\AppData\Local\Temp\ccQYW0G6.s 			page 11


 352:Generated_Source\PSoC4/SCB_EZI2C.c ****     }
 353:Generated_Source\PSoC4/SCB_EZI2C.c ****     #endif
 354:Generated_Source\PSoC4/SCB_EZI2C.c **** 
 355:Generated_Source\PSoC4/SCB_EZI2C.c ****     SCB_curStatus &= ((uint8) ~SCB_EZI2C_CLEAR_STATUS);
 220              		.loc 1 355 0
 221 0014 074B     		ldr	r3, .L9
 222 0016 1B78     		ldrb	r3, [r3]
 223 0018 DBB2     		uxtb	r3, r3
 224 001a 1F22     		movs	r2, #31
 225 001c 9343     		bics	r3, r2
 226 001e DAB2     		uxtb	r2, r3
 227 0020 044B     		ldr	r3, .L9
 228 0022 1A70     		strb	r2, [r3]
 356:Generated_Source\PSoC4/SCB_EZI2C.c **** 
 357:Generated_Source\PSoC4/SCB_EZI2C.c ****     SCB_EnableInt();   /* Release lock */
 229              		.loc 1 357 0
 230 0024 0A20     		movs	r0, #10
 231 0026 FFF7FEFF 		bl	CyIntEnable
 358:Generated_Source\PSoC4/SCB_EZI2C.c **** 
 359:Generated_Source\PSoC4/SCB_EZI2C.c ****     return(status);
 232              		.loc 1 359 0
 233 002a 7B68     		ldr	r3, [r7, #4]
 360:Generated_Source\PSoC4/SCB_EZI2C.c **** }
 234              		.loc 1 360 0
 235 002c 1800     		movs	r0, r3
 236 002e BD46     		mov	sp, r7
 237 0030 02B0     		add	sp, sp, #8
 238              		@ sp needed
 239 0032 80BD     		pop	{r7, pc}
 240              	.L10:
 241              		.align	2
 242              	.L9:
 243 0034 00000000 		.word	SCB_curStatus
 244              		.cfi_endproc
 245              	.LFE4:
 246              		.size	SCB_EzI2CGetActivity, .-SCB_EzI2CGetActivity
 247              		.section	.text.SCB_EzI2CSetAddress1,"ax",%progbits
 248              		.align	2
 249              		.global	SCB_EzI2CSetAddress1
 250              		.code	16
 251              		.thumb_func
 252              		.type	SCB_EzI2CSetAddress1, %function
 253              	SCB_EzI2CSetAddress1:
 254              	.LFB5:
 361:Generated_Source\PSoC4/SCB_EZI2C.c **** 
 362:Generated_Source\PSoC4/SCB_EZI2C.c **** 
 363:Generated_Source\PSoC4/SCB_EZI2C.c **** /*******************************************************************************
 364:Generated_Source\PSoC4/SCB_EZI2C.c **** * Function Name: SCB_EzI2CSetAddress1
 365:Generated_Source\PSoC4/SCB_EZI2C.c **** ****************************************************************************//**
 366:Generated_Source\PSoC4/SCB_EZI2C.c **** *
 367:Generated_Source\PSoC4/SCB_EZI2C.c **** *  Sets the primary EZI2C slave address.
 368:Generated_Source\PSoC4/SCB_EZI2C.c **** *
 369:Generated_Source\PSoC4/SCB_EZI2C.c **** * \param address: I2C slave address for the secondary device.
 370:Generated_Source\PSoC4/SCB_EZI2C.c **** *  This address is the 7-bit right-justified slave address and does not 
 371:Generated_Source\PSoC4/SCB_EZI2C.c **** *   include the R/W bit.
 372:Generated_Source\PSoC4/SCB_EZI2C.c **** *
 373:Generated_Source\PSoC4/SCB_EZI2C.c **** *  The address value is not checked to see if it violates the I2C spec. 
ARM GAS  C:\Users\ROUSSMA\AppData\Local\Temp\ccQYW0G6.s 			page 12


 374:Generated_Source\PSoC4/SCB_EZI2C.c **** *  The preferred addresses are in the range between 8 and 120 (0x08 to 0x78).
 375:Generated_Source\PSoC4/SCB_EZI2C.c **** *
 376:Generated_Source\PSoC4/SCB_EZI2C.c **** * \globalvars
 377:Generated_Source\PSoC4/SCB_EZI2C.c **** *  SCB_addrBuf1 - used to store the primary 7-bit slave address 
 378:Generated_Source\PSoC4/SCB_EZI2C.c **** *  value.
 379:Generated_Source\PSoC4/SCB_EZI2C.c **** *
 380:Generated_Source\PSoC4/SCB_EZI2C.c **** *******************************************************************************/
 381:Generated_Source\PSoC4/SCB_EZI2C.c **** void SCB_EzI2CSetAddress1(uint32 address)
 382:Generated_Source\PSoC4/SCB_EZI2C.c **** {
 255              		.loc 1 382 0
 256              		.cfi_startproc
 257              		@ args = 0, pretend = 0, frame = 16
 258              		@ frame_needed = 1, uses_anonymous_args = 0
 259 0000 80B5     		push	{r7, lr}
 260              		.cfi_def_cfa_offset 8
 261              		.cfi_offset 7, -8
 262              		.cfi_offset 14, -4
 263 0002 84B0     		sub	sp, sp, #16
 264              		.cfi_def_cfa_offset 24
 265 0004 00AF     		add	r7, sp, #0
 266              		.cfi_def_cfa_register 7
 267 0006 7860     		str	r0, [r7, #4]
 268              	.LBB2:
 383:Generated_Source\PSoC4/SCB_EZI2C.c ****     #if(SCB_SECONDARY_ADDRESS_ENABLE)
 384:Generated_Source\PSoC4/SCB_EZI2C.c ****     {
 385:Generated_Source\PSoC4/SCB_EZI2C.c ****         SCB_addrBuf1 = (uint8) address;
 386:Generated_Source\PSoC4/SCB_EZI2C.c **** 
 387:Generated_Source\PSoC4/SCB_EZI2C.c ****         SCB_RX_MATCH_REG = 
 388:Generated_Source\PSoC4/SCB_EZI2C.c ****                         SCB_EzI2CUpdateRxMatchReg(address, (uint32) SCB_addrBuf2);
 389:Generated_Source\PSoC4/SCB_EZI2C.c ****     }
 390:Generated_Source\PSoC4/SCB_EZI2C.c ****     #else
 391:Generated_Source\PSoC4/SCB_EZI2C.c ****     {
 392:Generated_Source\PSoC4/SCB_EZI2C.c ****         uint32 matchReg;
 393:Generated_Source\PSoC4/SCB_EZI2C.c **** 
 394:Generated_Source\PSoC4/SCB_EZI2C.c ****         matchReg = SCB_RX_MATCH_REG;
 269              		.loc 1 394 0
 270 0008 0A4B     		ldr	r3, .L12
 271 000a 1B68     		ldr	r3, [r3]
 272 000c FB60     		str	r3, [r7, #12]
 395:Generated_Source\PSoC4/SCB_EZI2C.c **** 
 396:Generated_Source\PSoC4/SCB_EZI2C.c ****         /* Set address. */
 397:Generated_Source\PSoC4/SCB_EZI2C.c ****         matchReg &= (uint32) ~SCB_RX_MATCH_ADDR_MASK;
 273              		.loc 1 397 0
 274 000e FB68     		ldr	r3, [r7, #12]
 275 0010 FF22     		movs	r2, #255
 276 0012 9343     		bics	r3, r2
 277 0014 FB60     		str	r3, [r7, #12]
 398:Generated_Source\PSoC4/SCB_EZI2C.c ****         matchReg |= (uint32)  SCB_GET_I2C_8BIT_ADDRESS(address);
 278              		.loc 1 398 0
 279 0016 7B68     		ldr	r3, [r7, #4]
 280 0018 5B00     		lsls	r3, r3, #1
 281 001a FF22     		movs	r2, #255
 282 001c 1340     		ands	r3, r2
 283 001e FA68     		ldr	r2, [r7, #12]
 284 0020 1343     		orrs	r3, r2
 285 0022 FB60     		str	r3, [r7, #12]
 399:Generated_Source\PSoC4/SCB_EZI2C.c **** 
ARM GAS  C:\Users\ROUSSMA\AppData\Local\Temp\ccQYW0G6.s 			page 13


 400:Generated_Source\PSoC4/SCB_EZI2C.c ****         SCB_RX_MATCH_REG = matchReg;
 286              		.loc 1 400 0
 287 0024 034B     		ldr	r3, .L12
 288 0026 FA68     		ldr	r2, [r7, #12]
 289 0028 1A60     		str	r2, [r3]
 290              	.LBE2:
 401:Generated_Source\PSoC4/SCB_EZI2C.c ****     }
 402:Generated_Source\PSoC4/SCB_EZI2C.c ****     #endif
 403:Generated_Source\PSoC4/SCB_EZI2C.c **** }
 291              		.loc 1 403 0
 292 002a C046     		nop
 293 002c BD46     		mov	sp, r7
 294 002e 04B0     		add	sp, sp, #16
 295              		@ sp needed
 296 0030 80BD     		pop	{r7, pc}
 297              	.L13:
 298 0032 C046     		.align	2
 299              	.L12:
 300 0034 10032540 		.word	1076167440
 301              		.cfi_endproc
 302              	.LFE5:
 303              		.size	SCB_EzI2CSetAddress1, .-SCB_EzI2CSetAddress1
 304              		.section	.text.SCB_EzI2CGetAddress1,"ax",%progbits
 305              		.align	2
 306              		.global	SCB_EzI2CGetAddress1
 307              		.code	16
 308              		.thumb_func
 309              		.type	SCB_EzI2CGetAddress1, %function
 310              	SCB_EzI2CGetAddress1:
 311              	.LFB6:
 404:Generated_Source\PSoC4/SCB_EZI2C.c **** 
 405:Generated_Source\PSoC4/SCB_EZI2C.c **** 
 406:Generated_Source\PSoC4/SCB_EZI2C.c **** /*******************************************************************************
 407:Generated_Source\PSoC4/SCB_EZI2C.c **** * Function Name: SCB_EzI2CGetAddress1
 408:Generated_Source\PSoC4/SCB_EZI2C.c **** ****************************************************************************//**
 409:Generated_Source\PSoC4/SCB_EZI2C.c **** *
 410:Generated_Source\PSoC4/SCB_EZI2C.c **** *  Returns primary the EZ I2C slave address.
 411:Generated_Source\PSoC4/SCB_EZI2C.c **** *  This address is the 7-bit right-justified slave address and does not include 
 412:Generated_Source\PSoC4/SCB_EZI2C.c **** *  the R/W bit.
 413:Generated_Source\PSoC4/SCB_EZI2C.c **** *
 414:Generated_Source\PSoC4/SCB_EZI2C.c **** * \return
 415:Generated_Source\PSoC4/SCB_EZI2C.c **** *  Primary EZI2C slave address.
 416:Generated_Source\PSoC4/SCB_EZI2C.c **** *
 417:Generated_Source\PSoC4/SCB_EZI2C.c **** * \globalvars
 418:Generated_Source\PSoC4/SCB_EZI2C.c **** *  SCB_addrBuf1 - used to store the primary 7-bit slave address 
 419:Generated_Source\PSoC4/SCB_EZI2C.c **** *  value.
 420:Generated_Source\PSoC4/SCB_EZI2C.c **** *
 421:Generated_Source\PSoC4/SCB_EZI2C.c **** *******************************************************************************/
 422:Generated_Source\PSoC4/SCB_EZI2C.c **** uint32 SCB_EzI2CGetAddress1(void)
 423:Generated_Source\PSoC4/SCB_EZI2C.c **** {
 312              		.loc 1 423 0
 313              		.cfi_startproc
 314              		@ args = 0, pretend = 0, frame = 8
 315              		@ frame_needed = 1, uses_anonymous_args = 0
 316 0000 80B5     		push	{r7, lr}
 317              		.cfi_def_cfa_offset 8
 318              		.cfi_offset 7, -8
ARM GAS  C:\Users\ROUSSMA\AppData\Local\Temp\ccQYW0G6.s 			page 14


 319              		.cfi_offset 14, -4
 320 0002 82B0     		sub	sp, sp, #8
 321              		.cfi_def_cfa_offset 16
 322 0004 00AF     		add	r7, sp, #0
 323              		.cfi_def_cfa_register 7
 424:Generated_Source\PSoC4/SCB_EZI2C.c ****     uint32 address;
 425:Generated_Source\PSoC4/SCB_EZI2C.c **** 
 426:Generated_Source\PSoC4/SCB_EZI2C.c ****     #if(SCB_SECONDARY_ADDRESS_ENABLE)
 427:Generated_Source\PSoC4/SCB_EZI2C.c ****     {
 428:Generated_Source\PSoC4/SCB_EZI2C.c ****         address = (uint32) SCB_addrBuf1;
 429:Generated_Source\PSoC4/SCB_EZI2C.c ****     }
 430:Generated_Source\PSoC4/SCB_EZI2C.c ****     #else
 431:Generated_Source\PSoC4/SCB_EZI2C.c ****     {
 432:Generated_Source\PSoC4/SCB_EZI2C.c ****         address = (SCB_GET_RX_MATCH_ADDR(SCB_RX_MATCH_REG) >>
 324              		.loc 1 432 0
 325 0006 054B     		ldr	r3, .L16
 326 0008 1B68     		ldr	r3, [r3]
 327 000a FF22     		movs	r2, #255
 328 000c 1340     		ands	r3, r2
 329 000e 5B08     		lsrs	r3, r3, #1
 330 0010 7B60     		str	r3, [r7, #4]
 433:Generated_Source\PSoC4/SCB_EZI2C.c ****                    SCB_I2C_SLAVE_ADDR_POS);
 434:Generated_Source\PSoC4/SCB_EZI2C.c ****     }
 435:Generated_Source\PSoC4/SCB_EZI2C.c ****     #endif
 436:Generated_Source\PSoC4/SCB_EZI2C.c **** 
 437:Generated_Source\PSoC4/SCB_EZI2C.c ****     return(address);
 331              		.loc 1 437 0
 332 0012 7B68     		ldr	r3, [r7, #4]
 438:Generated_Source\PSoC4/SCB_EZI2C.c **** }
 333              		.loc 1 438 0
 334 0014 1800     		movs	r0, r3
 335 0016 BD46     		mov	sp, r7
 336 0018 02B0     		add	sp, sp, #8
 337              		@ sp needed
 338 001a 80BD     		pop	{r7, pc}
 339              	.L17:
 340              		.align	2
 341              	.L16:
 342 001c 10032540 		.word	1076167440
 343              		.cfi_endproc
 344              	.LFE6:
 345              		.size	SCB_EzI2CGetAddress1, .-SCB_EzI2CGetAddress1
 346              		.section	.text.SCB_EzI2CSetBuffer1,"ax",%progbits
 347              		.align	2
 348              		.global	SCB_EzI2CSetBuffer1
 349              		.code	16
 350              		.thumb_func
 351              		.type	SCB_EzI2CSetBuffer1, %function
 352              	SCB_EzI2CSetBuffer1:
 353              	.LFB7:
 439:Generated_Source\PSoC4/SCB_EZI2C.c **** 
 440:Generated_Source\PSoC4/SCB_EZI2C.c **** 
 441:Generated_Source\PSoC4/SCB_EZI2C.c **** /*******************************************************************************
 442:Generated_Source\PSoC4/SCB_EZI2C.c **** * Function Name: SCB_EzI2CSetBuffer1
 443:Generated_Source\PSoC4/SCB_EZI2C.c **** ****************************************************************************//**
 444:Generated_Source\PSoC4/SCB_EZI2C.c **** *
 445:Generated_Source\PSoC4/SCB_EZI2C.c **** *  Sets up the data buffer to be exposed to the I2C master on a primary slave
ARM GAS  C:\Users\ROUSSMA\AppData\Local\Temp\ccQYW0G6.s 			page 15


 446:Generated_Source\PSoC4/SCB_EZI2C.c **** *  address request.
 447:Generated_Source\PSoC4/SCB_EZI2C.c **** *
 448:Generated_Source\PSoC4/SCB_EZI2C.c **** * \param bufSize: Size of the buffer in bytes.
 449:Generated_Source\PSoC4/SCB_EZI2C.c **** * \param rwBoundary: Number of data bytes starting from the beginning of the 
 450:Generated_Source\PSoC4/SCB_EZI2C.c **** *  buffer with read and write access. Data bytes located at offset rwBoundary 
 451:Generated_Source\PSoC4/SCB_EZI2C.c **** *  or greater are read only.
 452:Generated_Source\PSoC4/SCB_EZI2C.c **** *  This value must be less than or equal to the buffer size.
 453:Generated_Source\PSoC4/SCB_EZI2C.c **** * \param buffer: Pointer to the data buffer.
 454:Generated_Source\PSoC4/SCB_EZI2C.c **** *
 455:Generated_Source\PSoC4/SCB_EZI2C.c **** * \sideeffect
 456:Generated_Source\PSoC4/SCB_EZI2C.c **** *  Calling this function in the middle of a transaction intended for the 
 457:Generated_Source\PSoC4/SCB_EZI2C.c **** *  primary slave address leads to unexpected behavior.
 458:Generated_Source\PSoC4/SCB_EZI2C.c **** *
 459:Generated_Source\PSoC4/SCB_EZI2C.c **** * \globalvars
 460:Generated_Source\PSoC4/SCB_EZI2C.c **** *  SCB_dataBuffer1 – the pointer to the buffer to be exposed to the
 461:Generated_Source\PSoC4/SCB_EZI2C.c **** *  master on a primary address.
 462:Generated_Source\PSoC4/SCB_EZI2C.c **** *  SCB_bufSizeBuf1 - the size of the buffer to be exposed to the 
 463:Generated_Source\PSoC4/SCB_EZI2C.c **** *  master on a primary address.
 464:Generated_Source\PSoC4/SCB_EZI2C.c **** *  SCB_protectBuf1 - the start index of the read-only region in the
 465:Generated_Source\PSoC4/SCB_EZI2C.c **** *  buffer to be exposed to the master on a primary address. The read-only region
 466:Generated_Source\PSoC4/SCB_EZI2C.c **** *  continues up to the end the buffer.
 467:Generated_Source\PSoC4/SCB_EZI2C.c **** *
 468:Generated_Source\PSoC4/SCB_EZI2C.c **** *******************************************************************************/
 469:Generated_Source\PSoC4/SCB_EZI2C.c **** void SCB_EzI2CSetBuffer1(uint32 bufSize, uint32 rwBoundary, volatile uint8 * buffer)
 470:Generated_Source\PSoC4/SCB_EZI2C.c **** {
 354              		.loc 1 470 0
 355              		.cfi_startproc
 356              		@ args = 0, pretend = 0, frame = 16
 357              		@ frame_needed = 1, uses_anonymous_args = 0
 358 0000 80B5     		push	{r7, lr}
 359              		.cfi_def_cfa_offset 8
 360              		.cfi_offset 7, -8
 361              		.cfi_offset 14, -4
 362 0002 84B0     		sub	sp, sp, #16
 363              		.cfi_def_cfa_offset 24
 364 0004 00AF     		add	r7, sp, #0
 365              		.cfi_def_cfa_register 7
 366 0006 F860     		str	r0, [r7, #12]
 367 0008 B960     		str	r1, [r7, #8]
 368 000a 7A60     		str	r2, [r7, #4]
 471:Generated_Source\PSoC4/SCB_EZI2C.c ****     if (NULL != buffer)
 369              		.loc 1 471 0
 370 000c 7B68     		ldr	r3, [r7, #4]
 371 000e 002B     		cmp	r3, #0
 372 0010 10D0     		beq	.L20
 472:Generated_Source\PSoC4/SCB_EZI2C.c ****     {
 473:Generated_Source\PSoC4/SCB_EZI2C.c ****         SCB_DisableInt();  /* Lock from interruption */
 373              		.loc 1 473 0
 374 0012 0A20     		movs	r0, #10
 375 0014 FFF7FEFF 		bl	CyIntDisable
 474:Generated_Source\PSoC4/SCB_EZI2C.c **** 
 475:Generated_Source\PSoC4/SCB_EZI2C.c ****         SCB_dataBuffer1 =  buffer;
 376              		.loc 1 475 0
 377 0018 084B     		ldr	r3, .L21
 378 001a 7A68     		ldr	r2, [r7, #4]
 379 001c 1A60     		str	r2, [r3]
 476:Generated_Source\PSoC4/SCB_EZI2C.c ****         SCB_bufSizeBuf1 = (uint16) bufSize;
ARM GAS  C:\Users\ROUSSMA\AppData\Local\Temp\ccQYW0G6.s 			page 16


 380              		.loc 1 476 0
 381 001e FB68     		ldr	r3, [r7, #12]
 382 0020 9AB2     		uxth	r2, r3
 383 0022 074B     		ldr	r3, .L21+4
 384 0024 1A80     		strh	r2, [r3]
 477:Generated_Source\PSoC4/SCB_EZI2C.c ****         SCB_protectBuf1 = (uint16) rwBoundary;
 385              		.loc 1 477 0
 386 0026 BB68     		ldr	r3, [r7, #8]
 387 0028 9AB2     		uxth	r2, r3
 388 002a 064B     		ldr	r3, .L21+8
 389 002c 1A80     		strh	r2, [r3]
 478:Generated_Source\PSoC4/SCB_EZI2C.c **** 
 479:Generated_Source\PSoC4/SCB_EZI2C.c ****         SCB_EnableInt();   /* Release lock */
 390              		.loc 1 479 0
 391 002e 0A20     		movs	r0, #10
 392 0030 FFF7FEFF 		bl	CyIntEnable
 393              	.L20:
 480:Generated_Source\PSoC4/SCB_EZI2C.c ****     }
 481:Generated_Source\PSoC4/SCB_EZI2C.c **** }
 394              		.loc 1 481 0
 395 0034 C046     		nop
 396 0036 BD46     		mov	sp, r7
 397 0038 04B0     		add	sp, sp, #16
 398              		@ sp needed
 399 003a 80BD     		pop	{r7, pc}
 400              	.L22:
 401              		.align	2
 402              	.L21:
 403 003c 00000000 		.word	SCB_dataBuffer1
 404 0040 00000000 		.word	SCB_bufSizeBuf1
 405 0044 00000000 		.word	SCB_protectBuf1
 406              		.cfi_endproc
 407              	.LFE7:
 408              		.size	SCB_EzI2CSetBuffer1, .-SCB_EzI2CSetBuffer1
 409              		.section	.text.SCB_EzI2CSetReadBoundaryBuffer1,"ax",%progbits
 410              		.align	2
 411              		.global	SCB_EzI2CSetReadBoundaryBuffer1
 412              		.code	16
 413              		.thumb_func
 414              		.type	SCB_EzI2CSetReadBoundaryBuffer1, %function
 415              	SCB_EzI2CSetReadBoundaryBuffer1:
 416              	.LFB8:
 482:Generated_Source\PSoC4/SCB_EZI2C.c **** 
 483:Generated_Source\PSoC4/SCB_EZI2C.c **** 
 484:Generated_Source\PSoC4/SCB_EZI2C.c **** /*******************************************************************************
 485:Generated_Source\PSoC4/SCB_EZI2C.c **** * Function Name: SCB_EzI2CSetReadBoundaryBuffer1
 486:Generated_Source\PSoC4/SCB_EZI2C.c **** ****************************************************************************//**
 487:Generated_Source\PSoC4/SCB_EZI2C.c **** *
 488:Generated_Source\PSoC4/SCB_EZI2C.c **** *  Sets the read only boundary in the data buffer to be exposed to the I2C
 489:Generated_Source\PSoC4/SCB_EZI2C.c **** *  master on a primary slave address request.
 490:Generated_Source\PSoC4/SCB_EZI2C.c **** *
 491:Generated_Source\PSoC4/SCB_EZI2C.c **** * \param rwBoundry: Number of data bytes starting from the beginning of the 
 492:Generated_Source\PSoC4/SCB_EZI2C.c **** *  buffer with read and write access. Data bytes located at offset rwBoundary 
 493:Generated_Source\PSoC4/SCB_EZI2C.c **** *  or greater are read only.
 494:Generated_Source\PSoC4/SCB_EZI2C.c **** *  This value must be less than or equal to the buffer size.
 495:Generated_Source\PSoC4/SCB_EZI2C.c **** *
 496:Generated_Source\PSoC4/SCB_EZI2C.c **** * \sideeffect
ARM GAS  C:\Users\ROUSSMA\AppData\Local\Temp\ccQYW0G6.s 			page 17


 497:Generated_Source\PSoC4/SCB_EZI2C.c **** *  Calling this function in the middle of a transaction intended for the 
 498:Generated_Source\PSoC4/SCB_EZI2C.c **** *  primary slave address leads to unexpected behavior.
 499:Generated_Source\PSoC4/SCB_EZI2C.c **** *
 500:Generated_Source\PSoC4/SCB_EZI2C.c **** * \globalvars
 501:Generated_Source\PSoC4/SCB_EZI2C.c **** *  SCB_protectBuf1 - the start index of the read-only region in the
 502:Generated_Source\PSoC4/SCB_EZI2C.c **** *  buffer to be exposed to the master on a primary address. The read-only region
 503:Generated_Source\PSoC4/SCB_EZI2C.c **** *  continues up to the end the buffer.
 504:Generated_Source\PSoC4/SCB_EZI2C.c **** *
 505:Generated_Source\PSoC4/SCB_EZI2C.c **** *******************************************************************************/
 506:Generated_Source\PSoC4/SCB_EZI2C.c **** void SCB_EzI2CSetReadBoundaryBuffer1(uint32 rwBoundary)
 507:Generated_Source\PSoC4/SCB_EZI2C.c **** {
 417              		.loc 1 507 0
 418              		.cfi_startproc
 419              		@ args = 0, pretend = 0, frame = 8
 420              		@ frame_needed = 1, uses_anonymous_args = 0
 421 0000 80B5     		push	{r7, lr}
 422              		.cfi_def_cfa_offset 8
 423              		.cfi_offset 7, -8
 424              		.cfi_offset 14, -4
 425 0002 82B0     		sub	sp, sp, #8
 426              		.cfi_def_cfa_offset 16
 427 0004 00AF     		add	r7, sp, #0
 428              		.cfi_def_cfa_register 7
 429 0006 7860     		str	r0, [r7, #4]
 508:Generated_Source\PSoC4/SCB_EZI2C.c ****     SCB_protectBuf1 = (uint16) rwBoundary;
 430              		.loc 1 508 0
 431 0008 7B68     		ldr	r3, [r7, #4]
 432 000a 9AB2     		uxth	r2, r3
 433 000c 024B     		ldr	r3, .L24
 434 000e 1A80     		strh	r2, [r3]
 509:Generated_Source\PSoC4/SCB_EZI2C.c **** }
 435              		.loc 1 509 0
 436 0010 C046     		nop
 437 0012 BD46     		mov	sp, r7
 438 0014 02B0     		add	sp, sp, #8
 439              		@ sp needed
 440 0016 80BD     		pop	{r7, pc}
 441              	.L25:
 442              		.align	2
 443              	.L24:
 444 0018 00000000 		.word	SCB_protectBuf1
 445              		.cfi_endproc
 446              	.LFE8:
 447              		.size	SCB_EzI2CSetReadBoundaryBuffer1, .-SCB_EzI2CSetReadBoundaryBuffer1
 448              		.text
 449              	.Letext0:
 450              		.file 2 "Generated_Source\\PSoC4/cytypes.h"