ARM GAS  C:\Users\ROUSSMA\AppData\Local\Temp\cc3gA5P4.s 			page 1


   1              		.syntax unified
   2              		.cpu cortex-m0
   3              		.fpu softvfp
   4              		.eabi_attribute 20, 1
   5              		.eabi_attribute 21, 1
   6              		.eabi_attribute 23, 3
   7              		.eabi_attribute 24, 1
   8              		.eabi_attribute 25, 1
   9              		.eabi_attribute 26, 1
  10              		.eabi_attribute 30, 6
  11              		.eabi_attribute 34, 0
  12              		.eabi_attribute 18, 4
  13              		.thumb
  14              		.syntax unified
  15              		.file	"BLE_1_eventHandler.c"
  16              		.text
  17              	.Ltext0:
  18              		.cfi_sections	.debug_frame
  19              		.comm	cyBle_connHandle,2,4
  20              		.comm	cyBle_eventHandlerFlag,1,1
  21              		.comm	cyBle_busyStatus,1,1
  22              		.global	cyBle_gaps
  23              		.section	.rodata
  24              		.align	2
  25              		.type	cyBle_gaps, %object
  26              		.size	cyBle_gaps, 12
  27              	cyBle_gaps:
  28 0000 0100     		.short	1
  29 0002 0300     		.short	3
  30 0004 0500     		.short	5
  31 0006 0700     		.short	7
  32 0008 0900     		.short	9
  33 000a 0B00     		.short	11
  34              		.comm	cyBle_advertisingIntervalType,1,1
  35              		.global	cyBle_authInfo
  36              		.data
  37              		.align	2
  38              		.type	cyBle_authInfo, %object
  39              		.size	cyBle_authInfo, 5
  40              	cyBle_authInfo:
  41 0000 10       		.byte	16
  42 0001 00       		.byte	0
  43 0002 10       		.byte	16
  44 0003 00       		.byte	0
  45 0004 00       		.byte	0
  46              		.section	.text.CyBle_WriteReqHandler,"ax",%progbits
  47              		.align	2
  48              		.code	16
  49              		.thumb_func
  50              		.type	CyBle_WriteReqHandler, %function
  51              	CyBle_WriteReqHandler:
  52              	.LFB2:
  53              		.file 1 "Generated_Source\\PSoC4\\BLE_1_eventHandler.c"
   1:Generated_Source\PSoC4/BLE_1_eventHandler.c **** /***************************************************************************//**
   2:Generated_Source\PSoC4/BLE_1_eventHandler.c **** * \file CYBLE_eventHandler.c
   3:Generated_Source\PSoC4/BLE_1_eventHandler.c **** * \version 3.30
   4:Generated_Source\PSoC4/BLE_1_eventHandler.c **** * 
ARM GAS  C:\Users\ROUSSMA\AppData\Local\Temp\cc3gA5P4.s 			page 2


   5:Generated_Source\PSoC4/BLE_1_eventHandler.c **** * \brief
   6:Generated_Source\PSoC4/BLE_1_eventHandler.c **** *  This file contains the source code for the Event Handler State Machine
   7:Generated_Source\PSoC4/BLE_1_eventHandler.c **** *  of the BLE Component.
   8:Generated_Source\PSoC4/BLE_1_eventHandler.c **** * 
   9:Generated_Source\PSoC4/BLE_1_eventHandler.c **** ********************************************************************************
  10:Generated_Source\PSoC4/BLE_1_eventHandler.c **** * \copyright
  11:Generated_Source\PSoC4/BLE_1_eventHandler.c **** * Copyright 2014-2016, Cypress Semiconductor Corporation.  All rights reserved.
  12:Generated_Source\PSoC4/BLE_1_eventHandler.c **** * You may use this file only in accordance with the license, terms, conditions,
  13:Generated_Source\PSoC4/BLE_1_eventHandler.c **** * disclaimers, and limitations in the end user license agreement accompanying
  14:Generated_Source\PSoC4/BLE_1_eventHandler.c **** * the software package with which this file was provided.
  15:Generated_Source\PSoC4/BLE_1_eventHandler.c **** *******************************************************************************/
  16:Generated_Source\PSoC4/BLE_1_eventHandler.c **** 
  17:Generated_Source\PSoC4/BLE_1_eventHandler.c **** #include "BLE_1_eventHandler.h"
  18:Generated_Source\PSoC4/BLE_1_eventHandler.c **** 
  19:Generated_Source\PSoC4/BLE_1_eventHandler.c **** 
  20:Generated_Source\PSoC4/BLE_1_eventHandler.c **** /***************************************
  21:Generated_Source\PSoC4/BLE_1_eventHandler.c **** * Private Function Prototypes
  22:Generated_Source\PSoC4/BLE_1_eventHandler.c **** ***************************************/
  23:Generated_Source\PSoC4/BLE_1_eventHandler.c **** 
  24:Generated_Source\PSoC4/BLE_1_eventHandler.c **** static void CyBle_GattDisconnectEventHandler(void);
  25:Generated_Source\PSoC4/BLE_1_eventHandler.c **** static void CyBle_TimeOutEventHandler(const CYBLE_TO_REASON_CODE_T *eventParam);
  26:Generated_Source\PSoC4/BLE_1_eventHandler.c **** static void CyBle_GattConnectReqHandler(void);
  27:Generated_Source\PSoC4/BLE_1_eventHandler.c **** static void CyBle_L2Cap_ConnParamUpdateRspEventHandler(uint16 response);
  28:Generated_Source\PSoC4/BLE_1_eventHandler.c **** static void CyBle_GapConnUpdateCompleteEventHandler(const CYBLE_GAP_CONN_PARAM_UPDATED_IN_CONTROLLE
  29:Generated_Source\PSoC4/BLE_1_eventHandler.c **** 
  30:Generated_Source\PSoC4/BLE_1_eventHandler.c **** 
  31:Generated_Source\PSoC4/BLE_1_eventHandler.c **** #if (CYBLE_GATT_ROLE_SERVER)
  32:Generated_Source\PSoC4/BLE_1_eventHandler.c **** 
  33:Generated_Source\PSoC4/BLE_1_eventHandler.c **** static void CyBle_WriteReqHandler(CYBLE_GATTS_WRITE_REQ_PARAM_T *eventParam);
  34:Generated_Source\PSoC4/BLE_1_eventHandler.c **** static void CyBle_ValueConfirmation(const CYBLE_CONN_HANDLE_T *eventParam);
  35:Generated_Source\PSoC4/BLE_1_eventHandler.c **** 
  36:Generated_Source\PSoC4/BLE_1_eventHandler.c **** #endif /* CYBLE_GATT_ROLE_SERVER */
  37:Generated_Source\PSoC4/BLE_1_eventHandler.c **** 
  38:Generated_Source\PSoC4/BLE_1_eventHandler.c **** #if (CYBLE_GATT_ROLE_CLIENT)
  39:Generated_Source\PSoC4/BLE_1_eventHandler.c **** 
  40:Generated_Source\PSoC4/BLE_1_eventHandler.c **** static void CyBle_GapcDiscoverCharacteristicsEventHandler(CYBLE_DISC_CHAR_INFO_T *discCharInfo);
  41:Generated_Source\PSoC4/BLE_1_eventHandler.c **** static CYBLE_GATT_ATTR_HANDLE_RANGE_T CyBle_GetCharRange(void);
  42:Generated_Source\PSoC4/BLE_1_eventHandler.c **** static void CyBle_GattcWriteResponseEventHandler(const CYBLE_CONN_HANDLE_T *eventParam);
  43:Generated_Source\PSoC4/BLE_1_eventHandler.c **** static void CyBle_NotificationEventHandler(CYBLE_GATTC_HANDLE_VALUE_NTF_PARAM_T *eventParam);
  44:Generated_Source\PSoC4/BLE_1_eventHandler.c **** static void CyBle_IndicationEventHandler(CYBLE_GATTC_HANDLE_VALUE_IND_PARAM_T *eventParam);
  45:Generated_Source\PSoC4/BLE_1_eventHandler.c **** static void CyBle_ReadResponseEventHandler(CYBLE_GATTC_READ_RSP_PARAM_T *eventParam);
  46:Generated_Source\PSoC4/BLE_1_eventHandler.c **** static void CyBle_ReadMultipleResponseEventHandler(CYBLE_GATTC_READ_RSP_PARAM_T *eventParam);
  47:Generated_Source\PSoC4/BLE_1_eventHandler.c **** 
  48:Generated_Source\PSoC4/BLE_1_eventHandler.c **** #endif /* CYBLE_GATT_ROLE_CLIENT */
  49:Generated_Source\PSoC4/BLE_1_eventHandler.c **** 
  50:Generated_Source\PSoC4/BLE_1_eventHandler.c **** 
  51:Generated_Source\PSoC4/BLE_1_eventHandler.c **** /***************************************
  52:Generated_Source\PSoC4/BLE_1_eventHandler.c **** * Global Variables
  53:Generated_Source\PSoC4/BLE_1_eventHandler.c **** ***************************************/
  54:Generated_Source\PSoC4/BLE_1_eventHandler.c **** 
  55:Generated_Source\PSoC4/BLE_1_eventHandler.c **** /* This global variable is initialized after connection with peer device, 
  56:Generated_Source\PSoC4/BLE_1_eventHandler.c ****    after CYBLE_EVT_GATT_CONNECT_IND event, and could be used by application code
  57:Generated_Source\PSoC4/BLE_1_eventHandler.c ****    to send data to peer device. 
  58:Generated_Source\PSoC4/BLE_1_eventHandler.c **** */
  59:Generated_Source\PSoC4/BLE_1_eventHandler.c **** CYBLE_CONN_HANDLE_T cyBle_connHandle;
  60:Generated_Source\PSoC4/BLE_1_eventHandler.c **** 
  61:Generated_Source\PSoC4/BLE_1_eventHandler.c **** volatile uint8 cyBle_eventHandlerFlag;
ARM GAS  C:\Users\ROUSSMA\AppData\Local\Temp\cc3gA5P4.s 			page 3


  62:Generated_Source\PSoC4/BLE_1_eventHandler.c **** volatile uint8 cyBle_busyStatus;
  63:Generated_Source\PSoC4/BLE_1_eventHandler.c **** 
  64:Generated_Source\PSoC4/BLE_1_eventHandler.c **** const CYBLE_GAPS_T cyBle_gaps =
  65:Generated_Source\PSoC4/BLE_1_eventHandler.c **** {
  66:Generated_Source\PSoC4/BLE_1_eventHandler.c ****     0x0001u,    /* Handle of the GAP service */
  67:Generated_Source\PSoC4/BLE_1_eventHandler.c ****     0x0003u,    /* Handle of the Device Name characteristic */
  68:Generated_Source\PSoC4/BLE_1_eventHandler.c ****     0x0005u,    /* Handle of the Appearance characteristic */
  69:Generated_Source\PSoC4/BLE_1_eventHandler.c ****     0x0007u,    /* Handle of the Peripheral Preferred Connection Parameters characteristic */
  70:Generated_Source\PSoC4/BLE_1_eventHandler.c ****     0x0009u,    /* Handle of the Central Address Resolution characteristic */
  71:Generated_Source\PSoC4/BLE_1_eventHandler.c ****     0x000Bu,    /* Handle of the Resolvable Private Address Only characteristic */
  72:Generated_Source\PSoC4/BLE_1_eventHandler.c **** };
  73:Generated_Source\PSoC4/BLE_1_eventHandler.c **** 
  74:Generated_Source\PSoC4/BLE_1_eventHandler.c **** 
  75:Generated_Source\PSoC4/BLE_1_eventHandler.c **** #if(CYBLE_GAP_ROLE_PERIPHERAL || CYBLE_GAP_ROLE_BROADCASTER) 
  76:Generated_Source\PSoC4/BLE_1_eventHandler.c ****     uint8 cyBle_advertisingIntervalType;
  77:Generated_Source\PSoC4/BLE_1_eventHandler.c **** #endif /* CYBLE_GAP_ROLE_PERIPHERAL || CYBLE_GAP_ROLE_BROADCASTER) */
  78:Generated_Source\PSoC4/BLE_1_eventHandler.c **** 
  79:Generated_Source\PSoC4/BLE_1_eventHandler.c **** #if(CYBLE_GAP_ROLE_CENTRAL || CYBLE_GAP_ROLE_OBSERVER) 
  80:Generated_Source\PSoC4/BLE_1_eventHandler.c ****     uint8 cyBle_scanningIntervalType;
  81:Generated_Source\PSoC4/BLE_1_eventHandler.c **** #endif /* CYBLE_GAP_ROLE_CENTRAL || CYBLE_GAP_ROLE_OBSERVER */
  82:Generated_Source\PSoC4/BLE_1_eventHandler.c **** 
  83:Generated_Source\PSoC4/BLE_1_eventHandler.c **** #if(CYBLE_GATT_ROLE_SERVER)
  84:Generated_Source\PSoC4/BLE_1_eventHandler.c **** #if defined CYBLE_CTS_SERVER || defined CYBLE_ESS_SERVER
  85:Generated_Source\PSoC4/BLE_1_eventHandler.c **** CYBLE_GATT_ERR_CODE_T cyBle_gattError;
  86:Generated_Source\PSoC4/BLE_1_eventHandler.c **** #endif /* defined CYBLE_CTS_SERVER || defined CYBLE_ESS_SERVER */
  87:Generated_Source\PSoC4/BLE_1_eventHandler.c **** #endif /* CYBLE_GATT_ROLE_SERVER */
  88:Generated_Source\PSoC4/BLE_1_eventHandler.c **** 
  89:Generated_Source\PSoC4/BLE_1_eventHandler.c **** #if(CYBLE_GATT_ROLE_CLIENT)
  90:Generated_Source\PSoC4/BLE_1_eventHandler.c **** uint8 cyBle_disCount; /* Counter for discovery procedures */
  91:Generated_Source\PSoC4/BLE_1_eventHandler.c **** 
  92:Generated_Source\PSoC4/BLE_1_eventHandler.c **** #ifdef CYBLE_CUSTOM_CLIENT
  93:Generated_Source\PSoC4/BLE_1_eventHandler.c **** /* Discovery included service information, used for 128-bit UUID read response handle 
  94:Generated_Source\PSoC4/BLE_1_eventHandler.c ****    and for continue discovery. 
  95:Generated_Source\PSoC4/BLE_1_eventHandler.c **** */
  96:Generated_Source\PSoC4/BLE_1_eventHandler.c **** static CYBLE_DISC_INCL_INFO_T cyBle_discInclInfo;
  97:Generated_Source\PSoC4/BLE_1_eventHandler.c **** #endif /* CYBLE_CUSTOM_CLIENT */
  98:Generated_Source\PSoC4/BLE_1_eventHandler.c **** 
  99:Generated_Source\PSoC4/BLE_1_eventHandler.c **** #ifdef CYBLE_HIDS_CLIENT
 100:Generated_Source\PSoC4/BLE_1_eventHandler.c ****     static uint8 disServiceIndex;      /* To discovery descriptors for multiple HID service instanc
 101:Generated_Source\PSoC4/BLE_1_eventHandler.c **** #endif /* CYBLE_HIDS_CLIENT */
 102:Generated_Source\PSoC4/BLE_1_eventHandler.c **** 
 103:Generated_Source\PSoC4/BLE_1_eventHandler.c **** CYBLE_DISC_SRVC_INFO_T cyBle_serverInfo[CYBLE_SRVI_COUNT] = /*3*/
 104:Generated_Source\PSoC4/BLE_1_eventHandler.c **** {
 105:Generated_Source\PSoC4/BLE_1_eventHandler.c ****     {{CYBLE_GATT_INVALID_ATTR_HANDLE_VALUE, CYBLE_GATT_INVALID_ATTR_HANDLE_VALUE}, CYBLE_UUID_GAP_S
 106:Generated_Source\PSoC4/BLE_1_eventHandler.c ****     {{CYBLE_GATT_INVALID_ATTR_HANDLE_VALUE, CYBLE_GATT_INVALID_ATTR_HANDLE_VALUE}, CYBLE_UUID_GATT_
 107:Generated_Source\PSoC4/BLE_1_eventHandler.c **** #ifdef CYBLE_AIOS_CLIENT
 108:Generated_Source\PSoC4/BLE_1_eventHandler.c ****     {{CYBLE_GATT_INVALID_ATTR_HANDLE_VALUE, CYBLE_GATT_INVALID_ATTR_HANDLE_VALUE}, CYBLE_UUID_AUTOM
 109:Generated_Source\PSoC4/BLE_1_eventHandler.c **** #endif /* CYBLE_BCS_CLIENT */
 110:Generated_Source\PSoC4/BLE_1_eventHandler.c **** #ifdef CYBLE_ANCS_CLIENT
 111:Generated_Source\PSoC4/BLE_1_eventHandler.c ****     {{CYBLE_GATT_INVALID_ATTR_HANDLE_VALUE, CYBLE_GATT_INVALID_ATTR_HANDLE_VALUE}, 0x0000u},
 112:Generated_Source\PSoC4/BLE_1_eventHandler.c **** #endif /* CYBLE_ANCS_CLIENT */
 113:Generated_Source\PSoC4/BLE_1_eventHandler.c **** #ifdef CYBLE_ANS_CLIENT
 114:Generated_Source\PSoC4/BLE_1_eventHandler.c ****     {{CYBLE_GATT_INVALID_ATTR_HANDLE_VALUE, CYBLE_GATT_INVALID_ATTR_HANDLE_VALUE}, 
 115:Generated_Source\PSoC4/BLE_1_eventHandler.c ****         CYBLE_UUID_ALERT_NOTIFICATION_SERVICE},
 116:Generated_Source\PSoC4/BLE_1_eventHandler.c **** #endif /* CYBLE_ANS_CLIENT */
 117:Generated_Source\PSoC4/BLE_1_eventHandler.c **** #ifdef CYBLE_BAS_CLIENT
 118:Generated_Source\PSoC4/BLE_1_eventHandler.c ****     {{CYBLE_GATT_INVALID_ATTR_HANDLE_VALUE, CYBLE_GATT_INVALID_ATTR_HANDLE_VALUE}, CYBLE_UUID_BAS_S
ARM GAS  C:\Users\ROUSSMA\AppData\Local\Temp\cc3gA5P4.s 			page 4


 119:Generated_Source\PSoC4/BLE_1_eventHandler.c ****     #if(CYBLE_BASC_SERVICE_COUNT > 1u) /* Generate it by GUI */
 120:Generated_Source\PSoC4/BLE_1_eventHandler.c ****         
 121:Generated_Source\PSoC4/BLE_1_eventHandler.c ****     #endif /* CYBLE_BASC_SERVICE_COUNT > 1u */
 122:Generated_Source\PSoC4/BLE_1_eventHandler.c **** #endif /* CYBLE_BAS_CLIENT */
 123:Generated_Source\PSoC4/BLE_1_eventHandler.c **** #ifdef CYBLE_BCS_CLIENT
 124:Generated_Source\PSoC4/BLE_1_eventHandler.c ****     {{CYBLE_GATT_INVALID_ATTR_HANDLE_VALUE, CYBLE_GATT_INVALID_ATTR_HANDLE_VALUE}, CYBLE_UUID_BODY_
 125:Generated_Source\PSoC4/BLE_1_eventHandler.c **** #endif /* CYBLE_BCS_CLIENT */
 126:Generated_Source\PSoC4/BLE_1_eventHandler.c **** #ifdef CYBLE_BLS_CLIENT
 127:Generated_Source\PSoC4/BLE_1_eventHandler.c ****     {{CYBLE_GATT_INVALID_ATTR_HANDLE_VALUE, CYBLE_GATT_INVALID_ATTR_HANDLE_VALUE}, CYBLE_UUID_BLOOD
 128:Generated_Source\PSoC4/BLE_1_eventHandler.c **** #endif /* CYBLE_BLS_CLIENT */
 129:Generated_Source\PSoC4/BLE_1_eventHandler.c **** #ifdef CYBLE_BMS_CLIENT
 130:Generated_Source\PSoC4/BLE_1_eventHandler.c ****     {{CYBLE_GATT_INVALID_ATTR_HANDLE_VALUE, CYBLE_GATT_INVALID_ATTR_HANDLE_VALUE}, CYBLE_UUID_BOND_
 131:Generated_Source\PSoC4/BLE_1_eventHandler.c **** #endif /* CYBLE_BMS_CLIENT */
 132:Generated_Source\PSoC4/BLE_1_eventHandler.c **** #ifdef CYBLE_CGMS_CLIENT
 133:Generated_Source\PSoC4/BLE_1_eventHandler.c ****     {{CYBLE_GATT_INVALID_ATTR_HANDLE_VALUE, CYBLE_GATT_INVALID_ATTR_HANDLE_VALUE}, CYBLE_UUID_CGM_S
 134:Generated_Source\PSoC4/BLE_1_eventHandler.c **** #endif /* CYBLE_CGMS_CLIENT */
 135:Generated_Source\PSoC4/BLE_1_eventHandler.c **** #ifdef CYBLE_CPS_CLIENT
 136:Generated_Source\PSoC4/BLE_1_eventHandler.c ****     {{CYBLE_GATT_INVALID_ATTR_HANDLE_VALUE, CYBLE_GATT_INVALID_ATTR_HANDLE_VALUE}, CYBLE_UUID_CPS_S
 137:Generated_Source\PSoC4/BLE_1_eventHandler.c **** #endif /* CYBLE_CPS_CLIENT */
 138:Generated_Source\PSoC4/BLE_1_eventHandler.c **** #ifdef CYBLE_CSCS_CLIENT
 139:Generated_Source\PSoC4/BLE_1_eventHandler.c ****     {{CYBLE_GATT_INVALID_ATTR_HANDLE_VALUE, CYBLE_GATT_INVALID_ATTR_HANDLE_VALUE}, 
 140:Generated_Source\PSoC4/BLE_1_eventHandler.c ****         CYBLE_UUID_CYCLING_SPEED_AND_CADENCE_SERVICE},
 141:Generated_Source\PSoC4/BLE_1_eventHandler.c **** #endif /* CYBLE_CSCS_CLIENT */
 142:Generated_Source\PSoC4/BLE_1_eventHandler.c **** #ifdef CYBLE_CTS_CLIENT
 143:Generated_Source\PSoC4/BLE_1_eventHandler.c ****     {{CYBLE_GATT_INVALID_ATTR_HANDLE_VALUE, CYBLE_GATT_INVALID_ATTR_HANDLE_VALUE}, CYBLE_UUID_CURRE
 144:Generated_Source\PSoC4/BLE_1_eventHandler.c **** #endif /* CYBLE_CTS_CLIENT */
 145:Generated_Source\PSoC4/BLE_1_eventHandler.c **** #ifdef CYBLE_CUSTOM_CLIENT
 146:Generated_Source\PSoC4/BLE_1_eventHandler.c ****     
 147:Generated_Source\PSoC4/BLE_1_eventHandler.c **** #endif /* CYBLE_CUSTOM_CLIENT */
 148:Generated_Source\PSoC4/BLE_1_eventHandler.c **** #ifdef CYBLE_DIS_CLIENT
 149:Generated_Source\PSoC4/BLE_1_eventHandler.c ****     {{CYBLE_GATT_INVALID_ATTR_HANDLE_VALUE, CYBLE_GATT_INVALID_ATTR_HANDLE_VALUE}, CYBLE_UUID_DEVIC
 150:Generated_Source\PSoC4/BLE_1_eventHandler.c **** #endif /* CYBLE_DIS_CLIENT */
 151:Generated_Source\PSoC4/BLE_1_eventHandler.c **** #ifdef CYBLE_ESS_CLIENT
 152:Generated_Source\PSoC4/BLE_1_eventHandler.c ****     {{CYBLE_GATT_INVALID_ATTR_HANDLE_VALUE, CYBLE_GATT_INVALID_ATTR_HANDLE_VALUE}, 
 153:Generated_Source\PSoC4/BLE_1_eventHandler.c ****         CYBLE_UUID_ENVIRONMENTAL_SENSING_SERVICE},
 154:Generated_Source\PSoC4/BLE_1_eventHandler.c **** #endif /* CYBLE_ESS_CLIENT */
 155:Generated_Source\PSoC4/BLE_1_eventHandler.c **** #ifdef CYBLE_GLS_CLIENT
 156:Generated_Source\PSoC4/BLE_1_eventHandler.c ****     {{CYBLE_GATT_INVALID_ATTR_HANDLE_VALUE, CYBLE_GATT_INVALID_ATTR_HANDLE_VALUE}, CYBLE_UUID_GLUCO
 157:Generated_Source\PSoC4/BLE_1_eventHandler.c **** #endif /* CYBLE_GLS_CLIENT */
 158:Generated_Source\PSoC4/BLE_1_eventHandler.c **** #ifdef CYBLE_HIDS_CLIENT
 159:Generated_Source\PSoC4/BLE_1_eventHandler.c ****     {{CYBLE_GATT_INVALID_ATTR_HANDLE_VALUE, CYBLE_GATT_INVALID_ATTR_HANDLE_VALUE}, CYBLE_UUID_HIDS_
 160:Generated_Source\PSoC4/BLE_1_eventHandler.c ****     #if(CYBLE_HIDSC_SERVICE_COUNT > 1u) /* Generate it by GUI */
 161:Generated_Source\PSoC4/BLE_1_eventHandler.c ****         
 162:Generated_Source\PSoC4/BLE_1_eventHandler.c ****     #endif /* CYBLE_HIDSC_SERVICE_COUNT > 1u */
 163:Generated_Source\PSoC4/BLE_1_eventHandler.c **** #endif /* CYBLE_HIDS_CLIENT */
 164:Generated_Source\PSoC4/BLE_1_eventHandler.c **** #ifdef CYBLE_HPS_CLIENT
 165:Generated_Source\PSoC4/BLE_1_eventHandler.c ****     {{CYBLE_GATT_INVALID_ATTR_HANDLE_VALUE, CYBLE_GATT_INVALID_ATTR_HANDLE_VALUE}, CYBLE_UUID_HTTP_
 166:Generated_Source\PSoC4/BLE_1_eventHandler.c **** #endif /* CYBLE_HPS_CLIENT */
 167:Generated_Source\PSoC4/BLE_1_eventHandler.c **** #ifdef CYBLE_HRS_CLIENT
 168:Generated_Source\PSoC4/BLE_1_eventHandler.c ****     {{CYBLE_GATT_INVALID_ATTR_HANDLE_VALUE, CYBLE_GATT_INVALID_ATTR_HANDLE_VALUE}, CYBLE_UUID_HEART
 169:Generated_Source\PSoC4/BLE_1_eventHandler.c **** #endif /* CYBLE_HRS_CLIENT */
 170:Generated_Source\PSoC4/BLE_1_eventHandler.c **** #ifdef CYBLE_HTS_CLIENT
 171:Generated_Source\PSoC4/BLE_1_eventHandler.c ****     {{CYBLE_GATT_INVALID_ATTR_HANDLE_VALUE, CYBLE_GATT_INVALID_ATTR_HANDLE_VALUE}, CYBLE_UUID_HEALT
 172:Generated_Source\PSoC4/BLE_1_eventHandler.c **** #endif /* CYBLE_HTS_CLIENT */
 173:Generated_Source\PSoC4/BLE_1_eventHandler.c **** #ifdef CYBLE_IAS_CLIENT
 174:Generated_Source\PSoC4/BLE_1_eventHandler.c ****     {{CYBLE_GATT_INVALID_ATTR_HANDLE_VALUE, CYBLE_GATT_INVALID_ATTR_HANDLE_VALUE}, CYBLE_UUID_IMMED
 175:Generated_Source\PSoC4/BLE_1_eventHandler.c **** #endif /* CYBLE_IAS_CLIENT */
ARM GAS  C:\Users\ROUSSMA\AppData\Local\Temp\cc3gA5P4.s 			page 5


 176:Generated_Source\PSoC4/BLE_1_eventHandler.c **** #ifdef CYBLE_IPS_CLIENT
 177:Generated_Source\PSoC4/BLE_1_eventHandler.c ****     {{CYBLE_GATT_INVALID_ATTR_HANDLE_VALUE, CYBLE_GATT_INVALID_ATTR_HANDLE_VALUE}, CYBLE_UUID_IPS_S
 178:Generated_Source\PSoC4/BLE_1_eventHandler.c **** #endif /* CYBLE_IPS_CLIENT */
 179:Generated_Source\PSoC4/BLE_1_eventHandler.c **** #ifdef CYBLE_LLS_CLIENT
 180:Generated_Source\PSoC4/BLE_1_eventHandler.c ****     {{CYBLE_GATT_INVALID_ATTR_HANDLE_VALUE, CYBLE_GATT_INVALID_ATTR_HANDLE_VALUE}, CYBLE_UUID_LINK_
 181:Generated_Source\PSoC4/BLE_1_eventHandler.c **** #endif /* CYBLE_LLS_CLIENT */
 182:Generated_Source\PSoC4/BLE_1_eventHandler.c **** #ifdef CYBLE_LNS_CLIENT
 183:Generated_Source\PSoC4/BLE_1_eventHandler.c ****     {{CYBLE_GATT_INVALID_ATTR_HANDLE_VALUE, CYBLE_GATT_INVALID_ATTR_HANDLE_VALUE}, CYBLE_UUID_LOCAT
 184:Generated_Source\PSoC4/BLE_1_eventHandler.c **** #endif /* CYBLE_LNS_CLIENT */
 185:Generated_Source\PSoC4/BLE_1_eventHandler.c **** #ifdef CYBLE_NDCS_CLIENT
 186:Generated_Source\PSoC4/BLE_1_eventHandler.c ****     {{CYBLE_GATT_INVALID_ATTR_HANDLE_VALUE, CYBLE_GATT_INVALID_ATTR_HANDLE_VALUE}, CYBLE_UUID_NEXT_
 187:Generated_Source\PSoC4/BLE_1_eventHandler.c **** #endif /* CYBLE_NDCS_CLIENT */
 188:Generated_Source\PSoC4/BLE_1_eventHandler.c **** #ifdef CYBLE_IPSS_CLIENT
 189:Generated_Source\PSoC4/BLE_1_eventHandler.c ****     {{CYBLE_GATT_INVALID_ATTR_HANDLE_VALUE, CYBLE_GATT_INVALID_ATTR_HANDLE_VALUE}, CYBLE_UUID_INTER
 190:Generated_Source\PSoC4/BLE_1_eventHandler.c **** #endif /* CYBLE_IPSS_CLIENT */
 191:Generated_Source\PSoC4/BLE_1_eventHandler.c **** #ifdef CYBLE_PASS_CLIENT
 192:Generated_Source\PSoC4/BLE_1_eventHandler.c ****     {{CYBLE_GATT_INVALID_ATTR_HANDLE_VALUE, CYBLE_GATT_INVALID_ATTR_HANDLE_VALUE}, CYBLE_UUID_PHONE
 193:Generated_Source\PSoC4/BLE_1_eventHandler.c **** #endif /* CYBLE_PASS_CLIENT */
 194:Generated_Source\PSoC4/BLE_1_eventHandler.c **** #ifdef CYBLE_PLXS_CLIENT
 195:Generated_Source\PSoC4/BLE_1_eventHandler.c ****     {{CYBLE_GATT_INVALID_ATTR_HANDLE_VALUE, CYBLE_GATT_INVALID_ATTR_HANDLE_VALUE}, CYBLE_UUID_PLXS_
 196:Generated_Source\PSoC4/BLE_1_eventHandler.c **** #endif /* CYBLE_PLXS_CLIENT */
 197:Generated_Source\PSoC4/BLE_1_eventHandler.c **** #ifdef CYBLE_RSCS_CLIENT
 198:Generated_Source\PSoC4/BLE_1_eventHandler.c ****     {{CYBLE_GATT_INVALID_ATTR_HANDLE_VALUE, CYBLE_GATT_INVALID_ATTR_HANDLE_VALUE}, CYBLE_UUID_RUNNI
 199:Generated_Source\PSoC4/BLE_1_eventHandler.c **** #endif /* CYBLE_RSCS_CLIENT */
 200:Generated_Source\PSoC4/BLE_1_eventHandler.c **** #ifdef CYBLE_RTUS_CLIENT
 201:Generated_Source\PSoC4/BLE_1_eventHandler.c ****     {{CYBLE_GATT_INVALID_ATTR_HANDLE_VALUE, CYBLE_GATT_INVALID_ATTR_HANDLE_VALUE}, CYBLE_UUID_REF_T
 202:Generated_Source\PSoC4/BLE_1_eventHandler.c **** #endif /* CYBLE_RTUS_CLIENT */
 203:Generated_Source\PSoC4/BLE_1_eventHandler.c **** #ifdef CYBLE_SCPS_CLIENT
 204:Generated_Source\PSoC4/BLE_1_eventHandler.c ****     {{CYBLE_GATT_INVALID_ATTR_HANDLE_VALUE, CYBLE_GATT_INVALID_ATTR_HANDLE_VALUE}, CYBLE_UUID_SCAN_
 205:Generated_Source\PSoC4/BLE_1_eventHandler.c **** #endif /* CYBLE_SCPS_CLIENT */
 206:Generated_Source\PSoC4/BLE_1_eventHandler.c **** #ifdef CYBLE_TPS_CLIENT
 207:Generated_Source\PSoC4/BLE_1_eventHandler.c ****     {{CYBLE_GATT_INVALID_ATTR_HANDLE_VALUE, CYBLE_GATT_INVALID_ATTR_HANDLE_VALUE}, CYBLE_UUID_TX_PO
 208:Generated_Source\PSoC4/BLE_1_eventHandler.c **** #endif /* CYBLE_TPS_CLIENT */
 209:Generated_Source\PSoC4/BLE_1_eventHandler.c **** #ifdef CYBLE_UDS_CLIENT
 210:Generated_Source\PSoC4/BLE_1_eventHandler.c ****     {{CYBLE_GATT_INVALID_ATTR_HANDLE_VALUE, CYBLE_GATT_INVALID_ATTR_HANDLE_VALUE}, CYBLE_UUID_USER_
 211:Generated_Source\PSoC4/BLE_1_eventHandler.c **** #endif /* CYBLE_UDS_CLIENT */
 212:Generated_Source\PSoC4/BLE_1_eventHandler.c **** #ifdef CYBLE_WSS_CLIENT
 213:Generated_Source\PSoC4/BLE_1_eventHandler.c ****     {{CYBLE_GATT_INVALID_ATTR_HANDLE_VALUE, CYBLE_GATT_INVALID_ATTR_HANDLE_VALUE}, CYBLE_UUID_WEIGH
 214:Generated_Source\PSoC4/BLE_1_eventHandler.c **** #endif /* CYBLE_WSS_CLIENT */
 215:Generated_Source\PSoC4/BLE_1_eventHandler.c **** #ifdef CYBLE_WPTS_CLIENT
 216:Generated_Source\PSoC4/BLE_1_eventHandler.c ****     {{CYBLE_GATT_INVALID_ATTR_HANDLE_VALUE, CYBLE_GATT_INVALID_ATTR_HANDLE_VALUE}, CYBLE_UUID_WIREL
 217:Generated_Source\PSoC4/BLE_1_eventHandler.c **** #endif /* CYBLE_WPTS_CLIENT */
 218:Generated_Source\PSoC4/BLE_1_eventHandler.c **** };
 219:Generated_Source\PSoC4/BLE_1_eventHandler.c **** 
 220:Generated_Source\PSoC4/BLE_1_eventHandler.c **** CYBLE_GAPC_T cyBle_gapc;
 221:Generated_Source\PSoC4/BLE_1_eventHandler.c **** 
 222:Generated_Source\PSoC4/BLE_1_eventHandler.c **** #endif /* CYBLE_GATT_ROLE_CLIENT */
 223:Generated_Source\PSoC4/BLE_1_eventHandler.c **** 
 224:Generated_Source\PSoC4/BLE_1_eventHandler.c **** /* Default device security */
 225:Generated_Source\PSoC4/BLE_1_eventHandler.c **** CYBLE_GAP_AUTH_INFO_T cyBle_authInfo =
 226:Generated_Source\PSoC4/BLE_1_eventHandler.c **** {
 227:Generated_Source\PSoC4/BLE_1_eventHandler.c ****     (CYBLE_GAP_SEC_MODE_1 | CYBLE_GAP_SEC_LEVEL_1 ), /* uint8 security */
 228:Generated_Source\PSoC4/BLE_1_eventHandler.c ****     CYBLE_GAP_BONDING_NONE, /* uint8 bonding */
 229:Generated_Source\PSoC4/BLE_1_eventHandler.c ****     0x10u,      /* uint8 ekeySize */
 230:Generated_Source\PSoC4/BLE_1_eventHandler.c ****     CYBLE_GAP_AUTH_ERROR_NONE, /* CYBLE_AUTH_FAILED_REASON_T authErr */
 231:Generated_Source\PSoC4/BLE_1_eventHandler.c ****     0x00u,      /* uint8 pairingProperties */
 232:Generated_Source\PSoC4/BLE_1_eventHandler.c **** };
ARM GAS  C:\Users\ROUSSMA\AppData\Local\Temp\cc3gA5P4.s 			page 6


 233:Generated_Source\PSoC4/BLE_1_eventHandler.c **** 
 234:Generated_Source\PSoC4/BLE_1_eventHandler.c **** #if(CYBLE_GATT_ROLE_SERVER)
 235:Generated_Source\PSoC4/BLE_1_eventHandler.c **** 
 236:Generated_Source\PSoC4/BLE_1_eventHandler.c **** 
 237:Generated_Source\PSoC4/BLE_1_eventHandler.c **** /******************************************************************************    
 238:Generated_Source\PSoC4/BLE_1_eventHandler.c **** * Function Name: CyBle_WriteReqHandler
 239:Generated_Source\PSoC4/BLE_1_eventHandler.c **** ***************************************************************************//**
 240:Generated_Source\PSoC4/BLE_1_eventHandler.c **** * 
 241:Generated_Source\PSoC4/BLE_1_eventHandler.c **** *  Handles the Write Request event from BLE stack.
 242:Generated_Source\PSoC4/BLE_1_eventHandler.c **** * 
 243:Generated_Source\PSoC4/BLE_1_eventHandler.c **** *  CYBLE_GATTS_WRITE_REQ_PARAM_T * eventParam - event parameter
 244:Generated_Source\PSoC4/BLE_1_eventHandler.c **** * 
 245:Generated_Source\PSoC4/BLE_1_eventHandler.c **** * \return
 246:Generated_Source\PSoC4/BLE_1_eventHandler.c **** *  None
 247:Generated_Source\PSoC4/BLE_1_eventHandler.c **** * 
 248:Generated_Source\PSoC4/BLE_1_eventHandler.c **** ******************************************************************************/
 249:Generated_Source\PSoC4/BLE_1_eventHandler.c **** static void CyBle_WriteReqHandler(CYBLE_GATTS_WRITE_REQ_PARAM_T *eventParam)
 250:Generated_Source\PSoC4/BLE_1_eventHandler.c **** {
  54              		.loc 1 250 0
  55              		.cfi_startproc
  56              		@ args = 0, pretend = 0, frame = 16
  57              		@ frame_needed = 1, uses_anonymous_args = 0
  58 0000 90B5     		push	{r4, r7, lr}
  59              		.cfi_def_cfa_offset 12
  60              		.cfi_offset 4, -12
  61              		.cfi_offset 7, -8
  62              		.cfi_offset 14, -4
  63 0002 85B0     		sub	sp, sp, #20
  64              		.cfi_def_cfa_offset 32
  65 0004 00AF     		add	r7, sp, #0
  66              		.cfi_def_cfa_register 7
  67 0006 7860     		str	r0, [r7, #4]
 251:Generated_Source\PSoC4/BLE_1_eventHandler.c ****     CYBLE_GATT_ERR_CODE_T gattErr;
 252:Generated_Source\PSoC4/BLE_1_eventHandler.c **** #if defined CYBLE_CTS_SERVER || defined CYBLE_ESS_SERVER
 253:Generated_Source\PSoC4/BLE_1_eventHandler.c ****     cyBle_gattError = CYBLE_GATT_ERR_NONE;
 254:Generated_Source\PSoC4/BLE_1_eventHandler.c **** #endif /* defined CYBLE_CTS_SERVER || defined CYBLE_ESS_SERVER */
 255:Generated_Source\PSoC4/BLE_1_eventHandler.c ****     
 256:Generated_Source\PSoC4/BLE_1_eventHandler.c ****     gattErr = CyBle_GattsWriteEventHandler(eventParam);
  68              		.loc 1 256 0
  69 0008 0F23     		movs	r3, #15
  70 000a FC18     		adds	r4, r7, r3
  71 000c 7B68     		ldr	r3, [r7, #4]
  72 000e 1800     		movs	r0, r3
  73 0010 FFF7FEFF 		bl	CyBle_GattsWriteEventHandler
  74 0014 0300     		movs	r3, r0
  75 0016 2370     		strb	r3, [r4]
 257:Generated_Source\PSoC4/BLE_1_eventHandler.c **** #ifdef CYBLE_AIOS_SERVER
 258:Generated_Source\PSoC4/BLE_1_eventHandler.c ****     if(((cyBle_eventHandlerFlag & CYBLE_CALLBACK) != 0u) && (gattErr == CYBLE_GATT_ERR_NONE))
 259:Generated_Source\PSoC4/BLE_1_eventHandler.c ****     {
 260:Generated_Source\PSoC4/BLE_1_eventHandler.c ****         gattErr = CyBle_AiossWriteEventHandler(eventParam);
 261:Generated_Source\PSoC4/BLE_1_eventHandler.c ****     }
 262:Generated_Source\PSoC4/BLE_1_eventHandler.c **** #endif /* CYBLE_AIOS_SERVER */
 263:Generated_Source\PSoC4/BLE_1_eventHandler.c **** #ifdef CYBLE_ANCS_SERVER
 264:Generated_Source\PSoC4/BLE_1_eventHandler.c ****     if(((cyBle_eventHandlerFlag & CYBLE_CALLBACK) != 0u) && (gattErr == CYBLE_GATT_ERR_NONE))
 265:Generated_Source\PSoC4/BLE_1_eventHandler.c ****     {
 266:Generated_Source\PSoC4/BLE_1_eventHandler.c ****         gattErr = CyBle_AncssWriteEventHandler(eventParam);
 267:Generated_Source\PSoC4/BLE_1_eventHandler.c ****     }
ARM GAS  C:\Users\ROUSSMA\AppData\Local\Temp\cc3gA5P4.s 			page 7


 268:Generated_Source\PSoC4/BLE_1_eventHandler.c **** #endif /* CYBLE_ANCS_SERVER */
 269:Generated_Source\PSoC4/BLE_1_eventHandler.c **** #ifdef CYBLE_ANS_SERVER
 270:Generated_Source\PSoC4/BLE_1_eventHandler.c ****     if(((cyBle_eventHandlerFlag & CYBLE_CALLBACK) != 0u) && (gattErr == CYBLE_GATT_ERR_NONE))
 271:Generated_Source\PSoC4/BLE_1_eventHandler.c ****     {
 272:Generated_Source\PSoC4/BLE_1_eventHandler.c ****         gattErr = CyBle_AnssWriteEventHandler(eventParam);
 273:Generated_Source\PSoC4/BLE_1_eventHandler.c ****     }
 274:Generated_Source\PSoC4/BLE_1_eventHandler.c **** #endif /* CYBLE_ANS_SERVER */
 275:Generated_Source\PSoC4/BLE_1_eventHandler.c **** #ifdef CYBLE_BAS_SERVER
 276:Generated_Source\PSoC4/BLE_1_eventHandler.c ****     if(((cyBle_eventHandlerFlag & CYBLE_CALLBACK) != 0u) && (gattErr == CYBLE_GATT_ERR_NONE))
 277:Generated_Source\PSoC4/BLE_1_eventHandler.c ****     {
 278:Generated_Source\PSoC4/BLE_1_eventHandler.c ****         gattErr = CyBle_BassWriteEventHandler(eventParam);
 279:Generated_Source\PSoC4/BLE_1_eventHandler.c ****     }
 280:Generated_Source\PSoC4/BLE_1_eventHandler.c **** #endif /* CYBLE_BAS_SERVER */
 281:Generated_Source\PSoC4/BLE_1_eventHandler.c **** #ifdef CYBLE_BCS_SERVER
 282:Generated_Source\PSoC4/BLE_1_eventHandler.c ****     if(((cyBle_eventHandlerFlag & CYBLE_CALLBACK) != 0u) && (gattErr == CYBLE_GATT_ERR_NONE))
 283:Generated_Source\PSoC4/BLE_1_eventHandler.c ****     {
 284:Generated_Source\PSoC4/BLE_1_eventHandler.c ****         gattErr = CyBle_BcssWriteEventHandler(eventParam);
 285:Generated_Source\PSoC4/BLE_1_eventHandler.c ****     }
 286:Generated_Source\PSoC4/BLE_1_eventHandler.c **** #endif /* CYBLE_BCS_SERVER */
 287:Generated_Source\PSoC4/BLE_1_eventHandler.c **** #ifdef CYBLE_BLS_SERVER
 288:Generated_Source\PSoC4/BLE_1_eventHandler.c ****     if(((cyBle_eventHandlerFlag & CYBLE_CALLBACK) != 0u) && (gattErr == CYBLE_GATT_ERR_NONE))
 289:Generated_Source\PSoC4/BLE_1_eventHandler.c ****     {
 290:Generated_Source\PSoC4/BLE_1_eventHandler.c ****         gattErr = CyBle_BlssWriteEventHandler(eventParam);
 291:Generated_Source\PSoC4/BLE_1_eventHandler.c ****     }
 292:Generated_Source\PSoC4/BLE_1_eventHandler.c **** #endif /* CYBLE_BLS_SERVER */
 293:Generated_Source\PSoC4/BLE_1_eventHandler.c **** #ifdef CYBLE_BMS_SERVER
 294:Generated_Source\PSoC4/BLE_1_eventHandler.c ****     if(((cyBle_eventHandlerFlag & CYBLE_CALLBACK) != 0u) && (gattErr == CYBLE_GATT_ERR_NONE))
 295:Generated_Source\PSoC4/BLE_1_eventHandler.c ****     {
 296:Generated_Source\PSoC4/BLE_1_eventHandler.c ****         gattErr = CyBle_BmssWriteEventHandler(eventParam);
 297:Generated_Source\PSoC4/BLE_1_eventHandler.c ****     }
 298:Generated_Source\PSoC4/BLE_1_eventHandler.c **** #endif /* CYBLE_BMS_SERVER */
 299:Generated_Source\PSoC4/BLE_1_eventHandler.c **** #ifdef CYBLE_BTS_SERVER
 300:Generated_Source\PSoC4/BLE_1_eventHandler.c ****     if((cyBle_eventHandlerFlag & CYBLE_CALLBACK) != 0u)
 301:Generated_Source\PSoC4/BLE_1_eventHandler.c ****     {
 302:Generated_Source\PSoC4/BLE_1_eventHandler.c ****         gattErr = CyBle_BtsWriteEventHandler(eventParam);
 303:Generated_Source\PSoC4/BLE_1_eventHandler.c ****     }
 304:Generated_Source\PSoC4/BLE_1_eventHandler.c **** #endif /* CYBLE_BTS_SERVER */
 305:Generated_Source\PSoC4/BLE_1_eventHandler.c **** #ifdef CYBLE_CGMS_SERVER
 306:Generated_Source\PSoC4/BLE_1_eventHandler.c ****     if(((cyBle_eventHandlerFlag & CYBLE_CALLBACK) != 0u) && (gattErr == CYBLE_GATT_ERR_NONE))
 307:Generated_Source\PSoC4/BLE_1_eventHandler.c ****     {
 308:Generated_Source\PSoC4/BLE_1_eventHandler.c ****         gattErr = CyBle_CgmssWriteEventHandler(eventParam);
 309:Generated_Source\PSoC4/BLE_1_eventHandler.c ****     }
 310:Generated_Source\PSoC4/BLE_1_eventHandler.c **** #endif /* CYBLE_CGMS_SERVER */
 311:Generated_Source\PSoC4/BLE_1_eventHandler.c **** #ifdef CYBLE_CPS_SERVER
 312:Generated_Source\PSoC4/BLE_1_eventHandler.c ****     if(((cyBle_eventHandlerFlag & CYBLE_CALLBACK) != 0u) && (gattErr == CYBLE_GATT_ERR_NONE))
 313:Generated_Source\PSoC4/BLE_1_eventHandler.c ****     {
 314:Generated_Source\PSoC4/BLE_1_eventHandler.c ****         gattErr = CyBle_CpssWriteEventHandler(eventParam);
 315:Generated_Source\PSoC4/BLE_1_eventHandler.c ****     }
 316:Generated_Source\PSoC4/BLE_1_eventHandler.c **** #endif /* CYBLE_CPS_SERVER */
 317:Generated_Source\PSoC4/BLE_1_eventHandler.c **** #ifdef CYBLE_CSCS_SERVER
 318:Generated_Source\PSoC4/BLE_1_eventHandler.c ****     if(((cyBle_eventHandlerFlag & CYBLE_CALLBACK) != 0u) && (gattErr == CYBLE_GATT_ERR_NONE))
 319:Generated_Source\PSoC4/BLE_1_eventHandler.c ****     {
 320:Generated_Source\PSoC4/BLE_1_eventHandler.c ****         gattErr = CyBle_CscssWriteEventHandler(eventParam);
 321:Generated_Source\PSoC4/BLE_1_eventHandler.c ****     }
 322:Generated_Source\PSoC4/BLE_1_eventHandler.c **** #endif /* CYBLE_CSCS_SERVER */
 323:Generated_Source\PSoC4/BLE_1_eventHandler.c **** #ifdef CYBLE_CTS_SERVER
 324:Generated_Source\PSoC4/BLE_1_eventHandler.c ****     if(((cyBle_eventHandlerFlag & CYBLE_CALLBACK) != 0u) && (gattErr == CYBLE_GATT_ERR_NONE))
ARM GAS  C:\Users\ROUSSMA\AppData\Local\Temp\cc3gA5P4.s 			page 8


 325:Generated_Source\PSoC4/BLE_1_eventHandler.c ****     {
 326:Generated_Source\PSoC4/BLE_1_eventHandler.c ****         gattErr = CyBle_CtssWriteEventHandler(eventParam);
 327:Generated_Source\PSoC4/BLE_1_eventHandler.c ****     }
 328:Generated_Source\PSoC4/BLE_1_eventHandler.c **** #endif /* CYBLE_CTS_SERVER */
 329:Generated_Source\PSoC4/BLE_1_eventHandler.c **** #ifdef CYBLE_ESS_SERVER
 330:Generated_Source\PSoC4/BLE_1_eventHandler.c ****     if(((cyBle_eventHandlerFlag & CYBLE_CALLBACK) != 0u) && (gattErr == CYBLE_GATT_ERR_NONE))
 331:Generated_Source\PSoC4/BLE_1_eventHandler.c ****     {
 332:Generated_Source\PSoC4/BLE_1_eventHandler.c ****         gattErr = CyBle_EsssWriteEventHandler(eventParam);
 333:Generated_Source\PSoC4/BLE_1_eventHandler.c ****     }
 334:Generated_Source\PSoC4/BLE_1_eventHandler.c **** #endif /* CYBLE_ESS_SERVER */
 335:Generated_Source\PSoC4/BLE_1_eventHandler.c **** #ifdef CYBLE_GLS_SERVER
 336:Generated_Source\PSoC4/BLE_1_eventHandler.c ****     if(((cyBle_eventHandlerFlag & CYBLE_CALLBACK) != 0u) && (gattErr == CYBLE_GATT_ERR_NONE))
 337:Generated_Source\PSoC4/BLE_1_eventHandler.c ****     {
 338:Generated_Source\PSoC4/BLE_1_eventHandler.c ****         gattErr = CyBle_GlssWriteEventHandler(eventParam);
 339:Generated_Source\PSoC4/BLE_1_eventHandler.c ****     }
 340:Generated_Source\PSoC4/BLE_1_eventHandler.c **** #endif /* CYBLE_GLS_SERVER */
 341:Generated_Source\PSoC4/BLE_1_eventHandler.c **** #ifdef CYBLE_HIDS_SERVER
 342:Generated_Source\PSoC4/BLE_1_eventHandler.c ****     if(((cyBle_eventHandlerFlag & CYBLE_CALLBACK) != 0u) && (gattErr == CYBLE_GATT_ERR_NONE))
 343:Generated_Source\PSoC4/BLE_1_eventHandler.c ****     {
 344:Generated_Source\PSoC4/BLE_1_eventHandler.c ****         gattErr = CyBle_HidssWriteEventHandler(eventParam);
 345:Generated_Source\PSoC4/BLE_1_eventHandler.c ****     }
 346:Generated_Source\PSoC4/BLE_1_eventHandler.c **** #endif /* CYBLE_HIDS_SERVER */
 347:Generated_Source\PSoC4/BLE_1_eventHandler.c **** #ifdef CYBLE_HPS_SERVER
 348:Generated_Source\PSoC4/BLE_1_eventHandler.c ****     if(((cyBle_eventHandlerFlag & CYBLE_CALLBACK) != 0u) && (gattErr == CYBLE_GATT_ERR_NONE))
 349:Generated_Source\PSoC4/BLE_1_eventHandler.c ****     {
 350:Generated_Source\PSoC4/BLE_1_eventHandler.c ****         gattErr = CyBle_HpssWriteEventHandler(eventParam);
 351:Generated_Source\PSoC4/BLE_1_eventHandler.c ****     }
 352:Generated_Source\PSoC4/BLE_1_eventHandler.c **** #endif /* CYBLE_HPS_SERVER */
 353:Generated_Source\PSoC4/BLE_1_eventHandler.c **** #ifdef CYBLE_HRS_SERVER
 354:Generated_Source\PSoC4/BLE_1_eventHandler.c ****     if(((cyBle_eventHandlerFlag & CYBLE_CALLBACK) != 0u) && (gattErr == CYBLE_GATT_ERR_NONE))
 355:Generated_Source\PSoC4/BLE_1_eventHandler.c ****     {
 356:Generated_Source\PSoC4/BLE_1_eventHandler.c ****         gattErr = CyBle_HrssWriteEventHandler(eventParam);
 357:Generated_Source\PSoC4/BLE_1_eventHandler.c ****     }
 358:Generated_Source\PSoC4/BLE_1_eventHandler.c **** #endif /* CYBLE_HRS_SERVER */
 359:Generated_Source\PSoC4/BLE_1_eventHandler.c **** #ifdef CYBLE_HTS_SERVER
 360:Generated_Source\PSoC4/BLE_1_eventHandler.c ****     if(((cyBle_eventHandlerFlag & CYBLE_CALLBACK) != 0u) && (gattErr == CYBLE_GATT_ERR_NONE))
 361:Generated_Source\PSoC4/BLE_1_eventHandler.c ****     {
 362:Generated_Source\PSoC4/BLE_1_eventHandler.c ****         gattErr = CyBle_HtssWriteEventHandler(eventParam);
 363:Generated_Source\PSoC4/BLE_1_eventHandler.c ****     }
 364:Generated_Source\PSoC4/BLE_1_eventHandler.c **** #endif /* CYBLE_HTS_SERVER */
 365:Generated_Source\PSoC4/BLE_1_eventHandler.c **** #ifdef CYBLE_IPS_SERVER
 366:Generated_Source\PSoC4/BLE_1_eventHandler.c ****     if(((cyBle_eventHandlerFlag & CYBLE_CALLBACK) != 0u) && (gattErr == CYBLE_GATT_ERR_NONE))
 367:Generated_Source\PSoC4/BLE_1_eventHandler.c ****     {
 368:Generated_Source\PSoC4/BLE_1_eventHandler.c ****         gattErr = CyBle_IpssWriteEventHandler(eventParam);
 369:Generated_Source\PSoC4/BLE_1_eventHandler.c ****     }
 370:Generated_Source\PSoC4/BLE_1_eventHandler.c **** #endif /* CYBLE_IPS_SERVER */
 371:Generated_Source\PSoC4/BLE_1_eventHandler.c **** #ifdef CYBLE_LLS_SERVER
 372:Generated_Source\PSoC4/BLE_1_eventHandler.c ****     if(((cyBle_eventHandlerFlag & CYBLE_CALLBACK) != 0u) && (gattErr == CYBLE_GATT_ERR_NONE))
 373:Generated_Source\PSoC4/BLE_1_eventHandler.c ****     {
 374:Generated_Source\PSoC4/BLE_1_eventHandler.c ****         gattErr = CyBle_LlssWriteEventHandler(eventParam);
 375:Generated_Source\PSoC4/BLE_1_eventHandler.c ****     }
 376:Generated_Source\PSoC4/BLE_1_eventHandler.c **** #endif /* CYBLE_LLS_SERVER */
 377:Generated_Source\PSoC4/BLE_1_eventHandler.c **** #ifdef CYBLE_LNS_SERVER
 378:Generated_Source\PSoC4/BLE_1_eventHandler.c ****     if(((cyBle_eventHandlerFlag & CYBLE_CALLBACK) != 0u) && (gattErr == CYBLE_GATT_ERR_NONE))
 379:Generated_Source\PSoC4/BLE_1_eventHandler.c ****     {
 380:Generated_Source\PSoC4/BLE_1_eventHandler.c ****         gattErr = CyBle_LnssWriteEventHandler(eventParam);
 381:Generated_Source\PSoC4/BLE_1_eventHandler.c ****     }
ARM GAS  C:\Users\ROUSSMA\AppData\Local\Temp\cc3gA5P4.s 			page 9


 382:Generated_Source\PSoC4/BLE_1_eventHandler.c **** #endif /* CYBLE_LNS_SERVER */
 383:Generated_Source\PSoC4/BLE_1_eventHandler.c **** #ifdef CYBLE_PASS_SERVER
 384:Generated_Source\PSoC4/BLE_1_eventHandler.c ****     if(((cyBle_eventHandlerFlag & CYBLE_CALLBACK) != 0u) && (gattErr == CYBLE_GATT_ERR_NONE))
 385:Generated_Source\PSoC4/BLE_1_eventHandler.c ****     {
 386:Generated_Source\PSoC4/BLE_1_eventHandler.c ****         gattErr = CyBle_PasssWriteEventHandler(eventParam);
 387:Generated_Source\PSoC4/BLE_1_eventHandler.c ****     }
 388:Generated_Source\PSoC4/BLE_1_eventHandler.c **** #endif /* CYBLE_PASS_SERVER */
 389:Generated_Source\PSoC4/BLE_1_eventHandler.c **** #ifdef CYBLE_PLXS_SERVER
 390:Generated_Source\PSoC4/BLE_1_eventHandler.c ****     if(((cyBle_eventHandlerFlag & CYBLE_CALLBACK) != 0u) && (gattErr == CYBLE_GATT_ERR_NONE))
 391:Generated_Source\PSoC4/BLE_1_eventHandler.c ****     {
 392:Generated_Source\PSoC4/BLE_1_eventHandler.c ****         gattErr = CyBle_PlxssWriteEventHandler(eventParam);
 393:Generated_Source\PSoC4/BLE_1_eventHandler.c ****     }
 394:Generated_Source\PSoC4/BLE_1_eventHandler.c **** #endif /* CYBLE_PLXS_SERVER */    
 395:Generated_Source\PSoC4/BLE_1_eventHandler.c **** #ifdef CYBLE_RSCS_SERVER
 396:Generated_Source\PSoC4/BLE_1_eventHandler.c ****     if(((cyBle_eventHandlerFlag & CYBLE_CALLBACK) != 0u) && (gattErr == CYBLE_GATT_ERR_NONE))
 397:Generated_Source\PSoC4/BLE_1_eventHandler.c ****     {
 398:Generated_Source\PSoC4/BLE_1_eventHandler.c ****         gattErr = CyBle_RscssWriteEventHandler(eventParam);
 399:Generated_Source\PSoC4/BLE_1_eventHandler.c ****     }
 400:Generated_Source\PSoC4/BLE_1_eventHandler.c **** #endif /* CYBLE_RSCS_SERVER */
 401:Generated_Source\PSoC4/BLE_1_eventHandler.c **** #ifdef CYBLE_SCPS_SERVER
 402:Generated_Source\PSoC4/BLE_1_eventHandler.c ****     if(((cyBle_eventHandlerFlag & CYBLE_CALLBACK) != 0u) && (gattErr == CYBLE_GATT_ERR_NONE))
 403:Generated_Source\PSoC4/BLE_1_eventHandler.c ****     {
 404:Generated_Source\PSoC4/BLE_1_eventHandler.c ****         gattErr = CyBle_ScpssWriteEventHandler(eventParam);
 405:Generated_Source\PSoC4/BLE_1_eventHandler.c ****     }
 406:Generated_Source\PSoC4/BLE_1_eventHandler.c **** #endif /* CYBLE_SCPS_SERVER */
 407:Generated_Source\PSoC4/BLE_1_eventHandler.c **** #ifdef CYBLE_TPS_SERVER
 408:Generated_Source\PSoC4/BLE_1_eventHandler.c ****     if(((cyBle_eventHandlerFlag & CYBLE_CALLBACK) != 0u) && (gattErr == CYBLE_GATT_ERR_NONE))
 409:Generated_Source\PSoC4/BLE_1_eventHandler.c ****     {
 410:Generated_Source\PSoC4/BLE_1_eventHandler.c ****         gattErr = CyBle_TpssWriteEventHandler(eventParam);
 411:Generated_Source\PSoC4/BLE_1_eventHandler.c ****     }
 412:Generated_Source\PSoC4/BLE_1_eventHandler.c **** #endif /* CYBLE_TPS_SERVER */
 413:Generated_Source\PSoC4/BLE_1_eventHandler.c **** #ifdef CYBLE_UDS_SERVER
 414:Generated_Source\PSoC4/BLE_1_eventHandler.c ****     if(((cyBle_eventHandlerFlag & CYBLE_CALLBACK) != 0u) && (gattErr == CYBLE_GATT_ERR_NONE))
 415:Generated_Source\PSoC4/BLE_1_eventHandler.c ****     {
 416:Generated_Source\PSoC4/BLE_1_eventHandler.c ****         gattErr = CyBle_UdssWriteEventHandler(eventParam);
 417:Generated_Source\PSoC4/BLE_1_eventHandler.c ****     }
 418:Generated_Source\PSoC4/BLE_1_eventHandler.c **** #endif /* CYBLE_UDS_SERVER */
 419:Generated_Source\PSoC4/BLE_1_eventHandler.c **** #ifdef CYBLE_WPTS_SERVER
 420:Generated_Source\PSoC4/BLE_1_eventHandler.c ****     if(((cyBle_eventHandlerFlag & CYBLE_CALLBACK) != 0u) && (gattErr == CYBLE_GATT_ERR_NONE))
 421:Generated_Source\PSoC4/BLE_1_eventHandler.c ****     {
 422:Generated_Source\PSoC4/BLE_1_eventHandler.c ****         gattErr = CyBle_WptssWriteEventHandler(eventParam);
 423:Generated_Source\PSoC4/BLE_1_eventHandler.c ****     }
 424:Generated_Source\PSoC4/BLE_1_eventHandler.c **** #endif /* CYBLE_WPTS_SERVER */
 425:Generated_Source\PSoC4/BLE_1_eventHandler.c **** #ifdef CYBLE_WSS_SERVER
 426:Generated_Source\PSoC4/BLE_1_eventHandler.c ****     if(((cyBle_eventHandlerFlag & CYBLE_CALLBACK) != 0u) && (gattErr == CYBLE_GATT_ERR_NONE))
 427:Generated_Source\PSoC4/BLE_1_eventHandler.c ****     {
 428:Generated_Source\PSoC4/BLE_1_eventHandler.c ****         gattErr = CyBle_WsssWriteEventHandler(eventParam);
 429:Generated_Source\PSoC4/BLE_1_eventHandler.c ****     }
 430:Generated_Source\PSoC4/BLE_1_eventHandler.c **** #endif /* CYBLE_WSS_SERVER */
 431:Generated_Source\PSoC4/BLE_1_eventHandler.c **** 
 432:Generated_Source\PSoC4/BLE_1_eventHandler.c ****     /* Send response when event was handled by service */
 433:Generated_Source\PSoC4/BLE_1_eventHandler.c ****     if((cyBle_eventHandlerFlag & CYBLE_CALLBACK) == 0u)
  76              		.loc 1 433 0
  77 0018 154B     		ldr	r3, .L5
  78 001a 1B78     		ldrb	r3, [r3]
  79 001c DBB2     		uxtb	r3, r3
  80 001e 1A00     		movs	r2, r3
ARM GAS  C:\Users\ROUSSMA\AppData\Local\Temp\cc3gA5P4.s 			page 10


  81 0020 0123     		movs	r3, #1
  82 0022 1340     		ands	r3, r2
  83 0024 1FD1     		bne	.L4
 434:Generated_Source\PSoC4/BLE_1_eventHandler.c ****     {
 435:Generated_Source\PSoC4/BLE_1_eventHandler.c ****         if(gattErr != CYBLE_GATT_ERR_NONE)
  84              		.loc 1 435 0
  85 0026 0F23     		movs	r3, #15
  86 0028 FB18     		adds	r3, r7, r3
  87 002a 1B78     		ldrb	r3, [r3]
  88 002c 002B     		cmp	r3, #0
  89 002e 16D0     		beq	.L3
  90              	.LBB2:
 436:Generated_Source\PSoC4/BLE_1_eventHandler.c ****         {
 437:Generated_Source\PSoC4/BLE_1_eventHandler.c ****             CYBLE_GATTS_ERR_PARAM_T err_param;
 438:Generated_Source\PSoC4/BLE_1_eventHandler.c ****             
 439:Generated_Source\PSoC4/BLE_1_eventHandler.c ****             err_param.opcode = (uint8) CYBLE_GATT_WRITE_REQ;
  91              		.loc 1 439 0
  92 0030 0823     		movs	r3, #8
  93 0032 FB18     		adds	r3, r7, r3
  94 0034 1222     		movs	r2, #18
  95 0036 9A70     		strb	r2, [r3, #2]
 440:Generated_Source\PSoC4/BLE_1_eventHandler.c ****             err_param.attrHandle = eventParam->handleValPair.attrHandle;
  96              		.loc 1 440 0
  97 0038 7B68     		ldr	r3, [r7, #4]
  98 003a 9A89     		ldrh	r2, [r3, #12]
  99 003c 0823     		movs	r3, #8
 100 003e FB18     		adds	r3, r7, r3
 101 0040 1A80     		strh	r2, [r3]
 441:Generated_Source\PSoC4/BLE_1_eventHandler.c ****             err_param.errorCode = gattErr;
 102              		.loc 1 441 0
 103 0042 0823     		movs	r3, #8
 104 0044 FB18     		adds	r3, r7, r3
 105 0046 0F22     		movs	r2, #15
 106 0048 BA18     		adds	r2, r7, r2
 107 004a 1278     		ldrb	r2, [r2]
 108 004c DA70     		strb	r2, [r3, #3]
 442:Generated_Source\PSoC4/BLE_1_eventHandler.c **** 
 443:Generated_Source\PSoC4/BLE_1_eventHandler.c ****             /* Send Error Response */
 444:Generated_Source\PSoC4/BLE_1_eventHandler.c ****             (void)CyBle_GattsErrorRsp(eventParam->connHandle, &err_param);
 109              		.loc 1 444 0
 110 004e 0823     		movs	r3, #8
 111 0050 FA18     		adds	r2, r7, r3
 112 0052 7B68     		ldr	r3, [r7, #4]
 113 0054 1100     		movs	r1, r2
 114 0056 1868     		ldr	r0, [r3]
 115 0058 FFF7FEFF 		bl	CyBle_GattsErrorRsp
 116              	.LBE2:
 445:Generated_Source\PSoC4/BLE_1_eventHandler.c ****         }
 446:Generated_Source\PSoC4/BLE_1_eventHandler.c ****         else
 447:Generated_Source\PSoC4/BLE_1_eventHandler.c ****         {
 448:Generated_Source\PSoC4/BLE_1_eventHandler.c ****             (void)CyBle_GattsWriteRsp(eventParam->connHandle);
 449:Generated_Source\PSoC4/BLE_1_eventHandler.c ****         }
 450:Generated_Source\PSoC4/BLE_1_eventHandler.c ****     }
 451:Generated_Source\PSoC4/BLE_1_eventHandler.c **** }
 117              		.loc 1 451 0
 118 005c 03E0     		b	.L4
 119              	.L3:
ARM GAS  C:\Users\ROUSSMA\AppData\Local\Temp\cc3gA5P4.s 			page 11


 448:Generated_Source\PSoC4/BLE_1_eventHandler.c ****         }
 120              		.loc 1 448 0
 121 005e 7B68     		ldr	r3, [r7, #4]
 122 0060 1868     		ldr	r0, [r3]
 123 0062 FFF7FEFF 		bl	CyBle_GattsWriteRsp
 124              	.L4:
 125              		.loc 1 451 0
 126 0066 C046     		nop
 127 0068 BD46     		mov	sp, r7
 128 006a 05B0     		add	sp, sp, #20
 129              		@ sp needed
 130 006c 90BD     		pop	{r4, r7, pc}
 131              	.L6:
 132 006e C046     		.align	2
 133              	.L5:
 134 0070 00000000 		.word	cyBle_eventHandlerFlag
 135              		.cfi_endproc
 136              	.LFE2:
 137              		.size	CyBle_WriteReqHandler, .-CyBle_WriteReqHandler
 138              		.section	.text.CyBle_ValueConfirmation,"ax",%progbits
 139              		.align	2
 140              		.code	16
 141              		.thumb_func
 142              		.type	CyBle_ValueConfirmation, %function
 143              	CyBle_ValueConfirmation:
 144              	.LFB3:
 452:Generated_Source\PSoC4/BLE_1_eventHandler.c **** 
 453:Generated_Source\PSoC4/BLE_1_eventHandler.c **** 
 454:Generated_Source\PSoC4/BLE_1_eventHandler.c **** /****************************************************************************** 
 455:Generated_Source\PSoC4/BLE_1_eventHandler.c **** * Function Name: CyBle_ValueConfirmation
 456:Generated_Source\PSoC4/BLE_1_eventHandler.c **** ***************************************************************************//**
 457:Generated_Source\PSoC4/BLE_1_eventHandler.c **** * 
 458:Generated_Source\PSoC4/BLE_1_eventHandler.c **** *  Handles the Value Confirmation request event from the BLE stack.
 459:Generated_Source\PSoC4/BLE_1_eventHandler.c **** * 
 460:Generated_Source\PSoC4/BLE_1_eventHandler.c **** *  \param eventParam: Pointer to a structure of type 'CYBLE_CONN_HANDLE_T'
 461:Generated_Source\PSoC4/BLE_1_eventHandler.c **** * 
 462:Generated_Source\PSoC4/BLE_1_eventHandler.c **** * \return
 463:Generated_Source\PSoC4/BLE_1_eventHandler.c **** *  None
 464:Generated_Source\PSoC4/BLE_1_eventHandler.c **** * 
 465:Generated_Source\PSoC4/BLE_1_eventHandler.c **** ******************************************************************************/
 466:Generated_Source\PSoC4/BLE_1_eventHandler.c **** static void CyBle_ValueConfirmation(const CYBLE_CONN_HANDLE_T *eventParam)
 467:Generated_Source\PSoC4/BLE_1_eventHandler.c **** {
 145              		.loc 1 467 0
 146              		.cfi_startproc
 147              		@ args = 0, pretend = 0, frame = 8
 148              		@ frame_needed = 1, uses_anonymous_args = 0
 149 0000 80B5     		push	{r7, lr}
 150              		.cfi_def_cfa_offset 8
 151              		.cfi_offset 7, -8
 152              		.cfi_offset 14, -4
 153 0002 82B0     		sub	sp, sp, #8
 154              		.cfi_def_cfa_offset 16
 155 0004 00AF     		add	r7, sp, #0
 156              		.cfi_def_cfa_register 7
 157 0006 7860     		str	r0, [r7, #4]
 468:Generated_Source\PSoC4/BLE_1_eventHandler.c ****     if(eventParam != NULL)
 469:Generated_Source\PSoC4/BLE_1_eventHandler.c ****     {
ARM GAS  C:\Users\ROUSSMA\AppData\Local\Temp\cc3gA5P4.s 			page 12


 470:Generated_Source\PSoC4/BLE_1_eventHandler.c ****     #ifdef CYBLE_AIOS_SERVER
 471:Generated_Source\PSoC4/BLE_1_eventHandler.c ****         if((cyBle_eventHandlerFlag & CYBLE_CALLBACK) != 0u)
 472:Generated_Source\PSoC4/BLE_1_eventHandler.c ****         {
 473:Generated_Source\PSoC4/BLE_1_eventHandler.c ****             CyBle_AiossConfirmationEventHandler(eventParam);
 474:Generated_Source\PSoC4/BLE_1_eventHandler.c ****         }
 475:Generated_Source\PSoC4/BLE_1_eventHandler.c ****     #endif /* CYBLE_AIOS_SERVER */
 476:Generated_Source\PSoC4/BLE_1_eventHandler.c ****     #ifdef CYBLE_BCS_SERVER
 477:Generated_Source\PSoC4/BLE_1_eventHandler.c ****         CyBle_BcssConfirmationEventHandler(eventParam);
 478:Generated_Source\PSoC4/BLE_1_eventHandler.c ****     #endif /* CYBLE_BCS_SERVER */
 479:Generated_Source\PSoC4/BLE_1_eventHandler.c ****     #ifdef CYBLE_BLS_SERVER
 480:Generated_Source\PSoC4/BLE_1_eventHandler.c ****         if((cyBle_eventHandlerFlag & CYBLE_CALLBACK) != 0u)
 481:Generated_Source\PSoC4/BLE_1_eventHandler.c ****         {
 482:Generated_Source\PSoC4/BLE_1_eventHandler.c ****             CyBle_BlssConfirmationEventHandler(eventParam);
 483:Generated_Source\PSoC4/BLE_1_eventHandler.c ****         }
 484:Generated_Source\PSoC4/BLE_1_eventHandler.c ****     #endif /* CYBLE_BLS_SERVER */
 485:Generated_Source\PSoC4/BLE_1_eventHandler.c ****     
 486:Generated_Source\PSoC4/BLE_1_eventHandler.c ****     #ifdef CYBLE_CGMS_SERVER
 487:Generated_Source\PSoC4/BLE_1_eventHandler.c ****         if((cyBle_eventHandlerFlag & CYBLE_CALLBACK) != 0u)
 488:Generated_Source\PSoC4/BLE_1_eventHandler.c ****         {
 489:Generated_Source\PSoC4/BLE_1_eventHandler.c ****             CyBle_CgmssConfirmationEventHandler(eventParam);
 490:Generated_Source\PSoC4/BLE_1_eventHandler.c ****         }
 491:Generated_Source\PSoC4/BLE_1_eventHandler.c ****     #endif /* CYBLE_CGMS_SERVER */
 492:Generated_Source\PSoC4/BLE_1_eventHandler.c ****     
 493:Generated_Source\PSoC4/BLE_1_eventHandler.c ****     #ifdef CYBLE_CPS_SERVER
 494:Generated_Source\PSoC4/BLE_1_eventHandler.c ****         if((cyBle_eventHandlerFlag & CYBLE_CALLBACK) != 0u)
 495:Generated_Source\PSoC4/BLE_1_eventHandler.c ****         {
 496:Generated_Source\PSoC4/BLE_1_eventHandler.c ****             CyBle_CpssConfirmationEventHandler(eventParam);
 497:Generated_Source\PSoC4/BLE_1_eventHandler.c ****         }
 498:Generated_Source\PSoC4/BLE_1_eventHandler.c ****     #endif /* CYBLE_CPS_SERVER */
 499:Generated_Source\PSoC4/BLE_1_eventHandler.c ****     
 500:Generated_Source\PSoC4/BLE_1_eventHandler.c ****     #ifdef CYBLE_CSCS_SERVER
 501:Generated_Source\PSoC4/BLE_1_eventHandler.c ****         if((cyBle_eventHandlerFlag & CYBLE_CALLBACK) != 0u)
 502:Generated_Source\PSoC4/BLE_1_eventHandler.c ****         {
 503:Generated_Source\PSoC4/BLE_1_eventHandler.c ****             CyBle_CscssConfirmationEventHandler(eventParam);
 504:Generated_Source\PSoC4/BLE_1_eventHandler.c ****         }
 505:Generated_Source\PSoC4/BLE_1_eventHandler.c ****     #endif /* CYBLE_CSCS_SERVER */
 506:Generated_Source\PSoC4/BLE_1_eventHandler.c ****     
 507:Generated_Source\PSoC4/BLE_1_eventHandler.c ****     #ifdef CYBLE_ESS_SERVER
 508:Generated_Source\PSoC4/BLE_1_eventHandler.c ****         if((cyBle_eventHandlerFlag & CYBLE_CALLBACK) != 0u)
 509:Generated_Source\PSoC4/BLE_1_eventHandler.c ****         {
 510:Generated_Source\PSoC4/BLE_1_eventHandler.c ****             CyBle_EsssConfirmationEventHandler(eventParam);
 511:Generated_Source\PSoC4/BLE_1_eventHandler.c ****         }
 512:Generated_Source\PSoC4/BLE_1_eventHandler.c ****     #endif /* CYBLE_ESS_SERVER */
 513:Generated_Source\PSoC4/BLE_1_eventHandler.c ****     
 514:Generated_Source\PSoC4/BLE_1_eventHandler.c ****     #ifdef CYBLE_GLS_SERVER
 515:Generated_Source\PSoC4/BLE_1_eventHandler.c ****         if((cyBle_eventHandlerFlag & CYBLE_CALLBACK) != 0u)
 516:Generated_Source\PSoC4/BLE_1_eventHandler.c ****         {
 517:Generated_Source\PSoC4/BLE_1_eventHandler.c ****             CyBle_GlssConfirmationEventHandler(eventParam);
 518:Generated_Source\PSoC4/BLE_1_eventHandler.c ****         }
 519:Generated_Source\PSoC4/BLE_1_eventHandler.c ****     #endif /* CYBLE_GLS_SERVER */
 520:Generated_Source\PSoC4/BLE_1_eventHandler.c ****     
 521:Generated_Source\PSoC4/BLE_1_eventHandler.c ****     #ifdef CYBLE_HTS_SERVER
 522:Generated_Source\PSoC4/BLE_1_eventHandler.c ****         if((cyBle_eventHandlerFlag & CYBLE_CALLBACK) != 0u)
 523:Generated_Source\PSoC4/BLE_1_eventHandler.c ****         {
 524:Generated_Source\PSoC4/BLE_1_eventHandler.c ****             CyBle_HtssConfirmationEventHandler(eventParam);
 525:Generated_Source\PSoC4/BLE_1_eventHandler.c ****         }
 526:Generated_Source\PSoC4/BLE_1_eventHandler.c ****     #endif /* CYBLE_HTS_SERVER */
ARM GAS  C:\Users\ROUSSMA\AppData\Local\Temp\cc3gA5P4.s 			page 13


 527:Generated_Source\PSoC4/BLE_1_eventHandler.c **** 
 528:Generated_Source\PSoC4/BLE_1_eventHandler.c ****     #ifdef CYBLE_LNS_SERVER
 529:Generated_Source\PSoC4/BLE_1_eventHandler.c ****         if((cyBle_eventHandlerFlag & CYBLE_CALLBACK) != 0u)
 530:Generated_Source\PSoC4/BLE_1_eventHandler.c ****         {
 531:Generated_Source\PSoC4/BLE_1_eventHandler.c ****             CyBle_LnssConfirmationEventHandler(eventParam);
 532:Generated_Source\PSoC4/BLE_1_eventHandler.c ****         }
 533:Generated_Source\PSoC4/BLE_1_eventHandler.c ****     #endif /* CYBLE_LNS_SERVER */
 534:Generated_Source\PSoC4/BLE_1_eventHandler.c ****     
 535:Generated_Source\PSoC4/BLE_1_eventHandler.c ****     #ifdef CYBLE_RSCS_SERVER
 536:Generated_Source\PSoC4/BLE_1_eventHandler.c ****         if((cyBle_eventHandlerFlag & CYBLE_CALLBACK) != 0u)
 537:Generated_Source\PSoC4/BLE_1_eventHandler.c ****         {
 538:Generated_Source\PSoC4/BLE_1_eventHandler.c ****             CyBle_RscssConfirmationEventHandler(eventParam);
 539:Generated_Source\PSoC4/BLE_1_eventHandler.c ****         }
 540:Generated_Source\PSoC4/BLE_1_eventHandler.c ****     #endif /* CYBLE_RSCS_SERVER */
 541:Generated_Source\PSoC4/BLE_1_eventHandler.c ****     
 542:Generated_Source\PSoC4/BLE_1_eventHandler.c ****     #ifdef CYBLE_UDS_SERVER
 543:Generated_Source\PSoC4/BLE_1_eventHandler.c ****         if((cyBle_eventHandlerFlag & CYBLE_CALLBACK) != 0u)
 544:Generated_Source\PSoC4/BLE_1_eventHandler.c ****         {
 545:Generated_Source\PSoC4/BLE_1_eventHandler.c ****             CyBle_UdssConfirmationEventHandler(eventParam);
 546:Generated_Source\PSoC4/BLE_1_eventHandler.c ****         }
 547:Generated_Source\PSoC4/BLE_1_eventHandler.c ****     #endif /* CYBLE_UDS_SERVER */
 548:Generated_Source\PSoC4/BLE_1_eventHandler.c ****     
 549:Generated_Source\PSoC4/BLE_1_eventHandler.c ****     #ifdef CYBLE_WPTS_SERVER
 550:Generated_Source\PSoC4/BLE_1_eventHandler.c ****         if((cyBle_eventHandlerFlag & CYBLE_CALLBACK) != 0u)
 551:Generated_Source\PSoC4/BLE_1_eventHandler.c ****         {
 552:Generated_Source\PSoC4/BLE_1_eventHandler.c ****             CyBle_WptssConfirmationEventHandler(eventParam);
 553:Generated_Source\PSoC4/BLE_1_eventHandler.c ****         }
 554:Generated_Source\PSoC4/BLE_1_eventHandler.c ****     #endif /* CYBLE_WPTS_SERVER */
 555:Generated_Source\PSoC4/BLE_1_eventHandler.c ****     
 556:Generated_Source\PSoC4/BLE_1_eventHandler.c ****     #ifdef CYBLE_WSS_SERVER
 557:Generated_Source\PSoC4/BLE_1_eventHandler.c ****         if((cyBle_eventHandlerFlag & CYBLE_CALLBACK) != 0u)
 558:Generated_Source\PSoC4/BLE_1_eventHandler.c ****         {
 559:Generated_Source\PSoC4/BLE_1_eventHandler.c ****             CyBle_WsssConfirmationEventHandler(eventParam);
 560:Generated_Source\PSoC4/BLE_1_eventHandler.c ****         }
 561:Generated_Source\PSoC4/BLE_1_eventHandler.c ****     #endif /* CYBLE_WSS_SERVER */
 562:Generated_Source\PSoC4/BLE_1_eventHandler.c ****     }
 563:Generated_Source\PSoC4/BLE_1_eventHandler.c **** }
 158              		.loc 1 563 0
 159 0008 C046     		nop
 160 000a BD46     		mov	sp, r7
 161 000c 02B0     		add	sp, sp, #8
 162              		@ sp needed
 163 000e 80BD     		pop	{r7, pc}
 164              		.cfi_endproc
 165              	.LFE3:
 166              		.size	CyBle_ValueConfirmation, .-CyBle_ValueConfirmation
 167              		.section	.text.CyBle_GattDisconnectEventHandler,"ax",%progbits
 168              		.align	2
 169              		.code	16
 170              		.thumb_func
 171              		.type	CyBle_GattDisconnectEventHandler, %function
 172              	CyBle_GattDisconnectEventHandler:
 173              	.LFB4:
 564:Generated_Source\PSoC4/BLE_1_eventHandler.c **** 
 565:Generated_Source\PSoC4/BLE_1_eventHandler.c **** #endif /* CYBLE_GATT_ROLE_SERVER */
 566:Generated_Source\PSoC4/BLE_1_eventHandler.c **** 
 567:Generated_Source\PSoC4/BLE_1_eventHandler.c **** 
ARM GAS  C:\Users\ROUSSMA\AppData\Local\Temp\cc3gA5P4.s 			page 14


 568:Generated_Source\PSoC4/BLE_1_eventHandler.c **** #if (CYBLE_GATT_ROLE_CLIENT)
 569:Generated_Source\PSoC4/BLE_1_eventHandler.c **** 
 570:Generated_Source\PSoC4/BLE_1_eventHandler.c **** /****************************************************************************** 
 571:Generated_Source\PSoC4/BLE_1_eventHandler.c **** * Function Name: CyBle_GattcWriteResponseEventHandler
 572:Generated_Source\PSoC4/BLE_1_eventHandler.c **** ***************************************************************************//**
 573:Generated_Source\PSoC4/BLE_1_eventHandler.c **** * 
 574:Generated_Source\PSoC4/BLE_1_eventHandler.c **** *  Handles the Write response event from the BLE stack.
 575:Generated_Source\PSoC4/BLE_1_eventHandler.c **** * 
 576:Generated_Source\PSoC4/BLE_1_eventHandler.c **** *  \param eventParam: Pointer to a structure of type 'CYBLE_CONN_HANDLE_T'
 577:Generated_Source\PSoC4/BLE_1_eventHandler.c **** * 
 578:Generated_Source\PSoC4/BLE_1_eventHandler.c **** * \return
 579:Generated_Source\PSoC4/BLE_1_eventHandler.c **** *  None
 580:Generated_Source\PSoC4/BLE_1_eventHandler.c **** * 
 581:Generated_Source\PSoC4/BLE_1_eventHandler.c **** ******************************************************************************/
 582:Generated_Source\PSoC4/BLE_1_eventHandler.c **** static void CyBle_GattcWriteResponseEventHandler(const CYBLE_CONN_HANDLE_T *eventParam)
 583:Generated_Source\PSoC4/BLE_1_eventHandler.c **** {
 584:Generated_Source\PSoC4/BLE_1_eventHandler.c **** 
 585:Generated_Source\PSoC4/BLE_1_eventHandler.c **** #ifdef CYBLE_AIOS_CLIENT
 586:Generated_Source\PSoC4/BLE_1_eventHandler.c ****     if((cyBle_eventHandlerFlag & CYBLE_CALLBACK) != 0u)
 587:Generated_Source\PSoC4/BLE_1_eventHandler.c ****     {
 588:Generated_Source\PSoC4/BLE_1_eventHandler.c ****         CyBle_AioscWriteResponseEventHandler(eventParam);
 589:Generated_Source\PSoC4/BLE_1_eventHandler.c ****     }
 590:Generated_Source\PSoC4/BLE_1_eventHandler.c **** #endif /* CYBLE_AIOS_CLIENT */
 591:Generated_Source\PSoC4/BLE_1_eventHandler.c **** 
 592:Generated_Source\PSoC4/BLE_1_eventHandler.c **** #ifdef CYBLE_ANCS_CLIENT
 593:Generated_Source\PSoC4/BLE_1_eventHandler.c ****     CyBle_AncscWriteResponseEventHandler(eventParam);
 594:Generated_Source\PSoC4/BLE_1_eventHandler.c **** #endif /* CYBLE_ANCS_CLIENT */
 595:Generated_Source\PSoC4/BLE_1_eventHandler.c **** 
 596:Generated_Source\PSoC4/BLE_1_eventHandler.c **** #ifdef CYBLE_ANS_CLIENT
 597:Generated_Source\PSoC4/BLE_1_eventHandler.c ****     if((cyBle_eventHandlerFlag & CYBLE_CALLBACK) != 0u)
 598:Generated_Source\PSoC4/BLE_1_eventHandler.c ****     {
 599:Generated_Source\PSoC4/BLE_1_eventHandler.c ****         CyBle_AnscWriteResponseEventHandler(eventParam);
 600:Generated_Source\PSoC4/BLE_1_eventHandler.c ****     }
 601:Generated_Source\PSoC4/BLE_1_eventHandler.c **** #endif /* CYBLE_ANS_CLIENT */
 602:Generated_Source\PSoC4/BLE_1_eventHandler.c **** 
 603:Generated_Source\PSoC4/BLE_1_eventHandler.c **** #ifdef CYBLE_BAS_CLIENT
 604:Generated_Source\PSoC4/BLE_1_eventHandler.c ****     if((cyBle_eventHandlerFlag & CYBLE_CALLBACK) != 0u)
 605:Generated_Source\PSoC4/BLE_1_eventHandler.c ****     {
 606:Generated_Source\PSoC4/BLE_1_eventHandler.c ****         CyBle_BascWriteResponseEventHandler(eventParam);
 607:Generated_Source\PSoC4/BLE_1_eventHandler.c ****     }
 608:Generated_Source\PSoC4/BLE_1_eventHandler.c **** #endif /* CYBLE_BAS_CLIENT */
 609:Generated_Source\PSoC4/BLE_1_eventHandler.c **** 
 610:Generated_Source\PSoC4/BLE_1_eventHandler.c **** #ifdef CYBLE_BCS_CLIENT
 611:Generated_Source\PSoC4/BLE_1_eventHandler.c ****     if((cyBle_eventHandlerFlag & CYBLE_CALLBACK) != 0u)
 612:Generated_Source\PSoC4/BLE_1_eventHandler.c ****     {
 613:Generated_Source\PSoC4/BLE_1_eventHandler.c ****         CyBle_BcscWriteResponseEventHandler(eventParam);
 614:Generated_Source\PSoC4/BLE_1_eventHandler.c ****     }
 615:Generated_Source\PSoC4/BLE_1_eventHandler.c **** #endif /* CYBLE_BCS_CLIENT */
 616:Generated_Source\PSoC4/BLE_1_eventHandler.c **** 
 617:Generated_Source\PSoC4/BLE_1_eventHandler.c **** #ifdef CYBLE_BLS_CLIENT
 618:Generated_Source\PSoC4/BLE_1_eventHandler.c ****     if((cyBle_eventHandlerFlag & CYBLE_CALLBACK) != 0u)
 619:Generated_Source\PSoC4/BLE_1_eventHandler.c ****     {
 620:Generated_Source\PSoC4/BLE_1_eventHandler.c ****         CyBle_BlscWriteResponseEventHandler(eventParam);
 621:Generated_Source\PSoC4/BLE_1_eventHandler.c ****     }
 622:Generated_Source\PSoC4/BLE_1_eventHandler.c **** #endif /* CYBLE_BLS_CLIENT */
 623:Generated_Source\PSoC4/BLE_1_eventHandler.c **** 
 624:Generated_Source\PSoC4/BLE_1_eventHandler.c **** #ifdef CYBLE_BMS_CLIENT
ARM GAS  C:\Users\ROUSSMA\AppData\Local\Temp\cc3gA5P4.s 			page 15


 625:Generated_Source\PSoC4/BLE_1_eventHandler.c ****     if((cyBle_eventHandlerFlag & CYBLE_CALLBACK) != 0u)
 626:Generated_Source\PSoC4/BLE_1_eventHandler.c ****     {
 627:Generated_Source\PSoC4/BLE_1_eventHandler.c ****         CyBle_BmscWriteResponseEventHandler(eventParam);
 628:Generated_Source\PSoC4/BLE_1_eventHandler.c ****     }
 629:Generated_Source\PSoC4/BLE_1_eventHandler.c **** #endif /* CYBLE_BMS_CLIENT */
 630:Generated_Source\PSoC4/BLE_1_eventHandler.c **** 
 631:Generated_Source\PSoC4/BLE_1_eventHandler.c **** #ifdef CYBLE_CGMS_CLIENT
 632:Generated_Source\PSoC4/BLE_1_eventHandler.c ****     if((cyBle_eventHandlerFlag & CYBLE_CALLBACK) != 0u)
 633:Generated_Source\PSoC4/BLE_1_eventHandler.c ****     {
 634:Generated_Source\PSoC4/BLE_1_eventHandler.c ****         CyBle_CgmscWriteResponseEventHandler(eventParam);
 635:Generated_Source\PSoC4/BLE_1_eventHandler.c ****     }
 636:Generated_Source\PSoC4/BLE_1_eventHandler.c **** #endif /* CYBLE_CGMS_CLIENT */
 637:Generated_Source\PSoC4/BLE_1_eventHandler.c **** 
 638:Generated_Source\PSoC4/BLE_1_eventHandler.c **** #ifdef CYBLE_CPS_CLIENT
 639:Generated_Source\PSoC4/BLE_1_eventHandler.c ****     if((cyBle_eventHandlerFlag & CYBLE_CALLBACK) != 0u)
 640:Generated_Source\PSoC4/BLE_1_eventHandler.c ****     {
 641:Generated_Source\PSoC4/BLE_1_eventHandler.c ****         CyBle_CpscWriteResponseEventHandler(eventParam);
 642:Generated_Source\PSoC4/BLE_1_eventHandler.c ****     }
 643:Generated_Source\PSoC4/BLE_1_eventHandler.c **** #endif /* CYBLE_CPS_CLIENT */
 644:Generated_Source\PSoC4/BLE_1_eventHandler.c **** 
 645:Generated_Source\PSoC4/BLE_1_eventHandler.c **** #ifdef CYBLE_CSCS_CLIENT
 646:Generated_Source\PSoC4/BLE_1_eventHandler.c ****     if((cyBle_eventHandlerFlag & CYBLE_CALLBACK) != 0u)
 647:Generated_Source\PSoC4/BLE_1_eventHandler.c ****     {
 648:Generated_Source\PSoC4/BLE_1_eventHandler.c ****         CyBle_CscscWriteResponseEventHandler(eventParam);
 649:Generated_Source\PSoC4/BLE_1_eventHandler.c ****     }
 650:Generated_Source\PSoC4/BLE_1_eventHandler.c **** #endif /* CYBLE_CSCS_CLIENT */
 651:Generated_Source\PSoC4/BLE_1_eventHandler.c **** 
 652:Generated_Source\PSoC4/BLE_1_eventHandler.c **** #ifdef CYBLE_CTS_CLIENT
 653:Generated_Source\PSoC4/BLE_1_eventHandler.c ****     if((cyBle_eventHandlerFlag & CYBLE_CALLBACK) != 0u)
 654:Generated_Source\PSoC4/BLE_1_eventHandler.c ****     {
 655:Generated_Source\PSoC4/BLE_1_eventHandler.c ****         CyBle_CtscWriteResponseEventHandler(eventParam);
 656:Generated_Source\PSoC4/BLE_1_eventHandler.c ****     }
 657:Generated_Source\PSoC4/BLE_1_eventHandler.c **** #endif /* CYBLE_CTS_CLIENT */
 658:Generated_Source\PSoC4/BLE_1_eventHandler.c **** 
 659:Generated_Source\PSoC4/BLE_1_eventHandler.c **** #ifdef CYBLE_ESS_CLIENT
 660:Generated_Source\PSoC4/BLE_1_eventHandler.c ****     if((cyBle_eventHandlerFlag & CYBLE_CALLBACK) != 0u)
 661:Generated_Source\PSoC4/BLE_1_eventHandler.c ****     {
 662:Generated_Source\PSoC4/BLE_1_eventHandler.c ****         CyBle_EsscWriteResponseEventHandler(eventParam);
 663:Generated_Source\PSoC4/BLE_1_eventHandler.c ****     }
 664:Generated_Source\PSoC4/BLE_1_eventHandler.c **** #endif /* CYBLE_ESS_CLIENT */
 665:Generated_Source\PSoC4/BLE_1_eventHandler.c **** 
 666:Generated_Source\PSoC4/BLE_1_eventHandler.c **** #ifdef CYBLE_GLS_CLIENT
 667:Generated_Source\PSoC4/BLE_1_eventHandler.c ****     if((cyBle_eventHandlerFlag & CYBLE_CALLBACK) != 0u)
 668:Generated_Source\PSoC4/BLE_1_eventHandler.c ****     {
 669:Generated_Source\PSoC4/BLE_1_eventHandler.c ****         CyBle_GlscWriteResponseEventHandler(eventParam);
 670:Generated_Source\PSoC4/BLE_1_eventHandler.c ****     }
 671:Generated_Source\PSoC4/BLE_1_eventHandler.c **** #endif /* CYBLE_GLS_CLIENT */
 672:Generated_Source\PSoC4/BLE_1_eventHandler.c **** 
 673:Generated_Source\PSoC4/BLE_1_eventHandler.c **** #ifdef CYBLE_HIDS_CLIENT
 674:Generated_Source\PSoC4/BLE_1_eventHandler.c ****     if((cyBle_eventHandlerFlag & CYBLE_CALLBACK) != 0u)
 675:Generated_Source\PSoC4/BLE_1_eventHandler.c ****     {
 676:Generated_Source\PSoC4/BLE_1_eventHandler.c ****         CyBle_HidscWriteResponseEventHandler(eventParam);
 677:Generated_Source\PSoC4/BLE_1_eventHandler.c ****     }
 678:Generated_Source\PSoC4/BLE_1_eventHandler.c **** #endif /* CYBLE_HIDS_CLIENT */
 679:Generated_Source\PSoC4/BLE_1_eventHandler.c **** 
 680:Generated_Source\PSoC4/BLE_1_eventHandler.c **** #ifdef CYBLE_HPS_CLIENT
 681:Generated_Source\PSoC4/BLE_1_eventHandler.c ****     if((cyBle_eventHandlerFlag & CYBLE_CALLBACK) != 0u)
ARM GAS  C:\Users\ROUSSMA\AppData\Local\Temp\cc3gA5P4.s 			page 16


 682:Generated_Source\PSoC4/BLE_1_eventHandler.c ****     {
 683:Generated_Source\PSoC4/BLE_1_eventHandler.c ****         CyBle_HpscWriteResponseEventHandler(eventParam);
 684:Generated_Source\PSoC4/BLE_1_eventHandler.c ****     }
 685:Generated_Source\PSoC4/BLE_1_eventHandler.c **** #endif /* CYBLE_HPS_CLIENT */
 686:Generated_Source\PSoC4/BLE_1_eventHandler.c **** 
 687:Generated_Source\PSoC4/BLE_1_eventHandler.c **** #ifdef CYBLE_HRS_CLIENT
 688:Generated_Source\PSoC4/BLE_1_eventHandler.c ****     if((cyBle_eventHandlerFlag & CYBLE_CALLBACK) != 0u)
 689:Generated_Source\PSoC4/BLE_1_eventHandler.c ****     {
 690:Generated_Source\PSoC4/BLE_1_eventHandler.c ****         CyBle_HrscWriteResponseEventHandler(eventParam);
 691:Generated_Source\PSoC4/BLE_1_eventHandler.c ****     }
 692:Generated_Source\PSoC4/BLE_1_eventHandler.c **** #endif /* CYBLE_HRS_CLIENT */
 693:Generated_Source\PSoC4/BLE_1_eventHandler.c **** 
 694:Generated_Source\PSoC4/BLE_1_eventHandler.c **** #ifdef CYBLE_HTS_CLIENT
 695:Generated_Source\PSoC4/BLE_1_eventHandler.c ****     if((cyBle_eventHandlerFlag & CYBLE_CALLBACK) != 0u)
 696:Generated_Source\PSoC4/BLE_1_eventHandler.c ****     {
 697:Generated_Source\PSoC4/BLE_1_eventHandler.c ****         CyBle_HtscWriteResponseEventHandler(eventParam);
 698:Generated_Source\PSoC4/BLE_1_eventHandler.c ****     }
 699:Generated_Source\PSoC4/BLE_1_eventHandler.c **** #endif /* CYBLE_HTS_CLIENT */
 700:Generated_Source\PSoC4/BLE_1_eventHandler.c **** 
 701:Generated_Source\PSoC4/BLE_1_eventHandler.c **** #ifdef CYBLE_IPS_CLIENT
 702:Generated_Source\PSoC4/BLE_1_eventHandler.c ****     if((cyBle_eventHandlerFlag & CYBLE_CALLBACK) != 0u)
 703:Generated_Source\PSoC4/BLE_1_eventHandler.c ****     {
 704:Generated_Source\PSoC4/BLE_1_eventHandler.c ****         CyBle_IpscWriteResponseEventHandler(eventParam);
 705:Generated_Source\PSoC4/BLE_1_eventHandler.c ****     }
 706:Generated_Source\PSoC4/BLE_1_eventHandler.c **** #endif /* CYBLE_IPS_CLIENT */
 707:Generated_Source\PSoC4/BLE_1_eventHandler.c **** 
 708:Generated_Source\PSoC4/BLE_1_eventHandler.c **** #ifdef CYBLE_LLS_CLIENT
 709:Generated_Source\PSoC4/BLE_1_eventHandler.c ****     if((cyBle_eventHandlerFlag & CYBLE_CALLBACK) != 0u)
 710:Generated_Source\PSoC4/BLE_1_eventHandler.c ****     {
 711:Generated_Source\PSoC4/BLE_1_eventHandler.c ****         CyBle_LlscWriteResponseEventHandler(eventParam);
 712:Generated_Source\PSoC4/BLE_1_eventHandler.c ****     }
 713:Generated_Source\PSoC4/BLE_1_eventHandler.c **** #endif /* CYBLE_LLS_CLIENT */
 714:Generated_Source\PSoC4/BLE_1_eventHandler.c **** 
 715:Generated_Source\PSoC4/BLE_1_eventHandler.c **** #ifdef CYBLE_LNS_CLIENT
 716:Generated_Source\PSoC4/BLE_1_eventHandler.c ****     if((cyBle_eventHandlerFlag & CYBLE_CALLBACK) != 0u)
 717:Generated_Source\PSoC4/BLE_1_eventHandler.c ****     {
 718:Generated_Source\PSoC4/BLE_1_eventHandler.c ****         CyBle_LnscWriteResponseEventHandler(eventParam);
 719:Generated_Source\PSoC4/BLE_1_eventHandler.c ****     }
 720:Generated_Source\PSoC4/BLE_1_eventHandler.c **** #endif /* CYBLE_LNS_CLIENT */
 721:Generated_Source\PSoC4/BLE_1_eventHandler.c **** 
 722:Generated_Source\PSoC4/BLE_1_eventHandler.c **** #ifdef CYBLE_PASS_CLIENT
 723:Generated_Source\PSoC4/BLE_1_eventHandler.c ****     if((cyBle_eventHandlerFlag & CYBLE_CALLBACK) != 0u)
 724:Generated_Source\PSoC4/BLE_1_eventHandler.c ****     {
 725:Generated_Source\PSoC4/BLE_1_eventHandler.c ****         CyBle_PasscWriteResponseEventHandler(eventParam);
 726:Generated_Source\PSoC4/BLE_1_eventHandler.c ****     }
 727:Generated_Source\PSoC4/BLE_1_eventHandler.c **** #endif /* CYBLE_PASS_CLIENT */
 728:Generated_Source\PSoC4/BLE_1_eventHandler.c **** 
 729:Generated_Source\PSoC4/BLE_1_eventHandler.c **** #ifdef CYBLE_PLXS_CLIENT
 730:Generated_Source\PSoC4/BLE_1_eventHandler.c ****     if((cyBle_eventHandlerFlag & CYBLE_CALLBACK) != 0u)
 731:Generated_Source\PSoC4/BLE_1_eventHandler.c ****     {
 732:Generated_Source\PSoC4/BLE_1_eventHandler.c ****         CyBle_PlxscWriteResponseEventHandler(eventParam);
 733:Generated_Source\PSoC4/BLE_1_eventHandler.c ****     }
 734:Generated_Source\PSoC4/BLE_1_eventHandler.c **** #endif /* CYBLE_PASS_CLIENT */
 735:Generated_Source\PSoC4/BLE_1_eventHandler.c **** 
 736:Generated_Source\PSoC4/BLE_1_eventHandler.c **** #ifdef CYBLE_RSCS_CLIENT
 737:Generated_Source\PSoC4/BLE_1_eventHandler.c ****     if((cyBle_eventHandlerFlag & CYBLE_CALLBACK) != 0u)
 738:Generated_Source\PSoC4/BLE_1_eventHandler.c ****     {
ARM GAS  C:\Users\ROUSSMA\AppData\Local\Temp\cc3gA5P4.s 			page 17


 739:Generated_Source\PSoC4/BLE_1_eventHandler.c ****         CyBle_RscscWriteResponseEventHandler(eventParam);
 740:Generated_Source\PSoC4/BLE_1_eventHandler.c ****     }
 741:Generated_Source\PSoC4/BLE_1_eventHandler.c **** #endif /* CYBLE_RSCS_CLIENT */
 742:Generated_Source\PSoC4/BLE_1_eventHandler.c **** 
 743:Generated_Source\PSoC4/BLE_1_eventHandler.c **** #ifdef CYBLE_SCPS_CLIENT
 744:Generated_Source\PSoC4/BLE_1_eventHandler.c ****     if((cyBle_eventHandlerFlag & CYBLE_CALLBACK) != 0u)
 745:Generated_Source\PSoC4/BLE_1_eventHandler.c ****     {
 746:Generated_Source\PSoC4/BLE_1_eventHandler.c ****         CyBle_ScpscWriteResponseEventHandler(eventParam);
 747:Generated_Source\PSoC4/BLE_1_eventHandler.c ****     }
 748:Generated_Source\PSoC4/BLE_1_eventHandler.c **** #endif /* CYBLE_SCPS_CLIENT */
 749:Generated_Source\PSoC4/BLE_1_eventHandler.c **** 
 750:Generated_Source\PSoC4/BLE_1_eventHandler.c **** #ifdef CYBLE_TPS_CLIENT
 751:Generated_Source\PSoC4/BLE_1_eventHandler.c ****     if((cyBle_eventHandlerFlag & CYBLE_CALLBACK) != 0u)
 752:Generated_Source\PSoC4/BLE_1_eventHandler.c ****     {
 753:Generated_Source\PSoC4/BLE_1_eventHandler.c ****         CyBle_TpscWriteResponseEventHandler(eventParam);
 754:Generated_Source\PSoC4/BLE_1_eventHandler.c ****     }
 755:Generated_Source\PSoC4/BLE_1_eventHandler.c **** #endif /* CYBLE_TPS_CLIENT */
 756:Generated_Source\PSoC4/BLE_1_eventHandler.c **** 
 757:Generated_Source\PSoC4/BLE_1_eventHandler.c **** #ifdef CYBLE_UDS_CLIENT
 758:Generated_Source\PSoC4/BLE_1_eventHandler.c ****     if((cyBle_eventHandlerFlag & CYBLE_CALLBACK) != 0u)
 759:Generated_Source\PSoC4/BLE_1_eventHandler.c ****     {
 760:Generated_Source\PSoC4/BLE_1_eventHandler.c ****         CyBle_UdscWriteResponseEventHandler(eventParam);
 761:Generated_Source\PSoC4/BLE_1_eventHandler.c ****     }
 762:Generated_Source\PSoC4/BLE_1_eventHandler.c **** #endif /* CYBLE_UDS_CLIENT */
 763:Generated_Source\PSoC4/BLE_1_eventHandler.c **** #ifdef CYBLE_WPTS_CLIENT
 764:Generated_Source\PSoC4/BLE_1_eventHandler.c ****     if((cyBle_eventHandlerFlag & CYBLE_CALLBACK) != 0u)
 765:Generated_Source\PSoC4/BLE_1_eventHandler.c ****     {
 766:Generated_Source\PSoC4/BLE_1_eventHandler.c ****         CyBle_WptscWriteResponseEventHandler(eventParam);
 767:Generated_Source\PSoC4/BLE_1_eventHandler.c ****     }
 768:Generated_Source\PSoC4/BLE_1_eventHandler.c **** #endif /* CYBLE_WPTS_CLIENT */
 769:Generated_Source\PSoC4/BLE_1_eventHandler.c **** #ifdef CYBLE_WSS_CLIENT
 770:Generated_Source\PSoC4/BLE_1_eventHandler.c ****     if((cyBle_eventHandlerFlag & CYBLE_CALLBACK) != 0u)
 771:Generated_Source\PSoC4/BLE_1_eventHandler.c ****     {
 772:Generated_Source\PSoC4/BLE_1_eventHandler.c ****         CyBle_WsscWriteResponseEventHandler(eventParam);
 773:Generated_Source\PSoC4/BLE_1_eventHandler.c ****     }
 774:Generated_Source\PSoC4/BLE_1_eventHandler.c **** #endif /* CYBLE_WSS_CLIENT */
 775:Generated_Source\PSoC4/BLE_1_eventHandler.c **** }
 776:Generated_Source\PSoC4/BLE_1_eventHandler.c **** 
 777:Generated_Source\PSoC4/BLE_1_eventHandler.c **** 
 778:Generated_Source\PSoC4/BLE_1_eventHandler.c **** /******************************************************************************    
 779:Generated_Source\PSoC4/BLE_1_eventHandler.c **** * Function Name: CyBle_NotificationEventHandler
 780:Generated_Source\PSoC4/BLE_1_eventHandler.c **** ***************************************************************************//**
 781:Generated_Source\PSoC4/BLE_1_eventHandler.c **** * 
 782:Generated_Source\PSoC4/BLE_1_eventHandler.c **** *  Handles the Notification event from BLE stack.
 783:Generated_Source\PSoC4/BLE_1_eventHandler.c **** * 
 784:Generated_Source\PSoC4/BLE_1_eventHandler.c **** *  \param eventParam: event parameter
 785:Generated_Source\PSoC4/BLE_1_eventHandler.c **** * 
 786:Generated_Source\PSoC4/BLE_1_eventHandler.c **** * \return
 787:Generated_Source\PSoC4/BLE_1_eventHandler.c **** *  None
 788:Generated_Source\PSoC4/BLE_1_eventHandler.c **** * 
 789:Generated_Source\PSoC4/BLE_1_eventHandler.c **** ******************************************************************************/
 790:Generated_Source\PSoC4/BLE_1_eventHandler.c **** static void CyBle_NotificationEventHandler(CYBLE_GATTC_HANDLE_VALUE_NTF_PARAM_T *eventParam)
 791:Generated_Source\PSoC4/BLE_1_eventHandler.c **** {
 792:Generated_Source\PSoC4/BLE_1_eventHandler.c **** #ifdef CYBLE_AIOS_CLIENT
 793:Generated_Source\PSoC4/BLE_1_eventHandler.c ****     if((cyBle_eventHandlerFlag & CYBLE_CALLBACK) != 0u)
 794:Generated_Source\PSoC4/BLE_1_eventHandler.c ****     {
 795:Generated_Source\PSoC4/BLE_1_eventHandler.c ****         CyBle_AioscNotificationEventHandler(eventParam);
ARM GAS  C:\Users\ROUSSMA\AppData\Local\Temp\cc3gA5P4.s 			page 18


 796:Generated_Source\PSoC4/BLE_1_eventHandler.c ****     }
 797:Generated_Source\PSoC4/BLE_1_eventHandler.c **** #endif /* CYBLE_AIOS_CLIENT */
 798:Generated_Source\PSoC4/BLE_1_eventHandler.c **** #ifdef CYBLE_ANCS_CLIENT
 799:Generated_Source\PSoC4/BLE_1_eventHandler.c ****     CyBle_AncscNotificationEventHandler(eventParam);
 800:Generated_Source\PSoC4/BLE_1_eventHandler.c **** #endif /* CYBLE_ANCS_CLIENT */
 801:Generated_Source\PSoC4/BLE_1_eventHandler.c **** #ifdef CYBLE_ANS_CLIENT
 802:Generated_Source\PSoC4/BLE_1_eventHandler.c ****     if((cyBle_eventHandlerFlag & CYBLE_CALLBACK) != 0u)
 803:Generated_Source\PSoC4/BLE_1_eventHandler.c ****     {
 804:Generated_Source\PSoC4/BLE_1_eventHandler.c ****         CyBle_AnscNotificationEventHandler(eventParam);
 805:Generated_Source\PSoC4/BLE_1_eventHandler.c ****     }
 806:Generated_Source\PSoC4/BLE_1_eventHandler.c **** #endif /* CYBLE_ANS_CLIENT */
 807:Generated_Source\PSoC4/BLE_1_eventHandler.c **** #ifdef CYBLE_BAS_CLIENT
 808:Generated_Source\PSoC4/BLE_1_eventHandler.c ****     if((cyBle_eventHandlerFlag & CYBLE_CALLBACK) != 0u)
 809:Generated_Source\PSoC4/BLE_1_eventHandler.c ****     {
 810:Generated_Source\PSoC4/BLE_1_eventHandler.c ****         CyBle_BascNotificationEventHandler(eventParam);
 811:Generated_Source\PSoC4/BLE_1_eventHandler.c ****     }
 812:Generated_Source\PSoC4/BLE_1_eventHandler.c **** #endif /* CYBLE_BAS_CLIENT */
 813:Generated_Source\PSoC4/BLE_1_eventHandler.c **** #ifdef CYBLE_BLS_CLIENT
 814:Generated_Source\PSoC4/BLE_1_eventHandler.c ****     if((cyBle_eventHandlerFlag & CYBLE_CALLBACK) != 0u)
 815:Generated_Source\PSoC4/BLE_1_eventHandler.c ****     {
 816:Generated_Source\PSoC4/BLE_1_eventHandler.c ****         CyBle_BlscNotificationEventHandler(eventParam);
 817:Generated_Source\PSoC4/BLE_1_eventHandler.c ****     }
 818:Generated_Source\PSoC4/BLE_1_eventHandler.c **** #endif /* CYBLE_BLS_CLIENT */
 819:Generated_Source\PSoC4/BLE_1_eventHandler.c **** #ifdef CYBLE_CGMS_CLIENT
 820:Generated_Source\PSoC4/BLE_1_eventHandler.c ****     if((cyBle_eventHandlerFlag & CYBLE_CALLBACK) != 0u)
 821:Generated_Source\PSoC4/BLE_1_eventHandler.c ****     {
 822:Generated_Source\PSoC4/BLE_1_eventHandler.c ****         CyBle_CgmscNotificationEventHandler(eventParam);
 823:Generated_Source\PSoC4/BLE_1_eventHandler.c ****     }
 824:Generated_Source\PSoC4/BLE_1_eventHandler.c **** #endif /* CYBLE_CGMS_CLIENT */
 825:Generated_Source\PSoC4/BLE_1_eventHandler.c **** #ifdef CYBLE_CPS_CLIENT
 826:Generated_Source\PSoC4/BLE_1_eventHandler.c ****     if((cyBle_eventHandlerFlag & CYBLE_CALLBACK) != 0u)
 827:Generated_Source\PSoC4/BLE_1_eventHandler.c ****     {
 828:Generated_Source\PSoC4/BLE_1_eventHandler.c ****         CyBle_CpscNotificationEventHandler(eventParam);
 829:Generated_Source\PSoC4/BLE_1_eventHandler.c ****     }
 830:Generated_Source\PSoC4/BLE_1_eventHandler.c **** #endif /* CYBLE_CPS_CLIENT */
 831:Generated_Source\PSoC4/BLE_1_eventHandler.c **** #ifdef CYBLE_CSCS_CLIENT
 832:Generated_Source\PSoC4/BLE_1_eventHandler.c ****     if((cyBle_eventHandlerFlag & CYBLE_CALLBACK) != 0u)
 833:Generated_Source\PSoC4/BLE_1_eventHandler.c ****     {
 834:Generated_Source\PSoC4/BLE_1_eventHandler.c ****         CyBle_CscscNotificationEventHandler(eventParam);
 835:Generated_Source\PSoC4/BLE_1_eventHandler.c ****     }
 836:Generated_Source\PSoC4/BLE_1_eventHandler.c **** #endif /* CYBLE_CSCS_CLIENT */
 837:Generated_Source\PSoC4/BLE_1_eventHandler.c **** #ifdef CYBLE_CTS_CLIENT
 838:Generated_Source\PSoC4/BLE_1_eventHandler.c ****     if((cyBle_eventHandlerFlag & CYBLE_CALLBACK) != 0u)
 839:Generated_Source\PSoC4/BLE_1_eventHandler.c ****     {
 840:Generated_Source\PSoC4/BLE_1_eventHandler.c ****         CyBle_CtscNotificationEventHandler(eventParam);
 841:Generated_Source\PSoC4/BLE_1_eventHandler.c ****     }
 842:Generated_Source\PSoC4/BLE_1_eventHandler.c **** #endif /* CYBLE_CTS_CLIENT */
 843:Generated_Source\PSoC4/BLE_1_eventHandler.c **** #ifdef CYBLE_ESS_CLIENT
 844:Generated_Source\PSoC4/BLE_1_eventHandler.c ****     if((cyBle_eventHandlerFlag & CYBLE_CALLBACK) != 0u)
 845:Generated_Source\PSoC4/BLE_1_eventHandler.c ****     {
 846:Generated_Source\PSoC4/BLE_1_eventHandler.c ****         CyBle_EsscNotificationEventHandler(eventParam);
 847:Generated_Source\PSoC4/BLE_1_eventHandler.c ****     }
 848:Generated_Source\PSoC4/BLE_1_eventHandler.c **** #endif /* CYBLE_ESS_CLIENT */
 849:Generated_Source\PSoC4/BLE_1_eventHandler.c **** #ifdef CYBLE_GLS_CLIENT
 850:Generated_Source\PSoC4/BLE_1_eventHandler.c ****     if((cyBle_eventHandlerFlag & CYBLE_CALLBACK) != 0u)
 851:Generated_Source\PSoC4/BLE_1_eventHandler.c ****     {
 852:Generated_Source\PSoC4/BLE_1_eventHandler.c ****         CyBle_GlscNotificationEventHandler(eventParam);
ARM GAS  C:\Users\ROUSSMA\AppData\Local\Temp\cc3gA5P4.s 			page 19


 853:Generated_Source\PSoC4/BLE_1_eventHandler.c ****     }
 854:Generated_Source\PSoC4/BLE_1_eventHandler.c **** #endif /* CYBLE_GLS_CLIENT */
 855:Generated_Source\PSoC4/BLE_1_eventHandler.c **** #ifdef CYBLE_HIDS_CLIENT
 856:Generated_Source\PSoC4/BLE_1_eventHandler.c ****     if((cyBle_eventHandlerFlag & CYBLE_CALLBACK) != 0u)
 857:Generated_Source\PSoC4/BLE_1_eventHandler.c ****     {
 858:Generated_Source\PSoC4/BLE_1_eventHandler.c ****         CyBle_HidscNotificationEventHandler(eventParam);
 859:Generated_Source\PSoC4/BLE_1_eventHandler.c ****     }
 860:Generated_Source\PSoC4/BLE_1_eventHandler.c **** #endif /* CYBLE_HIDS_CLIENT */
 861:Generated_Source\PSoC4/BLE_1_eventHandler.c **** #ifdef CYBLE_HPS_CLIENT
 862:Generated_Source\PSoC4/BLE_1_eventHandler.c ****     if((cyBle_eventHandlerFlag & CYBLE_CALLBACK) != 0u)
 863:Generated_Source\PSoC4/BLE_1_eventHandler.c ****     {
 864:Generated_Source\PSoC4/BLE_1_eventHandler.c ****         CyBle_HpscNotificationEventHandler(eventParam);
 865:Generated_Source\PSoC4/BLE_1_eventHandler.c ****     }
 866:Generated_Source\PSoC4/BLE_1_eventHandler.c **** #endif /* CYBLE_HPS_CLIENT */
 867:Generated_Source\PSoC4/BLE_1_eventHandler.c **** #ifdef CYBLE_HRS_CLIENT
 868:Generated_Source\PSoC4/BLE_1_eventHandler.c ****     if((cyBle_eventHandlerFlag & CYBLE_CALLBACK) != 0u)
 869:Generated_Source\PSoC4/BLE_1_eventHandler.c ****     {
 870:Generated_Source\PSoC4/BLE_1_eventHandler.c ****         CyBle_HrscNotificationEventHandler(eventParam);
 871:Generated_Source\PSoC4/BLE_1_eventHandler.c ****     }
 872:Generated_Source\PSoC4/BLE_1_eventHandler.c **** #endif /* CYBLE_HRS_CLIENT */
 873:Generated_Source\PSoC4/BLE_1_eventHandler.c **** #ifdef CYBLE_HTS_CLIENT
 874:Generated_Source\PSoC4/BLE_1_eventHandler.c ****     if((cyBle_eventHandlerFlag & CYBLE_CALLBACK) != 0u)
 875:Generated_Source\PSoC4/BLE_1_eventHandler.c ****     {
 876:Generated_Source\PSoC4/BLE_1_eventHandler.c ****         CyBle_HtscNotificationEventHandler(eventParam);
 877:Generated_Source\PSoC4/BLE_1_eventHandler.c ****     }
 878:Generated_Source\PSoC4/BLE_1_eventHandler.c **** #endif /* CYBLE_HTS_CLIENT */
 879:Generated_Source\PSoC4/BLE_1_eventHandler.c **** #ifdef CYBLE_LNS_CLIENT
 880:Generated_Source\PSoC4/BLE_1_eventHandler.c ****     if((cyBle_eventHandlerFlag & CYBLE_CALLBACK) != 0u)
 881:Generated_Source\PSoC4/BLE_1_eventHandler.c ****     {
 882:Generated_Source\PSoC4/BLE_1_eventHandler.c ****         CyBle_LnscNotificationEventHandler(eventParam);
 883:Generated_Source\PSoC4/BLE_1_eventHandler.c ****     }
 884:Generated_Source\PSoC4/BLE_1_eventHandler.c **** #endif /* CYBLE_LNS_CLIENT */
 885:Generated_Source\PSoC4/BLE_1_eventHandler.c **** #ifdef CYBLE_PASS_CLIENT
 886:Generated_Source\PSoC4/BLE_1_eventHandler.c ****     if((cyBle_eventHandlerFlag & CYBLE_CALLBACK) != 0u)
 887:Generated_Source\PSoC4/BLE_1_eventHandler.c ****     {
 888:Generated_Source\PSoC4/BLE_1_eventHandler.c ****         CyBle_PasscNotificationEventHandler(eventParam);
 889:Generated_Source\PSoC4/BLE_1_eventHandler.c ****     }
 890:Generated_Source\PSoC4/BLE_1_eventHandler.c **** #endif /* CYBLE_PASS_CLIENT */
 891:Generated_Source\PSoC4/BLE_1_eventHandler.c **** #ifdef CYBLE_RSCS_CLIENT
 892:Generated_Source\PSoC4/BLE_1_eventHandler.c ****     if((cyBle_eventHandlerFlag & CYBLE_CALLBACK) != 0u)
 893:Generated_Source\PSoC4/BLE_1_eventHandler.c ****     {
 894:Generated_Source\PSoC4/BLE_1_eventHandler.c ****         CyBle_RscscNotificationEventHandler(eventParam);
 895:Generated_Source\PSoC4/BLE_1_eventHandler.c ****     }
 896:Generated_Source\PSoC4/BLE_1_eventHandler.c **** #endif /* CYBLE_RSCS_CLIENT */
 897:Generated_Source\PSoC4/BLE_1_eventHandler.c **** #ifdef CYBLE_SCPS_CLIENT
 898:Generated_Source\PSoC4/BLE_1_eventHandler.c ****     if((cyBle_eventHandlerFlag & CYBLE_CALLBACK) != 0u)
 899:Generated_Source\PSoC4/BLE_1_eventHandler.c ****     {
 900:Generated_Source\PSoC4/BLE_1_eventHandler.c ****         CyBle_ScpscNotificationEventHandler(eventParam);
 901:Generated_Source\PSoC4/BLE_1_eventHandler.c ****     }
 902:Generated_Source\PSoC4/BLE_1_eventHandler.c **** #endif /* CYBLE_SCPS_CLIENT */
 903:Generated_Source\PSoC4/BLE_1_eventHandler.c **** #ifdef CYBLE_TPS_CLIENT
 904:Generated_Source\PSoC4/BLE_1_eventHandler.c ****     if((cyBle_eventHandlerFlag & CYBLE_CALLBACK) != 0u)
 905:Generated_Source\PSoC4/BLE_1_eventHandler.c ****     {
 906:Generated_Source\PSoC4/BLE_1_eventHandler.c ****         CyBle_TpscNotificationEventHandler(eventParam);
 907:Generated_Source\PSoC4/BLE_1_eventHandler.c ****     }
 908:Generated_Source\PSoC4/BLE_1_eventHandler.c **** #endif /* CYBLE_TPS_CLIENT */
 909:Generated_Source\PSoC4/BLE_1_eventHandler.c **** #ifdef CYBLE_UDS_CLIENT
ARM GAS  C:\Users\ROUSSMA\AppData\Local\Temp\cc3gA5P4.s 			page 20


 910:Generated_Source\PSoC4/BLE_1_eventHandler.c ****     if((cyBle_eventHandlerFlag & CYBLE_CALLBACK) != 0u)
 911:Generated_Source\PSoC4/BLE_1_eventHandler.c ****     {
 912:Generated_Source\PSoC4/BLE_1_eventHandler.c ****         CyBle_UdscNotificationEventHandler(eventParam);
 913:Generated_Source\PSoC4/BLE_1_eventHandler.c ****     }
 914:Generated_Source\PSoC4/BLE_1_eventHandler.c **** #endif /* CYBLE_UDS_CLIENT */
 915:Generated_Source\PSoC4/BLE_1_eventHandler.c **** #ifdef CYBLE_WPTS_CLIENT
 916:Generated_Source\PSoC4/BLE_1_eventHandler.c ****     if((cyBle_eventHandlerFlag & CYBLE_CALLBACK) != 0u)
 917:Generated_Source\PSoC4/BLE_1_eventHandler.c ****     {
 918:Generated_Source\PSoC4/BLE_1_eventHandler.c ****         CyBle_WptscNotificationEventHandler(eventParam);
 919:Generated_Source\PSoC4/BLE_1_eventHandler.c ****     }
 920:Generated_Source\PSoC4/BLE_1_eventHandler.c **** #endif /* CYBLE_WPTS_CLIENT */
 921:Generated_Source\PSoC4/BLE_1_eventHandler.c **** }
 922:Generated_Source\PSoC4/BLE_1_eventHandler.c **** 
 923:Generated_Source\PSoC4/BLE_1_eventHandler.c **** 
 924:Generated_Source\PSoC4/BLE_1_eventHandler.c **** /******************************************************************************    
 925:Generated_Source\PSoC4/BLE_1_eventHandler.c **** * Function Name: CyBle_IndicationEventHandler
 926:Generated_Source\PSoC4/BLE_1_eventHandler.c **** ***************************************************************************//**
 927:Generated_Source\PSoC4/BLE_1_eventHandler.c **** * 
 928:Generated_Source\PSoC4/BLE_1_eventHandler.c **** *  Handles the Indication event from BLE stack.
 929:Generated_Source\PSoC4/BLE_1_eventHandler.c **** * 
 930:Generated_Source\PSoC4/BLE_1_eventHandler.c **** *  \param eventParam: event parameter
 931:Generated_Source\PSoC4/BLE_1_eventHandler.c **** * 
 932:Generated_Source\PSoC4/BLE_1_eventHandler.c **** * \return
 933:Generated_Source\PSoC4/BLE_1_eventHandler.c **** *  None
 934:Generated_Source\PSoC4/BLE_1_eventHandler.c **** * 
 935:Generated_Source\PSoC4/BLE_1_eventHandler.c **** ******************************************************************************/
 936:Generated_Source\PSoC4/BLE_1_eventHandler.c **** static void CyBle_IndicationEventHandler(CYBLE_GATTC_HANDLE_VALUE_IND_PARAM_T *eventParam)
 937:Generated_Source\PSoC4/BLE_1_eventHandler.c **** {
 938:Generated_Source\PSoC4/BLE_1_eventHandler.c **** #ifdef CYBLE_AIOS_CLIENT
 939:Generated_Source\PSoC4/BLE_1_eventHandler.c ****     if((cyBle_eventHandlerFlag & CYBLE_CALLBACK) != 0u)
 940:Generated_Source\PSoC4/BLE_1_eventHandler.c ****     {
 941:Generated_Source\PSoC4/BLE_1_eventHandler.c ****         CyBle_AioscIndicationEventHandler(eventParam);
 942:Generated_Source\PSoC4/BLE_1_eventHandler.c ****     }
 943:Generated_Source\PSoC4/BLE_1_eventHandler.c **** #endif /* CYBLE_AIOS_CLIENT */
 944:Generated_Source\PSoC4/BLE_1_eventHandler.c **** #ifdef CYBLE_BCS_CLIENT
 945:Generated_Source\PSoC4/BLE_1_eventHandler.c ****     if((cyBle_eventHandlerFlag & CYBLE_CALLBACK) != 0u)
 946:Generated_Source\PSoC4/BLE_1_eventHandler.c ****     {
 947:Generated_Source\PSoC4/BLE_1_eventHandler.c ****         CyBle_BcscIndicationEventHandler(eventParam);
 948:Generated_Source\PSoC4/BLE_1_eventHandler.c ****     }
 949:Generated_Source\PSoC4/BLE_1_eventHandler.c **** #endif /* CYBLE_BCS_CLIENT */
 950:Generated_Source\PSoC4/BLE_1_eventHandler.c **** #ifdef CYBLE_BLS_CLIENT
 951:Generated_Source\PSoC4/BLE_1_eventHandler.c ****     if((cyBle_eventHandlerFlag & CYBLE_CALLBACK) != 0u)
 952:Generated_Source\PSoC4/BLE_1_eventHandler.c ****     {
 953:Generated_Source\PSoC4/BLE_1_eventHandler.c ****         CyBle_BlscIndicationEventHandler(eventParam);
 954:Generated_Source\PSoC4/BLE_1_eventHandler.c ****     }
 955:Generated_Source\PSoC4/BLE_1_eventHandler.c **** #endif /* CYBLE_BLS_CLIENT */
 956:Generated_Source\PSoC4/BLE_1_eventHandler.c **** #ifdef CYBLE_CGMS_CLIENT
 957:Generated_Source\PSoC4/BLE_1_eventHandler.c ****     if((cyBle_eventHandlerFlag & CYBLE_CALLBACK) != 0u)
 958:Generated_Source\PSoC4/BLE_1_eventHandler.c ****     {
 959:Generated_Source\PSoC4/BLE_1_eventHandler.c ****         CyBle_CgmscIndicationEventHandler(eventParam);
 960:Generated_Source\PSoC4/BLE_1_eventHandler.c ****     }
 961:Generated_Source\PSoC4/BLE_1_eventHandler.c **** #endif /* CYBLE_CGMS_CLIENT */
 962:Generated_Source\PSoC4/BLE_1_eventHandler.c **** #ifdef CYBLE_CPS_CLIENT
 963:Generated_Source\PSoC4/BLE_1_eventHandler.c ****     if((cyBle_eventHandlerFlag & CYBLE_CALLBACK) != 0u)
 964:Generated_Source\PSoC4/BLE_1_eventHandler.c ****     {
 965:Generated_Source\PSoC4/BLE_1_eventHandler.c ****         CyBle_CpscIndicationEventHandler(eventParam);
 966:Generated_Source\PSoC4/BLE_1_eventHandler.c ****     }
ARM GAS  C:\Users\ROUSSMA\AppData\Local\Temp\cc3gA5P4.s 			page 21


 967:Generated_Source\PSoC4/BLE_1_eventHandler.c **** #endif /* CYBLE_CPS_CLIENT */
 968:Generated_Source\PSoC4/BLE_1_eventHandler.c **** #ifdef CYBLE_CSCS_CLIENT
 969:Generated_Source\PSoC4/BLE_1_eventHandler.c ****     if((cyBle_eventHandlerFlag & CYBLE_CALLBACK) != 0u)
 970:Generated_Source\PSoC4/BLE_1_eventHandler.c ****     {
 971:Generated_Source\PSoC4/BLE_1_eventHandler.c ****         CyBle_CscscIndicationEventHandler(eventParam);
 972:Generated_Source\PSoC4/BLE_1_eventHandler.c ****     }
 973:Generated_Source\PSoC4/BLE_1_eventHandler.c **** #endif /* CYBLE_CSCS_CLIENT */
 974:Generated_Source\PSoC4/BLE_1_eventHandler.c **** #ifdef CYBLE_ESS_CLIENT
 975:Generated_Source\PSoC4/BLE_1_eventHandler.c ****     if((cyBle_eventHandlerFlag & CYBLE_CALLBACK) != 0u)
 976:Generated_Source\PSoC4/BLE_1_eventHandler.c ****     {
 977:Generated_Source\PSoC4/BLE_1_eventHandler.c ****         CyBle_EsscIndicationEventHandler(eventParam);
 978:Generated_Source\PSoC4/BLE_1_eventHandler.c ****     }
 979:Generated_Source\PSoC4/BLE_1_eventHandler.c **** #endif /* CYBLE_ESS_CLIENT */
 980:Generated_Source\PSoC4/BLE_1_eventHandler.c **** #ifdef CYBLE_GLS_CLIENT
 981:Generated_Source\PSoC4/BLE_1_eventHandler.c ****     if((cyBle_eventHandlerFlag & CYBLE_CALLBACK) != 0u)
 982:Generated_Source\PSoC4/BLE_1_eventHandler.c ****     {
 983:Generated_Source\PSoC4/BLE_1_eventHandler.c ****         CyBle_GlscIndicationEventHandler(eventParam);
 984:Generated_Source\PSoC4/BLE_1_eventHandler.c ****     }
 985:Generated_Source\PSoC4/BLE_1_eventHandler.c **** #endif /* CYBLE_GLS_CLIENT */
 986:Generated_Source\PSoC4/BLE_1_eventHandler.c **** #ifdef CYBLE_HTS_CLIENT
 987:Generated_Source\PSoC4/BLE_1_eventHandler.c ****     if((cyBle_eventHandlerFlag & CYBLE_CALLBACK) != 0u)
 988:Generated_Source\PSoC4/BLE_1_eventHandler.c ****     {
 989:Generated_Source\PSoC4/BLE_1_eventHandler.c ****         CyBle_HtscIndicationEventHandler(eventParam);
 990:Generated_Source\PSoC4/BLE_1_eventHandler.c ****     }
 991:Generated_Source\PSoC4/BLE_1_eventHandler.c **** #endif /* CYBLE_HTS_CLIENT */
 992:Generated_Source\PSoC4/BLE_1_eventHandler.c **** #ifdef CYBLE_LNS_CLIENT
 993:Generated_Source\PSoC4/BLE_1_eventHandler.c ****     if((cyBle_eventHandlerFlag & CYBLE_CALLBACK) != 0u)
 994:Generated_Source\PSoC4/BLE_1_eventHandler.c ****     {
 995:Generated_Source\PSoC4/BLE_1_eventHandler.c ****         CyBle_LnscIndicationEventHandler(eventParam);
 996:Generated_Source\PSoC4/BLE_1_eventHandler.c ****     }
 997:Generated_Source\PSoC4/BLE_1_eventHandler.c **** #endif /* CYBLE_LNS_CLIENT */
 998:Generated_Source\PSoC4/BLE_1_eventHandler.c **** #ifdef CYBLE_RSCS_CLIENT
 999:Generated_Source\PSoC4/BLE_1_eventHandler.c ****     if((cyBle_eventHandlerFlag & CYBLE_CALLBACK) != 0u)
1000:Generated_Source\PSoC4/BLE_1_eventHandler.c ****     {
1001:Generated_Source\PSoC4/BLE_1_eventHandler.c ****         CyBle_RscscIndicationEventHandler(eventParam);
1002:Generated_Source\PSoC4/BLE_1_eventHandler.c ****     }
1003:Generated_Source\PSoC4/BLE_1_eventHandler.c **** #endif /* CYBLE_RSCS_CLIENT */
1004:Generated_Source\PSoC4/BLE_1_eventHandler.c **** #ifdef CYBLE_UDS_CLIENT
1005:Generated_Source\PSoC4/BLE_1_eventHandler.c ****     if((cyBle_eventHandlerFlag & CYBLE_CALLBACK) != 0u)
1006:Generated_Source\PSoC4/BLE_1_eventHandler.c ****     {
1007:Generated_Source\PSoC4/BLE_1_eventHandler.c ****         CyBle_UdscIndicationEventHandler(eventParam);
1008:Generated_Source\PSoC4/BLE_1_eventHandler.c ****     }
1009:Generated_Source\PSoC4/BLE_1_eventHandler.c **** #endif /* CYBLE_UDS_CLIENT */
1010:Generated_Source\PSoC4/BLE_1_eventHandler.c **** #ifdef CYBLE_WPTS_CLIENT
1011:Generated_Source\PSoC4/BLE_1_eventHandler.c ****     if((cyBle_eventHandlerFlag & CYBLE_CALLBACK) != 0u)
1012:Generated_Source\PSoC4/BLE_1_eventHandler.c ****     {
1013:Generated_Source\PSoC4/BLE_1_eventHandler.c ****         CyBle_WptscIndicationEventHandler(eventParam);
1014:Generated_Source\PSoC4/BLE_1_eventHandler.c ****     }
1015:Generated_Source\PSoC4/BLE_1_eventHandler.c **** #endif /* CYBLE_WPTS_CLIENT */
1016:Generated_Source\PSoC4/BLE_1_eventHandler.c **** #ifdef CYBLE_WSS_CLIENT
1017:Generated_Source\PSoC4/BLE_1_eventHandler.c ****     if((cyBle_eventHandlerFlag & CYBLE_CALLBACK) != 0u)
1018:Generated_Source\PSoC4/BLE_1_eventHandler.c ****     {
1019:Generated_Source\PSoC4/BLE_1_eventHandler.c ****         CyBle_WsscIndicationEventHandler(eventParam);
1020:Generated_Source\PSoC4/BLE_1_eventHandler.c ****     }
1021:Generated_Source\PSoC4/BLE_1_eventHandler.c **** #endif /* CYBLE_WSS_CLIENT */
1022:Generated_Source\PSoC4/BLE_1_eventHandler.c **** }
1023:Generated_Source\PSoC4/BLE_1_eventHandler.c **** 
ARM GAS  C:\Users\ROUSSMA\AppData\Local\Temp\cc3gA5P4.s 			page 22


1024:Generated_Source\PSoC4/BLE_1_eventHandler.c **** /******************************************************************************    
1025:Generated_Source\PSoC4/BLE_1_eventHandler.c **** * Function Name: CyBle_ReadResponseEventHandler
1026:Generated_Source\PSoC4/BLE_1_eventHandler.c **** ***************************************************************************//**
1027:Generated_Source\PSoC4/BLE_1_eventHandler.c **** * 
1028:Generated_Source\PSoC4/BLE_1_eventHandler.c **** *  Handles the Read Response event from BLE stack.
1029:Generated_Source\PSoC4/BLE_1_eventHandler.c **** * 
1030:Generated_Source\PSoC4/BLE_1_eventHandler.c **** *  \param eventParam: event parameter
1031:Generated_Source\PSoC4/BLE_1_eventHandler.c **** * 
1032:Generated_Source\PSoC4/BLE_1_eventHandler.c **** * \return
1033:Generated_Source\PSoC4/BLE_1_eventHandler.c **** *  None
1034:Generated_Source\PSoC4/BLE_1_eventHandler.c **** * 
1035:Generated_Source\PSoC4/BLE_1_eventHandler.c **** ******************************************************************************/
1036:Generated_Source\PSoC4/BLE_1_eventHandler.c **** static void CyBle_ReadResponseEventHandler(CYBLE_GATTC_READ_RSP_PARAM_T *eventParam)
1037:Generated_Source\PSoC4/BLE_1_eventHandler.c **** {
1038:Generated_Source\PSoC4/BLE_1_eventHandler.c **** #ifdef CYBLE_CUSTOM_CLIENT
1039:Generated_Source\PSoC4/BLE_1_eventHandler.c ****     /* Read response with 128-bit included service uuid */
1040:Generated_Source\PSoC4/BLE_1_eventHandler.c ****     if((CyBle_GetClientState() == CYBLE_CLIENT_STATE_INCL_DISCOVERING) &&
1041:Generated_Source\PSoC4/BLE_1_eventHandler.c ****        (cyBle_discInclInfo.inclDefHandle != 0u))
1042:Generated_Source\PSoC4/BLE_1_eventHandler.c ****     {
1043:Generated_Source\PSoC4/BLE_1_eventHandler.c ****         CYBLE_DISC_SRVC128_INFO_T discServInfo;
1044:Generated_Source\PSoC4/BLE_1_eventHandler.c **** 
1045:Generated_Source\PSoC4/BLE_1_eventHandler.c ****         /* Store service range */
1046:Generated_Source\PSoC4/BLE_1_eventHandler.c ****         discServInfo.range = cyBle_discInclInfo.inclHandleRange;
1047:Generated_Source\PSoC4/BLE_1_eventHandler.c ****         (void)memcpy((void *) discServInfo.uuid.uuid128.value, (void *)eventParam->value.val, event
1048:Generated_Source\PSoC4/BLE_1_eventHandler.c ****         CyBle_CustomcDiscoverServiceEventHandler(&discServInfo);
1049:Generated_Source\PSoC4/BLE_1_eventHandler.c ****         
1050:Generated_Source\PSoC4/BLE_1_eventHandler.c ****         /* Re-initiate CyBle_GattcFindIncludedServices function, setting the start
1051:Generated_Source\PSoC4/BLE_1_eventHandler.c ****            handle to the attribute handle which is placed next to the one used in
1052:Generated_Source\PSoC4/BLE_1_eventHandler.c ****            the above step.
1053:Generated_Source\PSoC4/BLE_1_eventHandler.c ****         */
1054:Generated_Source\PSoC4/BLE_1_eventHandler.c ****         discServInfo.range.startHandle = cyBle_discInclInfo.inclDefHandle + 1u;
1055:Generated_Source\PSoC4/BLE_1_eventHandler.c ****         discServInfo.range.endHandle = cyBle_serverInfo[cyBle_disCount].range.endHandle;
1056:Generated_Source\PSoC4/BLE_1_eventHandler.c ****         if(discServInfo.range.startHandle <= discServInfo.range.endHandle)
1057:Generated_Source\PSoC4/BLE_1_eventHandler.c ****         {
1058:Generated_Source\PSoC4/BLE_1_eventHandler.c ****             if(CYBLE_ERROR_OK != CyBle_GattcFindIncludedServices(cyBle_connHandle, &discServInfo.ra
1059:Generated_Source\PSoC4/BLE_1_eventHandler.c ****             {
1060:Generated_Source\PSoC4/BLE_1_eventHandler.c ****                 CyBle_ApplCallback(CYBLE_EVT_GATTC_INCL_DISCOVERY_FAILED, NULL);
1061:Generated_Source\PSoC4/BLE_1_eventHandler.c ****                 cyBle_eventHandlerFlag &= (uint8)~CYBLE_AUTO_DISCOVERY;
1062:Generated_Source\PSoC4/BLE_1_eventHandler.c ****             }
1063:Generated_Source\PSoC4/BLE_1_eventHandler.c ****         }
1064:Generated_Source\PSoC4/BLE_1_eventHandler.c ****         else /* Continue discovery of the following service */
1065:Generated_Source\PSoC4/BLE_1_eventHandler.c ****         {
1066:Generated_Source\PSoC4/BLE_1_eventHandler.c ****             CyBle_NextInclDiscovery(CYBLE_DISCOVERY_CONTINUE);
1067:Generated_Source\PSoC4/BLE_1_eventHandler.c ****         }
1068:Generated_Source\PSoC4/BLE_1_eventHandler.c ****         
1069:Generated_Source\PSoC4/BLE_1_eventHandler.c ****         cyBle_eventHandlerFlag &= (uint8)~CYBLE_CALLBACK;
1070:Generated_Source\PSoC4/BLE_1_eventHandler.c ****     #ifdef CYBLE_CUSTOM_CLIENT
1071:Generated_Source\PSoC4/BLE_1_eventHandler.c ****         cyBle_discInclInfo.inclDefHandle = 0u;
1072:Generated_Source\PSoC4/BLE_1_eventHandler.c ****     #endif /* CYBLE_CUSTOM_CLIENT */
1073:Generated_Source\PSoC4/BLE_1_eventHandler.c ****     }
1074:Generated_Source\PSoC4/BLE_1_eventHandler.c **** #endif /* CYBLE_CUSTOM_CLIENT */
1075:Generated_Source\PSoC4/BLE_1_eventHandler.c **** #ifdef CYBLE_AIOS_CLIENT
1076:Generated_Source\PSoC4/BLE_1_eventHandler.c ****     if((cyBle_eventHandlerFlag & CYBLE_CALLBACK) != 0u)
1077:Generated_Source\PSoC4/BLE_1_eventHandler.c ****     {
1078:Generated_Source\PSoC4/BLE_1_eventHandler.c ****         CyBle_AioscReadResponseEventHandler(eventParam);
1079:Generated_Source\PSoC4/BLE_1_eventHandler.c ****     }
1080:Generated_Source\PSoC4/BLE_1_eventHandler.c **** #endif /* CYBLE_AIOS_CLIENT */
ARM GAS  C:\Users\ROUSSMA\AppData\Local\Temp\cc3gA5P4.s 			page 23


1081:Generated_Source\PSoC4/BLE_1_eventHandler.c **** #ifdef CYBLE_ANCS_CLIENT
1082:Generated_Source\PSoC4/BLE_1_eventHandler.c ****     if((cyBle_eventHandlerFlag & CYBLE_CALLBACK) != 0u)
1083:Generated_Source\PSoC4/BLE_1_eventHandler.c ****     {
1084:Generated_Source\PSoC4/BLE_1_eventHandler.c ****         CyBle_AncscReadResponseEventHandler(eventParam);
1085:Generated_Source\PSoC4/BLE_1_eventHandler.c ****     }
1086:Generated_Source\PSoC4/BLE_1_eventHandler.c **** #endif /* CYBLE_ANCS_CLIENT */
1087:Generated_Source\PSoC4/BLE_1_eventHandler.c **** #ifdef CYBLE_ANS_CLIENT
1088:Generated_Source\PSoC4/BLE_1_eventHandler.c ****     if((cyBle_eventHandlerFlag & CYBLE_CALLBACK) != 0u)
1089:Generated_Source\PSoC4/BLE_1_eventHandler.c ****     {
1090:Generated_Source\PSoC4/BLE_1_eventHandler.c ****         CyBle_AnscReadResponseEventHandler(eventParam);
1091:Generated_Source\PSoC4/BLE_1_eventHandler.c ****     }
1092:Generated_Source\PSoC4/BLE_1_eventHandler.c **** #endif /* CYBLE_ANS_CLIENT */
1093:Generated_Source\PSoC4/BLE_1_eventHandler.c **** #ifdef CYBLE_BAS_CLIENT
1094:Generated_Source\PSoC4/BLE_1_eventHandler.c ****     if((cyBle_eventHandlerFlag & CYBLE_CALLBACK) != 0u)
1095:Generated_Source\PSoC4/BLE_1_eventHandler.c ****     {
1096:Generated_Source\PSoC4/BLE_1_eventHandler.c ****         CyBle_BascReadResponseEventHandler(eventParam);
1097:Generated_Source\PSoC4/BLE_1_eventHandler.c ****     }
1098:Generated_Source\PSoC4/BLE_1_eventHandler.c **** #endif /* CYBLE_BAS_CLIENT */
1099:Generated_Source\PSoC4/BLE_1_eventHandler.c **** #ifdef CYBLE_BLS_CLIENT
1100:Generated_Source\PSoC4/BLE_1_eventHandler.c ****     if((cyBle_eventHandlerFlag & CYBLE_CALLBACK) != 0u)
1101:Generated_Source\PSoC4/BLE_1_eventHandler.c ****     {
1102:Generated_Source\PSoC4/BLE_1_eventHandler.c ****         CyBle_BlscReadResponseEventHandler(eventParam);
1103:Generated_Source\PSoC4/BLE_1_eventHandler.c ****     }
1104:Generated_Source\PSoC4/BLE_1_eventHandler.c **** #endif /* CYBLE_BLS_CLIENT */
1105:Generated_Source\PSoC4/BLE_1_eventHandler.c **** #ifdef CYBLE_BCS_CLIENT
1106:Generated_Source\PSoC4/BLE_1_eventHandler.c ****     if((cyBle_eventHandlerFlag & CYBLE_CALLBACK) != 0u)
1107:Generated_Source\PSoC4/BLE_1_eventHandler.c ****     {
1108:Generated_Source\PSoC4/BLE_1_eventHandler.c ****         CyBle_BcscReadResponseEventHandler(eventParam);
1109:Generated_Source\PSoC4/BLE_1_eventHandler.c ****     }
1110:Generated_Source\PSoC4/BLE_1_eventHandler.c **** #endif /* CYBLE_BCS_CLIENT */
1111:Generated_Source\PSoC4/BLE_1_eventHandler.c **** #ifdef CYBLE_BMS_CLIENT
1112:Generated_Source\PSoC4/BLE_1_eventHandler.c ****     if((cyBle_eventHandlerFlag & CYBLE_CALLBACK) != 0u)
1113:Generated_Source\PSoC4/BLE_1_eventHandler.c ****     {
1114:Generated_Source\PSoC4/BLE_1_eventHandler.c ****         CyBle_BmscReadResponseEventHandler(eventParam);
1115:Generated_Source\PSoC4/BLE_1_eventHandler.c ****     }
1116:Generated_Source\PSoC4/BLE_1_eventHandler.c **** #endif /* CYBLE_BMS_CLIENT */
1117:Generated_Source\PSoC4/BLE_1_eventHandler.c **** #ifdef CYBLE_CGMS_CLIENT
1118:Generated_Source\PSoC4/BLE_1_eventHandler.c ****     if((cyBle_eventHandlerFlag & CYBLE_CALLBACK) != 0u)
1119:Generated_Source\PSoC4/BLE_1_eventHandler.c ****     {
1120:Generated_Source\PSoC4/BLE_1_eventHandler.c ****         CyBle_CgmscReadResponseEventHandler(eventParam);
1121:Generated_Source\PSoC4/BLE_1_eventHandler.c ****     }
1122:Generated_Source\PSoC4/BLE_1_eventHandler.c **** #endif /* CYBLE_CGMS_CLIENT */
1123:Generated_Source\PSoC4/BLE_1_eventHandler.c **** #ifdef CYBLE_CPS_CLIENT
1124:Generated_Source\PSoC4/BLE_1_eventHandler.c ****     if((cyBle_eventHandlerFlag & CYBLE_CALLBACK) != 0u)
1125:Generated_Source\PSoC4/BLE_1_eventHandler.c ****     {
1126:Generated_Source\PSoC4/BLE_1_eventHandler.c ****         CyBle_CpscReadResponseEventHandler(eventParam);
1127:Generated_Source\PSoC4/BLE_1_eventHandler.c ****     }
1128:Generated_Source\PSoC4/BLE_1_eventHandler.c **** #endif /* CYBLE_CPS_CLIENT */
1129:Generated_Source\PSoC4/BLE_1_eventHandler.c **** #ifdef CYBLE_CSCS_CLIENT
1130:Generated_Source\PSoC4/BLE_1_eventHandler.c ****     if((cyBle_eventHandlerFlag & CYBLE_CALLBACK) != 0u)
1131:Generated_Source\PSoC4/BLE_1_eventHandler.c ****     {
1132:Generated_Source\PSoC4/BLE_1_eventHandler.c ****         CyBle_CscscReadResponseEventHandler(eventParam);
1133:Generated_Source\PSoC4/BLE_1_eventHandler.c ****     }
1134:Generated_Source\PSoC4/BLE_1_eventHandler.c **** #endif /* CYBLE_CSCS_CLIENT */
1135:Generated_Source\PSoC4/BLE_1_eventHandler.c **** #ifdef CYBLE_CTS_CLIENT
1136:Generated_Source\PSoC4/BLE_1_eventHandler.c ****     if((cyBle_eventHandlerFlag & CYBLE_CALLBACK) != 0u)
1137:Generated_Source\PSoC4/BLE_1_eventHandler.c ****     {
ARM GAS  C:\Users\ROUSSMA\AppData\Local\Temp\cc3gA5P4.s 			page 24


1138:Generated_Source\PSoC4/BLE_1_eventHandler.c ****         CyBle_CtscReadResponseEventHandler(eventParam);
1139:Generated_Source\PSoC4/BLE_1_eventHandler.c ****     }
1140:Generated_Source\PSoC4/BLE_1_eventHandler.c **** #endif /* CYBLE_BAS_CLIENT */
1141:Generated_Source\PSoC4/BLE_1_eventHandler.c **** #ifdef CYBLE_DIS_CLIENT
1142:Generated_Source\PSoC4/BLE_1_eventHandler.c ****     if((cyBle_eventHandlerFlag & CYBLE_CALLBACK) != 0u)
1143:Generated_Source\PSoC4/BLE_1_eventHandler.c ****     {
1144:Generated_Source\PSoC4/BLE_1_eventHandler.c ****         CyBle_DiscReadResponseEventHandler(eventParam);
1145:Generated_Source\PSoC4/BLE_1_eventHandler.c ****     }
1146:Generated_Source\PSoC4/BLE_1_eventHandler.c **** #endif /* CYBLE_DIS_CLIENT */
1147:Generated_Source\PSoC4/BLE_1_eventHandler.c **** #ifdef CYBLE_ESS_CLIENT
1148:Generated_Source\PSoC4/BLE_1_eventHandler.c ****     if((cyBle_eventHandlerFlag & CYBLE_CALLBACK) != 0u)
1149:Generated_Source\PSoC4/BLE_1_eventHandler.c ****     {
1150:Generated_Source\PSoC4/BLE_1_eventHandler.c ****         CyBle_EsscReadResponseEventHandler(eventParam);
1151:Generated_Source\PSoC4/BLE_1_eventHandler.c ****     }
1152:Generated_Source\PSoC4/BLE_1_eventHandler.c **** #endif /* CYBLE_ESS_CLIENT */
1153:Generated_Source\PSoC4/BLE_1_eventHandler.c **** #ifdef CYBLE_GLS_CLIENT
1154:Generated_Source\PSoC4/BLE_1_eventHandler.c ****     if((cyBle_eventHandlerFlag & CYBLE_CALLBACK) != 0u)
1155:Generated_Source\PSoC4/BLE_1_eventHandler.c ****     {
1156:Generated_Source\PSoC4/BLE_1_eventHandler.c ****         CyBle_GlscReadResponseEventHandler(eventParam);
1157:Generated_Source\PSoC4/BLE_1_eventHandler.c ****     }
1158:Generated_Source\PSoC4/BLE_1_eventHandler.c **** #endif /* CYBLE_GLS_CLIENT */
1159:Generated_Source\PSoC4/BLE_1_eventHandler.c **** #ifdef CYBLE_HIDS_CLIENT
1160:Generated_Source\PSoC4/BLE_1_eventHandler.c ****     if((cyBle_eventHandlerFlag & CYBLE_CALLBACK) != 0u)
1161:Generated_Source\PSoC4/BLE_1_eventHandler.c ****     {
1162:Generated_Source\PSoC4/BLE_1_eventHandler.c ****         CyBle_HidscReadResponseEventHandler(eventParam);
1163:Generated_Source\PSoC4/BLE_1_eventHandler.c ****     }
1164:Generated_Source\PSoC4/BLE_1_eventHandler.c **** #endif /* CYBLE_HIDS_CLIENT */
1165:Generated_Source\PSoC4/BLE_1_eventHandler.c **** #ifdef CYBLE_HPS_CLIENT
1166:Generated_Source\PSoC4/BLE_1_eventHandler.c ****     if((cyBle_eventHandlerFlag & CYBLE_CALLBACK) != 0u)
1167:Generated_Source\PSoC4/BLE_1_eventHandler.c ****     {
1168:Generated_Source\PSoC4/BLE_1_eventHandler.c ****         CyBle_HpscReadResponseEventHandler(eventParam);
1169:Generated_Source\PSoC4/BLE_1_eventHandler.c ****     }
1170:Generated_Source\PSoC4/BLE_1_eventHandler.c **** #endif /* CYBLE_HPS_CLIENT */
1171:Generated_Source\PSoC4/BLE_1_eventHandler.c **** #ifdef CYBLE_HRS_CLIENT
1172:Generated_Source\PSoC4/BLE_1_eventHandler.c ****     if((cyBle_eventHandlerFlag & CYBLE_CALLBACK) != 0u)
1173:Generated_Source\PSoC4/BLE_1_eventHandler.c ****     {
1174:Generated_Source\PSoC4/BLE_1_eventHandler.c ****         CyBle_HrscReadResponseEventHandler(eventParam);
1175:Generated_Source\PSoC4/BLE_1_eventHandler.c ****     }
1176:Generated_Source\PSoC4/BLE_1_eventHandler.c **** #endif /* CYBLE_HRS_CLIENT */
1177:Generated_Source\PSoC4/BLE_1_eventHandler.c **** #ifdef CYBLE_HTS_CLIENT
1178:Generated_Source\PSoC4/BLE_1_eventHandler.c ****     if((cyBle_eventHandlerFlag & CYBLE_CALLBACK) != 0u)
1179:Generated_Source\PSoC4/BLE_1_eventHandler.c ****     {
1180:Generated_Source\PSoC4/BLE_1_eventHandler.c ****         CyBle_HtscReadResponseEventHandler(eventParam);
1181:Generated_Source\PSoC4/BLE_1_eventHandler.c ****     }
1182:Generated_Source\PSoC4/BLE_1_eventHandler.c **** #endif /* CYBLE_HTS_CLIENT */
1183:Generated_Source\PSoC4/BLE_1_eventHandler.c **** #ifdef CYBLE_IPS_CLIENT
1184:Generated_Source\PSoC4/BLE_1_eventHandler.c ****     if((cyBle_eventHandlerFlag & CYBLE_CALLBACK) != 0u)
1185:Generated_Source\PSoC4/BLE_1_eventHandler.c ****     {
1186:Generated_Source\PSoC4/BLE_1_eventHandler.c ****         CyBle_IpscReadResponseEventHandler(eventParam);
1187:Generated_Source\PSoC4/BLE_1_eventHandler.c ****     }
1188:Generated_Source\PSoC4/BLE_1_eventHandler.c **** #endif /* CYBLE_IPS_CLIENT */
1189:Generated_Source\PSoC4/BLE_1_eventHandler.c **** #ifdef CYBLE_LLS_CLIENT
1190:Generated_Source\PSoC4/BLE_1_eventHandler.c ****     if((cyBle_eventHandlerFlag & CYBLE_CALLBACK) != 0u)
1191:Generated_Source\PSoC4/BLE_1_eventHandler.c ****     {
1192:Generated_Source\PSoC4/BLE_1_eventHandler.c ****         CyBle_LlscReadResponseEventHandler(eventParam);
1193:Generated_Source\PSoC4/BLE_1_eventHandler.c ****     }
1194:Generated_Source\PSoC4/BLE_1_eventHandler.c **** #endif /* CYBLE_LLS_CLIENT */
ARM GAS  C:\Users\ROUSSMA\AppData\Local\Temp\cc3gA5P4.s 			page 25


1195:Generated_Source\PSoC4/BLE_1_eventHandler.c **** #ifdef CYBLE_LNS_CLIENT
1196:Generated_Source\PSoC4/BLE_1_eventHandler.c ****     if((cyBle_eventHandlerFlag & CYBLE_CALLBACK) != 0u)
1197:Generated_Source\PSoC4/BLE_1_eventHandler.c ****     {
1198:Generated_Source\PSoC4/BLE_1_eventHandler.c ****         CyBle_LnscReadResponseEventHandler(eventParam);
1199:Generated_Source\PSoC4/BLE_1_eventHandler.c ****     }
1200:Generated_Source\PSoC4/BLE_1_eventHandler.c **** #endif /* CYBLE_LNS_CLIENT */
1201:Generated_Source\PSoC4/BLE_1_eventHandler.c **** #ifdef CYBLE_NDCS_CLIENT
1202:Generated_Source\PSoC4/BLE_1_eventHandler.c ****     if((cyBle_eventHandlerFlag & CYBLE_CALLBACK) != 0u)
1203:Generated_Source\PSoC4/BLE_1_eventHandler.c ****     {
1204:Generated_Source\PSoC4/BLE_1_eventHandler.c ****         CyBle_NdcscReadResponseEventHandler(eventParam);
1205:Generated_Source\PSoC4/BLE_1_eventHandler.c ****     }
1206:Generated_Source\PSoC4/BLE_1_eventHandler.c **** #endif /* CYBLE_NDCS_CLIENT */
1207:Generated_Source\PSoC4/BLE_1_eventHandler.c **** #ifdef CYBLE_PASS_CLIENT
1208:Generated_Source\PSoC4/BLE_1_eventHandler.c ****     if((cyBle_eventHandlerFlag & CYBLE_CALLBACK) != 0u)
1209:Generated_Source\PSoC4/BLE_1_eventHandler.c ****     {
1210:Generated_Source\PSoC4/BLE_1_eventHandler.c ****         CyBle_PasscReadResponseEventHandler(eventParam);
1211:Generated_Source\PSoC4/BLE_1_eventHandler.c ****     }
1212:Generated_Source\PSoC4/BLE_1_eventHandler.c **** #endif /* CYBLE_PASS_CLIENT */
1213:Generated_Source\PSoC4/BLE_1_eventHandler.c **** #ifdef CYBLE_PLXS_CLIENT
1214:Generated_Source\PSoC4/BLE_1_eventHandler.c ****     if((cyBle_eventHandlerFlag & CYBLE_CALLBACK) != 0u)
1215:Generated_Source\PSoC4/BLE_1_eventHandler.c ****     {
1216:Generated_Source\PSoC4/BLE_1_eventHandler.c ****         CyBle_PlxscReadResponseEventHandler(eventParam);
1217:Generated_Source\PSoC4/BLE_1_eventHandler.c ****     }
1218:Generated_Source\PSoC4/BLE_1_eventHandler.c **** #endif /* CYBLE_PLXS_CLIENT */
1219:Generated_Source\PSoC4/BLE_1_eventHandler.c **** #ifdef CYBLE_RSCS_CLIENT
1220:Generated_Source\PSoC4/BLE_1_eventHandler.c ****     if((cyBle_eventHandlerFlag & CYBLE_CALLBACK) != 0u)
1221:Generated_Source\PSoC4/BLE_1_eventHandler.c ****     {
1222:Generated_Source\PSoC4/BLE_1_eventHandler.c ****         CyBle_RscscReadResponseEventHandler(eventParam);
1223:Generated_Source\PSoC4/BLE_1_eventHandler.c ****     }
1224:Generated_Source\PSoC4/BLE_1_eventHandler.c **** #endif /* CYBLE_RSCS_CLIENT */
1225:Generated_Source\PSoC4/BLE_1_eventHandler.c **** #ifdef CYBLE_RTUS_CLIENT
1226:Generated_Source\PSoC4/BLE_1_eventHandler.c ****     if((cyBle_eventHandlerFlag & CYBLE_CALLBACK) != 0u)
1227:Generated_Source\PSoC4/BLE_1_eventHandler.c ****     {
1228:Generated_Source\PSoC4/BLE_1_eventHandler.c ****         CyBle_RtuscReadResponseEventHandler(eventParam);
1229:Generated_Source\PSoC4/BLE_1_eventHandler.c ****     }
1230:Generated_Source\PSoC4/BLE_1_eventHandler.c **** #endif /* CYBLE_RTUS_CLIENT */
1231:Generated_Source\PSoC4/BLE_1_eventHandler.c **** #ifdef CYBLE_SCPS_CLIENT
1232:Generated_Source\PSoC4/BLE_1_eventHandler.c ****     if((cyBle_eventHandlerFlag & CYBLE_CALLBACK) != 0u)
1233:Generated_Source\PSoC4/BLE_1_eventHandler.c ****     {
1234:Generated_Source\PSoC4/BLE_1_eventHandler.c ****         CyBle_ScpscReadResponseEventHandler(eventParam);
1235:Generated_Source\PSoC4/BLE_1_eventHandler.c ****     }
1236:Generated_Source\PSoC4/BLE_1_eventHandler.c **** #endif /* CYBLE_SCPS_CLIENT */
1237:Generated_Source\PSoC4/BLE_1_eventHandler.c **** #ifdef CYBLE_TPS_CLIENT
1238:Generated_Source\PSoC4/BLE_1_eventHandler.c ****     if((cyBle_eventHandlerFlag & CYBLE_CALLBACK) != 0u)
1239:Generated_Source\PSoC4/BLE_1_eventHandler.c ****     {
1240:Generated_Source\PSoC4/BLE_1_eventHandler.c ****         CyBle_TpscReadResponseEventHandler(eventParam);
1241:Generated_Source\PSoC4/BLE_1_eventHandler.c ****     }
1242:Generated_Source\PSoC4/BLE_1_eventHandler.c **** #endif /* CYBLE_TPS_CLIENT */
1243:Generated_Source\PSoC4/BLE_1_eventHandler.c **** #ifdef CYBLE_UDS_CLIENT
1244:Generated_Source\PSoC4/BLE_1_eventHandler.c ****     if((cyBle_eventHandlerFlag & CYBLE_CALLBACK) != 0u)
1245:Generated_Source\PSoC4/BLE_1_eventHandler.c ****     {
1246:Generated_Source\PSoC4/BLE_1_eventHandler.c ****         CyBle_UdscReadResponseEventHandler(eventParam);
1247:Generated_Source\PSoC4/BLE_1_eventHandler.c ****     }
1248:Generated_Source\PSoC4/BLE_1_eventHandler.c **** #endif /* CYBLE_UDS_CLIENT */
1249:Generated_Source\PSoC4/BLE_1_eventHandler.c **** #ifdef CYBLE_WPTS_CLIENT
1250:Generated_Source\PSoC4/BLE_1_eventHandler.c ****     if((cyBle_eventHandlerFlag & CYBLE_CALLBACK) != 0u)
1251:Generated_Source\PSoC4/BLE_1_eventHandler.c ****     {
ARM GAS  C:\Users\ROUSSMA\AppData\Local\Temp\cc3gA5P4.s 			page 26


1252:Generated_Source\PSoC4/BLE_1_eventHandler.c ****         CyBle_WptscReadResponseEventHandler(eventParam);
1253:Generated_Source\PSoC4/BLE_1_eventHandler.c ****     }
1254:Generated_Source\PSoC4/BLE_1_eventHandler.c **** #endif /* CYBLE_WPTS_CLIENT */
1255:Generated_Source\PSoC4/BLE_1_eventHandler.c **** #ifdef CYBLE_WSS_CLIENT
1256:Generated_Source\PSoC4/BLE_1_eventHandler.c ****     if((cyBle_eventHandlerFlag & CYBLE_CALLBACK) != 0u)
1257:Generated_Source\PSoC4/BLE_1_eventHandler.c ****     {
1258:Generated_Source\PSoC4/BLE_1_eventHandler.c ****         CyBle_WsscReadResponseEventHandler(eventParam);
1259:Generated_Source\PSoC4/BLE_1_eventHandler.c ****     }
1260:Generated_Source\PSoC4/BLE_1_eventHandler.c **** #endif /* CYBLE_WSS_CLIENT */
1261:Generated_Source\PSoC4/BLE_1_eventHandler.c **** }
1262:Generated_Source\PSoC4/BLE_1_eventHandler.c **** 
1263:Generated_Source\PSoC4/BLE_1_eventHandler.c **** /******************************************************************************    
1264:Generated_Source\PSoC4/BLE_1_eventHandler.c **** * Function Name: CyBle_ReadMultipleResponseEventHandler
1265:Generated_Source\PSoC4/BLE_1_eventHandler.c **** ***************************************************************************//**
1266:Generated_Source\PSoC4/BLE_1_eventHandler.c **** * 
1267:Generated_Source\PSoC4/BLE_1_eventHandler.c **** *  Handles the Read Multiple Response event from BLE stack.
1268:Generated_Source\PSoC4/BLE_1_eventHandler.c **** * 
1269:Generated_Source\PSoC4/BLE_1_eventHandler.c **** *  \param eventParam: event parameter
1270:Generated_Source\PSoC4/BLE_1_eventHandler.c **** * 
1271:Generated_Source\PSoC4/BLE_1_eventHandler.c **** * \return
1272:Generated_Source\PSoC4/BLE_1_eventHandler.c **** *  None
1273:Generated_Source\PSoC4/BLE_1_eventHandler.c **** * 
1274:Generated_Source\PSoC4/BLE_1_eventHandler.c **** ******************************************************************************/
1275:Generated_Source\PSoC4/BLE_1_eventHandler.c **** static void CyBle_ReadMultipleResponseEventHandler(CYBLE_GATTC_READ_RSP_PARAM_T *eventParam)
1276:Generated_Source\PSoC4/BLE_1_eventHandler.c **** {
1277:Generated_Source\PSoC4/BLE_1_eventHandler.c **** #ifdef CYBLE_CUSTOM_CLIENT
1278:Generated_Source\PSoC4/BLE_1_eventHandler.c ****     /* Read response with 128-bit included service uuid */
1279:Generated_Source\PSoC4/BLE_1_eventHandler.c ****     if((CYBLE_CLIENT_STATE_INCL_DISCOVERING == CyBle_GetClientState()) &&
1280:Generated_Source\PSoC4/BLE_1_eventHandler.c ****        (cyBle_discInclInfo.inclDefHandle != 0u))
1281:Generated_Source\PSoC4/BLE_1_eventHandler.c ****     {
1282:Generated_Source\PSoC4/BLE_1_eventHandler.c ****         CYBLE_DISC_SRVC128_INFO_T discServInfo;
1283:Generated_Source\PSoC4/BLE_1_eventHandler.c **** 
1284:Generated_Source\PSoC4/BLE_1_eventHandler.c ****         /* Store service range */
1285:Generated_Source\PSoC4/BLE_1_eventHandler.c ****         discServInfo.range = cyBle_discInclInfo.inclHandleRange;
1286:Generated_Source\PSoC4/BLE_1_eventHandler.c ****         (void)memcpy((void *) discServInfo.uuid.uuid128.value, (void *)eventParam->value.val, event
1287:Generated_Source\PSoC4/BLE_1_eventHandler.c ****         CyBle_CustomcDiscoverServiceEventHandler(&discServInfo);
1288:Generated_Source\PSoC4/BLE_1_eventHandler.c ****         
1289:Generated_Source\PSoC4/BLE_1_eventHandler.c ****         /* Re-initiate CyBle_GattcFindIncludedServices function, setting the start
1290:Generated_Source\PSoC4/BLE_1_eventHandler.c ****            handle to the attribute handle which is placed next to the one used in
1291:Generated_Source\PSoC4/BLE_1_eventHandler.c ****            the above step.
1292:Generated_Source\PSoC4/BLE_1_eventHandler.c ****         */
1293:Generated_Source\PSoC4/BLE_1_eventHandler.c ****         discServInfo.range.startHandle = cyBle_discInclInfo.inclDefHandle + 1;
1294:Generated_Source\PSoC4/BLE_1_eventHandler.c ****         discServInfo.range.endHandle = cyBle_serverInfo[cyBle_disCount].range.endHandle;
1295:Generated_Source\PSoC4/BLE_1_eventHandler.c ****         if(discServInfo.range.startHandle <= discServInfo.range.endHandle)
1296:Generated_Source\PSoC4/BLE_1_eventHandler.c ****         {
1297:Generated_Source\PSoC4/BLE_1_eventHandler.c ****             if(CYBLE_ERROR_OK != CyBle_GattcFindIncludedServices(cyBle_connHandle, &discServInfo.ra
1298:Generated_Source\PSoC4/BLE_1_eventHandler.c ****             {
1299:Generated_Source\PSoC4/BLE_1_eventHandler.c ****                 CyBle_ApplCallback(CYBLE_EVT_GATTC_INCL_DISCOVERY_FAILED, NULL);
1300:Generated_Source\PSoC4/BLE_1_eventHandler.c ****                 cyBle_eventHandlerFlag &= (uint8)~CYBLE_AUTO_DISCOVERY;
1301:Generated_Source\PSoC4/BLE_1_eventHandler.c ****             }
1302:Generated_Source\PSoC4/BLE_1_eventHandler.c ****         }
1303:Generated_Source\PSoC4/BLE_1_eventHandler.c ****         else /* Continue discovery of the following service */
1304:Generated_Source\PSoC4/BLE_1_eventHandler.c ****         {
1305:Generated_Source\PSoC4/BLE_1_eventHandler.c ****             CyBle_NextInclDiscovery(CYBLE_DISCOVERY_CONTINUE);
1306:Generated_Source\PSoC4/BLE_1_eventHandler.c ****         }
1307:Generated_Source\PSoC4/BLE_1_eventHandler.c ****         
1308:Generated_Source\PSoC4/BLE_1_eventHandler.c ****         cyBle_eventHandlerFlag &= (uint8)~CYBLE_CALLBACK;
ARM GAS  C:\Users\ROUSSMA\AppData\Local\Temp\cc3gA5P4.s 			page 27


1309:Generated_Source\PSoC4/BLE_1_eventHandler.c ****     #ifdef CYBLE_CUSTOM_CLIENT
1310:Generated_Source\PSoC4/BLE_1_eventHandler.c ****         cyBle_discInclInfo.inclDefHandle = 0u;
1311:Generated_Source\PSoC4/BLE_1_eventHandler.c ****     #endif /* CYBLE_CUSTOM_CLIENT */
1312:Generated_Source\PSoC4/BLE_1_eventHandler.c ****     }
1313:Generated_Source\PSoC4/BLE_1_eventHandler.c **** #endif /* CYBLE_CUSTOM_CLIENT */
1314:Generated_Source\PSoC4/BLE_1_eventHandler.c **** #ifdef CYBLE_IPS_CLIENT
1315:Generated_Source\PSoC4/BLE_1_eventHandler.c ****     if((cyBle_eventHandlerFlag & CYBLE_CALLBACK) != 0u)
1316:Generated_Source\PSoC4/BLE_1_eventHandler.c ****     {
1317:Generated_Source\PSoC4/BLE_1_eventHandler.c ****         CyBle_IpscReadMultipleResponseEventHandler(eventParam);
1318:Generated_Source\PSoC4/BLE_1_eventHandler.c ****     }
1319:Generated_Source\PSoC4/BLE_1_eventHandler.c **** #endif /* CYBLE_IPS_CLIENT */
1320:Generated_Source\PSoC4/BLE_1_eventHandler.c ****     /* MISRA 16.7 violation workaround */
1321:Generated_Source\PSoC4/BLE_1_eventHandler.c ****     eventParam = eventParam;
1322:Generated_Source\PSoC4/BLE_1_eventHandler.c **** }
1323:Generated_Source\PSoC4/BLE_1_eventHandler.c **** #endif /* CYBLE_GATT_ROLE_CLIENT */
1324:Generated_Source\PSoC4/BLE_1_eventHandler.c **** 
1325:Generated_Source\PSoC4/BLE_1_eventHandler.c **** 
1326:Generated_Source\PSoC4/BLE_1_eventHandler.c **** /****************************************************************************** 
1327:Generated_Source\PSoC4/BLE_1_eventHandler.c **** * Function Name: CyBle_DisconnectEventHandler
1328:Generated_Source\PSoC4/BLE_1_eventHandler.c **** ***************************************************************************//**
1329:Generated_Source\PSoC4/BLE_1_eventHandler.c **** * 
1330:Generated_Source\PSoC4/BLE_1_eventHandler.c **** *  Handles the GATT Disconnection event from the BLE stack.
1331:Generated_Source\PSoC4/BLE_1_eventHandler.c **** * 
1332:Generated_Source\PSoC4/BLE_1_eventHandler.c **** * \return
1333:Generated_Source\PSoC4/BLE_1_eventHandler.c **** *  None
1334:Generated_Source\PSoC4/BLE_1_eventHandler.c **** * 
1335:Generated_Source\PSoC4/BLE_1_eventHandler.c **** ******************************************************************************/
1336:Generated_Source\PSoC4/BLE_1_eventHandler.c **** static void CyBle_GattDisconnectEventHandler(void)
1337:Generated_Source\PSoC4/BLE_1_eventHandler.c **** {
 174              		.loc 1 1337 0
 175              		.cfi_startproc
 176              		@ args = 0, pretend = 0, frame = 0
 177              		@ frame_needed = 1, uses_anonymous_args = 0
 178 0000 80B5     		push	{r7, lr}
 179              		.cfi_def_cfa_offset 8
 180              		.cfi_offset 7, -8
 181              		.cfi_offset 14, -4
 182 0002 00AF     		add	r7, sp, #0
 183              		.cfi_def_cfa_register 7
1338:Generated_Source\PSoC4/BLE_1_eventHandler.c ****     cyBle_connHandle.attId = 0u;
 184              		.loc 1 1338 0
 185 0004 044B     		ldr	r3, .L9
 186 0006 0022     		movs	r2, #0
 187 0008 5A70     		strb	r2, [r3, #1]
1339:Generated_Source\PSoC4/BLE_1_eventHandler.c ****     cyBle_connHandle.bdHandle = 0u;
 188              		.loc 1 1339 0
 189 000a 034B     		ldr	r3, .L9
 190 000c 0022     		movs	r2, #0
 191 000e 1A70     		strb	r2, [r3]
1340:Generated_Source\PSoC4/BLE_1_eventHandler.c ****     
1341:Generated_Source\PSoC4/BLE_1_eventHandler.c ****     #if (CYBLE_GATT_ROLE_CLIENT)
1342:Generated_Source\PSoC4/BLE_1_eventHandler.c ****         if(CyBle_GetClientState() == CYBLE_CLIENT_STATE_DISCOVERED)
1343:Generated_Source\PSoC4/BLE_1_eventHandler.c ****         {
1344:Generated_Source\PSoC4/BLE_1_eventHandler.c ****             CyBle_SetClientState(CYBLE_CLIENT_STATE_DISCONNECTED_DISCOVERED);
1345:Generated_Source\PSoC4/BLE_1_eventHandler.c ****         }
1346:Generated_Source\PSoC4/BLE_1_eventHandler.c ****         else
1347:Generated_Source\PSoC4/BLE_1_eventHandler.c ****         {
ARM GAS  C:\Users\ROUSSMA\AppData\Local\Temp\cc3gA5P4.s 			page 28


1348:Generated_Source\PSoC4/BLE_1_eventHandler.c ****             CyBle_SetClientState(CYBLE_CLIENT_STATE_DISCONNECTED);
1349:Generated_Source\PSoC4/BLE_1_eventHandler.c ****         }
1350:Generated_Source\PSoC4/BLE_1_eventHandler.c ****     #endif /* CYBLE_GATT_ROLE_CLIENT */
1351:Generated_Source\PSoC4/BLE_1_eventHandler.c ****         
1352:Generated_Source\PSoC4/BLE_1_eventHandler.c ****     #ifdef CYBLE_CPS_SERVER
1353:Generated_Source\PSoC4/BLE_1_eventHandler.c ****         #if CYBLE_GAP_ROLE_BROADCASTER
1354:Generated_Source\PSoC4/BLE_1_eventHandler.c ****             CyBle_CpssDisconnectEventHandler();
1355:Generated_Source\PSoC4/BLE_1_eventHandler.c ****         #endif /* CYBLE_GAP_ROLE_BROADCASTER */
1356:Generated_Source\PSoC4/BLE_1_eventHandler.c ****     #endif /* CYBLE_CPS_SERVER */
1357:Generated_Source\PSoC4/BLE_1_eventHandler.c **** 
1358:Generated_Source\PSoC4/BLE_1_eventHandler.c ****     #ifdef CYBLE_CPS_CLIENT
1359:Generated_Source\PSoC4/BLE_1_eventHandler.c ****         CyBle_CpscDisconnectEventHandler();
1360:Generated_Source\PSoC4/BLE_1_eventHandler.c ****     #endif /* CYBLE_CPS_CLIENT */
1361:Generated_Source\PSoC4/BLE_1_eventHandler.c **** 
1362:Generated_Source\PSoC4/BLE_1_eventHandler.c ****     #ifdef CYBLE_IAS_SERVER
1363:Generated_Source\PSoC4/BLE_1_eventHandler.c ****         CyBle_IassDisconnectEventHandler();
1364:Generated_Source\PSoC4/BLE_1_eventHandler.c ****     #endif /* CYBLE_IAS_SERVER */
1365:Generated_Source\PSoC4/BLE_1_eventHandler.c ****     
1366:Generated_Source\PSoC4/BLE_1_eventHandler.c ****     #ifdef CYBLE_GLS_SERVER
1367:Generated_Source\PSoC4/BLE_1_eventHandler.c ****         CyBle_GlsInit();
1368:Generated_Source\PSoC4/BLE_1_eventHandler.c ****     #endif /* CYBLE_GLS_SERVER */
1369:Generated_Source\PSoC4/BLE_1_eventHandler.c ****     
1370:Generated_Source\PSoC4/BLE_1_eventHandler.c ****     #ifdef CYBLE_LNS_SERVER
1371:Generated_Source\PSoC4/BLE_1_eventHandler.c ****         CyBle_LnsInit();
1372:Generated_Source\PSoC4/BLE_1_eventHandler.c ****     #endif /* CYBLE_LNS_SERVER */
1373:Generated_Source\PSoC4/BLE_1_eventHandler.c ****     
1374:Generated_Source\PSoC4/BLE_1_eventHandler.c ****     #ifdef CYBLE_UDS_SERVER
1375:Generated_Source\PSoC4/BLE_1_eventHandler.c ****         CyBle_UdsInit();
1376:Generated_Source\PSoC4/BLE_1_eventHandler.c ****     #endif /* CYBLE_UDS_SERVER */
1377:Generated_Source\PSoC4/BLE_1_eventHandler.c **** }
 192              		.loc 1 1377 0
 193 0010 C046     		nop
 194 0012 BD46     		mov	sp, r7
 195              		@ sp needed
 196 0014 80BD     		pop	{r7, pc}
 197              	.L10:
 198 0016 C046     		.align	2
 199              	.L9:
 200 0018 00000000 		.word	cyBle_connHandle
 201              		.cfi_endproc
 202              	.LFE4:
 203              		.size	CyBle_GattDisconnectEventHandler, .-CyBle_GattDisconnectEventHandler
 204              		.section	.text.CyBle_TimeOutEventHandler,"ax",%progbits
 205              		.align	2
 206              		.code	16
 207              		.thumb_func
 208              		.type	CyBle_TimeOutEventHandler, %function
 209              	CyBle_TimeOutEventHandler:
 210              	.LFB5:
1378:Generated_Source\PSoC4/BLE_1_eventHandler.c **** 
1379:Generated_Source\PSoC4/BLE_1_eventHandler.c **** 
1380:Generated_Source\PSoC4/BLE_1_eventHandler.c **** /****************************************************************************** 
1381:Generated_Source\PSoC4/BLE_1_eventHandler.c **** * Function Name: CyBle_TimeOutEventHandler
1382:Generated_Source\PSoC4/BLE_1_eventHandler.c **** ***************************************************************************//**
1383:Generated_Source\PSoC4/BLE_1_eventHandler.c **** * 
1384:Generated_Source\PSoC4/BLE_1_eventHandler.c **** *  Handles the CYBLE_EVT_TIMEOUT event from the BLE stack.
1385:Generated_Source\PSoC4/BLE_1_eventHandler.c **** * 
ARM GAS  C:\Users\ROUSSMA\AppData\Local\Temp\cc3gA5P4.s 			page 29


1386:Generated_Source\PSoC4/BLE_1_eventHandler.c **** *  \param eventParam: The pointer to a structure of type CYBLE_TO_REASON_CODE_T.
1387:Generated_Source\PSoC4/BLE_1_eventHandler.c **** * 
1388:Generated_Source\PSoC4/BLE_1_eventHandler.c **** * \return
1389:Generated_Source\PSoC4/BLE_1_eventHandler.c **** *  None
1390:Generated_Source\PSoC4/BLE_1_eventHandler.c **** * 
1391:Generated_Source\PSoC4/BLE_1_eventHandler.c **** ******************************************************************************/
1392:Generated_Source\PSoC4/BLE_1_eventHandler.c **** static void CyBle_TimeOutEventHandler(const CYBLE_TO_REASON_CODE_T *eventParam)
1393:Generated_Source\PSoC4/BLE_1_eventHandler.c **** {
 211              		.loc 1 1393 0
 212              		.cfi_startproc
 213              		@ args = 0, pretend = 0, frame = 8
 214              		@ frame_needed = 1, uses_anonymous_args = 0
 215 0000 80B5     		push	{r7, lr}
 216              		.cfi_def_cfa_offset 8
 217              		.cfi_offset 7, -8
 218              		.cfi_offset 14, -4
 219 0002 82B0     		sub	sp, sp, #8
 220              		.cfi_def_cfa_offset 16
 221 0004 00AF     		add	r7, sp, #0
 222              		.cfi_def_cfa_register 7
 223 0006 7860     		str	r0, [r7, #4]
1394:Generated_Source\PSoC4/BLE_1_eventHandler.c ****     if(*eventParam == CYBLE_GATT_RSP_TO)
1395:Generated_Source\PSoC4/BLE_1_eventHandler.c ****     {
1396:Generated_Source\PSoC4/BLE_1_eventHandler.c ****     #if (CYBLE_GATT_ROLE_CLIENT)
1397:Generated_Source\PSoC4/BLE_1_eventHandler.c ****         if((cyBle_eventHandlerFlag & CYBLE_AUTO_DISCOVERY) != 0u)
1398:Generated_Source\PSoC4/BLE_1_eventHandler.c ****         {
1399:Generated_Source\PSoC4/BLE_1_eventHandler.c ****             switch(CyBle_GetClientState())
1400:Generated_Source\PSoC4/BLE_1_eventHandler.c ****             {
1401:Generated_Source\PSoC4/BLE_1_eventHandler.c ****                 case CYBLE_CLIENT_STATE_SRVC_DISCOVERING:
1402:Generated_Source\PSoC4/BLE_1_eventHandler.c ****                     CyBle_ApplCallback(CYBLE_EVT_GATTC_SRVC_DISCOVERY_FAILED, NULL);
1403:Generated_Source\PSoC4/BLE_1_eventHandler.c ****                     break;
1404:Generated_Source\PSoC4/BLE_1_eventHandler.c ****                 case CYBLE_CLIENT_STATE_INCL_DISCOVERING:
1405:Generated_Source\PSoC4/BLE_1_eventHandler.c ****                     CyBle_ApplCallback(CYBLE_EVT_GATTC_INCL_DISCOVERY_FAILED, NULL);
1406:Generated_Source\PSoC4/BLE_1_eventHandler.c ****                     break;
1407:Generated_Source\PSoC4/BLE_1_eventHandler.c ****                 case CYBLE_CLIENT_STATE_CHAR_DISCOVERING:
1408:Generated_Source\PSoC4/BLE_1_eventHandler.c ****                     CyBle_ApplCallback(CYBLE_EVT_GATTC_CHAR_DISCOVERY_FAILED, NULL);
1409:Generated_Source\PSoC4/BLE_1_eventHandler.c ****                     break;
1410:Generated_Source\PSoC4/BLE_1_eventHandler.c ****                 case CYBLE_CLIENT_STATE_DESCR_DISCOVERING:
1411:Generated_Source\PSoC4/BLE_1_eventHandler.c ****                     CyBle_ApplCallback(CYBLE_EVT_GATTC_DESCR_DISCOVERY_FAILED, NULL);
1412:Generated_Source\PSoC4/BLE_1_eventHandler.c ****                     break;
1413:Generated_Source\PSoC4/BLE_1_eventHandler.c ****                 default:        /* Other states should not be set in Auto discovery mode */
1414:Generated_Source\PSoC4/BLE_1_eventHandler.c ****                     break;
1415:Generated_Source\PSoC4/BLE_1_eventHandler.c ****             }
1416:Generated_Source\PSoC4/BLE_1_eventHandler.c ****             cyBle_eventHandlerFlag &= (uint8)~CYBLE_AUTO_DISCOVERY;
1417:Generated_Source\PSoC4/BLE_1_eventHandler.c ****             CyBle_SetClientState(CYBLE_CLIENT_STATE_CONNECTED);
1418:Generated_Source\PSoC4/BLE_1_eventHandler.c ****         }
1419:Generated_Source\PSoC4/BLE_1_eventHandler.c ****     #endif /* CYBLE_GATT_ROLE_CLIENT */
1420:Generated_Source\PSoC4/BLE_1_eventHandler.c ****     #ifdef CYBLE_CPS_SERVER
1421:Generated_Source\PSoC4/BLE_1_eventHandler.c ****         CyBle_CpssTimeOutEventHandler();
1422:Generated_Source\PSoC4/BLE_1_eventHandler.c ****     #endif /* CYBLE_CPS_SERVER */
1423:Generated_Source\PSoC4/BLE_1_eventHandler.c ****     }
1424:Generated_Source\PSoC4/BLE_1_eventHandler.c ****     
1425:Generated_Source\PSoC4/BLE_1_eventHandler.c ****     /* Connection procedure timeout */
1426:Generated_Source\PSoC4/BLE_1_eventHandler.c ****     if(*eventParam == CYBLE_GENERIC_TO)
1427:Generated_Source\PSoC4/BLE_1_eventHandler.c ****     {
1428:Generated_Source\PSoC4/BLE_1_eventHandler.c ****     #if(CYBLE_GAP_ROLE_CENTRAL)
1429:Generated_Source\PSoC4/BLE_1_eventHandler.c ****         if(CyBle_GetState() == CYBLE_STATE_CONNECTING)
ARM GAS  C:\Users\ROUSSMA\AppData\Local\Temp\cc3gA5P4.s 			page 30


1430:Generated_Source\PSoC4/BLE_1_eventHandler.c ****         {
1431:Generated_Source\PSoC4/BLE_1_eventHandler.c ****             (void)CyBle_GapcCancelDeviceConnection();
1432:Generated_Source\PSoC4/BLE_1_eventHandler.c ****         }
1433:Generated_Source\PSoC4/BLE_1_eventHandler.c ****     #endif /* CYBLE_GAP_ROLE_CENTRAL */
1434:Generated_Source\PSoC4/BLE_1_eventHandler.c ****     }
1435:Generated_Source\PSoC4/BLE_1_eventHandler.c **** }
 224              		.loc 1 1435 0
 225 0008 C046     		nop
 226 000a BD46     		mov	sp, r7
 227 000c 02B0     		add	sp, sp, #8
 228              		@ sp needed
 229 000e 80BD     		pop	{r7, pc}
 230              		.cfi_endproc
 231              	.LFE5:
 232              		.size	CyBle_TimeOutEventHandler, .-CyBle_TimeOutEventHandler
 233              		.section	.text.CyBle_GattConnectReqHandler,"ax",%progbits
 234              		.align	2
 235              		.code	16
 236              		.thumb_func
 237              		.type	CyBle_GattConnectReqHandler, %function
 238              	CyBle_GattConnectReqHandler:
 239              	.LFB6:
1436:Generated_Source\PSoC4/BLE_1_eventHandler.c **** 
1437:Generated_Source\PSoC4/BLE_1_eventHandler.c **** 
1438:Generated_Source\PSoC4/BLE_1_eventHandler.c **** /****************************************************************************** 
1439:Generated_Source\PSoC4/BLE_1_eventHandler.c **** * Function Name: CyBle_GattConnectReqHandler
1440:Generated_Source\PSoC4/BLE_1_eventHandler.c **** ***************************************************************************//**
1441:Generated_Source\PSoC4/BLE_1_eventHandler.c **** * 
1442:Generated_Source\PSoC4/BLE_1_eventHandler.c **** *  Handles the GATT connect event from the BLE stack.
1443:Generated_Source\PSoC4/BLE_1_eventHandler.c **** * 
1444:Generated_Source\PSoC4/BLE_1_eventHandler.c **** * \return
1445:Generated_Source\PSoC4/BLE_1_eventHandler.c **** *  None
1446:Generated_Source\PSoC4/BLE_1_eventHandler.c **** * 
1447:Generated_Source\PSoC4/BLE_1_eventHandler.c **** ******************************************************************************/
1448:Generated_Source\PSoC4/BLE_1_eventHandler.c **** static void CyBle_GattConnectReqHandler(void)
1449:Generated_Source\PSoC4/BLE_1_eventHandler.c **** {
 240              		.loc 1 1449 0
 241              		.cfi_startproc
 242              		@ args = 0, pretend = 0, frame = 0
 243              		@ frame_needed = 1, uses_anonymous_args = 0
 244 0000 80B5     		push	{r7, lr}
 245              		.cfi_def_cfa_offset 8
 246              		.cfi_offset 7, -8
 247              		.cfi_offset 14, -4
 248 0002 00AF     		add	r7, sp, #0
 249              		.cfi_def_cfa_register 7
1450:Generated_Source\PSoC4/BLE_1_eventHandler.c ****     #ifdef CYBLE_CGMS_SERVER
1451:Generated_Source\PSoC4/BLE_1_eventHandler.c ****         CyBle_CgmsInit();
1452:Generated_Source\PSoC4/BLE_1_eventHandler.c ****     #endif /* CYBLE_CGMS_SERVER */
1453:Generated_Source\PSoC4/BLE_1_eventHandler.c ****     
1454:Generated_Source\PSoC4/BLE_1_eventHandler.c ****     #ifdef CYBLE_CPS_SERVER
1455:Generated_Source\PSoC4/BLE_1_eventHandler.c ****         CyBle_CpssConnectEventHandler();
1456:Generated_Source\PSoC4/BLE_1_eventHandler.c ****     #endif /* CYBLE_CPS_SERVER */
1457:Generated_Source\PSoC4/BLE_1_eventHandler.c ****     
1458:Generated_Source\PSoC4/BLE_1_eventHandler.c ****     #ifdef CYBLE_CSCS_SERVER
1459:Generated_Source\PSoC4/BLE_1_eventHandler.c ****             CyBle_CscsInit();
1460:Generated_Source\PSoC4/BLE_1_eventHandler.c ****     #endif /* CYBLE_CSCS_SERVER */
ARM GAS  C:\Users\ROUSSMA\AppData\Local\Temp\cc3gA5P4.s 			page 31


1461:Generated_Source\PSoC4/BLE_1_eventHandler.c ****     
1462:Generated_Source\PSoC4/BLE_1_eventHandler.c ****     #ifdef CYBLE_LLS_SERVER
1463:Generated_Source\PSoC4/BLE_1_eventHandler.c ****         CyBle_LlssConnectEventHandler();
1464:Generated_Source\PSoC4/BLE_1_eventHandler.c ****     #endif /* CYBLE_LLS_SERVER */
1465:Generated_Source\PSoC4/BLE_1_eventHandler.c ****     
1466:Generated_Source\PSoC4/BLE_1_eventHandler.c ****     #ifdef CYBLE_HIDS_SERVER
1467:Generated_Source\PSoC4/BLE_1_eventHandler.c ****         CyBle_HidssOnDeviceConnected();
1468:Generated_Source\PSoC4/BLE_1_eventHandler.c ****     #endif /* CYBLE_HIDS_SERVER */
1469:Generated_Source\PSoC4/BLE_1_eventHandler.c **** 
1470:Generated_Source\PSoC4/BLE_1_eventHandler.c ****     #ifdef CYBLE_RSCS_SERVER
1471:Generated_Source\PSoC4/BLE_1_eventHandler.c ****         CyBle_RscsInit();
1472:Generated_Source\PSoC4/BLE_1_eventHandler.c ****     #endif /* CYBLE_RSCS_SERVER */
1473:Generated_Source\PSoC4/BLE_1_eventHandler.c **** }
 250              		.loc 1 1473 0
 251 0004 C046     		nop
 252 0006 BD46     		mov	sp, r7
 253              		@ sp needed
 254 0008 80BD     		pop	{r7, pc}
 255              		.cfi_endproc
 256              	.LFE6:
 257              		.size	CyBle_GattConnectReqHandler, .-CyBle_GattConnectReqHandler
 258 000a C046     		.section	.text.CyBle_IsDeviceAddressValid,"ax",%progbits
 259              		.align	2
 260              		.global	CyBle_IsDeviceAddressValid
 261              		.code	16
 262              		.thumb_func
 263              		.type	CyBle_IsDeviceAddressValid, %function
 264              	CyBle_IsDeviceAddressValid:
 265              	.LFB7:
1474:Generated_Source\PSoC4/BLE_1_eventHandler.c **** 
1475:Generated_Source\PSoC4/BLE_1_eventHandler.c **** 
1476:Generated_Source\PSoC4/BLE_1_eventHandler.c **** #if (CYBLE_GATT_ROLE_SERVER || CYBLE_GATT_ROLE_CLIENT)
1477:Generated_Source\PSoC4/BLE_1_eventHandler.c **** 
1478:Generated_Source\PSoC4/BLE_1_eventHandler.c **** /****************************************************************************** 
1479:Generated_Source\PSoC4/BLE_1_eventHandler.c **** * Function Name: CyBle_IsDeviceAddressValid
1480:Generated_Source\PSoC4/BLE_1_eventHandler.c **** ***************************************************************************//**
1481:Generated_Source\PSoC4/BLE_1_eventHandler.c **** * 
1482:Generated_Source\PSoC4/BLE_1_eventHandler.c **** *  This function verifies that BLE public address has been programmed to SFLASH 
1483:Generated_Source\PSoC4/BLE_1_eventHandler.c **** *  during manufacture. It could be used to verify if public device address is 
1484:Generated_Source\PSoC4/BLE_1_eventHandler.c **** *  programmed to flash memory.
1485:Generated_Source\PSoC4/BLE_1_eventHandler.c **** * 
1486:Generated_Source\PSoC4/BLE_1_eventHandler.c **** *  \param deviceAddress: the pointer to the BD address of type CYBLE_GAP_BD_ADDR_T. 
1487:Generated_Source\PSoC4/BLE_1_eventHandler.c **** * 
1488:Generated_Source\PSoC4/BLE_1_eventHandler.c **** * \return
1489:Generated_Source\PSoC4/BLE_1_eventHandler.c **** *  Non zero value when a device address differs from the default SFLASH content.
1490:Generated_Source\PSoC4/BLE_1_eventHandler.c **** * 
1491:Generated_Source\PSoC4/BLE_1_eventHandler.c **** ******************************************************************************/
1492:Generated_Source\PSoC4/BLE_1_eventHandler.c **** uint8 CyBle_IsDeviceAddressValid(const CYBLE_GAP_BD_ADDR_T *deviceAddress)
1493:Generated_Source\PSoC4/BLE_1_eventHandler.c **** {
 266              		.loc 1 1493 0
 267              		.cfi_startproc
 268              		@ args = 0, pretend = 0, frame = 16
 269              		@ frame_needed = 1, uses_anonymous_args = 0
 270 0000 80B5     		push	{r7, lr}
 271              		.cfi_def_cfa_offset 8
 272              		.cfi_offset 7, -8
 273              		.cfi_offset 14, -4
ARM GAS  C:\Users\ROUSSMA\AppData\Local\Temp\cc3gA5P4.s 			page 32


 274 0002 84B0     		sub	sp, sp, #16
 275              		.cfi_def_cfa_offset 24
 276 0004 00AF     		add	r7, sp, #0
 277              		.cfi_def_cfa_register 7
 278 0006 7860     		str	r0, [r7, #4]
1494:Generated_Source\PSoC4/BLE_1_eventHandler.c ****     uint8 i;
1495:Generated_Source\PSoC4/BLE_1_eventHandler.c ****     uint8 addressValid = 0u;
 279              		.loc 1 1495 0
 280 0008 0E23     		movs	r3, #14
 281 000a FB18     		adds	r3, r7, r3
 282 000c 0022     		movs	r2, #0
 283 000e 1A70     		strb	r2, [r3]
1496:Generated_Source\PSoC4/BLE_1_eventHandler.c ****     
1497:Generated_Source\PSoC4/BLE_1_eventHandler.c ****     if(deviceAddress -> type == CYBLE_GAP_ADDR_TYPE_PUBLIC)  
 284              		.loc 1 1497 0
 285 0010 7B68     		ldr	r3, [r7, #4]
 286 0012 9B79     		ldrb	r3, [r3, #6]
 287 0014 002B     		cmp	r3, #0
 288 0016 1CD1     		bne	.L14
1498:Generated_Source\PSoC4/BLE_1_eventHandler.c ****     {
1499:Generated_Source\PSoC4/BLE_1_eventHandler.c ****         for(i = 0u; i < CYBLE_GAP_BD_ADDR_SIZE; i++)
 289              		.loc 1 1499 0
 290 0018 0F23     		movs	r3, #15
 291 001a FB18     		adds	r3, r7, r3
 292 001c 0022     		movs	r2, #0
 293 001e 1A70     		strb	r2, [r3]
 294 0020 12E0     		b	.L15
 295              	.L17:
1500:Generated_Source\PSoC4/BLE_1_eventHandler.c ****         {
1501:Generated_Source\PSoC4/BLE_1_eventHandler.c ****             if(deviceAddress->bdAddr[i] != 0u)
 296              		.loc 1 1501 0
 297 0022 0F23     		movs	r3, #15
 298 0024 FB18     		adds	r3, r7, r3
 299 0026 1B78     		ldrb	r3, [r3]
 300 0028 7A68     		ldr	r2, [r7, #4]
 301 002a D35C     		ldrb	r3, [r2, r3]
 302 002c 002B     		cmp	r3, #0
 303 002e 04D0     		beq	.L16
1502:Generated_Source\PSoC4/BLE_1_eventHandler.c ****             {
1503:Generated_Source\PSoC4/BLE_1_eventHandler.c ****                 addressValid = 1u;
 304              		.loc 1 1503 0
 305 0030 0E23     		movs	r3, #14
 306 0032 FB18     		adds	r3, r7, r3
 307 0034 0122     		movs	r2, #1
 308 0036 1A70     		strb	r2, [r3]
1504:Generated_Source\PSoC4/BLE_1_eventHandler.c ****                 break;
 309              		.loc 1 1504 0
 310 0038 0BE0     		b	.L14
 311              	.L16:
1499:Generated_Source\PSoC4/BLE_1_eventHandler.c ****         {
 312              		.loc 1 1499 0 discriminator 2
 313 003a 0F23     		movs	r3, #15
 314 003c FB18     		adds	r3, r7, r3
 315 003e 1A78     		ldrb	r2, [r3]
 316 0040 0F23     		movs	r3, #15
 317 0042 FB18     		adds	r3, r7, r3
 318 0044 0132     		adds	r2, r2, #1
ARM GAS  C:\Users\ROUSSMA\AppData\Local\Temp\cc3gA5P4.s 			page 33


 319 0046 1A70     		strb	r2, [r3]
 320              	.L15:
1499:Generated_Source\PSoC4/BLE_1_eventHandler.c ****         {
 321              		.loc 1 1499 0 is_stmt 0 discriminator 1
 322 0048 0F23     		movs	r3, #15
 323 004a FB18     		adds	r3, r7, r3
 324 004c 1B78     		ldrb	r3, [r3]
 325 004e 052B     		cmp	r3, #5
 326 0050 E7D9     		bls	.L17
 327              	.L14:
1505:Generated_Source\PSoC4/BLE_1_eventHandler.c ****             }
1506:Generated_Source\PSoC4/BLE_1_eventHandler.c ****         }
1507:Generated_Source\PSoC4/BLE_1_eventHandler.c ****     }
1508:Generated_Source\PSoC4/BLE_1_eventHandler.c ****     return (addressValid);
 328              		.loc 1 1508 0 is_stmt 1
 329 0052 0E23     		movs	r3, #14
 330 0054 FB18     		adds	r3, r7, r3
 331 0056 1B78     		ldrb	r3, [r3]
1509:Generated_Source\PSoC4/BLE_1_eventHandler.c **** }
 332              		.loc 1 1509 0
 333 0058 1800     		movs	r0, r3
 334 005a BD46     		mov	sp, r7
 335 005c 04B0     		add	sp, sp, #16
 336              		@ sp needed
 337 005e 80BD     		pop	{r7, pc}
 338              		.cfi_endproc
 339              	.LFE7:
 340              		.size	CyBle_IsDeviceAddressValid, .-CyBle_IsDeviceAddressValid
 341              		.section	.text.CyBle_L2Cap_ConnParamUpdateRspEventHandler,"ax",%progbits
 342              		.align	2
 343              		.code	16
 344              		.thumb_func
 345              		.type	CyBle_L2Cap_ConnParamUpdateRspEventHandler, %function
 346              	CyBle_L2Cap_ConnParamUpdateRspEventHandler:
 347              	.LFB8:
1510:Generated_Source\PSoC4/BLE_1_eventHandler.c **** #endif /* CYBLE_GATT_ROLE_SERVER || CYBLE_GATT_ROLE_CLIENT */
1511:Generated_Source\PSoC4/BLE_1_eventHandler.c **** 
1512:Generated_Source\PSoC4/BLE_1_eventHandler.c **** 
1513:Generated_Source\PSoC4/BLE_1_eventHandler.c **** /****************************************************************************** 
1514:Generated_Source\PSoC4/BLE_1_eventHandler.c **** * Function Name: CyBle_L2Cap_ConnParamUpdateRspHandler
1515:Generated_Source\PSoC4/BLE_1_eventHandler.c **** ***************************************************************************//**
1516:Generated_Source\PSoC4/BLE_1_eventHandler.c **** * 
1517:Generated_Source\PSoC4/BLE_1_eventHandler.c **** *  Handles the L2CAP connection parameter response event from
1518:Generated_Source\PSoC4/BLE_1_eventHandler.c **** *  the BLE stack.
1519:Generated_Source\PSoC4/BLE_1_eventHandler.c **** * 
1520:Generated_Source\PSoC4/BLE_1_eventHandler.c **** *  \param response:
1521:Generated_Source\PSoC4/BLE_1_eventHandler.c **** *      * Accepted = 0x0000
1522:Generated_Source\PSoC4/BLE_1_eventHandler.c **** *      * Rejected = 0x0001
1523:Generated_Source\PSoC4/BLE_1_eventHandler.c **** * 
1524:Generated_Source\PSoC4/BLE_1_eventHandler.c **** * \return
1525:Generated_Source\PSoC4/BLE_1_eventHandler.c **** *  None
1526:Generated_Source\PSoC4/BLE_1_eventHandler.c **** * 
1527:Generated_Source\PSoC4/BLE_1_eventHandler.c **** ******************************************************************************/
1528:Generated_Source\PSoC4/BLE_1_eventHandler.c **** static void CyBle_L2Cap_ConnParamUpdateRspEventHandler(uint16 response)
1529:Generated_Source\PSoC4/BLE_1_eventHandler.c **** {
 348              		.loc 1 1529 0
 349              		.cfi_startproc
ARM GAS  C:\Users\ROUSSMA\AppData\Local\Temp\cc3gA5P4.s 			page 34


 350              		@ args = 0, pretend = 0, frame = 8
 351              		@ frame_needed = 1, uses_anonymous_args = 0
 352 0000 80B5     		push	{r7, lr}
 353              		.cfi_def_cfa_offset 8
 354              		.cfi_offset 7, -8
 355              		.cfi_offset 14, -4
 356 0002 82B0     		sub	sp, sp, #8
 357              		.cfi_def_cfa_offset 16
 358 0004 00AF     		add	r7, sp, #0
 359              		.cfi_def_cfa_register 7
 360 0006 0200     		movs	r2, r0
 361 0008 BB1D     		adds	r3, r7, #6
 362 000a 1A80     		strh	r2, [r3]
1530:Generated_Source\PSoC4/BLE_1_eventHandler.c ****     #ifdef CYBLE_CPS_SERVER
1531:Generated_Source\PSoC4/BLE_1_eventHandler.c ****         CyBle_CpssConnParamUpdateRspEventHandler(response);
1532:Generated_Source\PSoC4/BLE_1_eventHandler.c ****     #endif /* CYBLE_CPS_SERVER */
1533:Generated_Source\PSoC4/BLE_1_eventHandler.c ****     
1534:Generated_Source\PSoC4/BLE_1_eventHandler.c ****     /* Unreferenced variable warning workaround */
1535:Generated_Source\PSoC4/BLE_1_eventHandler.c ****     if(response != 0u)
1536:Generated_Source\PSoC4/BLE_1_eventHandler.c ****     {
1537:Generated_Source\PSoC4/BLE_1_eventHandler.c ****     }
1538:Generated_Source\PSoC4/BLE_1_eventHandler.c **** }
 363              		.loc 1 1538 0
 364 000c C046     		nop
 365 000e BD46     		mov	sp, r7
 366 0010 02B0     		add	sp, sp, #8
 367              		@ sp needed
 368 0012 80BD     		pop	{r7, pc}
 369              		.cfi_endproc
 370              	.LFE8:
 371              		.size	CyBle_L2Cap_ConnParamUpdateRspEventHandler, .-CyBle_L2Cap_ConnParamUpdateRspEventHandler
 372              		.section	.text.CyBle_GapConnUpdateCompleteEventHandler,"ax",%progbits
 373              		.align	2
 374              		.code	16
 375              		.thumb_func
 376              		.type	CyBle_GapConnUpdateCompleteEventHandler, %function
 377              	CyBle_GapConnUpdateCompleteEventHandler:
 378              	.LFB9:
1539:Generated_Source\PSoC4/BLE_1_eventHandler.c **** 
1540:Generated_Source\PSoC4/BLE_1_eventHandler.c **** 
1541:Generated_Source\PSoC4/BLE_1_eventHandler.c **** /****************************************************************************** 
1542:Generated_Source\PSoC4/BLE_1_eventHandler.c **** * Function Name: CyBle_GapConnUpdateCompleteEventHandler
1543:Generated_Source\PSoC4/BLE_1_eventHandler.c **** ***************************************************************************//**
1544:Generated_Source\PSoC4/BLE_1_eventHandler.c **** * 
1545:Generated_Source\PSoC4/BLE_1_eventHandler.c **** *  Handles the CYBLE_EVT_GAP_CONNECTION_UPDATE_COMPLETE event from
1546:Generated_Source\PSoC4/BLE_1_eventHandler.c **** *  the BLE stack.
1547:Generated_Source\PSoC4/BLE_1_eventHandler.c **** * 
1548:Generated_Source\PSoC4/BLE_1_eventHandler.c **** *  \param eventParam: The pointer to the data structure specified by the event.
1549:Generated_Source\PSoC4/BLE_1_eventHandler.c **** * 
1550:Generated_Source\PSoC4/BLE_1_eventHandler.c **** * \return
1551:Generated_Source\PSoC4/BLE_1_eventHandler.c **** *  None
1552:Generated_Source\PSoC4/BLE_1_eventHandler.c **** * 
1553:Generated_Source\PSoC4/BLE_1_eventHandler.c **** ******************************************************************************/
1554:Generated_Source\PSoC4/BLE_1_eventHandler.c **** static void CyBle_GapConnUpdateCompleteEventHandler(const CYBLE_GAP_CONN_PARAM_UPDATED_IN_CONTROLLE
1555:Generated_Source\PSoC4/BLE_1_eventHandler.c **** {
 379              		.loc 1 1555 0
 380              		.cfi_startproc
ARM GAS  C:\Users\ROUSSMA\AppData\Local\Temp\cc3gA5P4.s 			page 35


 381              		@ args = 0, pretend = 0, frame = 8
 382              		@ frame_needed = 1, uses_anonymous_args = 0
 383 0000 80B5     		push	{r7, lr}
 384              		.cfi_def_cfa_offset 8
 385              		.cfi_offset 7, -8
 386              		.cfi_offset 14, -4
 387 0002 82B0     		sub	sp, sp, #8
 388              		.cfi_def_cfa_offset 16
 389 0004 00AF     		add	r7, sp, #0
 390              		.cfi_def_cfa_register 7
 391 0006 7860     		str	r0, [r7, #4]
1556:Generated_Source\PSoC4/BLE_1_eventHandler.c ****     #ifdef CYBLE_CPS_SERVER
1557:Generated_Source\PSoC4/BLE_1_eventHandler.c ****         CyBle_CpssConnUpdateCompleteEventHandler(eventParam);
1558:Generated_Source\PSoC4/BLE_1_eventHandler.c ****     #endif /* CYBLE_CPS_SERVER */
1559:Generated_Source\PSoC4/BLE_1_eventHandler.c ****     
1560:Generated_Source\PSoC4/BLE_1_eventHandler.c ****     /* Unreferenced variable warning workaround */
1561:Generated_Source\PSoC4/BLE_1_eventHandler.c ****     if(eventParam != 0u)
1562:Generated_Source\PSoC4/BLE_1_eventHandler.c ****     {
1563:Generated_Source\PSoC4/BLE_1_eventHandler.c ****     }
1564:Generated_Source\PSoC4/BLE_1_eventHandler.c **** }
 392              		.loc 1 1564 0
 393 0008 C046     		nop
 394 000a BD46     		mov	sp, r7
 395 000c 02B0     		add	sp, sp, #8
 396              		@ sp needed
 397 000e 80BD     		pop	{r7, pc}
 398              		.cfi_endproc
 399              	.LFE9:
 400              		.size	CyBle_GapConnUpdateCompleteEventHandler, .-CyBle_GapConnUpdateCompleteEventHandler
 401              		.section	.rodata
 402              		.align	2
 403              	.LC0:
 404 000c 3F       		.byte	63
 405 000d 06       		.byte	6
 406              		.section	.text.CyBle_EventHandler,"ax",%progbits
 407              		.align	2
 408              		.global	CyBle_EventHandler
 409              		.code	16
 410              		.thumb_func
 411              		.type	CyBle_EventHandler, %function
 412              	CyBle_EventHandler:
 413              	.LFB10:
1565:Generated_Source\PSoC4/BLE_1_eventHandler.c **** 
1566:Generated_Source\PSoC4/BLE_1_eventHandler.c **** 
1567:Generated_Source\PSoC4/BLE_1_eventHandler.c **** /****************************************************************************** 
1568:Generated_Source\PSoC4/BLE_1_eventHandler.c **** * Function Name: CyBle_EventHandler
1569:Generated_Source\PSoC4/BLE_1_eventHandler.c **** ***************************************************************************//**
1570:Generated_Source\PSoC4/BLE_1_eventHandler.c **** * 
1571:Generated_Source\PSoC4/BLE_1_eventHandler.c **** *  Handles the events from the BLE stack
1572:Generated_Source\PSoC4/BLE_1_eventHandler.c **** * 
1573:Generated_Source\PSoC4/BLE_1_eventHandler.c **** *  \param eventCode:    the event code
1574:Generated_Source\PSoC4/BLE_1_eventHandler.c **** *  \param eventParam:  the event parameters
1575:Generated_Source\PSoC4/BLE_1_eventHandler.c **** * 
1576:Generated_Source\PSoC4/BLE_1_eventHandler.c **** * \return
1577:Generated_Source\PSoC4/BLE_1_eventHandler.c **** *  None.
1578:Generated_Source\PSoC4/BLE_1_eventHandler.c **** * 
1579:Generated_Source\PSoC4/BLE_1_eventHandler.c **** ******************************************************************************/
ARM GAS  C:\Users\ROUSSMA\AppData\Local\Temp\cc3gA5P4.s 			page 36


1580:Generated_Source\PSoC4/BLE_1_eventHandler.c **** void CyBle_EventHandler(uint8 eventCode, void *eventParam)
1581:Generated_Source\PSoC4/BLE_1_eventHandler.c **** {
 414              		.loc 1 1581 0
 415              		.cfi_startproc
 416              		@ args = 0, pretend = 0, frame = 48
 417              		@ frame_needed = 1, uses_anonymous_args = 0
 418 0000 80B5     		push	{r7, lr}
 419              		.cfi_def_cfa_offset 8
 420              		.cfi_offset 7, -8
 421              		.cfi_offset 14, -4
 422 0002 8CB0     		sub	sp, sp, #48
 423              		.cfi_def_cfa_offset 56
 424 0004 00AF     		add	r7, sp, #0
 425              		.cfi_def_cfa_register 7
 426 0006 0200     		movs	r2, r0
 427 0008 3960     		str	r1, [r7]
 428 000a FB1D     		adds	r3, r7, #7
 429 000c 1A70     		strb	r2, [r3]
1582:Generated_Source\PSoC4/BLE_1_eventHandler.c ****     cyBle_eventHandlerFlag |= CYBLE_CALLBACK;
 430              		.loc 1 1582 0
 431 000e D64B     		ldr	r3, .L65
 432 0010 1B78     		ldrb	r3, [r3]
 433 0012 DBB2     		uxtb	r3, r3
 434 0014 0122     		movs	r2, #1
 435 0016 1343     		orrs	r3, r2
 436 0018 DAB2     		uxtb	r2, r3
 437 001a D34B     		ldr	r3, .L65
 438 001c 1A70     		strb	r2, [r3]
1583:Generated_Source\PSoC4/BLE_1_eventHandler.c **** 
1584:Generated_Source\PSoC4/BLE_1_eventHandler.c ****     /* Common Profile event handling */
1585:Generated_Source\PSoC4/BLE_1_eventHandler.c ****     switch(eventCode)
 439              		.loc 1 1585 0
 440 001e FB1D     		adds	r3, r7, #7
 441 0020 1B78     		ldrb	r3, [r3]
 442 0022 712B     		cmp	r3, #113
 443 0024 00D9     		bls	.LCB332
 444 0026 99E1     		b	.L60	@long jump
 445              	.LCB332:
 446 0028 9A00     		lsls	r2, r3, #2
 447 002a D04B     		ldr	r3, .L65+4
 448 002c D318     		adds	r3, r2, r3
 449 002e 1B68     		ldr	r3, [r3]
 450 0030 9F46     		mov	pc, r3
 451              		.section	.rodata
 452 000e 0000     		.align	2
 453              	.L24:
 454 0010 5C030000 		.word	.L60
 455 0014 32000000 		.word	.L23
 456 0018 3A010000 		.word	.L25
 457 001c 5C030000 		.word	.L60
 458 0020 5C030000 		.word	.L60
 459 0024 44010000 		.word	.L26
 460 0028 4E010000 		.word	.L27
 461 002c 5C030000 		.word	.L60
 462 0030 5C030000 		.word	.L60
 463 0034 5C030000 		.word	.L60
 464 0038 5C030000 		.word	.L60
ARM GAS  C:\Users\ROUSSMA\AppData\Local\Temp\cc3gA5P4.s 			page 37


 465 003c 5C030000 		.word	.L60
 466 0040 5C030000 		.word	.L60
 467 0044 5C030000 		.word	.L60
 468 0048 5C030000 		.word	.L60
 469 004c 5C030000 		.word	.L60
 470 0050 5C030000 		.word	.L60
 471 0054 5C030000 		.word	.L60
 472 0058 5C030000 		.word	.L60
 473 005c 5C030000 		.word	.L60
 474 0060 5C030000 		.word	.L60
 475 0064 5C030000 		.word	.L60
 476 0068 5C030000 		.word	.L60
 477 006c 5C030000 		.word	.L60
 478 0070 5C030000 		.word	.L60
 479 0074 5C030000 		.word	.L60
 480 0078 5C030000 		.word	.L60
 481 007c 5C030000 		.word	.L60
 482 0080 5C030000 		.word	.L60
 483 0084 5C030000 		.word	.L60
 484 0088 5C030000 		.word	.L60
 485 008c 5C030000 		.word	.L60
 486 0090 5C030000 		.word	.L60
 487 0094 8E010000 		.word	.L28
 488 0098 5C030000 		.word	.L60
 489 009c 5C030000 		.word	.L60
 490 00a0 5C030000 		.word	.L60
 491 00a4 5C030000 		.word	.L60
 492 00a8 4E020000 		.word	.L30
 493 00ac 36020000 		.word	.L31
 494 00b0 46020000 		.word	.L32
 495 00b4 5C030000 		.word	.L60
 496 00b8 EE010000 		.word	.L33
 497 00bc 5C030000 		.word	.L60
 498 00c0 5C030000 		.word	.L60
 499 00c4 5C030000 		.word	.L60
 500 00c8 5C030000 		.word	.L60
 501 00cc 5C030000 		.word	.L60
 502 00d0 5C030000 		.word	.L60
 503 00d4 F8010000 		.word	.L34
 504 00d8 5C030000 		.word	.L60
 505 00dc 5C030000 		.word	.L60
 506 00e0 5C030000 		.word	.L60
 507 00e4 5C030000 		.word	.L60
 508 00e8 5C030000 		.word	.L60
 509 00ec 5C030000 		.word	.L60
 510 00f0 5C030000 		.word	.L60
 511 00f4 5C030000 		.word	.L60
 512 00f8 5C030000 		.word	.L60
 513 00fc 5C030000 		.word	.L60
 514 0100 5C030000 		.word	.L60
 515 0104 5C030000 		.word	.L60
 516 0108 5C030000 		.word	.L60
 517 010c 5C030000 		.word	.L60
 518 0110 5C030000 		.word	.L60
 519 0114 EC020000 		.word	.L35
 520 0118 08030000 		.word	.L36
 521 011c 0E030000 		.word	.L37
ARM GAS  C:\Users\ROUSSMA\AppData\Local\Temp\cc3gA5P4.s 			page 38


 522 0120 5C030000 		.word	.L60
 523 0124 5C030000 		.word	.L60
 524 0128 5C030000 		.word	.L60
 525 012c 5C030000 		.word	.L60
 526 0130 5C030000 		.word	.L60
 527 0134 5C030000 		.word	.L60
 528 0138 5C030000 		.word	.L60
 529 013c 5C030000 		.word	.L60
 530 0140 48030000 		.word	.L38
 531 0144 5C030000 		.word	.L60
 532 0148 5C030000 		.word	.L60
 533 014c 5C030000 		.word	.L60
 534 0150 5C030000 		.word	.L60
 535 0154 5C030000 		.word	.L60
 536 0158 5C030000 		.word	.L60
 537 015c 5C030000 		.word	.L60
 538 0160 52030000 		.word	.L42
 539 0164 5C030000 		.word	.L60
 540 0168 5C030000 		.word	.L60
 541 016c 5C030000 		.word	.L60
 542 0170 5C030000 		.word	.L60
 543 0174 5C030000 		.word	.L60
 544 0178 5C030000 		.word	.L60
 545 017c 5C030000 		.word	.L60
 546 0180 5C030000 		.word	.L60
 547 0184 5C030000 		.word	.L60
 548 0188 5C030000 		.word	.L60
 549 018c 5C030000 		.word	.L60
 550 0190 5C030000 		.word	.L60
 551 0194 5C030000 		.word	.L60
 552 0198 5C030000 		.word	.L60
 553 019c 5C030000 		.word	.L60
 554 01a0 5C030000 		.word	.L60
 555 01a4 5C030000 		.word	.L60
 556 01a8 5C030000 		.word	.L60
 557 01ac 5C030000 		.word	.L60
 558 01b0 5C030000 		.word	.L60
 559 01b4 5C030000 		.word	.L60
 560 01b8 5C030000 		.word	.L60
 561 01bc 5C030000 		.word	.L60
 562 01c0 5C030000 		.word	.L60
 563 01c4 5C030000 		.word	.L60
 564 01c8 5C030000 		.word	.L60
 565 01cc 5C030000 		.word	.L60
 566 01d0 5C030000 		.word	.L60
 567 01d4 E0020000 		.word	.L44
 568              		.section	.text.CyBle_EventHandler
 569              	.L23:
 570              	.LBB3:
1586:Generated_Source\PSoC4/BLE_1_eventHandler.c ****     {
1587:Generated_Source\PSoC4/BLE_1_eventHandler.c ****         /**********************************************************
1588:Generated_Source\PSoC4/BLE_1_eventHandler.c ****         * General events
1589:Generated_Source\PSoC4/BLE_1_eventHandler.c ****         ************************************************************/
1590:Generated_Source\PSoC4/BLE_1_eventHandler.c ****         case CYBLE_EVT_STACK_ON:
1591:Generated_Source\PSoC4/BLE_1_eventHandler.c ****         #if(CYBLE_MODE_PROFILE)
1592:Generated_Source\PSoC4/BLE_1_eventHandler.c ****         {
1593:Generated_Source\PSoC4/BLE_1_eventHandler.c ****             CYBLE_BLESS_PWR_IN_DB_T bleSsPowerLevel;
ARM GAS  C:\Users\ROUSSMA\AppData\Local\Temp\cc3gA5P4.s 			page 39


1594:Generated_Source\PSoC4/BLE_1_eventHandler.c ****             
1595:Generated_Source\PSoC4/BLE_1_eventHandler.c ****             /* Set Tx Power Level for advertising and connection channels */
1596:Generated_Source\PSoC4/BLE_1_eventHandler.c ****             bleSsPowerLevel.blePwrLevelInDbm = CYBLE_TX_POWER_LEVEL_ADV;
 571              		.loc 1 1596 0
 572 0032 1C23     		movs	r3, #28
 573 0034 FB18     		adds	r3, r7, r3
 574 0036 0722     		movs	r2, #7
 575 0038 1A70     		strb	r2, [r3]
1597:Generated_Source\PSoC4/BLE_1_eventHandler.c ****             bleSsPowerLevel.bleSsChId = CYBLE_LL_ADV_CH_TYPE;
 576              		.loc 1 1597 0
 577 003a 1C23     		movs	r3, #28
 578 003c FB18     		adds	r3, r7, r3
 579 003e 0022     		movs	r2, #0
 580 0040 5A70     		strb	r2, [r3, #1]
1598:Generated_Source\PSoC4/BLE_1_eventHandler.c ****             (void) CyBle_SetTxPowerLevel (&bleSsPowerLevel);
 581              		.loc 1 1598 0
 582 0042 1C23     		movs	r3, #28
 583 0044 FB18     		adds	r3, r7, r3
 584 0046 1800     		movs	r0, r3
 585 0048 FFF7FEFF 		bl	CyBle_SetTxPowerLevel
1599:Generated_Source\PSoC4/BLE_1_eventHandler.c ****             bleSsPowerLevel.blePwrLevelInDbm = CYBLE_TX_POWER_LEVEL_CONN;
 586              		.loc 1 1599 0
 587 004c 1C23     		movs	r3, #28
 588 004e FB18     		adds	r3, r7, r3
 589 0050 0722     		movs	r2, #7
 590 0052 1A70     		strb	r2, [r3]
1600:Generated_Source\PSoC4/BLE_1_eventHandler.c ****             bleSsPowerLevel.bleSsChId = CYBLE_LL_CONN_CH_TYPE;
 591              		.loc 1 1600 0
 592 0054 1C23     		movs	r3, #28
 593 0056 FB18     		adds	r3, r7, r3
 594 0058 0122     		movs	r2, #1
 595 005a 5A70     		strb	r2, [r3, #1]
1601:Generated_Source\PSoC4/BLE_1_eventHandler.c ****             (void) CyBle_SetTxPowerLevel (&bleSsPowerLevel);
 596              		.loc 1 1601 0
 597 005c 1C23     		movs	r3, #28
 598 005e FB18     		adds	r3, r7, r3
 599 0060 1800     		movs	r0, r3
 600 0062 FFF7FEFF 		bl	CyBle_SetTxPowerLevel
1602:Generated_Source\PSoC4/BLE_1_eventHandler.c ****             
1603:Generated_Source\PSoC4/BLE_1_eventHandler.c ****             #if (CYBLE_GATT_ROLE_SERVER)
1604:Generated_Source\PSoC4/BLE_1_eventHandler.c ****                 /* As per Privacy Errata a call to CyBle_EnableDefaultDevicePrivacy() is
1605:Generated_Source\PSoC4/BLE_1_eventHandler.c ****                   required to set a device to use device privacy instead of network privacy
1606:Generated_Source\PSoC4/BLE_1_eventHandler.c ****                   that is enabled by default starting from BLE Stack 3.3.
1607:Generated_Source\PSoC4/BLE_1_eventHandler.c ****                 */
1608:Generated_Source\PSoC4/BLE_1_eventHandler.c ****                 if(cyBle_gaps.rpaOnlyCharHandle != CYBLE_GATT_INVALID_ATTR_HANDLE_VALUE)
 601              		.loc 1 1608 0
 602 0066 0B23     		movs	r3, #11
 603 0068 002B     		cmp	r3, #0
 604 006a 01D0     		beq	.L45
1609:Generated_Source\PSoC4/BLE_1_eventHandler.c ****                 {
1610:Generated_Source\PSoC4/BLE_1_eventHandler.c ****                     CyBle_EnableDefaultDevicePrivacy();
 605              		.loc 1 1610 0
 606 006c FFF7FEFF 		bl	CyBle_EnableDefaultDevicePrivacy
 607              	.L45:
 608              	.LBE3:
1611:Generated_Source\PSoC4/BLE_1_eventHandler.c ****                 }
1612:Generated_Source\PSoC4/BLE_1_eventHandler.c ****             #endif /* (CYBLE_GATT_ROLE_SERVER) */
ARM GAS  C:\Users\ROUSSMA\AppData\Local\Temp\cc3gA5P4.s 			page 40


1613:Generated_Source\PSoC4/BLE_1_eventHandler.c ****             
1614:Generated_Source\PSoC4/BLE_1_eventHandler.c ****             #if (CYBLE_STRICT_PAIRING_ENABLED)
1615:Generated_Source\PSoC4/BLE_1_eventHandler.c ****                 (void) CyBle_GapSetSecurityRequirements(CYBLE_STRICT_PAIRING_REQ_VALUE, CYBLE_SECUR
1616:Generated_Source\PSoC4/BLE_1_eventHandler.c ****             #endif /* (CYBLE_STRICT_PAIRING_ENABLED) */
1617:Generated_Source\PSoC4/BLE_1_eventHandler.c ****             
1618:Generated_Source\PSoC4/BLE_1_eventHandler.c ****         }
1619:Generated_Source\PSoC4/BLE_1_eventHandler.c ****         #endif /* CYBLE_MODE_PROFILE */
1620:Generated_Source\PSoC4/BLE_1_eventHandler.c ****         #if (CYBLE_GATT_ROLE_SERVER || CYBLE_GATT_ROLE_CLIENT)
1621:Generated_Source\PSoC4/BLE_1_eventHandler.c ****             /* Set device Address  */
1622:Generated_Source\PSoC4/BLE_1_eventHandler.c ****             if(CyBle_IsDeviceAddressValid(cyBle_sflashDeviceAddress) != 0u)
 609              		.loc 1 1622 0
 610 0070 BF4B     		ldr	r3, .L65+8
 611 0072 1B68     		ldr	r3, [r3]
 612 0074 1800     		movs	r0, r3
 613 0076 FFF7FEFF 		bl	CyBle_IsDeviceAddressValid
 614 007a 031E     		subs	r3, r0, #0
 615 007c 11D0     		beq	.L46
1623:Generated_Source\PSoC4/BLE_1_eventHandler.c ****             {
1624:Generated_Source\PSoC4/BLE_1_eventHandler.c ****                 (void) CyBle_SetDeviceAddress(cyBle_sflashDeviceAddress);
 616              		.loc 1 1624 0
 617 007e BC4B     		ldr	r3, .L65+8
 618 0080 1B68     		ldr	r3, [r3]
 619 0082 1800     		movs	r0, r3
 620 0084 FFF7FEFF 		bl	CyBle_SetDeviceAddress
1625:Generated_Source\PSoC4/BLE_1_eventHandler.c ****                 #if(CYBLE_GAP_ROLE_PERIPHERAL || CYBLE_GAP_ROLE_BROADCASTER)
1626:Generated_Source\PSoC4/BLE_1_eventHandler.c ****                     CyBle_ChangeAdDeviceAddress(cyBle_sflashDeviceAddress, 0u);
 621              		.loc 1 1626 0
 622 0088 B94B     		ldr	r3, .L65+8
 623 008a 1B68     		ldr	r3, [r3]
 624 008c 0021     		movs	r1, #0
 625 008e 1800     		movs	r0, r3
 626 0090 FFF7FEFF 		bl	CyBle_ChangeAdDeviceAddress
1627:Generated_Source\PSoC4/BLE_1_eventHandler.c ****                     CyBle_ChangeAdDeviceAddress(cyBle_sflashDeviceAddress, 1u);
 627              		.loc 1 1627 0
 628 0094 B64B     		ldr	r3, .L65+8
 629 0096 1B68     		ldr	r3, [r3]
 630 0098 0121     		movs	r1, #1
 631 009a 1800     		movs	r0, r3
 632 009c FFF7FEFF 		bl	CyBle_ChangeAdDeviceAddress
 633 00a0 36E0     		b	.L47
 634              	.L46:
 635              	.LBB4:
1628:Generated_Source\PSoC4/BLE_1_eventHandler.c ****                 #endif /* CYBLE_GAP_ROLE_PERIPHERAL || CYBLE_GAP_ROLE_BROADCASTER */    
1629:Generated_Source\PSoC4/BLE_1_eventHandler.c ****             }
1630:Generated_Source\PSoC4/BLE_1_eventHandler.c ****             else
1631:Generated_Source\PSoC4/BLE_1_eventHandler.c ****             {
1632:Generated_Source\PSoC4/BLE_1_eventHandler.c ****             #if (SILICON_GENERATED_DEVICE_ADDRESS != 0u)
1633:Generated_Source\PSoC4/BLE_1_eventHandler.c ****             {
1634:Generated_Source\PSoC4/BLE_1_eventHandler.c ****                 uint32 bdAddrLoc;
1635:Generated_Source\PSoC4/BLE_1_eventHandler.c ****                 bdAddrLoc = (CYBLE_SFLASH_DIE_X_REG & CYBLE_SFLASH_DIE_X_MASK) |
 636              		.loc 1 1635 0
 637 00a2 B44B     		ldr	r3, .L65+12
 638 00a4 1B78     		ldrb	r3, [r3]
 639 00a6 1A00     		movs	r2, r3
 640 00a8 3F23     		movs	r3, #63
 641 00aa 1A40     		ands	r2, r3
1636:Generated_Source\PSoC4/BLE_1_eventHandler.c ****                     ((uint32)(((uint32)CYBLE_SFLASH_DIE_Y_REG) & ((uint32)CYBLE_SFLASH_DIE_Y_MASK))
ARM GAS  C:\Users\ROUSSMA\AppData\Local\Temp\cc3gA5P4.s 			page 41


 642              		.loc 1 1636 0
 643 00ac B24B     		ldr	r3, .L65+16
 644 00ae 1B78     		ldrb	r3, [r3]
 645 00b0 9901     		lsls	r1, r3, #6
 646 00b2 FC23     		movs	r3, #252
 647 00b4 1B01     		lsls	r3, r3, #4
 648 00b6 0B40     		ands	r3, r1
1635:Generated_Source\PSoC4/BLE_1_eventHandler.c ****                     ((uint32)(((uint32)CYBLE_SFLASH_DIE_Y_REG) & ((uint32)CYBLE_SFLASH_DIE_Y_MASK))
 649              		.loc 1 1635 0
 650 00b8 1A43     		orrs	r2, r3
1637:Generated_Source\PSoC4/BLE_1_eventHandler.c ****                         CYBLE_SFLASH_DIE_X_BITS) |
1638:Generated_Source\PSoC4/BLE_1_eventHandler.c ****                     ((uint32)(((uint32)CYBLE_SFLASH_DIE_WAFER_REG) & ((uint32)CYBLE_SFLASH_DIE_WAFE
 651              		.loc 1 1638 0
 652 00ba B04B     		ldr	r3, .L65+20
 653 00bc 1B78     		ldrb	r3, [r3]
 654 00be 1903     		lsls	r1, r3, #12
 655 00c0 F823     		movs	r3, #248
 656 00c2 5B02     		lsls	r3, r3, #9
 657 00c4 0B40     		ands	r3, r1
1637:Generated_Source\PSoC4/BLE_1_eventHandler.c ****                         CYBLE_SFLASH_DIE_X_BITS) |
 658              		.loc 1 1637 0
 659 00c6 1A43     		orrs	r2, r3
1639:Generated_Source\PSoC4/BLE_1_eventHandler.c ****                         CYBLE_SFLASH_DIE_XY_BITS) |
1640:Generated_Source\PSoC4/BLE_1_eventHandler.c ****                     ((uint32)(((uint32)CYBLE_SFLASH_DIE_LOT_REG) & ((uint32)CYBLE_SFLASH_DIE_LOT_MA
 660              		.loc 1 1640 0
 661 00c8 AD4B     		ldr	r3, .L65+24
 662 00ca 1B78     		ldrb	r3, [r3]
 663 00cc 5904     		lsls	r1, r3, #17
 664 00ce FE23     		movs	r3, #254
 665 00d0 1B04     		lsls	r3, r3, #16
 666 00d2 0B40     		ands	r3, r1
1635:Generated_Source\PSoC4/BLE_1_eventHandler.c ****                     ((uint32)(((uint32)CYBLE_SFLASH_DIE_Y_REG) & ((uint32)CYBLE_SFLASH_DIE_Y_MASK))
 667              		.loc 1 1635 0
 668 00d4 1343     		orrs	r3, r2
 669 00d6 BB62     		str	r3, [r7, #40]
1641:Generated_Source\PSoC4/BLE_1_eventHandler.c ****                         CYBLE_SFLASH_DIE_XYWAFER_BITS);
1642:Generated_Source\PSoC4/BLE_1_eventHandler.c ****                             
1643:Generated_Source\PSoC4/BLE_1_eventHandler.c ****                 cyBle_deviceAddress.bdAddr[0] = (uint8)bdAddrLoc;
 670              		.loc 1 1643 0
 671 00d8 BB6A     		ldr	r3, [r7, #40]
 672 00da DAB2     		uxtb	r2, r3
 673 00dc A94B     		ldr	r3, .L65+28
 674 00de 1A70     		strb	r2, [r3]
1644:Generated_Source\PSoC4/BLE_1_eventHandler.c ****                 cyBle_deviceAddress.bdAddr[1] = (uint8)(bdAddrLoc >> 8u);
 675              		.loc 1 1644 0
 676 00e0 BB6A     		ldr	r3, [r7, #40]
 677 00e2 1B0A     		lsrs	r3, r3, #8
 678 00e4 DAB2     		uxtb	r2, r3
 679 00e6 A74B     		ldr	r3, .L65+28
 680 00e8 5A70     		strb	r2, [r3, #1]
1645:Generated_Source\PSoC4/BLE_1_eventHandler.c ****                 cyBle_deviceAddress.bdAddr[2] = (uint8)(bdAddrLoc >> 16u);
 681              		.loc 1 1645 0
 682 00ea BB6A     		ldr	r3, [r7, #40]
 683 00ec 1B0C     		lsrs	r3, r3, #16
 684 00ee DAB2     		uxtb	r2, r3
 685 00f0 A44B     		ldr	r3, .L65+28
 686 00f2 9A70     		strb	r2, [r3, #2]
ARM GAS  C:\Users\ROUSSMA\AppData\Local\Temp\cc3gA5P4.s 			page 42


 687              	.LBE4:
1646:Generated_Source\PSoC4/BLE_1_eventHandler.c ****             }
1647:Generated_Source\PSoC4/BLE_1_eventHandler.c ****             #endif /* SILICON_GENERATED_DEVICE_ADDRESS != 0u */
1648:Generated_Source\PSoC4/BLE_1_eventHandler.c ****                 (void) CyBle_SetDeviceAddress(&cyBle_deviceAddress);
 688              		.loc 1 1648 0
 689 00f4 A34B     		ldr	r3, .L65+28
 690 00f6 1800     		movs	r0, r3
 691 00f8 FFF7FEFF 		bl	CyBle_SetDeviceAddress
1649:Generated_Source\PSoC4/BLE_1_eventHandler.c ****                 #if(CYBLE_GAP_ROLE_PERIPHERAL || CYBLE_GAP_ROLE_BROADCASTER)
1650:Generated_Source\PSoC4/BLE_1_eventHandler.c ****                     CyBle_ChangeAdDeviceAddress(&cyBle_deviceAddress, 0u);
 692              		.loc 1 1650 0
 693 00fc A14B     		ldr	r3, .L65+28
 694 00fe 0021     		movs	r1, #0
 695 0100 1800     		movs	r0, r3
 696 0102 FFF7FEFF 		bl	CyBle_ChangeAdDeviceAddress
1651:Generated_Source\PSoC4/BLE_1_eventHandler.c ****                     CyBle_ChangeAdDeviceAddress(&cyBle_deviceAddress, 1u);
 697              		.loc 1 1651 0
 698 0106 9F4B     		ldr	r3, .L65+28
 699 0108 0121     		movs	r1, #1
 700 010a 1800     		movs	r0, r3
 701 010c FFF7FEFF 		bl	CyBle_ChangeAdDeviceAddress
 702              	.L47:
1652:Generated_Source\PSoC4/BLE_1_eventHandler.c ****                 #endif /* CYBLE_GAP_ROLE_PERIPHERAL || CYBLE_GAP_ROLE_BROADCASTER */    
1653:Generated_Source\PSoC4/BLE_1_eventHandler.c ****             }
1654:Generated_Source\PSoC4/BLE_1_eventHandler.c ****             /* Set device IO Capability  */
1655:Generated_Source\PSoC4/BLE_1_eventHandler.c ****             (void) CyBle_GapSetIoCap(CYBLE_IO_CAPABILITY);    
 703              		.loc 1 1655 0
 704 0110 0320     		movs	r0, #3
 705 0112 FFF7FEFF 		bl	CyBle_GapSetIoCap
 706              	.LBB5:
1656:Generated_Source\PSoC4/BLE_1_eventHandler.c ****             {
1657:Generated_Source\PSoC4/BLE_1_eventHandler.c ****                 /* Enable all 4.1 events and configured 4.2 events */
1658:Generated_Source\PSoC4/BLE_1_eventHandler.c ****                 uint8 leMask[CYBLE_LE_MASK_LENGTH] = {LO8(CYBLE_LE_MASK), HI8(CYBLE_LE_MASK)};
 707              		.loc 1 1658 0
 708 0116 1823     		movs	r3, #24
 709 0118 FA18     		adds	r2, r7, r3
 710 011a 9B4B     		ldr	r3, .L65+32
 711 011c 1000     		movs	r0, r2
 712 011e 1900     		movs	r1, r3
 713 0120 0223     		movs	r3, #2
 714 0122 1A00     		movs	r2, r3
 715 0124 FFF7FEFF 		bl	memcpy
1659:Generated_Source\PSoC4/BLE_1_eventHandler.c ****                 (void) CyBle_GapSetLeEventMask(leMask);
 716              		.loc 1 1659 0
 717 0128 1823     		movs	r3, #24
 718 012a FB18     		adds	r3, r7, r3
 719 012c 1800     		movs	r0, r3
 720 012e FFF7FEFF 		bl	CyBle_GapSetLeEventMask
 721              	.LBE5:
1660:Generated_Source\PSoC4/BLE_1_eventHandler.c ****             }
1661:Generated_Source\PSoC4/BLE_1_eventHandler.c ****         #if(CYBLE_DLE_FEATURE_ENABLED)
1662:Generated_Source\PSoC4/BLE_1_eventHandler.c ****         {
1663:Generated_Source\PSoC4/BLE_1_eventHandler.c ****             /* Set maximum suggested TX payload size */
1664:Generated_Source\PSoC4/BLE_1_eventHandler.c ****             uint16 payloadTime = CYBLE_LL_MAX_TX_TIME;
1665:Generated_Source\PSoC4/BLE_1_eventHandler.c ****             (void) CyBle_GapConvertOctetToTime(CYBLE_GAP_PHY_1MBPS, CYBLE_LL_MAX_TX_PAYLOAD_SIZE, &
1666:Generated_Source\PSoC4/BLE_1_eventHandler.c ****             (void) CyBle_GapSetSuggestedDataLength(CYBLE_LL_MAX_TX_PAYLOAD_SIZE, payloadTime); 
1667:Generated_Source\PSoC4/BLE_1_eventHandler.c ****         }
ARM GAS  C:\Users\ROUSSMA\AppData\Local\Temp\cc3gA5P4.s 			page 43


1668:Generated_Source\PSoC4/BLE_1_eventHandler.c ****         #endif /* CYBLE_DLE_FEATURE != 0u */
1669:Generated_Source\PSoC4/BLE_1_eventHandler.c ****         
1670:Generated_Source\PSoC4/BLE_1_eventHandler.c ****         #endif /* CYBLE_GATT_ROLE_SERVER || CYBLE_GATT_ROLE_CLIENT */
1671:Generated_Source\PSoC4/BLE_1_eventHandler.c ****             CyBle_SetState(CYBLE_STATE_DISCONNECTED);
 722              		.loc 1 1671 0
 723 0132 964B     		ldr	r3, .L65+36
 724 0134 0422     		movs	r2, #4
 725 0136 1A70     		strb	r2, [r3]
1672:Generated_Source\PSoC4/BLE_1_eventHandler.c ****             break;
 726              		.loc 1 1672 0
 727 0138 39E1     		b	.L48
 728              	.L25:
1673:Generated_Source\PSoC4/BLE_1_eventHandler.c ****         case CYBLE_EVT_TIMEOUT:
1674:Generated_Source\PSoC4/BLE_1_eventHandler.c ****             CyBle_TimeOutEventHandler((CYBLE_TO_REASON_CODE_T *)eventParam);
 729              		.loc 1 1674 0
 730 013a 3B68     		ldr	r3, [r7]
 731 013c 1800     		movs	r0, r3
 732 013e FFF7FEFF 		bl	CyBle_TimeOutEventHandler
1675:Generated_Source\PSoC4/BLE_1_eventHandler.c ****             break;
 733              		.loc 1 1675 0
 734 0142 34E1     		b	.L48
 735              	.L26:
1676:Generated_Source\PSoC4/BLE_1_eventHandler.c ****     	case CYBLE_EVT_STACK_BUSY_STATUS:
1677:Generated_Source\PSoC4/BLE_1_eventHandler.c ****             cyBle_busyStatus = *(uint8 *)eventParam;
 736              		.loc 1 1677 0
 737 0144 3B68     		ldr	r3, [r7]
 738 0146 1A78     		ldrb	r2, [r3]
 739 0148 914B     		ldr	r3, .L65+40
 740 014a 1A70     		strb	r2, [r3]
1678:Generated_Source\PSoC4/BLE_1_eventHandler.c ****             break;
 741              		.loc 1 1678 0
 742 014c 2FE1     		b	.L48
 743              	.L27:
 744              	.LBB6:
1679:Generated_Source\PSoC4/BLE_1_eventHandler.c ****     	case CYBLE_EVT_MEMORY_REQUEST:
1680:Generated_Source\PSoC4/BLE_1_eventHandler.c ****         #if(CYBLE_MODE_PROFILE)
1681:Generated_Source\PSoC4/BLE_1_eventHandler.c ****         {
1682:Generated_Source\PSoC4/BLE_1_eventHandler.c ****             CYBLE_MEMORY_REQUEST_T *memReq = (CYBLE_MEMORY_REQUEST_T *)eventParam;
 745              		.loc 1 1682 0
 746 014e 3B68     		ldr	r3, [r7]
 747 0150 7B62     		str	r3, [r7, #36]
1683:Generated_Source\PSoC4/BLE_1_eventHandler.c ****             if(memReq->request == CYBLE_PREPARED_WRITE_REQUEST)
 748              		.loc 1 1683 0
 749 0152 7B6A     		ldr	r3, [r7, #36]
 750 0154 1B78     		ldrb	r3, [r3]
 751 0156 002B     		cmp	r3, #0
 752 0158 00D0     		beq	.LCB501
 753 015a 01E1     		b	.L61	@long jump
 754              	.LCB501:
1684:Generated_Source\PSoC4/BLE_1_eventHandler.c ****             {  
1685:Generated_Source\PSoC4/BLE_1_eventHandler.c ****             #if(CYBLE_GATT_ENABLE_EXTERNAL_PREP_WRITE_BUFF == 0u)
1686:Generated_Source\PSoC4/BLE_1_eventHandler.c ****                 /* Stack requests to provide memory to process remote request */
1687:Generated_Source\PSoC4/BLE_1_eventHandler.c ****                 if(memReq->allocFree == CYBLE_ALLOC_MEMORY)
 755              		.loc 1 1687 0
 756 015c 7B6A     		ldr	r3, [r7, #36]
 757 015e 5B78     		ldrb	r3, [r3, #1]
 758 0160 002B     		cmp	r3, #0
ARM GAS  C:\Users\ROUSSMA\AppData\Local\Temp\cc3gA5P4.s 			page 44


 759 0162 0BD1     		bne	.L50
 760              	.LBB7:
1688:Generated_Source\PSoC4/BLE_1_eventHandler.c ****                 {
1689:Generated_Source\PSoC4/BLE_1_eventHandler.c ****                     static CYBLE_PREPARE_WRITE_REQUEST_MEMORY_T gPrepWriteReqMem;
1690:Generated_Source\PSoC4/BLE_1_eventHandler.c ****                     
1691:Generated_Source\PSoC4/BLE_1_eventHandler.c ****                     /* Configure and return statically allocated buffer at the end of cyBle_stackMe
1692:Generated_Source\PSoC4/BLE_1_eventHandler.c ****                     gPrepWriteReqMem.prepareWriteQueueSize = CYBLE_GATT_MAX_PREPARE_BUFF_COUNT;
 761              		.loc 1 1692 0
 762 0164 8B4B     		ldr	r3, .L65+44
 763 0166 0022     		movs	r2, #0
 764 0168 DA80     		strh	r2, [r3, #6]
1693:Generated_Source\PSoC4/BLE_1_eventHandler.c ****                     gPrepWriteReqMem.totalAttrValueLength = CYBLE_GATT_PREPARE_LENGTH_ALIGN;
 765              		.loc 1 1693 0
 766 016a 8A4B     		ldr	r3, .L65+44
 767 016c 0022     		movs	r2, #0
 768 016e 9A80     		strh	r2, [r3, #4]
1694:Generated_Source\PSoC4/BLE_1_eventHandler.c ****                     gPrepWriteReqMem.queueBuffer = &cyBle_stackMemoryRam[CYBLE_STACK_RAM_SIZE - 
 769              		.loc 1 1694 0
 770 0170 884B     		ldr	r3, .L65+44
 771 0172 894A     		ldr	r2, .L65+48
 772 0174 1A60     		str	r2, [r3]
1695:Generated_Source\PSoC4/BLE_1_eventHandler.c ****                                                                          CYBLE_GATT_PREPARE_WRITE_B
1696:Generated_Source\PSoC4/BLE_1_eventHandler.c ****                     memReq->configMemory = &gPrepWriteReqMem;  
 773              		.loc 1 1696 0
 774 0176 7B6A     		ldr	r3, [r7, #36]
 775 0178 864A     		ldr	r2, .L65+44
 776 017a 5A60     		str	r2, [r3, #4]
 777              	.L50:
 778              	.LBE7:
1697:Generated_Source\PSoC4/BLE_1_eventHandler.c ****                 }                
1698:Generated_Source\PSoC4/BLE_1_eventHandler.c ****                 /* Clear CYBLE_CALLBACK flag not to provide handled event to application */
1699:Generated_Source\PSoC4/BLE_1_eventHandler.c ****                 cyBle_eventHandlerFlag &= (uint8)~CYBLE_CALLBACK;
 779              		.loc 1 1699 0
 780 017c 7A4B     		ldr	r3, .L65
 781 017e 1B78     		ldrb	r3, [r3]
 782 0180 DBB2     		uxtb	r3, r3
 783 0182 0122     		movs	r2, #1
 784 0184 9343     		bics	r3, r2
 785 0186 DAB2     		uxtb	r2, r3
 786 0188 774B     		ldr	r3, .L65
 787 018a 1A70     		strb	r2, [r3]
 788              	.LBE6:
1700:Generated_Source\PSoC4/BLE_1_eventHandler.c ****             #endif  /* CYBLE_GATT_ENABLE_EXTERNAL_PREP_WRITE_BUFF == 0u */
1701:Generated_Source\PSoC4/BLE_1_eventHandler.c ****             }
1702:Generated_Source\PSoC4/BLE_1_eventHandler.c ****         }
1703:Generated_Source\PSoC4/BLE_1_eventHandler.c ****         #endif /* CYBLE_MODE_PROFILE */
1704:Generated_Source\PSoC4/BLE_1_eventHandler.c ****             break;
 789              		.loc 1 1704 0
 790 018c E8E0     		b	.L61
 791              	.L28:
1705:Generated_Source\PSoC4/BLE_1_eventHandler.c ****         /**********************************************************
1706:Generated_Source\PSoC4/BLE_1_eventHandler.c ****         * GAP events
1707:Generated_Source\PSoC4/BLE_1_eventHandler.c ****         ************************************************************/
1708:Generated_Source\PSoC4/BLE_1_eventHandler.c ****         case CYBLE_EVT_GAP_AUTH_REQ:
1709:Generated_Source\PSoC4/BLE_1_eventHandler.c ****         #if(CYBLE_MODE_PROFILE)
1710:Generated_Source\PSoC4/BLE_1_eventHandler.c ****             if((cyBle_eventHandlerFlag & CYBLE_DISABLE_AUTOMATIC_AUTH) == 0u)
 792              		.loc 1 1710 0
ARM GAS  C:\Users\ROUSSMA\AppData\Local\Temp\cc3gA5P4.s 			page 45


 793 018e 764B     		ldr	r3, .L65
 794 0190 1B78     		ldrb	r3, [r3]
 795 0192 DBB2     		uxtb	r3, r3
 796 0194 1A00     		movs	r2, r3
 797 0196 2023     		movs	r3, #32
 798 0198 1340     		ands	r3, r2
 799 019a 00D0     		beq	.LCB542
 800 019c E2E0     		b	.L62	@long jump
 801              	.LCB542:
1711:Generated_Source\PSoC4/BLE_1_eventHandler.c ****             {
1712:Generated_Source\PSoC4/BLE_1_eventHandler.c ****                 /* If the responding device does not support pairing then the responding 
1713:Generated_Source\PSoC4/BLE_1_eventHandler.c ****                    device shall respond using the Pairing Failed message with the error 
1714:Generated_Source\PSoC4/BLE_1_eventHandler.c ****                    code "Pairing Not Supported" otherwise it responds with a Pairing 
1715:Generated_Source\PSoC4/BLE_1_eventHandler.c ****                    Response message.
1716:Generated_Source\PSoC4/BLE_1_eventHandler.c ****                 */
1717:Generated_Source\PSoC4/BLE_1_eventHandler.c ****                 if(cyBle_authInfo.security == (CYBLE_GAP_SEC_MODE_1 | CYBLE_GAP_SEC_LEVEL_1))
 802              		.loc 1 1717 0
 803 019e 7F4B     		ldr	r3, .L65+52
 804 01a0 1B78     		ldrb	r3, [r3]
 805 01a2 102B     		cmp	r3, #16
 806 01a4 02D1     		bne	.L52
1718:Generated_Source\PSoC4/BLE_1_eventHandler.c ****                 {
1719:Generated_Source\PSoC4/BLE_1_eventHandler.c ****                     cyBle_authInfo.authErr = CYBLE_GAP_AUTH_ERROR_PAIRING_NOT_SUPPORTED;
 807              		.loc 1 1719 0
 808 01a6 7D4B     		ldr	r3, .L65+52
 809 01a8 0522     		movs	r2, #5
 810 01aa DA70     		strb	r2, [r3, #3]
 811              	.L52:
 812              	.LBB8:
1720:Generated_Source\PSoC4/BLE_1_eventHandler.c ****                 }    
1721:Generated_Source\PSoC4/BLE_1_eventHandler.c ****             #if(CYBLE_GAP_ROLE_PERIPHERAL)
1722:Generated_Source\PSoC4/BLE_1_eventHandler.c ****                 {
1723:Generated_Source\PSoC4/BLE_1_eventHandler.c ****                     CYBLE_API_RESULT_T apiResult;
1724:Generated_Source\PSoC4/BLE_1_eventHandler.c ****                     
1725:Generated_Source\PSoC4/BLE_1_eventHandler.c ****                     apiResult = CyBle_GappAuthReqReply(cyBle_connHandle.bdHandle, &cyBle_authInfo);
 813              		.loc 1 1725 0
 814 01ac 7C4B     		ldr	r3, .L65+56
 815 01ae 1B78     		ldrb	r3, [r3]
 816 01b0 7A4A     		ldr	r2, .L65+52
 817 01b2 1100     		movs	r1, r2
 818 01b4 1800     		movs	r0, r3
 819 01b6 FFF7FEFF 		bl	CyBle_GappAuthReqReply
 820 01ba 0300     		movs	r3, r0
 821 01bc 1A00     		movs	r2, r3
 822 01be 1623     		movs	r3, #22
 823 01c0 FB18     		adds	r3, r7, r3
 824 01c2 1A80     		strh	r2, [r3]
1726:Generated_Source\PSoC4/BLE_1_eventHandler.c ****                     /* Setting callback flag again as CyBle_GappAuthReqReply() will generate
1727:Generated_Source\PSoC4/BLE_1_eventHandler.c ****                     * CYBLE_EVT_GAP_SMP_NEGOTIATED_AUTH_INFO event which will clear the callback
1728:Generated_Source\PSoC4/BLE_1_eventHandler.c ****                     * flag.
1729:Generated_Source\PSoC4/BLE_1_eventHandler.c ****                     */
1730:Generated_Source\PSoC4/BLE_1_eventHandler.c ****                     if (apiResult != CYBLE_ERROR_OK)
 825              		.loc 1 1730 0
 826 01c4 1623     		movs	r3, #22
 827 01c6 FB18     		adds	r3, r7, r3
 828 01c8 1B88     		ldrh	r3, [r3]
 829 01ca 002B     		cmp	r3, #0
ARM GAS  C:\Users\ROUSSMA\AppData\Local\Temp\cc3gA5P4.s 			page 46


 830 01cc 06D0     		beq	.L53
1731:Generated_Source\PSoC4/BLE_1_eventHandler.c ****                     {   
1732:Generated_Source\PSoC4/BLE_1_eventHandler.c ****                         CyBle_ApplCallback(CYBLE_EVT_GAP_AUTH_REQ_REPLY_ERR , &apiResult);
 831              		.loc 1 1732 0
 832 01ce 754B     		ldr	r3, .L65+60
 833 01d0 1B68     		ldr	r3, [r3]
 834 01d2 1622     		movs	r2, #22
 835 01d4 BA18     		adds	r2, r7, r2
 836 01d6 1100     		movs	r1, r2
 837 01d8 3620     		movs	r0, #54
 838 01da 9847     		blx	r3
 839              	.L53:
1733:Generated_Source\PSoC4/BLE_1_eventHandler.c ****                     }
1734:Generated_Source\PSoC4/BLE_1_eventHandler.c ****                     cyBle_eventHandlerFlag |= CYBLE_CALLBACK;
 840              		.loc 1 1734 0
 841 01dc 624B     		ldr	r3, .L65
 842 01de 1B78     		ldrb	r3, [r3]
 843 01e0 DBB2     		uxtb	r3, r3
 844 01e2 0122     		movs	r2, #1
 845 01e4 1343     		orrs	r3, r2
 846 01e6 DAB2     		uxtb	r2, r3
 847 01e8 5F4B     		ldr	r3, .L65
 848 01ea 1A70     		strb	r2, [r3]
 849              	.LBE8:
1735:Generated_Source\PSoC4/BLE_1_eventHandler.c ****                 }
1736:Generated_Source\PSoC4/BLE_1_eventHandler.c ****             #endif /* CYBLE_GAP_ROLE_PERIPHERAL */
1737:Generated_Source\PSoC4/BLE_1_eventHandler.c ****             #if (CYBLE_GAP_ROLE_CENTRAL)
1738:Generated_Source\PSoC4/BLE_1_eventHandler.c ****                 (void)CyBle_GapAuthReq(cyBle_connHandle.bdHandle, &cyBle_authInfo);
1739:Generated_Source\PSoC4/BLE_1_eventHandler.c ****             #endif /* CYBLE_GAP_ROLE_CENTRAL */
1740:Generated_Source\PSoC4/BLE_1_eventHandler.c ****             }
1741:Generated_Source\PSoC4/BLE_1_eventHandler.c ****         #endif /* CYBLE_MODE_PROFILE */
1742:Generated_Source\PSoC4/BLE_1_eventHandler.c ****             break;
 850              		.loc 1 1742 0
 851 01ec BAE0     		b	.L62
 852              	.L33:
1743:Generated_Source\PSoC4/BLE_1_eventHandler.c ****         
1744:Generated_Source\PSoC4/BLE_1_eventHandler.c ****         case CYBLE_EVT_GAP_AUTH_COMPLETE:
1745:Generated_Source\PSoC4/BLE_1_eventHandler.c ****         #if((CYBLE_GAP_ROLE_PERIPHERAL || CYBLE_GAP_ROLE_CENTRAL) && (CYBLE_BONDING_REQUIREMENT == 
1746:Generated_Source\PSoC4/BLE_1_eventHandler.c ****             cyBle_peerBonding = ((CYBLE_GAP_AUTH_INFO_T *)eventParam)->bonding;
1747:Generated_Source\PSoC4/BLE_1_eventHandler.c ****         #endif  /* CYBLE_BONDING_REQUIREMENT == CYBLE_BONDING_YES */
1748:Generated_Source\PSoC4/BLE_1_eventHandler.c ****             break;
1749:Generated_Source\PSoC4/BLE_1_eventHandler.c ****         
1750:Generated_Source\PSoC4/BLE_1_eventHandler.c ****         case CYBLE_EVT_GAP_CONNECTION_UPDATE_COMPLETE:
1751:Generated_Source\PSoC4/BLE_1_eventHandler.c ****             CyBle_GapConnUpdateCompleteEventHandler((const CYBLE_GAP_CONN_PARAM_UPDATED_IN_CONTROLL
 853              		.loc 1 1751 0
 854 01ee 3B68     		ldr	r3, [r7]
 855 01f0 1800     		movs	r0, r3
 856 01f2 FFF7FEFF 		bl	CyBle_GapConnUpdateCompleteEventHandler
1752:Generated_Source\PSoC4/BLE_1_eventHandler.c ****             break;
 857              		.loc 1 1752 0
 858 01f6 DAE0     		b	.L48
 859              	.L34:
 860              	.LBB9:
1753:Generated_Source\PSoC4/BLE_1_eventHandler.c ****             
1754:Generated_Source\PSoC4/BLE_1_eventHandler.c ****     #if(CYBLE_LL_PRIVACY_FEATURE != 0u)        
1755:Generated_Source\PSoC4/BLE_1_eventHandler.c ****         case CYBLE_EVT_GAP_ENHANCE_CONN_COMPLETE:
1756:Generated_Source\PSoC4/BLE_1_eventHandler.c ****         {
ARM GAS  C:\Users\ROUSSMA\AppData\Local\Temp\cc3gA5P4.s 			page 47


1757:Generated_Source\PSoC4/BLE_1_eventHandler.c ****             CYBLE_GAP_CONN_PARAM_UPDATED_IN_CONTROLLER_T  connCParam;
1758:Generated_Source\PSoC4/BLE_1_eventHandler.c ****             CYBLE_GAP_ENHANCE_CONN_COMPLETE_T *connEnhanceParam;
1759:Generated_Source\PSoC4/BLE_1_eventHandler.c ****             
1760:Generated_Source\PSoC4/BLE_1_eventHandler.c ****             connEnhanceParam = (CYBLE_GAP_ENHANCE_CONN_COMPLETE_T *)eventParam;
 861              		.loc 1 1760 0
 862 01f8 3B68     		ldr	r3, [r7]
 863 01fa 3B62     		str	r3, [r7, #32]
1761:Generated_Source\PSoC4/BLE_1_eventHandler.c ****             connCParam.status = connEnhanceParam->status;
 864              		.loc 1 1761 0
 865 01fc 3B6A     		ldr	r3, [r7, #32]
 866 01fe 9A7E     		ldrb	r2, [r3, #26]
 867 0200 0C23     		movs	r3, #12
 868 0202 FB18     		adds	r3, r7, r3
 869 0204 1A70     		strb	r2, [r3]
1762:Generated_Source\PSoC4/BLE_1_eventHandler.c ****             connCParam.connIntv = connEnhanceParam->connIntv;
 870              		.loc 1 1762 0
 871 0206 3B6A     		ldr	r3, [r7, #32]
 872 0208 1A88     		ldrh	r2, [r3]
 873 020a 0C23     		movs	r3, #12
 874 020c FB18     		adds	r3, r7, r3
 875 020e 5A80     		strh	r2, [r3, #2]
1763:Generated_Source\PSoC4/BLE_1_eventHandler.c ****             connCParam.connLatency = connEnhanceParam->connLatency;
 876              		.loc 1 1763 0
 877 0210 3B6A     		ldr	r3, [r7, #32]
 878 0212 5A88     		ldrh	r2, [r3, #2]
 879 0214 0C23     		movs	r3, #12
 880 0216 FB18     		adds	r3, r7, r3
 881 0218 9A80     		strh	r2, [r3, #4]
1764:Generated_Source\PSoC4/BLE_1_eventHandler.c ****             connCParam.supervisionTO = connEnhanceParam->supervisionTo;
 882              		.loc 1 1764 0
 883 021a 3B6A     		ldr	r3, [r7, #32]
 884 021c 9A88     		ldrh	r2, [r3, #4]
 885 021e 0C23     		movs	r3, #12
 886 0220 FB18     		adds	r3, r7, r3
 887 0222 DA80     		strh	r2, [r3, #6]
1765:Generated_Source\PSoC4/BLE_1_eventHandler.c ****             CyBle_GapConnUpdateCompleteEventHandler((const CYBLE_GAP_CONN_PARAM_UPDATED_IN_CONTROLL
 888              		.loc 1 1765 0
 889 0224 0C23     		movs	r3, #12
 890 0226 FB18     		adds	r3, r7, r3
 891 0228 1800     		movs	r0, r3
 892 022a FFF7FEFF 		bl	CyBle_GapConnUpdateCompleteEventHandler
1766:Generated_Source\PSoC4/BLE_1_eventHandler.c ****             
1767:Generated_Source\PSoC4/BLE_1_eventHandler.c ****             #if(CYBLE_GAP_ROLE_CENTRAL)
1768:Generated_Source\PSoC4/BLE_1_eventHandler.c ****                 if(cyBle_connectingTimeout != 0u)
1769:Generated_Source\PSoC4/BLE_1_eventHandler.c ****                 {
1770:Generated_Source\PSoC4/BLE_1_eventHandler.c ****                    (void)CyBle_StopTimer();
1771:Generated_Source\PSoC4/BLE_1_eventHandler.c ****                 }
1772:Generated_Source\PSoC4/BLE_1_eventHandler.c ****             #endif /* CYBLE_GAP_ROLE_CENTRAL */
1773:Generated_Source\PSoC4/BLE_1_eventHandler.c ****             CyBle_SetState(CYBLE_STATE_CONNECTED);
 893              		.loc 1 1773 0
 894 022e 574B     		ldr	r3, .L65+36
 895 0230 0222     		movs	r2, #2
 896 0232 1A70     		strb	r2, [r3]
 897              	.LBE9:
1774:Generated_Source\PSoC4/BLE_1_eventHandler.c ****         }
1775:Generated_Source\PSoC4/BLE_1_eventHandler.c ****             break;
 898              		.loc 1 1775 0
ARM GAS  C:\Users\ROUSSMA\AppData\Local\Temp\cc3gA5P4.s 			page 48


 899 0234 BBE0     		b	.L48
 900              	.L31:
1776:Generated_Source\PSoC4/BLE_1_eventHandler.c ****     #endif /* CYBLE_LL_PRIVACY_FEATURE != 0u */      
1777:Generated_Source\PSoC4/BLE_1_eventHandler.c ****             
1778:Generated_Source\PSoC4/BLE_1_eventHandler.c ****         case CYBLE_EVT_GAP_DEVICE_CONNECTED:
1779:Generated_Source\PSoC4/BLE_1_eventHandler.c ****             CyBle_GapConnUpdateCompleteEventHandler((const CYBLE_GAP_CONN_PARAM_UPDATED_IN_CONTROLL
 901              		.loc 1 1779 0
 902 0236 3B68     		ldr	r3, [r7]
 903 0238 1800     		movs	r0, r3
 904 023a FFF7FEFF 		bl	CyBle_GapConnUpdateCompleteEventHandler
1780:Generated_Source\PSoC4/BLE_1_eventHandler.c ****             #if(CYBLE_GAP_ROLE_CENTRAL)
1781:Generated_Source\PSoC4/BLE_1_eventHandler.c ****                 if(cyBle_connectingTimeout != 0u)
1782:Generated_Source\PSoC4/BLE_1_eventHandler.c ****                 {
1783:Generated_Source\PSoC4/BLE_1_eventHandler.c ****                    (void)CyBle_StopTimer();
1784:Generated_Source\PSoC4/BLE_1_eventHandler.c ****                 }
1785:Generated_Source\PSoC4/BLE_1_eventHandler.c ****             #endif /* CYBLE_GAP_ROLE_CENTRAL */
1786:Generated_Source\PSoC4/BLE_1_eventHandler.c ****             CyBle_SetState(CYBLE_STATE_CONNECTED);
 905              		.loc 1 1786 0
 906 023e 534B     		ldr	r3, .L65+36
 907 0240 0222     		movs	r2, #2
 908 0242 1A70     		strb	r2, [r3]
1787:Generated_Source\PSoC4/BLE_1_eventHandler.c ****             break;
 909              		.loc 1 1787 0
 910 0244 B3E0     		b	.L48
 911              	.L32:
1788:Generated_Source\PSoC4/BLE_1_eventHandler.c **** 
1789:Generated_Source\PSoC4/BLE_1_eventHandler.c ****         case CYBLE_EVT_GAP_DEVICE_DISCONNECTED:
1790:Generated_Source\PSoC4/BLE_1_eventHandler.c ****             CyBle_SetState(CYBLE_STATE_DISCONNECTED);
 912              		.loc 1 1790 0
 913 0246 514B     		ldr	r3, .L65+36
 914 0248 0422     		movs	r2, #4
 915 024a 1A70     		strb	r2, [r3]
1791:Generated_Source\PSoC4/BLE_1_eventHandler.c ****             break;
 916              		.loc 1 1791 0
 917 024c AFE0     		b	.L48
 918              	.L30:
1792:Generated_Source\PSoC4/BLE_1_eventHandler.c ****         #if(CYBLE_GAP_ROLE_PERIPHERAL || CYBLE_GAP_ROLE_BROADCASTER)
1793:Generated_Source\PSoC4/BLE_1_eventHandler.c ****             
1794:Generated_Source\PSoC4/BLE_1_eventHandler.c ****         case CYBLE_EVT_GAPP_ADVERTISEMENT_START_STOP:
1795:Generated_Source\PSoC4/BLE_1_eventHandler.c ****             #ifdef CYBLE_CPS_SERVER
1796:Generated_Source\PSoC4/BLE_1_eventHandler.c ****                 #if(CYBLE_GAP_ROLE_BROADCASTER)
1797:Generated_Source\PSoC4/BLE_1_eventHandler.c ****                     CyBle_CpssAdvertisementStartStopEventHandler();
1798:Generated_Source\PSoC4/BLE_1_eventHandler.c ****                 #endif /* CYBLE_GAP_ROLE_BROADCASTER */
1799:Generated_Source\PSoC4/BLE_1_eventHandler.c ****             #endif /* CYBLE_CPS_SERVER */
1800:Generated_Source\PSoC4/BLE_1_eventHandler.c ****             
1801:Generated_Source\PSoC4/BLE_1_eventHandler.c ****             if((CYBLE_STATE_CONNECTED != CyBle_GetState()) && ((cyBle_eventHandlerFlag & CYBLE_CALL
 919              		.loc 1 1801 0
 920 024e 4F4B     		ldr	r3, .L65+36
 921 0250 1B78     		ldrb	r3, [r3]
 922 0252 022B     		cmp	r3, #2
 923 0254 00D1     		bne	.LCB653
 924 0256 A9E0     		b	.L63	@long jump
 925              	.LCB653:
 926              		.loc 1 1801 0 is_stmt 0 discriminator 1
 927 0258 434B     		ldr	r3, .L65
 928 025a 1B78     		ldrb	r3, [r3]
 929 025c DBB2     		uxtb	r3, r3
ARM GAS  C:\Users\ROUSSMA\AppData\Local\Temp\cc3gA5P4.s 			page 49


 930 025e 1A00     		movs	r2, r3
 931 0260 0123     		movs	r3, #1
 932 0262 1340     		ands	r3, r2
 933 0264 00D1     		bne	.LCB661
 934 0266 A1E0     		b	.L63	@long jump
 935              	.LCB661:
1802:Generated_Source\PSoC4/BLE_1_eventHandler.c ****             {
1803:Generated_Source\PSoC4/BLE_1_eventHandler.c ****                 /* After CyBle_GappStartAdvertisement first event indicates that advertising has be
1804:Generated_Source\PSoC4/BLE_1_eventHandler.c ****                 if(0u != (cyBle_eventHandlerFlag & CYBLE_START_FLAG))
 936              		.loc 1 1804 0 is_stmt 1
 937 0268 3F4B     		ldr	r3, .L65
 938 026a 1B78     		ldrb	r3, [r3]
 939 026c DBB2     		uxtb	r3, r3
 940 026e 1A00     		movs	r2, r3
 941 0270 0423     		movs	r3, #4
 942 0272 1340     		ands	r3, r2
 943 0274 0BD0     		beq	.L55
1805:Generated_Source\PSoC4/BLE_1_eventHandler.c ****                 {
1806:Generated_Source\PSoC4/BLE_1_eventHandler.c ****                     CyBle_SetState(CYBLE_STATE_ADVERTISING);
 944              		.loc 1 1806 0
 945 0276 454B     		ldr	r3, .L65+36
 946 0278 0322     		movs	r2, #3
 947 027a 1A70     		strb	r2, [r3]
1807:Generated_Source\PSoC4/BLE_1_eventHandler.c ****                     cyBle_eventHandlerFlag &= (uint8)~CYBLE_START_FLAG;
 948              		.loc 1 1807 0
 949 027c 3A4B     		ldr	r3, .L65
 950 027e 1B78     		ldrb	r3, [r3]
 951 0280 DBB2     		uxtb	r3, r3
 952 0282 0422     		movs	r2, #4
 953 0284 9343     		bics	r3, r2
 954 0286 DAB2     		uxtb	r2, r3
 955 0288 374B     		ldr	r3, .L65
 956 028a 1A70     		strb	r2, [r3]
1808:Generated_Source\PSoC4/BLE_1_eventHandler.c ****                 }
1809:Generated_Source\PSoC4/BLE_1_eventHandler.c ****                 /* When application initiated stop advertisement */
1810:Generated_Source\PSoC4/BLE_1_eventHandler.c ****                 else if(0u != (cyBle_eventHandlerFlag & CYBLE_STOP_FLAG))
1811:Generated_Source\PSoC4/BLE_1_eventHandler.c ****                 {
1812:Generated_Source\PSoC4/BLE_1_eventHandler.c ****                     CyBle_SetState(CYBLE_STATE_DISCONNECTED);  
1813:Generated_Source\PSoC4/BLE_1_eventHandler.c ****                     cyBle_eventHandlerFlag &= (uint8)~CYBLE_STOP_FLAG;
1814:Generated_Source\PSoC4/BLE_1_eventHandler.c ****                 }
1815:Generated_Source\PSoC4/BLE_1_eventHandler.c ****                 else /* Following event indicates that advertising has been stopped */
1816:Generated_Source\PSoC4/BLE_1_eventHandler.c ****                 {
1817:Generated_Source\PSoC4/BLE_1_eventHandler.c ****                     if(CyBle_GetState() == CYBLE_STATE_ADVERTISING)
1818:Generated_Source\PSoC4/BLE_1_eventHandler.c ****                     {
1819:Generated_Source\PSoC4/BLE_1_eventHandler.c ****                         CyBle_SetState(CYBLE_STATE_DISCONNECTED);
1820:Generated_Source\PSoC4/BLE_1_eventHandler.c ****                     #if ((CYBLE_SLOW_ADV_ENABLED != 0u) && (CYBLE_FAST_ADV_TIMEOUT != 0u))
1821:Generated_Source\PSoC4/BLE_1_eventHandler.c ****                         if(cyBle_advertisingIntervalType == CYBLE_ADVERTISING_FAST)
1822:Generated_Source\PSoC4/BLE_1_eventHandler.c ****                         {
1823:Generated_Source\PSoC4/BLE_1_eventHandler.c ****                             /* When fast advertising time out occur: Start slow advertising */
1824:Generated_Source\PSoC4/BLE_1_eventHandler.c ****                             if(CyBle_GappStartAdvertisement(CYBLE_ADVERTISING_SLOW) == CYBLE_ERROR_
1825:Generated_Source\PSoC4/BLE_1_eventHandler.c ****                             {
1826:Generated_Source\PSoC4/BLE_1_eventHandler.c ****                                 CyBle_SetState(CYBLE_STATE_ADVERTISING);
1827:Generated_Source\PSoC4/BLE_1_eventHandler.c ****                             }
1828:Generated_Source\PSoC4/BLE_1_eventHandler.c ****                         }
1829:Generated_Source\PSoC4/BLE_1_eventHandler.c ****                     #endif /* CYBLE_SLOW_ADV_ENABLED */
1830:Generated_Source\PSoC4/BLE_1_eventHandler.c ****                     }
1831:Generated_Source\PSoC4/BLE_1_eventHandler.c ****                 }
ARM GAS  C:\Users\ROUSSMA\AppData\Local\Temp\cc3gA5P4.s 			page 50


1832:Generated_Source\PSoC4/BLE_1_eventHandler.c ****             }
1833:Generated_Source\PSoC4/BLE_1_eventHandler.c ****             break;
 957              		.loc 1 1833 0
 958 028c 8EE0     		b	.L63
 959              	.L55:
1810:Generated_Source\PSoC4/BLE_1_eventHandler.c ****                 {
 960              		.loc 1 1810 0
 961 028e 364B     		ldr	r3, .L65
 962 0290 1B78     		ldrb	r3, [r3]
 963 0292 DBB2     		uxtb	r3, r3
 964 0294 1A00     		movs	r2, r3
 965 0296 0823     		movs	r3, #8
 966 0298 1340     		ands	r3, r2
 967 029a 0BD0     		beq	.L56
1812:Generated_Source\PSoC4/BLE_1_eventHandler.c ****                     cyBle_eventHandlerFlag &= (uint8)~CYBLE_STOP_FLAG;
 968              		.loc 1 1812 0
 969 029c 3B4B     		ldr	r3, .L65+36
 970 029e 0422     		movs	r2, #4
 971 02a0 1A70     		strb	r2, [r3]
1813:Generated_Source\PSoC4/BLE_1_eventHandler.c ****                 }
 972              		.loc 1 1813 0
 973 02a2 314B     		ldr	r3, .L65
 974 02a4 1B78     		ldrb	r3, [r3]
 975 02a6 DBB2     		uxtb	r3, r3
 976 02a8 0822     		movs	r2, #8
 977 02aa 9343     		bics	r3, r2
 978 02ac DAB2     		uxtb	r2, r3
 979 02ae 2E4B     		ldr	r3, .L65
 980 02b0 1A70     		strb	r2, [r3]
 981              		.loc 1 1833 0
 982 02b2 7BE0     		b	.L63
 983              	.L56:
1817:Generated_Source\PSoC4/BLE_1_eventHandler.c ****                     {
 984              		.loc 1 1817 0
 985 02b4 354B     		ldr	r3, .L65+36
 986 02b6 1B78     		ldrb	r3, [r3]
 987 02b8 032B     		cmp	r3, #3
 988 02ba 00D0     		beq	.LCB711
 989 02bc 76E0     		b	.L63	@long jump
 990              	.LCB711:
1819:Generated_Source\PSoC4/BLE_1_eventHandler.c ****                     #if ((CYBLE_SLOW_ADV_ENABLED != 0u) && (CYBLE_FAST_ADV_TIMEOUT != 0u))
 991              		.loc 1 1819 0
 992 02be 334B     		ldr	r3, .L65+36
 993 02c0 0422     		movs	r2, #4
 994 02c2 1A70     		strb	r2, [r3]
1821:Generated_Source\PSoC4/BLE_1_eventHandler.c ****                         {
 995              		.loc 1 1821 0
 996 02c4 384B     		ldr	r3, .L65+64
 997 02c6 1B78     		ldrb	r3, [r3]
 998 02c8 002B     		cmp	r3, #0
 999 02ca 00D0     		beq	.LCB718
 1000 02cc 6EE0     		b	.L63	@long jump
 1001              	.LCB718:
1824:Generated_Source\PSoC4/BLE_1_eventHandler.c ****                             {
 1002              		.loc 1 1824 0
 1003 02ce 0120     		movs	r0, #1
 1004 02d0 FFF7FEFF 		bl	CyBle_GappStartAdvertisement
ARM GAS  C:\Users\ROUSSMA\AppData\Local\Temp\cc3gA5P4.s 			page 51


 1005 02d4 031E     		subs	r3, r0, #0
 1006 02d6 69D1     		bne	.L63
1826:Generated_Source\PSoC4/BLE_1_eventHandler.c ****                             }
 1007              		.loc 1 1826 0
 1008 02d8 2C4B     		ldr	r3, .L65+36
 1009 02da 0322     		movs	r2, #3
 1010 02dc 1A70     		strb	r2, [r3]
 1011              		.loc 1 1833 0
 1012 02de 65E0     		b	.L63
 1013              	.L44:
1834:Generated_Source\PSoC4/BLE_1_eventHandler.c ****         #endif /* CYBLE_GAP_ROLE_PERIPHERAL || CYBLE_GAP_ROLE_BROADCASTER */
1835:Generated_Source\PSoC4/BLE_1_eventHandler.c ****         
1836:Generated_Source\PSoC4/BLE_1_eventHandler.c ****         #if(CYBLE_GAP_ROLE_CENTRAL || CYBLE_GAP_ROLE_OBSERVER)    
1837:Generated_Source\PSoC4/BLE_1_eventHandler.c ****         case CYBLE_EVT_GAPC_SCAN_START_STOP:
1838:Generated_Source\PSoC4/BLE_1_eventHandler.c ****             #ifdef CYBLE_CPS_CLIENT
1839:Generated_Source\PSoC4/BLE_1_eventHandler.c ****                 CyBle_CpscScanStartStopEventHandler();
1840:Generated_Source\PSoC4/BLE_1_eventHandler.c ****             #endif /* CYBLE_CPS_CLIENT */
1841:Generated_Source\PSoC4/BLE_1_eventHandler.c ****             
1842:Generated_Source\PSoC4/BLE_1_eventHandler.c ****             if((CYBLE_STATE_CONNECTED != CyBle_GetState()) && ((cyBle_eventHandlerFlag & CYBLE_CALL
1843:Generated_Source\PSoC4/BLE_1_eventHandler.c ****             {
1844:Generated_Source\PSoC4/BLE_1_eventHandler.c ****                 /* After CyBle_GapcStartScan first event indicates that scanning has been started *
1845:Generated_Source\PSoC4/BLE_1_eventHandler.c ****                 if(0u != (cyBle_eventHandlerFlag & CYBLE_START_FLAG))
1846:Generated_Source\PSoC4/BLE_1_eventHandler.c ****                 {
1847:Generated_Source\PSoC4/BLE_1_eventHandler.c ****                     CyBle_SetState(CYBLE_STATE_SCANNING);
1848:Generated_Source\PSoC4/BLE_1_eventHandler.c ****                     cyBle_eventHandlerFlag &= (uint8)~CYBLE_START_FLAG;
1849:Generated_Source\PSoC4/BLE_1_eventHandler.c ****                 }
1850:Generated_Source\PSoC4/BLE_1_eventHandler.c ****                 /* When application initiated stop scanning */
1851:Generated_Source\PSoC4/BLE_1_eventHandler.c ****                 else if(0u != (cyBle_eventHandlerFlag & CYBLE_STOP_FLAG))
1852:Generated_Source\PSoC4/BLE_1_eventHandler.c ****                 {
1853:Generated_Source\PSoC4/BLE_1_eventHandler.c ****                     CyBle_SetState(CYBLE_STATE_DISCONNECTED);  
1854:Generated_Source\PSoC4/BLE_1_eventHandler.c ****                     cyBle_eventHandlerFlag &= (uint8)~CYBLE_STOP_FLAG;
1855:Generated_Source\PSoC4/BLE_1_eventHandler.c ****                 }
1856:Generated_Source\PSoC4/BLE_1_eventHandler.c ****                 else /* Following event indicates that scanning has been stopped by stack */
1857:Generated_Source\PSoC4/BLE_1_eventHandler.c ****                 {
1858:Generated_Source\PSoC4/BLE_1_eventHandler.c ****                     if(CyBle_GetState() == CYBLE_STATE_SCANNING)
1859:Generated_Source\PSoC4/BLE_1_eventHandler.c ****                     {
1860:Generated_Source\PSoC4/BLE_1_eventHandler.c ****                         CyBle_SetState(CYBLE_STATE_DISCONNECTED);  
1861:Generated_Source\PSoC4/BLE_1_eventHandler.c ****                     #if ((CYBLE_SLOW_SCAN_ENABLED != 0u) && (CYBLE_FAST_SCAN_TIMEOUT != 0u))
1862:Generated_Source\PSoC4/BLE_1_eventHandler.c ****                         if(cyBle_scanningIntervalType == CYBLE_SCANNING_FAST)
1863:Generated_Source\PSoC4/BLE_1_eventHandler.c ****                         {
1864:Generated_Source\PSoC4/BLE_1_eventHandler.c ****                             /* When fast scanning time out occur: Start slow scanning */
1865:Generated_Source\PSoC4/BLE_1_eventHandler.c ****                             if(CyBle_GapcStartScan(CYBLE_SCANNING_SLOW) == CYBLE_ERROR_OK)
1866:Generated_Source\PSoC4/BLE_1_eventHandler.c ****                             {
1867:Generated_Source\PSoC4/BLE_1_eventHandler.c ****                                 CyBle_SetState(CYBLE_STATE_SCANNING);
1868:Generated_Source\PSoC4/BLE_1_eventHandler.c ****                             }
1869:Generated_Source\PSoC4/BLE_1_eventHandler.c ****                         }
1870:Generated_Source\PSoC4/BLE_1_eventHandler.c ****                     #endif /* CYBLE_SLOW_SCAN_ENABLED */
1871:Generated_Source\PSoC4/BLE_1_eventHandler.c ****                     }
1872:Generated_Source\PSoC4/BLE_1_eventHandler.c ****                 }
1873:Generated_Source\PSoC4/BLE_1_eventHandler.c ****             }
1874:Generated_Source\PSoC4/BLE_1_eventHandler.c ****             break;
1875:Generated_Source\PSoC4/BLE_1_eventHandler.c ****         #endif /* CYBLE_GAP_ROLE_CENTRAL || CYBLE_GAP_ROLE_OBSERVER */
1876:Generated_Source\PSoC4/BLE_1_eventHandler.c **** 
1877:Generated_Source\PSoC4/BLE_1_eventHandler.c ****         /**********************************************************
1878:Generated_Source\PSoC4/BLE_1_eventHandler.c ****         * L2AP events 
1879:Generated_Source\PSoC4/BLE_1_eventHandler.c ****         ************************************************************/
1880:Generated_Source\PSoC4/BLE_1_eventHandler.c ****         case CYBLE_EVT_L2CAP_CONN_PARAM_UPDATE_RSP:
ARM GAS  C:\Users\ROUSSMA\AppData\Local\Temp\cc3gA5P4.s 			page 52


1881:Generated_Source\PSoC4/BLE_1_eventHandler.c ****             CyBle_L2Cap_ConnParamUpdateRspEventHandler(*(uint16 *)eventParam);
 1014              		.loc 1 1881 0
 1015 02e0 3B68     		ldr	r3, [r7]
 1016 02e2 1B88     		ldrh	r3, [r3]
 1017 02e4 1800     		movs	r0, r3
 1018 02e6 FFF7FEFF 		bl	CyBle_L2Cap_ConnParamUpdateRspEventHandler
1882:Generated_Source\PSoC4/BLE_1_eventHandler.c ****             break;
 1019              		.loc 1 1882 0
 1020 02ea 60E0     		b	.L48
 1021              	.L35:
1883:Generated_Source\PSoC4/BLE_1_eventHandler.c ****         
1884:Generated_Source\PSoC4/BLE_1_eventHandler.c ****         /**********************************************************
1885:Generated_Source\PSoC4/BLE_1_eventHandler.c ****         * GATT events
1886:Generated_Source\PSoC4/BLE_1_eventHandler.c ****         ************************************************************/        
1887:Generated_Source\PSoC4/BLE_1_eventHandler.c ****         case CYBLE_EVT_GATT_CONNECT_IND:
1888:Generated_Source\PSoC4/BLE_1_eventHandler.c ****             cyBle_connHandle = *(CYBLE_CONN_HANDLE_T *)eventParam;
 1022              		.loc 1 1888 0
 1023 02ec 2C4A     		ldr	r2, .L65+56
 1024 02ee 3B68     		ldr	r3, [r7]
 1025 02f0 1000     		movs	r0, r2
 1026 02f2 1900     		movs	r1, r3
 1027 02f4 0223     		movs	r3, #2
 1028 02f6 1A00     		movs	r2, r3
 1029 02f8 FFF7FEFF 		bl	memcpy
1889:Generated_Source\PSoC4/BLE_1_eventHandler.c ****             cyBle_busyStatus = CYBLE_STACK_STATE_FREE;
 1030              		.loc 1 1889 0
 1031 02fc 244B     		ldr	r3, .L65+40
 1032 02fe 0022     		movs	r2, #0
 1033 0300 1A70     		strb	r2, [r3]
1890:Generated_Source\PSoC4/BLE_1_eventHandler.c ****             
1891:Generated_Source\PSoC4/BLE_1_eventHandler.c ****         #if((CYBLE_GATT_ROLE_SERVER) && (CYBLE_GATT_DB_CCCD_COUNT != 0u) && \
1892:Generated_Source\PSoC4/BLE_1_eventHandler.c ****             (CYBLE_BONDING_REQUIREMENT == CYBLE_BONDING_YES))
1893:Generated_Source\PSoC4/BLE_1_eventHandler.c ****             /* Init CCCD values in RAM when bonding is enabled */
1894:Generated_Source\PSoC4/BLE_1_eventHandler.c ****         	(void) memcpy (cyBle_attValuesCCCD, cyBle_flashStorage.attValuesCCCDFlashMemory[cyBle_conn
1895:Generated_Source\PSoC4/BLE_1_eventHandler.c ****                             CYBLE_GATT_DB_CCCD_COUNT);
1896:Generated_Source\PSoC4/BLE_1_eventHandler.c ****         #endif /* CYBLE_GATT_ROLE_SERVER && (CYBLE_BONDING_REQUIREMENT == CYBLE_BONDING_YES) */
1897:Generated_Source\PSoC4/BLE_1_eventHandler.c ****         
1898:Generated_Source\PSoC4/BLE_1_eventHandler.c ****         #if (CYBLE_GATT_ROLE_CLIENT)
1899:Generated_Source\PSoC4/BLE_1_eventHandler.c ****             CyBle_SetClientState(CYBLE_CLIENT_STATE_CONNECTED);
1900:Generated_Source\PSoC4/BLE_1_eventHandler.c ****         #endif /* CYBLE_GATT_ROLE_CLIENT */
1901:Generated_Source\PSoC4/BLE_1_eventHandler.c ****         
1902:Generated_Source\PSoC4/BLE_1_eventHandler.c ****             CyBle_GattConnectReqHandler();
 1034              		.loc 1 1902 0
 1035 0302 FFF7FEFF 		bl	CyBle_GattConnectReqHandler
1903:Generated_Source\PSoC4/BLE_1_eventHandler.c ****             break;
 1036              		.loc 1 1903 0
 1037 0306 52E0     		b	.L48
 1038              	.L36:
1904:Generated_Source\PSoC4/BLE_1_eventHandler.c **** 
1905:Generated_Source\PSoC4/BLE_1_eventHandler.c ****         case CYBLE_EVT_GATT_DISCONNECT_IND:
1906:Generated_Source\PSoC4/BLE_1_eventHandler.c ****             CyBle_GattDisconnectEventHandler();
 1039              		.loc 1 1906 0
 1040 0308 FFF7FEFF 		bl	CyBle_GattDisconnectEventHandler
1907:Generated_Source\PSoC4/BLE_1_eventHandler.c ****             break;
 1041              		.loc 1 1907 0
 1042 030c 4FE0     		b	.L48
 1043              	.L37:
ARM GAS  C:\Users\ROUSSMA\AppData\Local\Temp\cc3gA5P4.s 			page 53


 1044              	.LBB10:
1908:Generated_Source\PSoC4/BLE_1_eventHandler.c **** 
1909:Generated_Source\PSoC4/BLE_1_eventHandler.c ****     #if((CYBLE_GATT_ROLE_SERVER) || (CYBLE_GATT_ROLE_CLIENT))
1910:Generated_Source\PSoC4/BLE_1_eventHandler.c ****         case CYBLE_EVT_GATTS_XCNHG_MTU_REQ:
1911:Generated_Source\PSoC4/BLE_1_eventHandler.c ****             {
1912:Generated_Source\PSoC4/BLE_1_eventHandler.c ****                 uint16 cyBle_mtuSize;
1913:Generated_Source\PSoC4/BLE_1_eventHandler.c ****                 if(CYBLE_GATT_MTU > ((CYBLE_GATT_XCHG_MTU_PARAM_T *)eventParam)->mtu)
 1045              		.loc 1 1913 0
 1046 030e 3B68     		ldr	r3, [r7]
 1047 0310 5B88     		ldrh	r3, [r3, #2]
 1048 0312 162B     		cmp	r3, #22
 1049 0314 05D8     		bhi	.L57
1914:Generated_Source\PSoC4/BLE_1_eventHandler.c ****                 {
1915:Generated_Source\PSoC4/BLE_1_eventHandler.c ****                     cyBle_mtuSize = ((CYBLE_GATT_XCHG_MTU_PARAM_T *)eventParam)->mtu;
 1050              		.loc 1 1915 0
 1051 0316 2E23     		movs	r3, #46
 1052 0318 FB18     		adds	r3, r7, r3
 1053 031a 3A68     		ldr	r2, [r7]
 1054 031c 5288     		ldrh	r2, [r2, #2]
 1055 031e 1A80     		strh	r2, [r3]
 1056 0320 03E0     		b	.L58
 1057              	.L57:
1916:Generated_Source\PSoC4/BLE_1_eventHandler.c ****                 }
1917:Generated_Source\PSoC4/BLE_1_eventHandler.c ****                 else
1918:Generated_Source\PSoC4/BLE_1_eventHandler.c ****                 {
1919:Generated_Source\PSoC4/BLE_1_eventHandler.c ****                     cyBle_mtuSize = CYBLE_GATT_MTU;
 1058              		.loc 1 1919 0
 1059 0322 2E23     		movs	r3, #46
 1060 0324 FB18     		adds	r3, r7, r3
 1061 0326 1722     		movs	r2, #23
 1062 0328 1A80     		strh	r2, [r3]
 1063              	.L58:
1920:Generated_Source\PSoC4/BLE_1_eventHandler.c ****                 }
1921:Generated_Source\PSoC4/BLE_1_eventHandler.c ****                 (void)CyBle_GattsExchangeMtuRsp(((CYBLE_GATT_XCHG_MTU_PARAM_T *)eventParam)->connHa
 1064              		.loc 1 1921 0
 1065 032a 2E23     		movs	r3, #46
 1066 032c FB18     		adds	r3, r7, r3
 1067 032e 1988     		ldrh	r1, [r3]
 1068 0330 3B68     		ldr	r3, [r7]
 1069 0332 1A88     		ldrh	r2, [r3]
 1070 0334 0023     		movs	r3, #0
 1071 0336 1204     		lsls	r2, r2, #16
 1072 0338 120C     		lsrs	r2, r2, #16
 1073 033a 1B0C     		lsrs	r3, r3, #16
 1074 033c 1B04     		lsls	r3, r3, #16
 1075 033e 1343     		orrs	r3, r2
 1076 0340 1800     		movs	r0, r3
 1077 0342 FFF7FEFF 		bl	CyBle_GattsExchangeMtuRsp
 1078              	.LBE10:
1922:Generated_Source\PSoC4/BLE_1_eventHandler.c ****             }
1923:Generated_Source\PSoC4/BLE_1_eventHandler.c ****             break;
 1079              		.loc 1 1923 0
 1080 0346 32E0     		b	.L48
 1081              	.L38:
1924:Generated_Source\PSoC4/BLE_1_eventHandler.c ****     #endif /* CYBLE_GATT_ROLE_SERVER || CYBLE_GATT_ROLE_CLIENT */
1925:Generated_Source\PSoC4/BLE_1_eventHandler.c ****     
1926:Generated_Source\PSoC4/BLE_1_eventHandler.c ****     #if (CYBLE_GATT_ROLE_CLIENT)
ARM GAS  C:\Users\ROUSSMA\AppData\Local\Temp\cc3gA5P4.s 			page 54


1927:Generated_Source\PSoC4/BLE_1_eventHandler.c ****         case CYBLE_EVT_GAPC_SCAN_PROGRESS_RESULT:
1928:Generated_Source\PSoC4/BLE_1_eventHandler.c ****         #ifdef CYBLE_CPS_CLIENT
1929:Generated_Source\PSoC4/BLE_1_eventHandler.c ****             CyBle_CpscScanProcessEventHandler((CYBLE_GAPC_ADV_REPORT_T *)eventParam);
1930:Generated_Source\PSoC4/BLE_1_eventHandler.c ****         #endif /* CYBLE_CPS_CLIENT */
1931:Generated_Source\PSoC4/BLE_1_eventHandler.c ****             break;
1932:Generated_Source\PSoC4/BLE_1_eventHandler.c ****     #endif /* CYBLE_GATT_ROLE_CLIENT */
1933:Generated_Source\PSoC4/BLE_1_eventHandler.c **** 
1934:Generated_Source\PSoC4/BLE_1_eventHandler.c ****     #if(CYBLE_GATT_ROLE_SERVER)
1935:Generated_Source\PSoC4/BLE_1_eventHandler.c ****         case CYBLE_EVT_GATTS_WRITE_REQ:
1936:Generated_Source\PSoC4/BLE_1_eventHandler.c ****             CyBle_WriteReqHandler((CYBLE_GATTS_WRITE_REQ_PARAM_T *)eventParam);
 1082              		.loc 1 1936 0
 1083 0348 3B68     		ldr	r3, [r7]
 1084 034a 1800     		movs	r0, r3
 1085 034c FFF7FEFF 		bl	CyBle_WriteReqHandler
1937:Generated_Source\PSoC4/BLE_1_eventHandler.c ****             break;
 1086              		.loc 1 1937 0
 1087 0350 2DE0     		b	.L48
 1088              	.L42:
1938:Generated_Source\PSoC4/BLE_1_eventHandler.c **** 
1939:Generated_Source\PSoC4/BLE_1_eventHandler.c ****         case CYBLE_EVT_GATTS_WRITE_CMD_REQ:
1940:Generated_Source\PSoC4/BLE_1_eventHandler.c ****         #ifdef CYBLE_AIOS_SERVER
1941:Generated_Source\PSoC4/BLE_1_eventHandler.c ****             if((cyBle_eventHandlerFlag & CYBLE_CALLBACK) != 0u)
1942:Generated_Source\PSoC4/BLE_1_eventHandler.c ****             {
1943:Generated_Source\PSoC4/BLE_1_eventHandler.c ****                 (void)CyBle_AiossWriteEventHandler((CYBLE_GATTS_WRITE_REQ_PARAM_T *)eventParam);
1944:Generated_Source\PSoC4/BLE_1_eventHandler.c ****             }
1945:Generated_Source\PSoC4/BLE_1_eventHandler.c ****         #endif /* CYBLE_AIOS_SERVER */
1946:Generated_Source\PSoC4/BLE_1_eventHandler.c ****         #ifdef CYBLE_IAS_SERVER
1947:Generated_Source\PSoC4/BLE_1_eventHandler.c ****             if((cyBle_eventHandlerFlag & CYBLE_CALLBACK) != 0u)
1948:Generated_Source\PSoC4/BLE_1_eventHandler.c ****             {
1949:Generated_Source\PSoC4/BLE_1_eventHandler.c ****                 (void)CyBle_IassWriteCmdEventHandler((CYBLE_GATTS_WRITE_REQ_PARAM_T *)eventParam);
1950:Generated_Source\PSoC4/BLE_1_eventHandler.c ****             }
1951:Generated_Source\PSoC4/BLE_1_eventHandler.c ****         #endif /* CYBLE_IAS_SERVER */
1952:Generated_Source\PSoC4/BLE_1_eventHandler.c ****         #ifdef CYBLE_IPS_SERVER
1953:Generated_Source\PSoC4/BLE_1_eventHandler.c ****             if((cyBle_eventHandlerFlag & CYBLE_CALLBACK) != 0u)
1954:Generated_Source\PSoC4/BLE_1_eventHandler.c ****             {
1955:Generated_Source\PSoC4/BLE_1_eventHandler.c ****                 (void)CyBle_IpssWriteCmdEventHandler((CYBLE_GATTS_WRITE_REQ_PARAM_T *)eventParam);
1956:Generated_Source\PSoC4/BLE_1_eventHandler.c ****             }
1957:Generated_Source\PSoC4/BLE_1_eventHandler.c ****         #endif /* CYBLE_IPS_SERVER */
1958:Generated_Source\PSoC4/BLE_1_eventHandler.c ****         #ifdef CYBLE_HIDS_SERVER
1959:Generated_Source\PSoC4/BLE_1_eventHandler.c ****             if((cyBle_eventHandlerFlag & CYBLE_CALLBACK) != 0u)
1960:Generated_Source\PSoC4/BLE_1_eventHandler.c ****             {
1961:Generated_Source\PSoC4/BLE_1_eventHandler.c ****                 (void)CyBle_HidssWriteEventHandler((CYBLE_GATTS_WRITE_REQ_PARAM_T *)eventParam);
1962:Generated_Source\PSoC4/BLE_1_eventHandler.c ****             }
1963:Generated_Source\PSoC4/BLE_1_eventHandler.c ****         #endif /* CYBLE_HIDS_SERVER */
1964:Generated_Source\PSoC4/BLE_1_eventHandler.c ****         #ifdef CYBLE_PASS_SERVER
1965:Generated_Source\PSoC4/BLE_1_eventHandler.c ****             if((cyBle_eventHandlerFlag & CYBLE_CALLBACK) != 0u)
1966:Generated_Source\PSoC4/BLE_1_eventHandler.c ****             {
1967:Generated_Source\PSoC4/BLE_1_eventHandler.c ****                 (void)CyBle_PasssWriteCmdEventHandler((CYBLE_GATTS_WRITE_REQ_PARAM_T *)eventParam);
1968:Generated_Source\PSoC4/BLE_1_eventHandler.c ****             }
1969:Generated_Source\PSoC4/BLE_1_eventHandler.c ****         #endif /* CYBLE_PASS_SERVER */
1970:Generated_Source\PSoC4/BLE_1_eventHandler.c ****         #ifdef CYBLE_RTUS_SERVER
1971:Generated_Source\PSoC4/BLE_1_eventHandler.c ****             if((cyBle_eventHandlerFlag & CYBLE_CALLBACK) != 0u)
1972:Generated_Source\PSoC4/BLE_1_eventHandler.c ****             {
1973:Generated_Source\PSoC4/BLE_1_eventHandler.c ****                 (void)CyBle_RtussWriteCmdEventHandler((CYBLE_GATTS_WRITE_REQ_PARAM_T *)eventParam);
1974:Generated_Source\PSoC4/BLE_1_eventHandler.c ****             }
1975:Generated_Source\PSoC4/BLE_1_eventHandler.c ****         #endif /* CYBLE_RTUS_SERVER */
1976:Generated_Source\PSoC4/BLE_1_eventHandler.c ****         #ifdef CYBLE_SCPS_SERVER
ARM GAS  C:\Users\ROUSSMA\AppData\Local\Temp\cc3gA5P4.s 			page 55


1977:Generated_Source\PSoC4/BLE_1_eventHandler.c ****             if((cyBle_eventHandlerFlag & CYBLE_CALLBACK) != 0u)
1978:Generated_Source\PSoC4/BLE_1_eventHandler.c ****             {
1979:Generated_Source\PSoC4/BLE_1_eventHandler.c ****                 (void)CyBle_ScpssWriteEventHandler((CYBLE_GATTS_WRITE_REQ_PARAM_T *)eventParam);
1980:Generated_Source\PSoC4/BLE_1_eventHandler.c ****             }
1981:Generated_Source\PSoC4/BLE_1_eventHandler.c ****         #endif /* CYBLE_SCPS_SERVER */
1982:Generated_Source\PSoC4/BLE_1_eventHandler.c ****             break;
1983:Generated_Source\PSoC4/BLE_1_eventHandler.c ****         
1984:Generated_Source\PSoC4/BLE_1_eventHandler.c ****         case CYBLE_EVT_GATTS_PREP_WRITE_REQ:
1985:Generated_Source\PSoC4/BLE_1_eventHandler.c ****         #ifdef CYBLE_BMS_SERVER
1986:Generated_Source\PSoC4/BLE_1_eventHandler.c ****             CyBle_BmssPrepareWriteRequestEventHandler((CYBLE_GATTS_PREP_WRITE_REQ_PARAM_T *)eventPa
1987:Generated_Source\PSoC4/BLE_1_eventHandler.c ****         #endif /* CYBLE_BMS_SERVER */
1988:Generated_Source\PSoC4/BLE_1_eventHandler.c ****         #ifdef CYBLE_BTS_SERVER
1989:Generated_Source\PSoC4/BLE_1_eventHandler.c ****             if((cyBle_eventHandlerFlag & CYBLE_CALLBACK) != 0u)
1990:Generated_Source\PSoC4/BLE_1_eventHandler.c ****             {
1991:Generated_Source\PSoC4/BLE_1_eventHandler.c ****                 CyBle_BtssPrepareWriteRequestEventHandler((CYBLE_GATTS_PREP_WRITE_REQ_PARAM_T *)eve
1992:Generated_Source\PSoC4/BLE_1_eventHandler.c ****             }
1993:Generated_Source\PSoC4/BLE_1_eventHandler.c ****         #endif /* CYBLE_BTS_SERVER */
1994:Generated_Source\PSoC4/BLE_1_eventHandler.c ****         #ifdef CYBLE_ESS_SERVER
1995:Generated_Source\PSoC4/BLE_1_eventHandler.c ****             if((cyBle_eventHandlerFlag & CYBLE_CALLBACK) != 0u)
1996:Generated_Source\PSoC4/BLE_1_eventHandler.c ****             {
1997:Generated_Source\PSoC4/BLE_1_eventHandler.c ****                 CyBle_EsssPrepareWriteRequestEventHandler((CYBLE_GATTS_PREP_WRITE_REQ_PARAM_T *)eve
1998:Generated_Source\PSoC4/BLE_1_eventHandler.c ****             }
1999:Generated_Source\PSoC4/BLE_1_eventHandler.c ****         #endif /* CYBLE_ESS_SERVER */
2000:Generated_Source\PSoC4/BLE_1_eventHandler.c ****         #ifdef CYBLE_HPS_SERVER
2001:Generated_Source\PSoC4/BLE_1_eventHandler.c ****             if((cyBle_eventHandlerFlag & CYBLE_CALLBACK) != 0u)
2002:Generated_Source\PSoC4/BLE_1_eventHandler.c ****             {
2003:Generated_Source\PSoC4/BLE_1_eventHandler.c ****                 CyBle_HpssPrepareWriteRequestEventHandler((CYBLE_GATTS_PREP_WRITE_REQ_PARAM_T *)eve
2004:Generated_Source\PSoC4/BLE_1_eventHandler.c ****             }
2005:Generated_Source\PSoC4/BLE_1_eventHandler.c ****         #endif /* CYBLE_HPS_SERVER */
2006:Generated_Source\PSoC4/BLE_1_eventHandler.c ****         #ifdef CYBLE_IPS_SERVER
2007:Generated_Source\PSoC4/BLE_1_eventHandler.c ****             if((cyBle_eventHandlerFlag & CYBLE_CALLBACK) != 0u)
2008:Generated_Source\PSoC4/BLE_1_eventHandler.c ****             {
2009:Generated_Source\PSoC4/BLE_1_eventHandler.c ****                 CyBle_IpssPrepareWriteRequestEventHandler((CYBLE_GATTS_PREP_WRITE_REQ_PARAM_T *)eve
2010:Generated_Source\PSoC4/BLE_1_eventHandler.c ****             }
2011:Generated_Source\PSoC4/BLE_1_eventHandler.c ****         #endif /* CYBLE_IPS_SERVER */
2012:Generated_Source\PSoC4/BLE_1_eventHandler.c ****         #ifdef CYBLE_UDS_SERVER
2013:Generated_Source\PSoC4/BLE_1_eventHandler.c ****             if((cyBle_eventHandlerFlag & CYBLE_CALLBACK) != 0u)
2014:Generated_Source\PSoC4/BLE_1_eventHandler.c ****             {
2015:Generated_Source\PSoC4/BLE_1_eventHandler.c ****                 CyBle_UdssPrepareWriteRequestEventHandler((CYBLE_GATTS_PREP_WRITE_REQ_PARAM_T *)eve
2016:Generated_Source\PSoC4/BLE_1_eventHandler.c ****             }
2017:Generated_Source\PSoC4/BLE_1_eventHandler.c ****         #endif /* CYBLE_UDS_SERVER */
2018:Generated_Source\PSoC4/BLE_1_eventHandler.c ****             break;
2019:Generated_Source\PSoC4/BLE_1_eventHandler.c **** 
2020:Generated_Source\PSoC4/BLE_1_eventHandler.c ****         case CYBLE_EVT_GATTS_EXEC_WRITE_REQ:
2021:Generated_Source\PSoC4/BLE_1_eventHandler.c ****         #ifdef CYBLE_BMS_SERVER
2022:Generated_Source\PSoC4/BLE_1_eventHandler.c ****             CyBle_BmssExecuteWriteRequestEventHandler((CYBLE_GATTS_EXEC_WRITE_REQ_T *)eventParam);
2023:Generated_Source\PSoC4/BLE_1_eventHandler.c ****         #endif /* CYBLE_BMS_SERVER */
2024:Generated_Source\PSoC4/BLE_1_eventHandler.c ****         #ifdef CYBLE_BTS_SERVER
2025:Generated_Source\PSoC4/BLE_1_eventHandler.c ****             CyBle_BtssExecuteWriteRequestEventHandler((CYBLE_GATTS_EXEC_WRITE_REQ_T *)eventParam);
2026:Generated_Source\PSoC4/BLE_1_eventHandler.c ****         #endif /* CYBLE_BTS_SERVER */
2027:Generated_Source\PSoC4/BLE_1_eventHandler.c ****         #ifdef CYBLE_ESS_SERVER
2028:Generated_Source\PSoC4/BLE_1_eventHandler.c ****             CyBle_EsssExecuteWriteRequestEventHandler((CYBLE_GATTS_EXEC_WRITE_REQ_T *)eventParam);
2029:Generated_Source\PSoC4/BLE_1_eventHandler.c ****         #endif /* CYBLE_ESS_SERVER */
2030:Generated_Source\PSoC4/BLE_1_eventHandler.c ****         #ifdef CYBLE_HPS_SERVER
2031:Generated_Source\PSoC4/BLE_1_eventHandler.c ****             CyBle_HpssExecuteWriteRequestEventHandler((CYBLE_GATTS_EXEC_WRITE_REQ_T *)eventParam);
2032:Generated_Source\PSoC4/BLE_1_eventHandler.c ****         #endif /* CYBLE_HPS_SERVER */
2033:Generated_Source\PSoC4/BLE_1_eventHandler.c ****         #ifdef CYBLE_IPS_SERVER
ARM GAS  C:\Users\ROUSSMA\AppData\Local\Temp\cc3gA5P4.s 			page 56


2034:Generated_Source\PSoC4/BLE_1_eventHandler.c ****             CyBle_IpssExecuteWriteRequestEventHandler((CYBLE_GATTS_EXEC_WRITE_REQ_T *)eventParam);
2035:Generated_Source\PSoC4/BLE_1_eventHandler.c ****         #endif /* CYBLE_IPS_SERVER */
2036:Generated_Source\PSoC4/BLE_1_eventHandler.c **** 		#ifdef CYBLE_UDS_SERVER
2037:Generated_Source\PSoC4/BLE_1_eventHandler.c ****             CyBle_UdssExecuteWriteRequestEventHandler((CYBLE_GATTS_EXEC_WRITE_REQ_T *)eventParam);
2038:Generated_Source\PSoC4/BLE_1_eventHandler.c ****         #endif /* CYBLE_UDS_SERVER */
2039:Generated_Source\PSoC4/BLE_1_eventHandler.c ****             break;
2040:Generated_Source\PSoC4/BLE_1_eventHandler.c ****         
2041:Generated_Source\PSoC4/BLE_1_eventHandler.c ****         case CYBLE_EVT_GATTS_HANDLE_VALUE_CNF:
2042:Generated_Source\PSoC4/BLE_1_eventHandler.c ****             CyBle_ValueConfirmation((CYBLE_CONN_HANDLE_T *)eventParam);
 1089              		.loc 1 2042 0
 1090 0352 3B68     		ldr	r3, [r7]
 1091 0354 1800     		movs	r0, r3
 1092 0356 FFF7FEFF 		bl	CyBle_ValueConfirmation
2043:Generated_Source\PSoC4/BLE_1_eventHandler.c ****             break;
 1093              		.loc 1 2043 0
 1094 035a 28E0     		b	.L48
 1095              	.L60:
2044:Generated_Source\PSoC4/BLE_1_eventHandler.c ****             
2045:Generated_Source\PSoC4/BLE_1_eventHandler.c ****         case CYBLE_EVT_GATTS_READ_CHAR_VAL_ACCESS_REQ:
2046:Generated_Source\PSoC4/BLE_1_eventHandler.c ****         #ifdef CYBLE_UDS_SERVER
2047:Generated_Source\PSoC4/BLE_1_eventHandler.c ****             CyBle_UdssReadRequestEventHandler((CYBLE_GATTS_CHAR_VAL_READ_REQ_T *)eventParam);
2048:Generated_Source\PSoC4/BLE_1_eventHandler.c ****         #endif /* CYBLE_UDS_SERVER */
2049:Generated_Source\PSoC4/BLE_1_eventHandler.c ****             break;
2050:Generated_Source\PSoC4/BLE_1_eventHandler.c ****             
2051:Generated_Source\PSoC4/BLE_1_eventHandler.c ****     #endif /* CYBLE_GATT_ROLE_SERVER */
2052:Generated_Source\PSoC4/BLE_1_eventHandler.c **** 
2053:Generated_Source\PSoC4/BLE_1_eventHandler.c ****     #if (CYBLE_GATT_ROLE_CLIENT)
2054:Generated_Source\PSoC4/BLE_1_eventHandler.c ****         
2055:Generated_Source\PSoC4/BLE_1_eventHandler.c ****         case CYBLE_EVT_GATTC_READ_BY_GROUP_TYPE_RSP:
2056:Generated_Source\PSoC4/BLE_1_eventHandler.c ****             CyBle_ReadByGroupEventHandler((CYBLE_GATTC_READ_BY_GRP_RSP_PARAM_T *)eventParam);
2057:Generated_Source\PSoC4/BLE_1_eventHandler.c ****             break;
2058:Generated_Source\PSoC4/BLE_1_eventHandler.c **** 
2059:Generated_Source\PSoC4/BLE_1_eventHandler.c ****         case CYBLE_EVT_GATTC_READ_BY_TYPE_RSP:
2060:Generated_Source\PSoC4/BLE_1_eventHandler.c ****             CyBle_ReadByTypeEventHandler((CYBLE_GATTC_READ_BY_TYPE_RSP_PARAM_T *)eventParam);
2061:Generated_Source\PSoC4/BLE_1_eventHandler.c ****             break;
2062:Generated_Source\PSoC4/BLE_1_eventHandler.c **** 
2063:Generated_Source\PSoC4/BLE_1_eventHandler.c ****         case CYBLE_EVT_GATTC_READ_BLOB_RSP:
2064:Generated_Source\PSoC4/BLE_1_eventHandler.c ****         #ifdef CYBLE_ESS_CLIENT
2065:Generated_Source\PSoC4/BLE_1_eventHandler.c ****             CyBle_EsscReadLongRespEventHandler((CYBLE_GATTC_READ_RSP_PARAM_T *)eventParam);
2066:Generated_Source\PSoC4/BLE_1_eventHandler.c ****         #endif /* CYBLE_ESS_CLIENT */
2067:Generated_Source\PSoC4/BLE_1_eventHandler.c ****         #ifdef CYBLE_HPS_CLIENT
2068:Generated_Source\PSoC4/BLE_1_eventHandler.c ****             CyBle_HpscReadLongRespEventHandler((CYBLE_GATTC_READ_RSP_PARAM_T *)eventParam);
2069:Generated_Source\PSoC4/BLE_1_eventHandler.c ****         #endif /* CYBLE_HPS_CLIENT */
2070:Generated_Source\PSoC4/BLE_1_eventHandler.c **** 		#ifdef CYBLE_IPS_CLIENT
2071:Generated_Source\PSoC4/BLE_1_eventHandler.c ****             CyBle_IpscReadLongRespEventHandler((CYBLE_GATTC_READ_RSP_PARAM_T *)eventParam);
2072:Generated_Source\PSoC4/BLE_1_eventHandler.c ****         #endif /* CYBLE_IPS_CLIENT */
2073:Generated_Source\PSoC4/BLE_1_eventHandler.c ****         #ifdef CYBLE_UDS_CLIENT
2074:Generated_Source\PSoC4/BLE_1_eventHandler.c ****             if((cyBle_eventHandlerFlag & CYBLE_CALLBACK) != 0u)
2075:Generated_Source\PSoC4/BLE_1_eventHandler.c ****             {
2076:Generated_Source\PSoC4/BLE_1_eventHandler.c ****                 CyBle_UdscReadLongRespEventHandler((CYBLE_GATTC_READ_RSP_PARAM_T *)eventParam);
2077:Generated_Source\PSoC4/BLE_1_eventHandler.c ****             }
2078:Generated_Source\PSoC4/BLE_1_eventHandler.c ****         #endif /* CYBLE_UDS_CLIENT */
2079:Generated_Source\PSoC4/BLE_1_eventHandler.c ****             break;
2080:Generated_Source\PSoC4/BLE_1_eventHandler.c ****         
2081:Generated_Source\PSoC4/BLE_1_eventHandler.c ****         case CYBLE_EVT_GATTC_LONG_PROCEDURE_END:
2082:Generated_Source\PSoC4/BLE_1_eventHandler.c ****             CyBle_LongProcedureEndEventHandler();
2083:Generated_Source\PSoC4/BLE_1_eventHandler.c ****             break;
ARM GAS  C:\Users\ROUSSMA\AppData\Local\Temp\cc3gA5P4.s 			page 57


2084:Generated_Source\PSoC4/BLE_1_eventHandler.c ****         
2085:Generated_Source\PSoC4/BLE_1_eventHandler.c ****         case CYBLE_EVT_GATTC_FIND_INFO_RSP:
2086:Generated_Source\PSoC4/BLE_1_eventHandler.c ****             CyBle_FindInfoEventHandler((CYBLE_GATTC_FIND_INFO_RSP_PARAM_T *)eventParam);
2087:Generated_Source\PSoC4/BLE_1_eventHandler.c ****             break;
2088:Generated_Source\PSoC4/BLE_1_eventHandler.c **** 
2089:Generated_Source\PSoC4/BLE_1_eventHandler.c ****         case CYBLE_EVT_GATTC_ERROR_RSP:
2090:Generated_Source\PSoC4/BLE_1_eventHandler.c ****             CyBle_ErrorResponseEventHandler((CYBLE_GATTC_ERR_RSP_PARAM_T *)eventParam);
2091:Generated_Source\PSoC4/BLE_1_eventHandler.c ****             break;
2092:Generated_Source\PSoC4/BLE_1_eventHandler.c **** 
2093:Generated_Source\PSoC4/BLE_1_eventHandler.c ****         case CYBLE_EVT_GATTC_HANDLE_VALUE_NTF:
2094:Generated_Source\PSoC4/BLE_1_eventHandler.c ****             CyBle_NotificationEventHandler((CYBLE_GATTC_HANDLE_VALUE_NTF_PARAM_T *)eventParam);
2095:Generated_Source\PSoC4/BLE_1_eventHandler.c ****             break;
2096:Generated_Source\PSoC4/BLE_1_eventHandler.c **** 
2097:Generated_Source\PSoC4/BLE_1_eventHandler.c ****         case CYBLE_EVT_GATTC_HANDLE_VALUE_IND:
2098:Generated_Source\PSoC4/BLE_1_eventHandler.c ****             CyBle_GattcIndicationEventHandler((CYBLE_GATTC_HANDLE_VALUE_IND_PARAM_T *)eventParam);
2099:Generated_Source\PSoC4/BLE_1_eventHandler.c ****             CyBle_IndicationEventHandler((CYBLE_GATTC_HANDLE_VALUE_IND_PARAM_T *)eventParam);
2100:Generated_Source\PSoC4/BLE_1_eventHandler.c ****         
2101:Generated_Source\PSoC4/BLE_1_eventHandler.c ****             /* Respond with a Handle Value Confirmation when request handled */
2102:Generated_Source\PSoC4/BLE_1_eventHandler.c ****             if((cyBle_eventHandlerFlag & CYBLE_CALLBACK) == 0u)
2103:Generated_Source\PSoC4/BLE_1_eventHandler.c ****             {
2104:Generated_Source\PSoC4/BLE_1_eventHandler.c ****                 (void)CyBle_GattcConfirmation(((CYBLE_GATTC_HANDLE_VALUE_IND_PARAM_T *)eventParam)-
2105:Generated_Source\PSoC4/BLE_1_eventHandler.c ****             }
2106:Generated_Source\PSoC4/BLE_1_eventHandler.c ****             break;
2107:Generated_Source\PSoC4/BLE_1_eventHandler.c ****         
2108:Generated_Source\PSoC4/BLE_1_eventHandler.c ****         case CYBLE_EVT_GATTC_READ_RSP:
2109:Generated_Source\PSoC4/BLE_1_eventHandler.c ****             CyBle_ReadResponseEventHandler((CYBLE_GATTC_READ_RSP_PARAM_T *)eventParam);
2110:Generated_Source\PSoC4/BLE_1_eventHandler.c ****             break;
2111:Generated_Source\PSoC4/BLE_1_eventHandler.c ****         
2112:Generated_Source\PSoC4/BLE_1_eventHandler.c ****         case CYBLE_EVT_GATTC_READ_MULTI_RSP:
2113:Generated_Source\PSoC4/BLE_1_eventHandler.c ****             CyBle_ReadMultipleResponseEventHandler((CYBLE_GATTC_READ_RSP_PARAM_T *)eventParam);
2114:Generated_Source\PSoC4/BLE_1_eventHandler.c ****             break;
2115:Generated_Source\PSoC4/BLE_1_eventHandler.c ****             
2116:Generated_Source\PSoC4/BLE_1_eventHandler.c ****         case CYBLE_EVT_GATTC_WRITE_RSP:
2117:Generated_Source\PSoC4/BLE_1_eventHandler.c ****             CyBle_GattcWriteResponseEventHandler((CYBLE_CONN_HANDLE_T *)eventParam);
2118:Generated_Source\PSoC4/BLE_1_eventHandler.c ****             break;
2119:Generated_Source\PSoC4/BLE_1_eventHandler.c ****             
2120:Generated_Source\PSoC4/BLE_1_eventHandler.c ****         case CYBLE_EVT_GATTC_EXEC_WRITE_RSP:
2121:Generated_Source\PSoC4/BLE_1_eventHandler.c ****         #ifdef CYBLE_BMS_CLIENT
2122:Generated_Source\PSoC4/BLE_1_eventHandler.c ****             CyBle_BmscExecuteWriteResponseEventHandler((CYBLE_GATTC_EXEC_WRITE_RSP_T *)eventParam);
2123:Generated_Source\PSoC4/BLE_1_eventHandler.c ****         #endif /* CYBLE_BMS_CLIENT */
2124:Generated_Source\PSoC4/BLE_1_eventHandler.c ****         #ifdef CYBLE_ESS_CLIENT
2125:Generated_Source\PSoC4/BLE_1_eventHandler.c ****             if((cyBle_eventHandlerFlag & CYBLE_CALLBACK) != 0u)
2126:Generated_Source\PSoC4/BLE_1_eventHandler.c ****             {
2127:Generated_Source\PSoC4/BLE_1_eventHandler.c ****                 CyBle_EsscExecuteWriteResponseEventHandler((CYBLE_GATTC_EXEC_WRITE_RSP_T *)eventPar
2128:Generated_Source\PSoC4/BLE_1_eventHandler.c ****             }
2129:Generated_Source\PSoC4/BLE_1_eventHandler.c ****         #endif /* CYBLE_ESS_CLIENT */
2130:Generated_Source\PSoC4/BLE_1_eventHandler.c ****         #ifdef CYBLE_HPS_CLIENT
2131:Generated_Source\PSoC4/BLE_1_eventHandler.c ****             if((cyBle_eventHandlerFlag & CYBLE_CALLBACK) != 0u)
2132:Generated_Source\PSoC4/BLE_1_eventHandler.c ****             {
2133:Generated_Source\PSoC4/BLE_1_eventHandler.c ****                 CyBle_HpscExecuteWriteResponseEventHandler((CYBLE_GATTC_EXEC_WRITE_RSP_T *)eventPar
2134:Generated_Source\PSoC4/BLE_1_eventHandler.c ****             }
2135:Generated_Source\PSoC4/BLE_1_eventHandler.c ****         #endif /* CYBLE_HPS_CLIENT */
2136:Generated_Source\PSoC4/BLE_1_eventHandler.c ****         #ifdef CYBLE_IPS_CLIENT
2137:Generated_Source\PSoC4/BLE_1_eventHandler.c ****             if((cyBle_eventHandlerFlag & CYBLE_CALLBACK) != 0u)
2138:Generated_Source\PSoC4/BLE_1_eventHandler.c ****             {
2139:Generated_Source\PSoC4/BLE_1_eventHandler.c ****                 CyBle_IpscExecuteWriteResponseEventHandler((CYBLE_GATTC_EXEC_WRITE_RSP_T *)eventPar
2140:Generated_Source\PSoC4/BLE_1_eventHandler.c ****             }
ARM GAS  C:\Users\ROUSSMA\AppData\Local\Temp\cc3gA5P4.s 			page 58


2141:Generated_Source\PSoC4/BLE_1_eventHandler.c ****         #endif /* CYBLE_IPS_CLIENT */
2142:Generated_Source\PSoC4/BLE_1_eventHandler.c ****         #ifdef CYBLE_UDS_CLIENT
2143:Generated_Source\PSoC4/BLE_1_eventHandler.c ****             if((cyBle_eventHandlerFlag & CYBLE_CALLBACK) != 0u)
2144:Generated_Source\PSoC4/BLE_1_eventHandler.c ****             {
2145:Generated_Source\PSoC4/BLE_1_eventHandler.c ****                 CyBle_UdscExecuteWriteResponseEventHandler((CYBLE_GATTC_EXEC_WRITE_RSP_T *)eventPar
2146:Generated_Source\PSoC4/BLE_1_eventHandler.c ****             }
2147:Generated_Source\PSoC4/BLE_1_eventHandler.c ****         #endif /* CYBLE_UDS_CLIENT */
2148:Generated_Source\PSoC4/BLE_1_eventHandler.c ****             break;
2149:Generated_Source\PSoC4/BLE_1_eventHandler.c ****             
2150:Generated_Source\PSoC4/BLE_1_eventHandler.c ****     #endif /* CYBLE_GATT_ROLE_CLIENT */
2151:Generated_Source\PSoC4/BLE_1_eventHandler.c **** 
2152:Generated_Source\PSoC4/BLE_1_eventHandler.c ****     #if((CYBLE_GAP_ROLE_PERIPHERAL || CYBLE_GAP_ROLE_CENTRAL) && (CYBLE_BONDING_REQUIREMENT == CYBL
2153:Generated_Source\PSoC4/BLE_1_eventHandler.c **** 
2154:Generated_Source\PSoC4/BLE_1_eventHandler.c ****         case CYBLE_EVT_PENDING_FLASH_WRITE:
2155:Generated_Source\PSoC4/BLE_1_eventHandler.c ****             cyBle_pendingFlashWrite |= CYBLE_PENDING_STACK_FLASH_WRITE_BIT;
2156:Generated_Source\PSoC4/BLE_1_eventHandler.c ****             break;
2157:Generated_Source\PSoC4/BLE_1_eventHandler.c ****         
2158:Generated_Source\PSoC4/BLE_1_eventHandler.c ****     #endif  /* (CYBLE_BONDING_REQUIREMENT == CYBLE_BONDING_YES) */
2159:Generated_Source\PSoC4/BLE_1_eventHandler.c ****     
2160:Generated_Source\PSoC4/BLE_1_eventHandler.c ****         default:
2161:Generated_Source\PSoC4/BLE_1_eventHandler.c ****             break;
 1096              		.loc 1 2161 0
 1097 035c C046     		nop
 1098 035e 26E0     		b	.L48
 1099              	.L61:
1704:Generated_Source\PSoC4/BLE_1_eventHandler.c ****         /**********************************************************
 1100              		.loc 1 1704 0
 1101 0360 C046     		nop
 1102 0362 24E0     		b	.L48
 1103              	.L62:
1742:Generated_Source\PSoC4/BLE_1_eventHandler.c ****         
 1104              		.loc 1 1742 0
 1105 0364 C046     		nop
 1106 0366 22E0     		b	.L48
 1107              	.L66:
 1108              		.align	2
 1109              	.L65:
 1110 0368 00000000 		.word	cyBle_eventHandlerFlag
 1111 036c 10000000 		.word	.L24
 1112 0370 00000000 		.word	cyBle_sflashDeviceAddress
 1113 0374 7CF2FF0F 		.word	268431996
 1114 0378 7DF2FF0F 		.word	268431997
 1115 037c 7BF2FF0F 		.word	268431995
 1116 0380 78F2FF0F 		.word	268431992
 1117 0384 00000000 		.word	cyBle_deviceAddress
 1118 0388 0C000000 		.word	.LC0
 1119 038c 00000000 		.word	cyBle_state
 1120 0390 00000000 		.word	cyBle_busyStatus
 1121 0394 00000000 		.word	gPrepWriteReqMem.6666
 1122 0398 800D0000 		.word	cyBle_stackMemoryRam+3456
 1123 039c 00000000 		.word	cyBle_authInfo
 1124 03a0 00000000 		.word	cyBle_connHandle
 1125 03a4 00000000 		.word	CyBle_ApplCallback
 1126 03a8 00000000 		.word	cyBle_advertisingIntervalType
 1127              	.L63:
1833:Generated_Source\PSoC4/BLE_1_eventHandler.c ****         #endif /* CYBLE_GAP_ROLE_PERIPHERAL || CYBLE_GAP_ROLE_BROADCASTER */
 1128              		.loc 1 1833 0
ARM GAS  C:\Users\ROUSSMA\AppData\Local\Temp\cc3gA5P4.s 			page 59


 1129 03ac C046     		nop
 1130              	.L48:
2162:Generated_Source\PSoC4/BLE_1_eventHandler.c ****     }
2163:Generated_Source\PSoC4/BLE_1_eventHandler.c **** 
2164:Generated_Source\PSoC4/BLE_1_eventHandler.c ****     if(0u != (cyBle_eventHandlerFlag & (CYBLE_CALLBACK | CYBLE_ENABLE_ALL_EVENTS))) 
 1131              		.loc 1 2164 0
 1132 03ae 0D4B     		ldr	r3, .L67
 1133 03b0 1B78     		ldrb	r3, [r3]
 1134 03b2 DBB2     		uxtb	r3, r3
 1135 03b4 1A00     		movs	r2, r3
 1136 03b6 1123     		movs	r3, #17
 1137 03b8 1340     		ands	r3, r2
 1138 03ba 0ED0     		beq	.L64
2165:Generated_Source\PSoC4/BLE_1_eventHandler.c ****     {
2166:Generated_Source\PSoC4/BLE_1_eventHandler.c ****         cyBle_eventHandlerFlag &= (uint8)~CYBLE_CALLBACK;
 1139              		.loc 1 2166 0
 1140 03bc 094B     		ldr	r3, .L67
 1141 03be 1B78     		ldrb	r3, [r3]
 1142 03c0 DBB2     		uxtb	r3, r3
 1143 03c2 0122     		movs	r2, #1
 1144 03c4 9343     		bics	r3, r2
 1145 03c6 DAB2     		uxtb	r2, r3
 1146 03c8 064B     		ldr	r3, .L67
 1147 03ca 1A70     		strb	r2, [r3]
2167:Generated_Source\PSoC4/BLE_1_eventHandler.c ****         CyBle_ApplCallback((uint32)eventCode, eventParam);
 1148              		.loc 1 2167 0
 1149 03cc 064B     		ldr	r3, .L67+4
 1150 03ce 1B68     		ldr	r3, [r3]
 1151 03d0 FA1D     		adds	r2, r7, #7
 1152 03d2 1278     		ldrb	r2, [r2]
 1153 03d4 3968     		ldr	r1, [r7]
 1154 03d6 1000     		movs	r0, r2
 1155 03d8 9847     		blx	r3
 1156              	.L64:
2168:Generated_Source\PSoC4/BLE_1_eventHandler.c ****     }
2169:Generated_Source\PSoC4/BLE_1_eventHandler.c **** }
 1157              		.loc 1 2169 0
 1158 03da C046     		nop
 1159 03dc BD46     		mov	sp, r7
 1160 03de 0CB0     		add	sp, sp, #48
 1161              		@ sp needed
 1162 03e0 80BD     		pop	{r7, pc}
 1163              	.L68:
 1164 03e2 C046     		.align	2
 1165              	.L67:
 1166 03e4 00000000 		.word	cyBle_eventHandlerFlag
 1167 03e8 00000000 		.word	CyBle_ApplCallback
 1168              		.cfi_endproc
 1169              	.LFE10:
 1170              		.size	CyBle_EventHandler, .-CyBle_EventHandler
 1171              		.bss
 1172              		.align	2
 1173              	gPrepWriteReqMem.6666:
 1174 0000 00000000 		.space	8
 1174      00000000 
 1175              		.text
 1176              	.Letext0:
ARM GAS  C:\Users\ROUSSMA\AppData\Local\Temp\cc3gA5P4.s 			page 60


 1177              		.file 2 "Generated_Source\\PSoC4\\cytypes.h"
 1178              		.file 3 "Generated_Source\\PSoC4\\BLE_1_Stack.h"
 1179              		.file 4 "Generated_Source\\PSoC4\\BLE_1_StackHostMain.h"
 1180              		.file 5 "Generated_Source\\PSoC4\\BLE_1_StackGap.h"
 1181              		.file 6 "Generated_Source\\PSoC4\\BLE_1_StackGatt.h"
 1182              		.file 7 "Generated_Source\\PSoC4\\BLE_1_StackGattServer.h"
 1183              		.file 8 "Generated_Source\\PSoC4\\BLE_1.h"
 1184              		.file 9 "Generated_Source\\PSoC4\\BLE_1_eventHandler.h"
 1185              		.section	.debug_info,"",%progbits
 1186              	.Ldebug_info0:
 1187 0000 9D0E0000 		.4byte	0xe9d
 1188 0004 0400     		.2byte	0x4
 1189 0006 00000000 		.4byte	.Ldebug_abbrev0
 1190 000a 04       		.byte	0x4
 1191 000b 01       		.uleb128 0x1
 1192 000c 250F0000 		.4byte	.LASF345
 1193 0010 0C       		.byte	0xc
 1194 0011 651B0000 		.4byte	.LASF346
 1195 0015 D7120000 		.4byte	.LASF347
 1196 0019 00000000 		.4byte	.Ldebug_ranges0+0
 1197 001d 00000000 		.4byte	0
 1198 0021 00000000 		.4byte	.Ldebug_line0
 1199 0025 02       		.uleb128 0x2
 1200 0026 01       		.byte	0x1
 1201 0027 06       		.byte	0x6
 1202 0028 14080000 		.4byte	.LASF0
 1203 002c 02       		.uleb128 0x2
 1204 002d 01       		.byte	0x1
 1205 002e 08       		.byte	0x8
 1206 002f 69090000 		.4byte	.LASF1
 1207 0033 02       		.uleb128 0x2
 1208 0034 02       		.byte	0x2
 1209 0035 05       		.byte	0x5
 1210 0036 DD1E0000 		.4byte	.LASF2
 1211 003a 02       		.uleb128 0x2
 1212 003b 02       		.byte	0x2
 1213 003c 07       		.byte	0x7
 1214 003d 41230000 		.4byte	.LASF3
 1215 0041 02       		.uleb128 0x2
 1216 0042 04       		.byte	0x4
 1217 0043 05       		.byte	0x5
 1218 0044 D5050000 		.4byte	.LASF4
 1219 0048 02       		.uleb128 0x2
 1220 0049 04       		.byte	0x4
 1221 004a 07       		.byte	0x7
 1222 004b B4100000 		.4byte	.LASF5
 1223 004f 02       		.uleb128 0x2
 1224 0050 08       		.byte	0x8
 1225 0051 05       		.byte	0x5
 1226 0052 E6130000 		.4byte	.LASF6
 1227 0056 02       		.uleb128 0x2
 1228 0057 08       		.byte	0x8
 1229 0058 07       		.byte	0x7
 1230 0059 301B0000 		.4byte	.LASF7
 1231 005d 03       		.uleb128 0x3
 1232 005e 04       		.byte	0x4
 1233 005f 05       		.byte	0x5
ARM GAS  C:\Users\ROUSSMA\AppData\Local\Temp\cc3gA5P4.s 			page 61


 1234 0060 696E7400 		.ascii	"int\000"
 1235 0064 02       		.uleb128 0x2
 1236 0065 04       		.byte	0x4
 1237 0066 07       		.byte	0x7
 1238 0067 9B160000 		.4byte	.LASF8
 1239 006b 04       		.uleb128 0x4
 1240 006c 641E0000 		.4byte	.LASF9
 1241 0070 02       		.byte	0x2
 1242 0071 B901     		.2byte	0x1b9
 1243 0073 2C000000 		.4byte	0x2c
 1244 0077 04       		.uleb128 0x4
 1245 0078 F7240000 		.4byte	.LASF10
 1246 007c 02       		.byte	0x2
 1247 007d BA01     		.2byte	0x1ba
 1248 007f 3A000000 		.4byte	0x3a
 1249 0083 04       		.uleb128 0x4
 1250 0084 68010000 		.4byte	.LASF11
 1251 0088 02       		.byte	0x2
 1252 0089 BB01     		.2byte	0x1bb
 1253 008b 48000000 		.4byte	0x48
 1254 008f 02       		.uleb128 0x2
 1255 0090 04       		.byte	0x4
 1256 0091 04       		.byte	0x4
 1257 0092 E5150000 		.4byte	.LASF12
 1258 0096 02       		.uleb128 0x2
 1259 0097 08       		.byte	0x8
 1260 0098 04       		.byte	0x4
 1261 0099 A0140000 		.4byte	.LASF13
 1262 009d 02       		.uleb128 0x2
 1263 009e 01       		.byte	0x1
 1264 009f 08       		.byte	0x8
 1265 00a0 BC0A0000 		.4byte	.LASF14
 1266 00a4 05       		.uleb128 0x5
 1267 00a5 6B000000 		.4byte	0x6b
 1268 00a9 02       		.uleb128 0x2
 1269 00aa 08       		.byte	0x8
 1270 00ab 04       		.byte	0x4
 1271 00ac 94190000 		.4byte	.LASF15
 1272 00b0 02       		.uleb128 0x2
 1273 00b1 04       		.byte	0x4
 1274 00b2 07       		.byte	0x7
 1275 00b3 1B000000 		.4byte	.LASF16
 1276 00b7 06       		.uleb128 0x6
 1277 00b8 04       		.byte	0x4
 1278 00b9 07       		.uleb128 0x7
 1279 00ba 04       		.byte	0x4
 1280 00bb BF000000 		.4byte	0xbf
 1281 00bf 08       		.uleb128 0x8
 1282 00c0 CF000000 		.4byte	0xcf
 1283 00c4 09       		.uleb128 0x9
 1284 00c5 83000000 		.4byte	0x83
 1285 00c9 09       		.uleb128 0x9
 1286 00ca B7000000 		.4byte	0xb7
 1287 00ce 00       		.byte	0
 1288 00cf 0A       		.uleb128 0xa
 1289 00d0 01       		.byte	0x1
 1290 00d1 2C000000 		.4byte	0x2c
ARM GAS  C:\Users\ROUSSMA\AppData\Local\Temp\cc3gA5P4.s 			page 62


 1291 00d5 03       		.byte	0x3
 1292 00d6 4D01     		.2byte	0x14d
 1293 00d8 8D020000 		.4byte	0x28d
 1294 00dc 0B       		.uleb128 0xb
 1295 00dd 440B0000 		.4byte	.LASF17
 1296 00e1 00       		.byte	0
 1297 00e2 0B       		.uleb128 0xb
 1298 00e3 7E060000 		.4byte	.LASF18
 1299 00e7 01       		.byte	0x1
 1300 00e8 0B       		.uleb128 0xb
 1301 00e9 911B0000 		.4byte	.LASF19
 1302 00ed 02       		.byte	0x2
 1303 00ee 0B       		.uleb128 0xb
 1304 00ef 55080000 		.4byte	.LASF20
 1305 00f3 03       		.byte	0x3
 1306 00f4 0B       		.uleb128 0xb
 1307 00f5 0C240000 		.4byte	.LASF21
 1308 00f9 04       		.byte	0x4
 1309 00fa 0B       		.uleb128 0xb
 1310 00fb EF210000 		.4byte	.LASF22
 1311 00ff 05       		.byte	0x5
 1312 0100 0B       		.uleb128 0xb
 1313 0101 DD190000 		.4byte	.LASF23
 1314 0105 06       		.byte	0x6
 1315 0106 0B       		.uleb128 0xb
 1316 0107 EE1F0000 		.4byte	.LASF24
 1317 010b 20       		.byte	0x20
 1318 010c 0B       		.uleb128 0xb
 1319 010d D9030000 		.4byte	.LASF25
 1320 0111 21       		.byte	0x21
 1321 0112 0B       		.uleb128 0xb
 1322 0113 17130000 		.4byte	.LASF26
 1323 0117 22       		.byte	0x22
 1324 0118 0B       		.uleb128 0xb
 1325 0119 7A180000 		.4byte	.LASF27
 1326 011d 23       		.byte	0x23
 1327 011e 0B       		.uleb128 0xb
 1328 011f E10F0000 		.4byte	.LASF28
 1329 0123 24       		.byte	0x24
 1330 0124 0B       		.uleb128 0xb
 1331 0125 FD0F0000 		.4byte	.LASF29
 1332 0129 25       		.byte	0x25
 1333 012a 0B       		.uleb128 0xb
 1334 012b 3C1E0000 		.4byte	.LASF30
 1335 012f 26       		.byte	0x26
 1336 0130 0B       		.uleb128 0xb
 1337 0131 F8000000 		.4byte	.LASF31
 1338 0135 27       		.byte	0x27
 1339 0136 0B       		.uleb128 0xb
 1340 0137 B4240000 		.4byte	.LASF32
 1341 013b 28       		.byte	0x28
 1342 013c 0B       		.uleb128 0xb
 1343 013d 251A0000 		.4byte	.LASF33
 1344 0141 29       		.byte	0x29
 1345 0142 0B       		.uleb128 0xb
 1346 0143 2E120000 		.4byte	.LASF34
 1347 0147 2A       		.byte	0x2a
ARM GAS  C:\Users\ROUSSMA\AppData\Local\Temp\cc3gA5P4.s 			page 63


 1348 0148 0B       		.uleb128 0xb
 1349 0149 EF170000 		.4byte	.LASF35
 1350 014d 2B       		.byte	0x2b
 1351 014e 0B       		.uleb128 0xb
 1352 014f 64220000 		.4byte	.LASF36
 1353 0153 2C       		.byte	0x2c
 1354 0154 0B       		.uleb128 0xb
 1355 0155 49000000 		.4byte	.LASF37
 1356 0159 2D       		.byte	0x2d
 1357 015a 0B       		.uleb128 0xb
 1358 015b 791E0000 		.4byte	.LASF38
 1359 015f 2E       		.byte	0x2e
 1360 0160 0B       		.uleb128 0xb
 1361 0161 A2040000 		.4byte	.LASF39
 1362 0165 2F       		.byte	0x2f
 1363 0166 0B       		.uleb128 0xb
 1364 0167 9B0A0000 		.4byte	.LASF40
 1365 016b 30       		.byte	0x30
 1366 016c 0B       		.uleb128 0xb
 1367 016d 67150000 		.4byte	.LASF41
 1368 0171 31       		.byte	0x31
 1369 0172 0B       		.uleb128 0xb
 1370 0173 940B0000 		.4byte	.LASF42
 1371 0177 32       		.byte	0x32
 1372 0178 0B       		.uleb128 0xb
 1373 0179 B1090000 		.4byte	.LASF43
 1374 017d 33       		.byte	0x33
 1375 017e 0B       		.uleb128 0xb
 1376 017f D8090000 		.4byte	.LASF44
 1377 0183 34       		.byte	0x34
 1378 0184 0B       		.uleb128 0xb
 1379 0185 96200000 		.4byte	.LASF45
 1380 0189 35       		.byte	0x35
 1381 018a 0B       		.uleb128 0xb
 1382 018b 41040000 		.4byte	.LASF46
 1383 018f 36       		.byte	0x36
 1384 0190 0B       		.uleb128 0xb
 1385 0191 B11A0000 		.4byte	.LASF47
 1386 0195 37       		.byte	0x37
 1387 0196 0B       		.uleb128 0xb
 1388 0197 681F0000 		.4byte	.LASF48
 1389 019b 40       		.byte	0x40
 1390 019c 0B       		.uleb128 0xb
 1391 019d 38010000 		.4byte	.LASF49
 1392 01a1 41       		.byte	0x41
 1393 01a2 0B       		.uleb128 0xb
 1394 01a3 21240000 		.4byte	.LASF50
 1395 01a7 42       		.byte	0x42
 1396 01a8 0B       		.uleb128 0xb
 1397 01a9 4E1A0000 		.4byte	.LASF51
 1398 01ad 43       		.byte	0x43
 1399 01ae 0B       		.uleb128 0xb
 1400 01af 77090000 		.4byte	.LASF52
 1401 01b3 44       		.byte	0x44
 1402 01b4 0B       		.uleb128 0xb
 1403 01b5 D9080000 		.4byte	.LASF53
 1404 01b9 45       		.byte	0x45
ARM GAS  C:\Users\ROUSSMA\AppData\Local\Temp\cc3gA5P4.s 			page 64


 1405 01ba 0B       		.uleb128 0xb
 1406 01bb A21D0000 		.4byte	.LASF54
 1407 01bf 46       		.byte	0x46
 1408 01c0 0B       		.uleb128 0xb
 1409 01c1 841D0000 		.4byte	.LASF55
 1410 01c5 47       		.byte	0x47
 1411 01c6 0B       		.uleb128 0xb
 1412 01c7 500A0000 		.4byte	.LASF56
 1413 01cb 48       		.byte	0x48
 1414 01cc 0B       		.uleb128 0xb
 1415 01cd EF180000 		.4byte	.LASF57
 1416 01d1 49       		.byte	0x49
 1417 01d2 0B       		.uleb128 0xb
 1418 01d3 EB0B0000 		.4byte	.LASF58
 1419 01d7 4A       		.byte	0x4a
 1420 01d8 0B       		.uleb128 0xb
 1421 01d9 F10A0000 		.4byte	.LASF59
 1422 01dd 4B       		.byte	0x4b
 1423 01de 0B       		.uleb128 0xb
 1424 01df 48180000 		.4byte	.LASF60
 1425 01e3 4C       		.byte	0x4c
 1426 01e4 0B       		.uleb128 0xb
 1427 01e5 021E0000 		.4byte	.LASF61
 1428 01e9 4D       		.byte	0x4d
 1429 01ea 0B       		.uleb128 0xb
 1430 01eb 94050000 		.4byte	.LASF62
 1431 01ef 4E       		.byte	0x4e
 1432 01f0 0B       		.uleb128 0xb
 1433 01f1 A8160000 		.4byte	.LASF63
 1434 01f5 4F       		.byte	0x4f
 1435 01f6 0B       		.uleb128 0xb
 1436 01f7 CF1F0000 		.4byte	.LASF64
 1437 01fb 50       		.byte	0x50
 1438 01fc 0B       		.uleb128 0xb
 1439 01fd 2E0C0000 		.4byte	.LASF65
 1440 0201 51       		.byte	0x51
 1441 0202 0B       		.uleb128 0xb
 1442 0203 B8030000 		.4byte	.LASF66
 1443 0207 52       		.byte	0x52
 1444 0208 0B       		.uleb128 0xb
 1445 0209 AD210000 		.4byte	.LASF67
 1446 020d 53       		.byte	0x53
 1447 020e 0B       		.uleb128 0xb
 1448 020f D6240000 		.4byte	.LASF68
 1449 0213 54       		.byte	0x54
 1450 0214 0B       		.uleb128 0xb
 1451 0215 69020000 		.4byte	.LASF69
 1452 0219 55       		.byte	0x55
 1453 021a 0B       		.uleb128 0xb
 1454 021b BE0C0000 		.4byte	.LASF70
 1455 021f 56       		.byte	0x56
 1456 0220 0B       		.uleb128 0xb
 1457 0221 10160000 		.4byte	.LASF71
 1458 0225 57       		.byte	0x57
 1459 0226 0B       		.uleb128 0xb
 1460 0227 83240000 		.4byte	.LASF72
 1461 022b 58       		.byte	0x58
ARM GAS  C:\Users\ROUSSMA\AppData\Local\Temp\cc3gA5P4.s 			page 65


 1462 022c 0B       		.uleb128 0xb
 1463 022d D2220000 		.4byte	.LASF73
 1464 0231 70       		.byte	0x70
 1465 0232 0B       		.uleb128 0xb
 1466 0233 B20E0000 		.4byte	.LASF74
 1467 0237 71       		.byte	0x71
 1468 0238 0B       		.uleb128 0xb
 1469 0239 80070000 		.4byte	.LASF75
 1470 023d 72       		.byte	0x72
 1471 023e 0B       		.uleb128 0xb
 1472 023f B11F0000 		.4byte	.LASF76
 1473 0243 73       		.byte	0x73
 1474 0244 0B       		.uleb128 0xb
 1475 0245 42190000 		.4byte	.LASF77
 1476 0249 74       		.byte	0x74
 1477 024a 0B       		.uleb128 0xb
 1478 024b B6120000 		.4byte	.LASF78
 1479 024f 75       		.byte	0x75
 1480 0250 0B       		.uleb128 0xb
 1481 0251 2F0A0000 		.4byte	.LASF79
 1482 0255 76       		.byte	0x76
 1483 0256 0B       		.uleb128 0xb
 1484 0257 1A1C0000 		.4byte	.LASF80
 1485 025b 77       		.byte	0x77
 1486 025c 0B       		.uleb128 0xb
 1487 025d 8D020000 		.4byte	.LASF81
 1488 0261 78       		.byte	0x78
 1489 0262 0B       		.uleb128 0xb
 1490 0263 B2050000 		.4byte	.LASF82
 1491 0267 79       		.byte	0x79
 1492 0268 0B       		.uleb128 0xb
 1493 0269 5F240000 		.4byte	.LASF83
 1494 026d 7A       		.byte	0x7a
 1495 026e 0B       		.uleb128 0xb
 1496 026f C9140000 		.4byte	.LASF84
 1497 0273 FA       		.byte	0xfa
 1498 0274 0B       		.uleb128 0xb
 1499 0275 7B210000 		.4byte	.LASF85
 1500 0279 FB       		.byte	0xfb
 1501 027a 0B       		.uleb128 0xb
 1502 027b FF0E0000 		.4byte	.LASF86
 1503 027f FC       		.byte	0xfc
 1504 0280 0B       		.uleb128 0xb
 1505 0281 7C190000 		.4byte	.LASF87
 1506 0285 FD       		.byte	0xfd
 1507 0286 0B       		.uleb128 0xb
 1508 0287 E1170000 		.4byte	.LASF88
 1509 028b FF       		.byte	0xff
 1510 028c 00       		.byte	0
 1511 028d 0A       		.uleb128 0xa
 1512 028e 02       		.byte	0x2
 1513 028f 3A000000 		.4byte	0x3a
 1514 0293 03       		.byte	0x3
 1515 0294 0204     		.2byte	0x402
 1516 0296 66030000 		.4byte	0x366
 1517 029a 0B       		.uleb128 0xb
 1518 029b 81080000 		.4byte	.LASF89
ARM GAS  C:\Users\ROUSSMA\AppData\Local\Temp\cc3gA5P4.s 			page 66


 1519 029f 00       		.byte	0
 1520 02a0 0B       		.uleb128 0xb
 1521 02a1 730D0000 		.4byte	.LASF90
 1522 02a5 01       		.byte	0x1
 1523 02a6 0B       		.uleb128 0xb
 1524 02a7 EE230000 		.4byte	.LASF91
 1525 02ab 02       		.byte	0x2
 1526 02ac 0B       		.uleb128 0xb
 1527 02ad E90D0000 		.4byte	.LASF92
 1528 02b1 03       		.byte	0x3
 1529 02b2 0B       		.uleb128 0xb
 1530 02b3 55100000 		.4byte	.LASF93
 1531 02b7 04       		.byte	0x4
 1532 02b8 0B       		.uleb128 0xb
 1533 02b9 82140000 		.4byte	.LASF94
 1534 02bd 05       		.byte	0x5
 1535 02be 0B       		.uleb128 0xb
 1536 02bf 35210000 		.4byte	.LASF95
 1537 02c3 06       		.byte	0x6
 1538 02c4 0B       		.uleb128 0xb
 1539 02c5 CE0B0000 		.4byte	.LASF96
 1540 02c9 07       		.byte	0x7
 1541 02ca 0B       		.uleb128 0xb
 1542 02cb AF150000 		.4byte	.LASF97
 1543 02cf 08       		.byte	0x8
 1544 02d0 0B       		.uleb128 0xb
 1545 02d1 4E200000 		.4byte	.LASF98
 1546 02d5 09       		.byte	0x9
 1547 02d6 0B       		.uleb128 0xb
 1548 02d7 FE240000 		.4byte	.LASF99
 1549 02db 0A       		.byte	0xa
 1550 02dc 0B       		.uleb128 0xb
 1551 02dd 04040000 		.4byte	.LASF100
 1552 02e1 0B       		.byte	0xb
 1553 02e2 0B       		.uleb128 0xb
 1554 02e3 D8210000 		.4byte	.LASF101
 1555 02e7 0C       		.byte	0xc
 1556 02e8 0B       		.uleb128 0xb
 1557 02e9 6B170000 		.4byte	.LASF102
 1558 02ed 0D       		.byte	0xd
 1559 02ee 0B       		.uleb128 0xb
 1560 02ef BC110000 		.4byte	.LASF103
 1561 02f3 0E       		.byte	0xe
 1562 02f4 0B       		.uleb128 0xb
 1563 02f5 5D140000 		.4byte	.LASF104
 1564 02f9 0F       		.byte	0xf
 1565 02fa 0B       		.uleb128 0xb
 1566 02fb 1F020000 		.4byte	.LASF105
 1567 02ff 10       		.byte	0x10
 1568 0300 0B       		.uleb128 0xb
 1569 0301 8B150000 		.4byte	.LASF106
 1570 0305 11       		.byte	0x11
 1571 0306 0B       		.uleb128 0xb
 1572 0307 91060000 		.4byte	.LASF107
 1573 030b 12       		.byte	0x12
 1574 030c 0B       		.uleb128 0xb
 1575 030d EC070000 		.4byte	.LASF108
ARM GAS  C:\Users\ROUSSMA\AppData\Local\Temp\cc3gA5P4.s 			page 67


 1576 0311 13       		.byte	0x13
 1577 0312 0B       		.uleb128 0xb
 1578 0313 A7140000 		.4byte	.LASF109
 1579 0317 27       		.byte	0x27
 1580 0318 0B       		.uleb128 0xb
 1581 0319 EB150000 		.4byte	.LASF110
 1582 031d 28       		.byte	0x28
 1583 031e 0B       		.uleb128 0xb
 1584 031f 4D020000 		.4byte	.LASF111
 1585 0323 29       		.byte	0x29
 1586 0324 0B       		.uleb128 0xb
 1587 0325 EF1E0000 		.4byte	.LASF112
 1588 0329 2A       		.byte	0x2a
 1589 032a 0B       		.uleb128 0xb
 1590 032b FC100000 		.4byte	.LASF113
 1591 032f 2B       		.byte	0x2b
 1592 0330 0B       		.uleb128 0xb
 1593 0331 7B1C0000 		.4byte	.LASF114
 1594 0335 2C       		.byte	0x2c
 1595 0336 0B       		.uleb128 0xb
 1596 0337 570D0000 		.4byte	.LASF115
 1597 033b FE       		.byte	0xfe
 1598 033c 0B       		.uleb128 0xb
 1599 033d A20E0000 		.4byte	.LASF116
 1600 0341 FF       		.byte	0xff
 1601 0342 0C       		.uleb128 0xc
 1602 0343 B9180000 		.4byte	.LASF117
 1603 0347 0001     		.2byte	0x100
 1604 0349 0C       		.uleb128 0xc
 1605 034a A0180000 		.4byte	.LASF118
 1606 034e 0101     		.2byte	0x101
 1607 0350 0C       		.uleb128 0xc
 1608 0351 34070000 		.4byte	.LASF119
 1609 0355 0201     		.2byte	0x102
 1610 0357 0C       		.uleb128 0xc
 1611 0358 D41B0000 		.4byte	.LASF120
 1612 035c 0301     		.2byte	0x103
 1613 035e 0C       		.uleb128 0xc
 1614 035f 21100000 		.4byte	.LASF121
 1615 0363 0401     		.2byte	0x104
 1616 0365 00       		.byte	0
 1617 0366 04       		.uleb128 0x4
 1618 0367 9A210000 		.4byte	.LASF122
 1619 036b 03       		.byte	0x3
 1620 036c 7104     		.2byte	0x471
 1621 036e 8D020000 		.4byte	0x28d
 1622 0372 0A       		.uleb128 0xa
 1623 0373 01       		.byte	0x1
 1624 0374 2C000000 		.4byte	0x2c
 1625 0378 03       		.byte	0x3
 1626 0379 AA04     		.2byte	0x4aa
 1627 037b B6030000 		.4byte	0x3b6
 1628 037f 0B       		.uleb128 0xb
 1629 0380 20080000 		.4byte	.LASF123
 1630 0384 01       		.byte	0x1
 1631 0385 0B       		.uleb128 0xb
 1632 0386 5F050000 		.4byte	.LASF124
ARM GAS  C:\Users\ROUSSMA\AppData\Local\Temp\cc3gA5P4.s 			page 68


 1633 038a 02       		.byte	0x2
 1634 038b 0B       		.uleb128 0xb
 1635 038c C2190000 		.4byte	.LASF125
 1636 0390 03       		.byte	0x3
 1637 0391 0B       		.uleb128 0xb
 1638 0392 62040000 		.4byte	.LASF126
 1639 0396 04       		.byte	0x4
 1640 0397 0B       		.uleb128 0xb
 1641 0398 C10A0000 		.4byte	.LASF127
 1642 039c 05       		.byte	0x5
 1643 039d 0B       		.uleb128 0xb
 1644 039e E1100000 		.4byte	.LASF128
 1645 03a2 06       		.byte	0x6
 1646 03a3 0B       		.uleb128 0xb
 1647 03a4 4F210000 		.4byte	.LASF129
 1648 03a8 07       		.byte	0x7
 1649 03a9 0B       		.uleb128 0xb
 1650 03aa 9D100000 		.4byte	.LASF130
 1651 03ae 08       		.byte	0x8
 1652 03af 0B       		.uleb128 0xb
 1653 03b0 10150000 		.4byte	.LASF131
 1654 03b4 09       		.byte	0x9
 1655 03b5 00       		.byte	0
 1656 03b6 04       		.uleb128 0x4
 1657 03b7 63130000 		.4byte	.LASF132
 1658 03bb 03       		.byte	0x3
 1659 03bc C104     		.2byte	0x4c1
 1660 03be 72030000 		.4byte	0x372
 1661 03c2 0A       		.uleb128 0xa
 1662 03c3 01       		.byte	0x1
 1663 03c4 2C000000 		.4byte	0x2c
 1664 03c8 03       		.byte	0x3
 1665 03c9 C504     		.2byte	0x4c5
 1666 03cb E2030000 		.4byte	0x3e2
 1667 03cf 0B       		.uleb128 0xb
 1668 03d0 66210000 		.4byte	.LASF133
 1669 03d4 00       		.byte	0
 1670 03d5 0B       		.uleb128 0xb
 1671 03d6 0E170000 		.4byte	.LASF134
 1672 03da 01       		.byte	0x1
 1673 03db 0B       		.uleb128 0xb
 1674 03dc BD220000 		.4byte	.LASF135
 1675 03e0 02       		.byte	0x2
 1676 03e1 00       		.byte	0
 1677 03e2 04       		.uleb128 0x4
 1678 03e3 90080000 		.4byte	.LASF136
 1679 03e7 03       		.byte	0x3
 1680 03e8 CC04     		.2byte	0x4cc
 1681 03ea C2030000 		.4byte	0x3c2
 1682 03ee 0D       		.uleb128 0xd
 1683 03ef 02       		.byte	0x2
 1684 03f0 03       		.byte	0x3
 1685 03f1 CF04     		.2byte	0x4cf
 1686 03f3 12040000 		.4byte	0x412
 1687 03f7 0E       		.uleb128 0xe
 1688 03f8 84010000 		.4byte	.LASF137
 1689 03fc 03       		.byte	0x3
ARM GAS  C:\Users\ROUSSMA\AppData\Local\Temp\cc3gA5P4.s 			page 69


 1690 03fd D204     		.2byte	0x4d2
 1691 03ff B6030000 		.4byte	0x3b6
 1692 0403 00       		.byte	0
 1693 0404 0E       		.uleb128 0xe
 1694 0405 76070000 		.4byte	.LASF138
 1695 0409 03       		.byte	0x3
 1696 040a D404     		.2byte	0x4d4
 1697 040c E2030000 		.4byte	0x3e2
 1698 0410 01       		.byte	0x1
 1699 0411 00       		.byte	0
 1700 0412 04       		.uleb128 0x4
 1701 0413 A5220000 		.4byte	.LASF139
 1702 0417 03       		.byte	0x3
 1703 0418 D504     		.2byte	0x4d5
 1704 041a EE030000 		.4byte	0x3ee
 1705 041e 0A       		.uleb128 0xa
 1706 041f 01       		.byte	0x1
 1707 0420 2C000000 		.4byte	0x2c
 1708 0424 03       		.byte	0x3
 1709 0425 FF04     		.2byte	0x4ff
 1710 0427 38040000 		.4byte	0x438
 1711 042b 0B       		.uleb128 0xb
 1712 042c E61A0000 		.4byte	.LASF140
 1713 0430 00       		.byte	0
 1714 0431 0B       		.uleb128 0xb
 1715 0432 2F110000 		.4byte	.LASF141
 1716 0436 01       		.byte	0x1
 1717 0437 00       		.byte	0
 1718 0438 04       		.uleb128 0x4
 1719 0439 F8220000 		.4byte	.LASF142
 1720 043d 03       		.byte	0x3
 1721 043e 0605     		.2byte	0x506
 1722 0440 1E040000 		.4byte	0x41e
 1723 0444 0D       		.uleb128 0xd
 1724 0445 08       		.byte	0x8
 1725 0446 03       		.byte	0x3
 1726 0447 0905     		.2byte	0x509
 1727 0449 75040000 		.4byte	0x475
 1728 044d 0E       		.uleb128 0xe
 1729 044e 92000000 		.4byte	.LASF143
 1730 0452 03       		.byte	0x3
 1731 0453 0C05     		.2byte	0x50c
 1732 0455 38040000 		.4byte	0x438
 1733 0459 00       		.byte	0
 1734 045a 0E       		.uleb128 0xe
 1735 045b 17100000 		.4byte	.LASF144
 1736 045f 03       		.byte	0x3
 1737 0460 1105     		.2byte	0x511
 1738 0462 6B000000 		.4byte	0x6b
 1739 0466 01       		.byte	0x1
 1740 0467 0E       		.uleb128 0xe
 1741 0468 220A0000 		.4byte	.LASF145
 1742 046c 03       		.byte	0x3
 1743 046d 1905     		.2byte	0x519
 1744 046f B7000000 		.4byte	0xb7
 1745 0473 04       		.byte	0x4
 1746 0474 00       		.byte	0
ARM GAS  C:\Users\ROUSSMA\AppData\Local\Temp\cc3gA5P4.s 			page 70


 1747 0475 04       		.uleb128 0x4
 1748 0476 15140000 		.4byte	.LASF146
 1749 047a 03       		.byte	0x3
 1750 047b 1B05     		.2byte	0x51b
 1751 047d 44040000 		.4byte	0x444
 1752 0481 0D       		.uleb128 0xd
 1753 0482 07       		.byte	0x7
 1754 0483 03       		.byte	0x3
 1755 0484 3F05     		.2byte	0x53f
 1756 0486 A5040000 		.4byte	0x4a5
 1757 048a 0E       		.uleb128 0xe
 1758 048b D3200000 		.4byte	.LASF147
 1759 048f 03       		.byte	0x3
 1760 0490 4205     		.2byte	0x542
 1761 0492 A5040000 		.4byte	0x4a5
 1762 0496 00       		.byte	0
 1763 0497 0E       		.uleb128 0xe
 1764 0498 E7020000 		.4byte	.LASF148
 1765 049c 03       		.byte	0x3
 1766 049d 4405     		.2byte	0x544
 1767 049f 6B000000 		.4byte	0x6b
 1768 04a3 06       		.byte	0x6
 1769 04a4 00       		.byte	0
 1770 04a5 0F       		.uleb128 0xf
 1771 04a6 6B000000 		.4byte	0x6b
 1772 04aa B5040000 		.4byte	0x4b5
 1773 04ae 10       		.uleb128 0x10
 1774 04af B0000000 		.4byte	0xb0
 1775 04b3 05       		.byte	0x5
 1776 04b4 00       		.byte	0
 1777 04b5 04       		.uleb128 0x4
 1778 04b6 D21C0000 		.4byte	.LASF149
 1779 04ba 03       		.byte	0x3
 1780 04bb 4505     		.2byte	0x545
 1781 04bd 81040000 		.4byte	0x481
 1782 04c1 07       		.uleb128 0x7
 1783 04c2 04       		.byte	0x4
 1784 04c3 6B000000 		.4byte	0x6b
 1785 04c7 11       		.uleb128 0x11
 1786 04c8 01       		.byte	0x1
 1787 04c9 2C000000 		.4byte	0x2c
 1788 04cd 04       		.byte	0x4
 1789 04ce 2F       		.byte	0x2f
 1790 04cf EC040000 		.4byte	0x4ec
 1791 04d3 0B       		.uleb128 0xb
 1792 04d4 FF1C0000 		.4byte	.LASF150
 1793 04d8 01       		.byte	0x1
 1794 04d9 0B       		.uleb128 0xb
 1795 04da 931C0000 		.4byte	.LASF151
 1796 04de 02       		.byte	0x2
 1797 04df 0B       		.uleb128 0xb
 1798 04e0 4D240000 		.4byte	.LASF152
 1799 04e4 03       		.byte	0x3
 1800 04e5 0B       		.uleb128 0xb
 1801 04e6 731D0000 		.4byte	.LASF153
 1802 04ea 04       		.byte	0x4
 1803 04eb 00       		.byte	0
ARM GAS  C:\Users\ROUSSMA\AppData\Local\Temp\cc3gA5P4.s 			page 71


 1804 04ec 12       		.uleb128 0x12
 1805 04ed EC020000 		.4byte	.LASF154
 1806 04f1 04       		.byte	0x4
 1807 04f2 3C       		.byte	0x3c
 1808 04f3 C7040000 		.4byte	0x4c7
 1809 04f7 0A       		.uleb128 0xa
 1810 04f8 01       		.byte	0x1
 1811 04f9 2C000000 		.4byte	0x2c
 1812 04fd 05       		.byte	0x5
 1813 04fe 0801     		.2byte	0x108
 1814 0500 23050000 		.4byte	0x523
 1815 0504 0B       		.uleb128 0xb
 1816 0505 04060000 		.4byte	.LASF155
 1817 0509 00       		.byte	0
 1818 050a 0B       		.uleb128 0xb
 1819 050b 1A060000 		.4byte	.LASF156
 1820 050f 01       		.byte	0x1
 1821 0510 0B       		.uleb128 0xb
 1822 0511 30060000 		.4byte	.LASF157
 1823 0515 02       		.byte	0x2
 1824 0516 0B       		.uleb128 0xb
 1825 0517 46060000 		.4byte	.LASF158
 1826 051b 03       		.byte	0x3
 1827 051c 0B       		.uleb128 0xb
 1828 051d A50C0000 		.4byte	.LASF159
 1829 0521 0F       		.byte	0xf
 1830 0522 00       		.byte	0
 1831 0523 0A       		.uleb128 0xa
 1832 0524 01       		.byte	0x1
 1833 0525 2C000000 		.4byte	0x2c
 1834 0529 05       		.byte	0x5
 1835 052a 2701     		.2byte	0x127
 1836 052c 4F050000 		.4byte	0x54f
 1837 0530 0B       		.uleb128 0xb
 1838 0531 24040000 		.4byte	.LASF160
 1839 0535 00       		.byte	0
 1840 0536 0B       		.uleb128 0xb
 1841 0537 46220000 		.4byte	.LASF161
 1842 053b 01       		.byte	0x1
 1843 053c 0B       		.uleb128 0xb
 1844 053d 260B0000 		.4byte	.LASF162
 1845 0541 02       		.byte	0x2
 1846 0542 0B       		.uleb128 0xb
 1847 0543 17010000 		.4byte	.LASF163
 1848 0547 03       		.byte	0x3
 1849 0548 0B       		.uleb128 0xb
 1850 0549 821F0000 		.4byte	.LASF164
 1851 054d 04       		.byte	0x4
 1852 054e 00       		.byte	0
 1853 054f 0A       		.uleb128 0xa
 1854 0550 01       		.byte	0x1
 1855 0551 2C000000 		.4byte	0x2c
 1856 0555 05       		.byte	0x5
 1857 0556 3D01     		.2byte	0x13d
 1858 0558 C9050000 		.4byte	0x5c9
 1859 055c 0B       		.uleb128 0xb
 1860 055d 0B1A0000 		.4byte	.LASF165
ARM GAS  C:\Users\ROUSSMA\AppData\Local\Temp\cc3gA5P4.s 			page 72


 1861 0561 00       		.byte	0
 1862 0562 0B       		.uleb128 0xb
 1863 0563 FA040000 		.4byte	.LASF166
 1864 0567 01       		.byte	0x1
 1865 0568 0B       		.uleb128 0xb
 1866 0569 851A0000 		.4byte	.LASF167
 1867 056d 02       		.byte	0x2
 1868 056e 0B       		.uleb128 0xb
 1869 056f 70110000 		.4byte	.LASF168
 1870 0573 03       		.byte	0x3
 1871 0574 0B       		.uleb128 0xb
 1872 0575 07070000 		.4byte	.LASF169
 1873 0579 04       		.byte	0x4
 1874 057a 0B       		.uleb128 0xb
 1875 057b 481D0000 		.4byte	.LASF170
 1876 057f 05       		.byte	0x5
 1877 0580 0B       		.uleb128 0xb
 1878 0581 B0130000 		.4byte	.LASF171
 1879 0585 06       		.byte	0x6
 1880 0586 0B       		.uleb128 0xb
 1881 0587 45110000 		.4byte	.LASF172
 1882 058b 07       		.byte	0x7
 1883 058c 0B       		.uleb128 0xb
 1884 058d 63030000 		.4byte	.LASF173
 1885 0591 08       		.byte	0x8
 1886 0592 0B       		.uleb128 0xb
 1887 0593 8F120000 		.4byte	.LASF174
 1888 0597 09       		.byte	0x9
 1889 0598 0B       		.uleb128 0xb
 1890 0599 FA090000 		.4byte	.LASF175
 1891 059d 0A       		.byte	0xa
 1892 059e 0B       		.uleb128 0xb
 1893 059f 3B130000 		.4byte	.LASF176
 1894 05a3 0B       		.byte	0xb
 1895 05a4 0B       		.uleb128 0xb
 1896 05a5 17220000 		.4byte	.LASF177
 1897 05a9 0C       		.byte	0xc
 1898 05aa 0B       		.uleb128 0xb
 1899 05ab B90D0000 		.4byte	.LASF178
 1900 05af 0D       		.byte	0xd
 1901 05b0 0B       		.uleb128 0xb
 1902 05b1 00090000 		.4byte	.LASF179
 1903 05b5 0E       		.byte	0xe
 1904 05b6 0B       		.uleb128 0xb
 1905 05b7 9A000000 		.4byte	.LASF180
 1906 05bb 0F       		.byte	0xf
 1907 05bc 0B       		.uleb128 0xb
 1908 05bd 37030000 		.4byte	.LASF181
 1909 05c1 15       		.byte	0x15
 1910 05c2 0B       		.uleb128 0xb
 1911 05c3 D80E0000 		.4byte	.LASF182
 1912 05c7 18       		.byte	0x18
 1913 05c8 00       		.byte	0
 1914 05c9 04       		.uleb128 0x4
 1915 05ca 29180000 		.4byte	.LASF183
 1916 05ce 05       		.byte	0x5
 1917 05cf 7D01     		.2byte	0x17d
ARM GAS  C:\Users\ROUSSMA\AppData\Local\Temp\cc3gA5P4.s 			page 73


 1918 05d1 4F050000 		.4byte	0x54f
 1919 05d5 0A       		.uleb128 0xa
 1920 05d6 01       		.byte	0x1
 1921 05d7 2C000000 		.4byte	0x2c
 1922 05db 05       		.byte	0x5
 1923 05dc A801     		.2byte	0x1a8
 1924 05de FB050000 		.4byte	0x5fb
 1925 05e2 0B       		.uleb128 0xb
 1926 05e3 95130000 		.4byte	.LASF184
 1927 05e7 00       		.byte	0
 1928 05e8 0B       		.uleb128 0xb
 1929 05e9 DE050000 		.4byte	.LASF185
 1930 05ed 01       		.byte	0x1
 1931 05ee 0B       		.uleb128 0xb
 1932 05ef 770A0000 		.4byte	.LASF186
 1933 05f3 02       		.byte	0x2
 1934 05f4 0B       		.uleb128 0xb
 1935 05f5 E00C0000 		.4byte	.LASF187
 1936 05f9 03       		.byte	0x3
 1937 05fa 00       		.byte	0
 1938 05fb 04       		.uleb128 0x4
 1939 05fc 80230000 		.4byte	.LASF188
 1940 0600 05       		.byte	0x5
 1941 0601 B501     		.2byte	0x1b5
 1942 0603 D5050000 		.4byte	0x5d5
 1943 0607 0D       		.uleb128 0xd
 1944 0608 05       		.byte	0x5
 1945 0609 05       		.byte	0x5
 1946 060a C601     		.2byte	0x1c6
 1947 060c 52060000 		.4byte	0x652
 1948 0610 0E       		.uleb128 0xe
 1949 0611 2C140000 		.4byte	.LASF189
 1950 0615 05       		.byte	0x5
 1951 0616 D001     		.2byte	0x1d0
 1952 0618 6B000000 		.4byte	0x6b
 1953 061c 00       		.byte	0
 1954 061d 0E       		.uleb128 0xe
 1955 061e 75160000 		.4byte	.LASF190
 1956 0622 05       		.byte	0x5
 1957 0623 D601     		.2byte	0x1d6
 1958 0625 6B000000 		.4byte	0x6b
 1959 0629 01       		.byte	0x1
 1960 062a 0E       		.uleb128 0xe
 1961 062b 24000000 		.4byte	.LASF191
 1962 062f 05       		.byte	0x5
 1963 0630 DD01     		.2byte	0x1dd
 1964 0632 6B000000 		.4byte	0x6b
 1965 0636 02       		.byte	0x2
 1966 0637 0E       		.uleb128 0xe
 1967 0638 E71E0000 		.4byte	.LASF192
 1968 063c 05       		.byte	0x5
 1969 063d E101     		.2byte	0x1e1
 1970 063f C9050000 		.4byte	0x5c9
 1971 0643 03       		.byte	0x3
 1972 0644 0E       		.uleb128 0xe
 1973 0645 F01D0000 		.4byte	.LASF193
 1974 0649 05       		.byte	0x5
ARM GAS  C:\Users\ROUSSMA\AppData\Local\Temp\cc3gA5P4.s 			page 74


 1975 064a EB01     		.2byte	0x1eb
 1976 064c 6B000000 		.4byte	0x6b
 1977 0650 04       		.byte	0x4
 1978 0651 00       		.byte	0
 1979 0652 04       		.uleb128 0x4
 1980 0653 100B0000 		.4byte	.LASF194
 1981 0657 05       		.byte	0x5
 1982 0658 ED01     		.2byte	0x1ed
 1983 065a 07060000 		.4byte	0x607
 1984 065e 0D       		.uleb128 0xd
 1985 065f 08       		.byte	0x8
 1986 0660 05       		.byte	0x5
 1987 0661 7203     		.2byte	0x372
 1988 0663 9C060000 		.4byte	0x69c
 1989 0667 0E       		.uleb128 0xe
 1990 0668 DA100000 		.4byte	.LASF195
 1991 066c 05       		.byte	0x5
 1992 066d 7803     		.2byte	0x378
 1993 066f 6B000000 		.4byte	0x6b
 1994 0673 00       		.byte	0
 1995 0674 0E       		.uleb128 0xe
 1996 0675 38230000 		.4byte	.LASF196
 1997 0679 05       		.byte	0x5
 1998 067a 7E03     		.2byte	0x37e
 1999 067c 77000000 		.4byte	0x77
 2000 0680 02       		.byte	0x2
 2001 0681 0E       		.uleb128 0xe
 2002 0682 0B220000 		.4byte	.LASF197
 2003 0686 05       		.byte	0x5
 2004 0687 8303     		.2byte	0x383
 2005 0689 77000000 		.4byte	0x77
 2006 068d 04       		.byte	0x4
 2007 068e 0E       		.uleb128 0xe
 2008 068f 3F240000 		.4byte	.LASF198
 2009 0693 05       		.byte	0x5
 2010 0694 8903     		.2byte	0x389
 2011 0696 77000000 		.4byte	0x77
 2012 069a 06       		.byte	0x6
 2013 069b 00       		.byte	0
 2014 069c 04       		.uleb128 0x4
 2015 069d 031B0000 		.4byte	.LASF199
 2016 06a1 05       		.byte	0x5
 2017 06a2 8B03     		.2byte	0x38b
 2018 06a4 5E060000 		.4byte	0x65e
 2019 06a8 0D       		.uleb128 0xd
 2020 06a9 1C       		.byte	0x1c
 2021 06aa 05       		.byte	0x5
 2022 06ab 2304     		.2byte	0x423
 2023 06ad 34070000 		.4byte	0x734
 2024 06b1 0E       		.uleb128 0xe
 2025 06b2 38230000 		.4byte	.LASF196
 2026 06b6 05       		.byte	0x5
 2027 06b7 2904     		.2byte	0x429
 2028 06b9 77000000 		.4byte	0x77
 2029 06bd 00       		.byte	0
 2030 06be 0E       		.uleb128 0xe
 2031 06bf 0B220000 		.4byte	.LASF197
ARM GAS  C:\Users\ROUSSMA\AppData\Local\Temp\cc3gA5P4.s 			page 75


 2032 06c3 05       		.byte	0x5
 2033 06c4 2E04     		.2byte	0x42e
 2034 06c6 77000000 		.4byte	0x77
 2035 06ca 02       		.byte	0x2
 2036 06cb 0E       		.uleb128 0xe
 2037 06cc A6240000 		.4byte	.LASF200
 2038 06d0 05       		.byte	0x5
 2039 06d1 3404     		.2byte	0x434
 2040 06d3 77000000 		.4byte	0x77
 2041 06d7 04       		.byte	0x4
 2042 06d8 0E       		.uleb128 0xe
 2043 06d9 AC080000 		.4byte	.LASF201
 2044 06dd 05       		.byte	0x5
 2045 06de 3704     		.2byte	0x437
 2046 06e0 C1040000 		.4byte	0x4c1
 2047 06e4 08       		.byte	0x8
 2048 06e5 0E       		.uleb128 0xe
 2049 06e6 52170000 		.4byte	.LASF202
 2050 06ea 05       		.byte	0x5
 2051 06eb 3A04     		.2byte	0x43a
 2052 06ed FB050000 		.4byte	0x5fb
 2053 06f1 0C       		.byte	0xc
 2054 06f2 0E       		.uleb128 0xe
 2055 06f3 48050000 		.4byte	.LASF203
 2056 06f7 05       		.byte	0x5
 2057 06f8 4404     		.2byte	0x444
 2058 06fa C1040000 		.4byte	0x4c1
 2059 06fe 10       		.byte	0x10
 2060 06ff 0E       		.uleb128 0xe
 2061 0700 A31B0000 		.4byte	.LASF204
 2062 0704 05       		.byte	0x5
 2063 0705 4D04     		.2byte	0x44d
 2064 0707 C1040000 		.4byte	0x4c1
 2065 070b 14       		.byte	0x14
 2066 070c 0E       		.uleb128 0xe
 2067 070d 7B230000 		.4byte	.LASF205
 2068 0711 05       		.byte	0x5
 2069 0712 5304     		.2byte	0x453
 2070 0714 6B000000 		.4byte	0x6b
 2071 0718 18       		.byte	0x18
 2072 0719 0E       		.uleb128 0xe
 2073 071a 110F0000 		.4byte	.LASF206
 2074 071e 05       		.byte	0x5
 2075 071f 5F04     		.2byte	0x45f
 2076 0721 6B000000 		.4byte	0x6b
 2077 0725 19       		.byte	0x19
 2078 0726 0E       		.uleb128 0xe
 2079 0727 DA100000 		.4byte	.LASF195
 2080 072b 05       		.byte	0x5
 2081 072c 6604     		.2byte	0x466
 2082 072e 6B000000 		.4byte	0x6b
 2083 0732 1A       		.byte	0x1a
 2084 0733 00       		.byte	0
 2085 0734 04       		.uleb128 0x4
 2086 0735 B7080000 		.4byte	.LASF207
 2087 0739 05       		.byte	0x5
 2088 073a 6804     		.2byte	0x468
ARM GAS  C:\Users\ROUSSMA\AppData\Local\Temp\cc3gA5P4.s 			page 76


 2089 073c A8060000 		.4byte	0x6a8
 2090 0740 11       		.uleb128 0x11
 2091 0741 01       		.byte	0x1
 2092 0742 2C000000 		.4byte	0x2c
 2093 0746 06       		.byte	0x6
 2094 0747 49       		.byte	0x49
 2095 0748 FB070000 		.4byte	0x7fb
 2096 074c 0B       		.uleb128 0xb
 2097 074d 420D0000 		.4byte	.LASF208
 2098 0751 01       		.byte	0x1
 2099 0752 0B       		.uleb128 0xb
 2100 0753 B50B0000 		.4byte	.LASF209
 2101 0757 02       		.byte	0x2
 2102 0758 0B       		.uleb128 0xb
 2103 0759 7B050000 		.4byte	.LASF210
 2104 075d 03       		.byte	0x3
 2105 075e 0B       		.uleb128 0xb
 2106 075f 3C080000 		.4byte	.LASF211
 2107 0763 04       		.byte	0x4
 2108 0764 0B       		.uleb128 0xb
 2109 0765 6C1A0000 		.4byte	.LASF212
 2110 0769 05       		.byte	0x5
 2111 076a 0B       		.uleb128 0xb
 2112 076b A0190000 		.4byte	.LASF213
 2113 076f 06       		.byte	0x6
 2114 0770 0B       		.uleb128 0xb
 2115 0771 5C060000 		.4byte	.LASF214
 2116 0775 07       		.byte	0x7
 2117 0776 0B       		.uleb128 0xb
 2118 0777 26190000 		.4byte	.LASF215
 2119 077b 08       		.byte	0x8
 2120 077c 0B       		.uleb128 0xb
 2121 077d 8B030000 		.4byte	.LASF216
 2122 0781 09       		.byte	0x9
 2123 0782 0B       		.uleb128 0xb
 2124 0783 C6100000 		.4byte	.LASF217
 2125 0787 0A       		.byte	0xa
 2126 0788 0B       		.uleb128 0xb
 2127 0789 17210000 		.4byte	.LASF218
 2128 078d 0B       		.byte	0xb
 2129 078e 0B       		.uleb128 0xb
 2130 078f E61C0000 		.4byte	.LASF219
 2131 0793 0C       		.byte	0xc
 2132 0794 0B       		.uleb128 0xb
 2133 0795 AE070000 		.4byte	.LASF220
 2134 0799 0D       		.byte	0xd
 2135 079a 0B       		.uleb128 0xb
 2136 079b D2180000 		.4byte	.LASF221
 2137 079f 0E       		.byte	0xe
 2138 07a0 0B       		.uleb128 0xb
 2139 07a1 CA020000 		.4byte	.LASF222
 2140 07a5 0F       		.byte	0xf
 2141 07a6 0B       		.uleb128 0xb
 2142 07a7 CB230000 		.4byte	.LASF223
 2143 07ab 10       		.byte	0x10
 2144 07ac 0B       		.uleb128 0xb
 2145 07ad 38100000 		.4byte	.LASF224
ARM GAS  C:\Users\ROUSSMA\AppData\Local\Temp\cc3gA5P4.s 			page 77


 2146 07b1 11       		.byte	0x11
 2147 07b2 0B       		.uleb128 0xb
 2148 07b3 C81E0000 		.4byte	.LASF225
 2149 07b7 12       		.byte	0x12
 2150 07b8 0B       		.uleb128 0xb
 2151 07b9 DC0A0000 		.4byte	.LASF226
 2152 07bd 13       		.byte	0x13
 2153 07be 0B       		.uleb128 0xb
 2154 07bf 53010000 		.4byte	.LASF227
 2155 07c3 52       		.byte	0x52
 2156 07c4 0B       		.uleb128 0xb
 2157 07c5 DC010000 		.4byte	.LASF228
 2158 07c9 16       		.byte	0x16
 2159 07ca 0B       		.uleb128 0xb
 2160 07cb 90170000 		.4byte	.LASF229
 2161 07cf 17       		.byte	0x17
 2162 07d0 0B       		.uleb128 0xb
 2163 07d1 88220000 		.4byte	.LASF230
 2164 07d5 18       		.byte	0x18
 2165 07d6 0B       		.uleb128 0xb
 2166 07d7 850E0000 		.4byte	.LASF231
 2167 07db 19       		.byte	0x19
 2168 07dc 0B       		.uleb128 0xb
 2169 07dd A0110000 		.4byte	.LASF232
 2170 07e1 1B       		.byte	0x1b
 2171 07e2 0B       		.uleb128 0xb
 2172 07e3 95090000 		.4byte	.LASF233
 2173 07e7 1D       		.byte	0x1d
 2174 07e8 0B       		.uleb128 0xb
 2175 07e9 2D000000 		.4byte	.LASF234
 2176 07ed 1E       		.byte	0x1e
 2177 07ee 0B       		.uleb128 0xb
 2178 07ef 3E0E0000 		.4byte	.LASF235
 2179 07f3 D2       		.byte	0xd2
 2180 07f4 0B       		.uleb128 0xb
 2181 07f5 B91B0000 		.4byte	.LASF236
 2182 07f9 FF       		.byte	0xff
 2183 07fa 00       		.byte	0
 2184 07fb 11       		.uleb128 0x11
 2185 07fc 01       		.byte	0x1
 2186 07fd 2C000000 		.4byte	0x2c
 2187 0801 06       		.byte	0x6
 2188 0802 A5       		.byte	0xa5
 2189 0803 F2080000 		.4byte	0x8f2
 2190 0807 0B       		.uleb128 0xb
 2191 0808 391C0000 		.4byte	.LASF237
 2192 080c 00       		.byte	0
 2193 080d 0B       		.uleb128 0xb
 2194 080e 471B0000 		.4byte	.LASF238
 2195 0812 01       		.byte	0x1
 2196 0813 0B       		.uleb128 0xb
 2197 0814 95010000 		.4byte	.LASF239
 2198 0818 02       		.byte	0x2
 2199 0819 0B       		.uleb128 0xb
 2200 081a 15230000 		.4byte	.LASF240
 2201 081e 03       		.byte	0x3
 2202 081f 0B       		.uleb128 0xb
ARM GAS  C:\Users\ROUSSMA\AppData\Local\Temp\cc3gA5P4.s 			page 78


 2203 0820 EC060000 		.4byte	.LASF241
 2204 0824 04       		.byte	0x4
 2205 0825 0B       		.uleb128 0xb
 2206 0826 C7160000 		.4byte	.LASF242
 2207 082a 05       		.byte	0x5
 2208 082b 0B       		.uleb128 0xb
 2209 082c 431F0000 		.4byte	.LASF243
 2210 0830 06       		.byte	0x6
 2211 0831 0B       		.uleb128 0xb
 2212 0832 08190000 		.4byte	.LASF244
 2213 0836 07       		.byte	0x7
 2214 0837 0B       		.uleb128 0xb
 2215 0838 40160000 		.4byte	.LASF245
 2216 083c 08       		.byte	0x8
 2217 083d 0B       		.uleb128 0xb
 2218 083e 35140000 		.4byte	.LASF246
 2219 0842 09       		.byte	0x9
 2220 0843 0B       		.uleb128 0xb
 2221 0844 BE170000 		.4byte	.LASF247
 2222 0848 0A       		.byte	0xa
 2223 0849 0B       		.uleb128 0xb
 2224 084a 830C0000 		.4byte	.LASF248
 2225 084e 0B       		.byte	0xb
 2226 084f 0B       		.uleb128 0xb
 2227 0850 E7140000 		.4byte	.LASF249
 2228 0854 0C       		.byte	0xc
 2229 0855 0B       		.uleb128 0xb
 2230 0856 C7070000 		.4byte	.LASF250
 2231 085a 0D       		.byte	0xd
 2232 085b 0B       		.uleb128 0xb
 2233 085c 760B0000 		.4byte	.LASF251
 2234 0860 0E       		.byte	0xe
 2235 0861 0B       		.uleb128 0xb
 2236 0862 54230000 		.4byte	.LASF252
 2237 0866 0F       		.byte	0xf
 2238 0867 0B       		.uleb128 0xb
 2239 0868 F9010000 		.4byte	.LASF253
 2240 086c 10       		.byte	0x10
 2241 086d 0B       		.uleb128 0xb
 2242 086e B7010000 		.4byte	.LASF254
 2243 0872 11       		.byte	0x11
 2244 0873 0B       		.uleb128 0xb
 2245 0874 03030000 		.4byte	.LASF255
 2246 0878 80       		.byte	0x80
 2247 0879 0B       		.uleb128 0xb
 2248 087a 4D0C0000 		.4byte	.LASF256
 2249 087e 80       		.byte	0x80
 2250 087f 0B       		.uleb128 0xb
 2251 0880 B30F0000 		.4byte	.LASF257
 2252 0884 80       		.byte	0x80
 2253 0885 0B       		.uleb128 0xb
 2254 0886 0C1F0000 		.4byte	.LASF258
 2255 088a 80       		.byte	0x80
 2256 088b 0B       		.uleb128 0xb
 2257 088c A51C0000 		.4byte	.LASF259
 2258 0890 80       		.byte	0x80
 2259 0891 0B       		.uleb128 0xb
ARM GAS  C:\Users\ROUSSMA\AppData\Local\Temp\cc3gA5P4.s 			page 79


 2260 0892 24170000 		.4byte	.LASF260
 2261 0896 80       		.byte	0x80
 2262 0897 0B       		.uleb128 0xb
 2263 0898 78100000 		.4byte	.LASF261
 2264 089c 80       		.byte	0x80
 2265 089d 0B       		.uleb128 0xb
 2266 089e 5B0B0000 		.4byte	.LASF262
 2267 08a2 80       		.byte	0x80
 2268 08a3 0B       		.uleb128 0xb
 2269 08a4 5A0E0000 		.4byte	.LASF263
 2270 08a8 81       		.byte	0x81
 2271 08a9 0B       		.uleb128 0xb
 2272 08aa C31D0000 		.4byte	.LASF264
 2273 08ae 81       		.byte	0x81
 2274 08af 0B       		.uleb128 0xb
 2275 08b0 00000000 		.4byte	.LASF265
 2276 08b4 81       		.byte	0x81
 2277 08b5 0B       		.uleb128 0xb
 2278 08b6 C8060000 		.4byte	.LASF266
 2279 08ba 81       		.byte	0x81
 2280 08bb 0B       		.uleb128 0xb
 2281 08bc D4040000 		.4byte	.LASF267
 2282 08c0 82       		.byte	0x82
 2283 08c1 0B       		.uleb128 0xb
 2284 08c2 DA200000 		.4byte	.LASF268
 2285 08c6 A0       		.byte	0xa0
 2286 08c7 0B       		.uleb128 0xb
 2287 08c8 E5110000 		.4byte	.LASF269
 2288 08cc A0       		.byte	0xa0
 2289 08cd 0B       		.uleb128 0xb
 2290 08ce 24050000 		.4byte	.LASF270
 2291 08d2 A1       		.byte	0xa1
 2292 08d3 0B       		.uleb128 0xb
 2293 08d4 28200000 		.4byte	.LASF271
 2294 08d8 A2       		.byte	0xa2
 2295 08d9 0B       		.uleb128 0xb
 2296 08da 040D0000 		.4byte	.LASF272
 2297 08de A3       		.byte	0xa3
 2298 08df 0B       		.uleb128 0xb
 2299 08e0 C3000000 		.4byte	.LASF273
 2300 08e4 FD       		.byte	0xfd
 2301 08e5 0B       		.uleb128 0xb
 2302 08e6 3A150000 		.4byte	.LASF274
 2303 08ea FE       		.byte	0xfe
 2304 08eb 0B       		.uleb128 0xb
 2305 08ec 60190000 		.4byte	.LASF275
 2306 08f0 FF       		.byte	0xff
 2307 08f1 00       		.byte	0
 2308 08f2 04       		.uleb128 0x4
 2309 08f3 12200000 		.4byte	.LASF276
 2310 08f7 06       		.byte	0x6
 2311 08f8 5F01     		.2byte	0x15f
 2312 08fa FB070000 		.4byte	0x7fb
 2313 08fe 04       		.uleb128 0x4
 2314 08ff EE1B0000 		.4byte	.LASF277
 2315 0903 06       		.byte	0x6
 2316 0904 8901     		.2byte	0x189
ARM GAS  C:\Users\ROUSSMA\AppData\Local\Temp\cc3gA5P4.s 			page 80


 2317 0906 77000000 		.4byte	0x77
 2318 090a 0D       		.uleb128 0xd
 2319 090b 02       		.byte	0x2
 2320 090c 06       		.byte	0x6
 2321 090d 9301     		.2byte	0x193
 2322 090f 2E090000 		.4byte	0x92e
 2323 0913 0E       		.uleb128 0xe
 2324 0914 CB040000 		.4byte	.LASF278
 2325 0918 06       		.byte	0x6
 2326 0919 9A01     		.2byte	0x19a
 2327 091b 6B000000 		.4byte	0x6b
 2328 091f 00       		.byte	0
 2329 0920 0E       		.uleb128 0xe
 2330 0921 E8230000 		.4byte	.LASF279
 2331 0925 06       		.byte	0x6
 2332 0926 A001     		.2byte	0x1a0
 2333 0928 6B000000 		.4byte	0x6b
 2334 092c 01       		.byte	0x1
 2335 092d 00       		.byte	0
 2336 092e 04       		.uleb128 0x4
 2337 092f F0030000 		.4byte	.LASF280
 2338 0933 06       		.byte	0x6
 2339 0934 A201     		.2byte	0x1a2
 2340 0936 0A090000 		.4byte	0x90a
 2341 093a 0D       		.uleb128 0xd
 2342 093b 08       		.byte	0x8
 2343 093c 06       		.byte	0x6
 2344 093d BE01     		.2byte	0x1be
 2345 093f 6B090000 		.4byte	0x96b
 2346 0943 13       		.uleb128 0x13
 2347 0944 76616C00 		.ascii	"val\000"
 2348 0948 06       		.byte	0x6
 2349 0949 C101     		.2byte	0x1c1
 2350 094b C1040000 		.4byte	0x4c1
 2351 094f 00       		.byte	0
 2352 0950 13       		.uleb128 0x13
 2353 0951 6C656E00 		.ascii	"len\000"
 2354 0955 06       		.byte	0x6
 2355 0956 C401     		.2byte	0x1c4
 2356 0958 77000000 		.4byte	0x77
 2357 095c 04       		.byte	0x4
 2358 095d 0E       		.uleb128 0xe
 2359 095e B0230000 		.4byte	.LASF281
 2360 0962 06       		.byte	0x6
 2361 0963 CB01     		.2byte	0x1cb
 2362 0965 77000000 		.4byte	0x77
 2363 0969 06       		.byte	0x6
 2364 096a 00       		.byte	0
 2365 096b 04       		.uleb128 0x4
 2366 096c B0020000 		.4byte	.LASF282
 2367 0970 06       		.byte	0x6
 2368 0971 CD01     		.2byte	0x1cd
 2369 0973 3A090000 		.4byte	0x93a
 2370 0977 0D       		.uleb128 0xd
 2371 0978 0C       		.byte	0xc
 2372 0979 06       		.byte	0x6
 2373 097a D001     		.2byte	0x1d0
ARM GAS  C:\Users\ROUSSMA\AppData\Local\Temp\cc3gA5P4.s 			page 81


 2374 097c 9B090000 		.4byte	0x99b
 2375 0980 0E       		.uleb128 0xe
 2376 0981 4D1C0000 		.4byte	.LASF283
 2377 0985 06       		.byte	0x6
 2378 0986 D301     		.2byte	0x1d3
 2379 0988 6B090000 		.4byte	0x96b
 2380 098c 00       		.byte	0
 2381 098d 0E       		.uleb128 0xe
 2382 098e 6A160000 		.4byte	.LASF284
 2383 0992 06       		.byte	0x6
 2384 0993 D601     		.2byte	0x1d6
 2385 0995 FE080000 		.4byte	0x8fe
 2386 0999 08       		.byte	0x8
 2387 099a 00       		.byte	0
 2388 099b 04       		.uleb128 0x4
 2389 099c 57070000 		.4byte	.LASF285
 2390 09a0 06       		.byte	0x6
 2391 09a1 D801     		.2byte	0x1d8
 2392 09a3 77090000 		.4byte	0x977
 2393 09a7 0D       		.uleb128 0xd
 2394 09a8 04       		.byte	0x4
 2395 09a9 06       		.byte	0x6
 2396 09aa E601     		.2byte	0x1e6
 2397 09ac CB090000 		.4byte	0x9cb
 2398 09b0 0E       		.uleb128 0xe
 2399 09b1 231D0000 		.4byte	.LASF286
 2400 09b5 06       		.byte	0x6
 2401 09b6 E901     		.2byte	0x1e9
 2402 09b8 2E090000 		.4byte	0x92e
 2403 09bc 00       		.byte	0
 2404 09bd 13       		.uleb128 0x13
 2405 09be 6D747500 		.ascii	"mtu\000"
 2406 09c2 06       		.byte	0x6
 2407 09c3 EC01     		.2byte	0x1ec
 2408 09c5 77000000 		.4byte	0x77
 2409 09c9 02       		.byte	0x2
 2410 09ca 00       		.byte	0
 2411 09cb 04       		.uleb128 0x4
 2412 09cc F2160000 		.4byte	.LASF287
 2413 09d0 06       		.byte	0x6
 2414 09d1 EE01     		.2byte	0x1ee
 2415 09d3 A7090000 		.4byte	0x9a7
 2416 09d7 0D       		.uleb128 0xd
 2417 09d8 08       		.byte	0x8
 2418 09d9 06       		.byte	0x6
 2419 09da FC01     		.2byte	0x1fc
 2420 09dc 080A0000 		.4byte	0xa08
 2421 09e0 0E       		.uleb128 0xe
 2422 09e1 421A0000 		.4byte	.LASF288
 2423 09e5 06       		.byte	0x6
 2424 09e6 0102     		.2byte	0x201
 2425 09e8 C1040000 		.4byte	0x4c1
 2426 09ec 00       		.byte	0
 2427 09ed 0E       		.uleb128 0xe
 2428 09ee 531C0000 		.4byte	.LASF289
 2429 09f2 06       		.byte	0x6
 2430 09f3 0602     		.2byte	0x206
ARM GAS  C:\Users\ROUSSMA\AppData\Local\Temp\cc3gA5P4.s 			page 82


 2431 09f5 77000000 		.4byte	0x77
 2432 09f9 04       		.byte	0x4
 2433 09fa 0E       		.uleb128 0xe
 2434 09fb 0E0E0000 		.4byte	.LASF290
 2435 09ff 06       		.byte	0x6
 2436 0a00 0D02     		.2byte	0x20d
 2437 0a02 77000000 		.4byte	0x77
 2438 0a06 06       		.byte	0x6
 2439 0a07 00       		.byte	0
 2440 0a08 04       		.uleb128 0x4
 2441 0a09 09120000 		.4byte	.LASF291
 2442 0a0d 06       		.byte	0x6
 2443 0a0e 0F02     		.2byte	0x20f
 2444 0a10 D7090000 		.4byte	0x9d7
 2445 0a14 14       		.uleb128 0x14
 2446 0a15 04       		.byte	0x4
 2447 0a16 07       		.byte	0x7
 2448 0a17 3A       		.byte	0x3a
 2449 0a18 410A0000 		.4byte	0xa41
 2450 0a1c 15       		.uleb128 0x15
 2451 0a1d 6A160000 		.4byte	.LASF284
 2452 0a21 07       		.byte	0x7
 2453 0a22 3D       		.byte	0x3d
 2454 0a23 FE080000 		.4byte	0x8fe
 2455 0a27 00       		.byte	0
 2456 0a28 15       		.uleb128 0x15
 2457 0a29 39160000 		.4byte	.LASF292
 2458 0a2d 07       		.byte	0x7
 2459 0a2e 43       		.byte	0x43
 2460 0a2f 6B000000 		.4byte	0x6b
 2461 0a33 02       		.byte	0x2
 2462 0a34 15       		.uleb128 0x15
 2463 0a35 F0090000 		.4byte	.LASF293
 2464 0a39 07       		.byte	0x7
 2465 0a3a 46       		.byte	0x46
 2466 0a3b F2080000 		.4byte	0x8f2
 2467 0a3f 03       		.byte	0x3
 2468 0a40 00       		.byte	0
 2469 0a41 12       		.uleb128 0x12
 2470 0a42 51090000 		.4byte	.LASF294
 2471 0a46 07       		.byte	0x7
 2472 0a47 48       		.byte	0x48
 2473 0a48 140A0000 		.4byte	0xa14
 2474 0a4c 14       		.uleb128 0x14
 2475 0a4d 10       		.byte	0x10
 2476 0a4e 07       		.byte	0x7
 2477 0a4f 8A       		.byte	0x8a
 2478 0a50 6D0A0000 		.4byte	0xa6d
 2479 0a54 15       		.uleb128 0x15
 2480 0a55 231D0000 		.4byte	.LASF286
 2481 0a59 07       		.byte	0x7
 2482 0a5a 8D       		.byte	0x8d
 2483 0a5b 2E090000 		.4byte	0x92e
 2484 0a5f 00       		.byte	0
 2485 0a60 15       		.uleb128 0x15
 2486 0a61 151D0000 		.4byte	.LASF295
 2487 0a65 07       		.byte	0x7
ARM GAS  C:\Users\ROUSSMA\AppData\Local\Temp\cc3gA5P4.s 			page 83


 2488 0a66 90       		.byte	0x90
 2489 0a67 9B090000 		.4byte	0x99b
 2490 0a6b 04       		.byte	0x4
 2491 0a6c 00       		.byte	0
 2492 0a6d 12       		.uleb128 0x12
 2493 0a6e 7D160000 		.4byte	.LASF296
 2494 0a72 07       		.byte	0x7
 2495 0a73 92       		.byte	0x92
 2496 0a74 4C0A0000 		.4byte	0xa4c
 2497 0a78 04       		.uleb128 0x4
 2498 0a79 A7030000 		.4byte	.LASF297
 2499 0a7d 08       		.byte	0x8
 2500 0a7e 0302     		.2byte	0x203
 2501 0a80 B9000000 		.4byte	0xb9
 2502 0a84 0A       		.uleb128 0xa
 2503 0a85 01       		.byte	0x1
 2504 0a86 2C000000 		.4byte	0x2c
 2505 0a8a 09       		.byte	0x9
 2506 0a8b 5008     		.2byte	0x850
 2507 0a8d B00A0000 		.4byte	0xab0
 2508 0a91 0B       		.uleb128 0xb
 2509 0a92 3D090000 		.4byte	.LASF298
 2510 0a96 00       		.byte	0
 2511 0a97 0B       		.uleb128 0xb
 2512 0a98 68120000 		.4byte	.LASF299
 2513 0a9c 01       		.byte	0x1
 2514 0a9d 0B       		.uleb128 0xb
 2515 0a9e 9A230000 		.4byte	.LASF300
 2516 0aa2 02       		.byte	0x2
 2517 0aa3 0B       		.uleb128 0xb
 2518 0aa4 8A040000 		.4byte	.LASF301
 2519 0aa8 03       		.byte	0x3
 2520 0aa9 0B       		.uleb128 0xb
 2521 0aaa 1C1E0000 		.4byte	.LASF302
 2522 0aae 04       		.byte	0x4
 2523 0aaf 00       		.byte	0
 2524 0ab0 04       		.uleb128 0x4
 2525 0ab1 A31F0000 		.4byte	.LASF303
 2526 0ab5 09       		.byte	0x9
 2527 0ab6 5E08     		.2byte	0x85e
 2528 0ab8 840A0000 		.4byte	0xa84
 2529 0abc 0D       		.uleb128 0xd
 2530 0abd 0C       		.byte	0xc
 2531 0abe 09       		.byte	0x9
 2532 0abf 9909     		.2byte	0x999
 2533 0ac1 140B0000 		.4byte	0xb14
 2534 0ac5 0E       		.uleb128 0xe
 2535 0ac6 6F010000 		.4byte	.LASF304
 2536 0aca 09       		.byte	0x9
 2537 0acb 9C09     		.2byte	0x99c
 2538 0acd FE080000 		.4byte	0x8fe
 2539 0ad1 00       		.byte	0
 2540 0ad2 0E       		.uleb128 0xe
 2541 0ad3 25150000 		.4byte	.LASF305
 2542 0ad7 09       		.byte	0x9
 2543 0ad8 9E09     		.2byte	0x99e
 2544 0ada FE080000 		.4byte	0x8fe
ARM GAS  C:\Users\ROUSSMA\AppData\Local\Temp\cc3gA5P4.s 			page 84


 2545 0ade 02       		.byte	0x2
 2546 0adf 0E       		.uleb128 0xe
 2547 0ae0 F6190000 		.4byte	.LASF306
 2548 0ae4 09       		.byte	0x9
 2549 0ae5 A009     		.2byte	0x9a0
 2550 0ae7 FE080000 		.4byte	0x8fe
 2551 0aeb 04       		.byte	0x4
 2552 0aec 0E       		.uleb128 0xe
 2553 0aed 62180000 		.4byte	.LASF307
 2554 0af1 09       		.byte	0x9
 2555 0af2 A309     		.2byte	0x9a3
 2556 0af4 FE080000 		.4byte	0x8fe
 2557 0af8 06       		.byte	0x6
 2558 0af9 0E       		.uleb128 0xe
 2559 0afa B3200000 		.4byte	.LASF308
 2560 0afe 09       		.byte	0x9
 2561 0aff A509     		.2byte	0x9a5
 2562 0b01 FE080000 		.4byte	0x8fe
 2563 0b05 08       		.byte	0x8
 2564 0b06 0E       		.uleb128 0xe
 2565 0b07 9C070000 		.4byte	.LASF309
 2566 0b0b 09       		.byte	0x9
 2567 0b0c A709     		.2byte	0x9a7
 2568 0b0e FE080000 		.4byte	0x8fe
 2569 0b12 0A       		.byte	0xa
 2570 0b13 00       		.byte	0
 2571 0b14 04       		.uleb128 0x4
 2572 0b15 C51C0000 		.4byte	.LASF310
 2573 0b19 09       		.byte	0x9
 2574 0b1a A809     		.2byte	0x9a8
 2575 0b1c BC0A0000 		.4byte	0xabc
 2576 0b20 16       		.uleb128 0x16
 2577 0b21 7C000000 		.4byte	.LASF313
 2578 0b25 01       		.byte	0x1
 2579 0b26 F9       		.byte	0xf9
 2580 0b27 00000000 		.4byte	.LFB2
 2581 0b2b 74000000 		.4byte	.LFE2-.LFB2
 2582 0b2f 01       		.uleb128 0x1
 2583 0b30 9C       		.byte	0x9c
 2584 0b31 6B0B0000 		.4byte	0xb6b
 2585 0b35 17       		.uleb128 0x17
 2586 0b36 ED000000 		.4byte	.LASF315
 2587 0b3a 01       		.byte	0x1
 2588 0b3b F9       		.byte	0xf9
 2589 0b3c 6B0B0000 		.4byte	0xb6b
 2590 0b40 02       		.uleb128 0x2
 2591 0b41 91       		.byte	0x91
 2592 0b42 64       		.sleb128 -28
 2593 0b43 18       		.uleb128 0x18
 2594 0b44 0D230000 		.4byte	.LASF311
 2595 0b48 01       		.byte	0x1
 2596 0b49 FB       		.byte	0xfb
 2597 0b4a F2080000 		.4byte	0x8f2
 2598 0b4e 02       		.uleb128 0x2
 2599 0b4f 91       		.byte	0x91
 2600 0b50 6F       		.sleb128 -17
 2601 0b51 19       		.uleb128 0x19
ARM GAS  C:\Users\ROUSSMA\AppData\Local\Temp\cc3gA5P4.s 			page 85


 2602 0b52 30000000 		.4byte	.LBB2
 2603 0b56 2C000000 		.4byte	.LBE2-.LBB2
 2604 0b5a 1A       		.uleb128 0x1a
 2605 0b5b 61170000 		.4byte	.LASF312
 2606 0b5f 01       		.byte	0x1
 2607 0b60 B501     		.2byte	0x1b5
 2608 0b62 410A0000 		.4byte	0xa41
 2609 0b66 02       		.uleb128 0x2
 2610 0b67 91       		.byte	0x91
 2611 0b68 68       		.sleb128 -24
 2612 0b69 00       		.byte	0
 2613 0b6a 00       		.byte	0
 2614 0b6b 07       		.uleb128 0x7
 2615 0b6c 04       		.byte	0x4
 2616 0b6d 6D0A0000 		.4byte	0xa6d
 2617 0b71 1B       		.uleb128 0x1b
 2618 0b72 CD150000 		.4byte	.LASF314
 2619 0b76 01       		.byte	0x1
 2620 0b77 D201     		.2byte	0x1d2
 2621 0b79 00000000 		.4byte	.LFB3
 2622 0b7d 10000000 		.4byte	.LFE3-.LFB3
 2623 0b81 01       		.uleb128 0x1
 2624 0b82 9C       		.byte	0x9c
 2625 0b83 970B0000 		.4byte	0xb97
 2626 0b87 1C       		.uleb128 0x1c
 2627 0b88 ED000000 		.4byte	.LASF315
 2628 0b8c 01       		.byte	0x1
 2629 0b8d D201     		.2byte	0x1d2
 2630 0b8f 970B0000 		.4byte	0xb97
 2631 0b93 02       		.uleb128 0x2
 2632 0b94 91       		.byte	0x91
 2633 0b95 74       		.sleb128 -12
 2634 0b96 00       		.byte	0
 2635 0b97 07       		.uleb128 0x7
 2636 0b98 04       		.byte	0x4
 2637 0b99 9D0B0000 		.4byte	0xb9d
 2638 0b9d 1D       		.uleb128 0x1d
 2639 0b9e 2E090000 		.4byte	0x92e
 2640 0ba2 1E       		.uleb128 0x1e
 2641 0ba3 F4130000 		.4byte	.LASF317
 2642 0ba7 01       		.byte	0x1
 2643 0ba8 3805     		.2byte	0x538
 2644 0baa 00000000 		.4byte	.LFB4
 2645 0bae 1C000000 		.4byte	.LFE4-.LFB4
 2646 0bb2 01       		.uleb128 0x1
 2647 0bb3 9C       		.byte	0x9c
 2648 0bb4 1B       		.uleb128 0x1b
 2649 0bb5 2E1D0000 		.4byte	.LASF316
 2650 0bb9 01       		.byte	0x1
 2651 0bba 7005     		.2byte	0x570
 2652 0bbc 00000000 		.4byte	.LFB5
 2653 0bc0 10000000 		.4byte	.LFE5-.LFB5
 2654 0bc4 01       		.uleb128 0x1
 2655 0bc5 9C       		.byte	0x9c
 2656 0bc6 DA0B0000 		.4byte	0xbda
 2657 0bca 1C       		.uleb128 0x1c
 2658 0bcb ED000000 		.4byte	.LASF315
ARM GAS  C:\Users\ROUSSMA\AppData\Local\Temp\cc3gA5P4.s 			page 86


 2659 0bcf 01       		.byte	0x1
 2660 0bd0 7005     		.2byte	0x570
 2661 0bd2 DA0B0000 		.4byte	0xbda
 2662 0bd6 02       		.uleb128 0x2
 2663 0bd7 91       		.byte	0x91
 2664 0bd8 74       		.sleb128 -12
 2665 0bd9 00       		.byte	0
 2666 0bda 07       		.uleb128 0x7
 2667 0bdb 04       		.byte	0x4
 2668 0bdc E00B0000 		.4byte	0xbe0
 2669 0be0 1D       		.uleb128 0x1d
 2670 0be1 EC040000 		.4byte	0x4ec
 2671 0be5 1E       		.uleb128 0x1e
 2672 0be6 79130000 		.4byte	.LASF318
 2673 0bea 01       		.byte	0x1
 2674 0beb A805     		.2byte	0x5a8
 2675 0bed 00000000 		.4byte	.LFB6
 2676 0bf1 0A000000 		.4byte	.LFE6-.LFB6
 2677 0bf5 01       		.uleb128 0x1
 2678 0bf6 9C       		.byte	0x9c
 2679 0bf7 1F       		.uleb128 0x1f
 2680 0bf8 0E180000 		.4byte	.LASF348
 2681 0bfc 01       		.byte	0x1
 2682 0bfd D405     		.2byte	0x5d4
 2683 0bff 6B000000 		.4byte	0x6b
 2684 0c03 00000000 		.4byte	.LFB7
 2685 0c07 60000000 		.4byte	.LFE7-.LFB7
 2686 0c0b 01       		.uleb128 0x1
 2687 0c0c 9C       		.byte	0x9c
 2688 0c0d 3D0C0000 		.4byte	0xc3d
 2689 0c11 1C       		.uleb128 0x1c
 2690 0c12 090C0000 		.4byte	.LASF319
 2691 0c16 01       		.byte	0x1
 2692 0c17 D405     		.2byte	0x5d4
 2693 0c19 3D0C0000 		.4byte	0xc3d
 2694 0c1d 02       		.uleb128 0x2
 2695 0c1e 91       		.byte	0x91
 2696 0c1f 6C       		.sleb128 -20
 2697 0c20 20       		.uleb128 0x20
 2698 0c21 6900     		.ascii	"i\000"
 2699 0c23 01       		.byte	0x1
 2700 0c24 D605     		.2byte	0x5d6
 2701 0c26 6B000000 		.4byte	0x6b
 2702 0c2a 02       		.uleb128 0x2
 2703 0c2b 91       		.byte	0x91
 2704 0c2c 77       		.sleb128 -9
 2705 0c2d 1A       		.uleb128 0x1a
 2706 0c2e 7D040000 		.4byte	.LASF320
 2707 0c32 01       		.byte	0x1
 2708 0c33 D705     		.2byte	0x5d7
 2709 0c35 6B000000 		.4byte	0x6b
 2710 0c39 02       		.uleb128 0x2
 2711 0c3a 91       		.byte	0x91
 2712 0c3b 76       		.sleb128 -10
 2713 0c3c 00       		.byte	0
 2714 0c3d 07       		.uleb128 0x7
 2715 0c3e 04       		.byte	0x4
ARM GAS  C:\Users\ROUSSMA\AppData\Local\Temp\cc3gA5P4.s 			page 87


 2716 0c3f 430C0000 		.4byte	0xc43
 2717 0c43 1D       		.uleb128 0x1d
 2718 0c44 B5040000 		.4byte	0x4b5
 2719 0c48 1B       		.uleb128 0x1b
 2720 0c49 9D1E0000 		.4byte	.LASF321
 2721 0c4d 01       		.byte	0x1
 2722 0c4e F805     		.2byte	0x5f8
 2723 0c50 00000000 		.4byte	.LFB8
 2724 0c54 14000000 		.4byte	.LFE8-.LFB8
 2725 0c58 01       		.uleb128 0x1
 2726 0c59 9C       		.byte	0x9c
 2727 0c5a 6E0C0000 		.4byte	0xc6e
 2728 0c5e 1C       		.uleb128 0x1c
 2729 0c5f 03210000 		.4byte	.LASF322
 2730 0c63 01       		.byte	0x1
 2731 0c64 F805     		.2byte	0x5f8
 2732 0c66 77000000 		.4byte	0x77
 2733 0c6a 02       		.uleb128 0x2
 2734 0c6b 91       		.byte	0x91
 2735 0c6c 76       		.sleb128 -10
 2736 0c6d 00       		.byte	0
 2737 0c6e 1B       		.uleb128 0x1b
 2738 0c6f 910D0000 		.4byte	.LASF323
 2739 0c73 01       		.byte	0x1
 2740 0c74 1206     		.2byte	0x612
 2741 0c76 00000000 		.4byte	.LFB9
 2742 0c7a 10000000 		.4byte	.LFE9-.LFB9
 2743 0c7e 01       		.uleb128 0x1
 2744 0c7f 9C       		.byte	0x9c
 2745 0c80 940C0000 		.4byte	0xc94
 2746 0c84 1C       		.uleb128 0x1c
 2747 0c85 ED000000 		.4byte	.LASF315
 2748 0c89 01       		.byte	0x1
 2749 0c8a 1206     		.2byte	0x612
 2750 0c8c 940C0000 		.4byte	0xc94
 2751 0c90 02       		.uleb128 0x2
 2752 0c91 91       		.byte	0x91
 2753 0c92 74       		.sleb128 -12
 2754 0c93 00       		.byte	0
 2755 0c94 07       		.uleb128 0x7
 2756 0c95 04       		.byte	0x4
 2757 0c96 9A0C0000 		.4byte	0xc9a
 2758 0c9a 1D       		.uleb128 0x1d
 2759 0c9b 9C060000 		.4byte	0x69c
 2760 0c9f 21       		.uleb128 0x21
 2761 0ca0 6E080000 		.4byte	.LASF349
 2762 0ca4 01       		.byte	0x1
 2763 0ca5 2C06     		.2byte	0x62c
 2764 0ca7 00000000 		.4byte	.LFB10
 2765 0cab EC030000 		.4byte	.LFE10-.LFB10
 2766 0caf 01       		.uleb128 0x1
 2767 0cb0 9C       		.byte	0x9c
 2768 0cb1 C60D0000 		.4byte	0xdc6
 2769 0cb5 1C       		.uleb128 0x1c
 2770 0cb6 CE210000 		.4byte	.LASF324
 2771 0cba 01       		.byte	0x1
 2772 0cbb 2C06     		.2byte	0x62c
ARM GAS  C:\Users\ROUSSMA\AppData\Local\Temp\cc3gA5P4.s 			page 88


 2773 0cbd 6B000000 		.4byte	0x6b
 2774 0cc1 02       		.uleb128 0x2
 2775 0cc2 91       		.byte	0x91
 2776 0cc3 4F       		.sleb128 -49
 2777 0cc4 1C       		.uleb128 0x1c
 2778 0cc5 ED000000 		.4byte	.LASF315
 2779 0cc9 01       		.byte	0x1
 2780 0cca 2C06     		.2byte	0x62c
 2781 0ccc B7000000 		.4byte	0xb7
 2782 0cd0 02       		.uleb128 0x2
 2783 0cd1 91       		.byte	0x91
 2784 0cd2 48       		.sleb128 -56
 2785 0cd3 22       		.uleb128 0x22
 2786 0cd4 32000000 		.4byte	.LBB3
 2787 0cd8 3E000000 		.4byte	.LBE3-.LBB3
 2788 0cdc F00C0000 		.4byte	0xcf0
 2789 0ce0 1A       		.uleb128 0x1a
 2790 0ce1 0A1C0000 		.4byte	.LASF325
 2791 0ce5 01       		.byte	0x1
 2792 0ce6 3906     		.2byte	0x639
 2793 0ce8 12040000 		.4byte	0x412
 2794 0cec 02       		.uleb128 0x2
 2795 0ced 91       		.byte	0x91
 2796 0cee 64       		.sleb128 -28
 2797 0cef 00       		.byte	0
 2798 0cf0 22       		.uleb128 0x22
 2799 0cf1 A2000000 		.4byte	.LBB4
 2800 0cf5 52000000 		.4byte	.LBE4-.LBB4
 2801 0cf9 0D0D0000 		.4byte	0xd0d
 2802 0cfd 1A       		.uleb128 0x1a
 2803 0cfe 2B210000 		.4byte	.LASF326
 2804 0d02 01       		.byte	0x1
 2805 0d03 6206     		.2byte	0x662
 2806 0d05 83000000 		.4byte	0x83
 2807 0d09 02       		.uleb128 0x2
 2808 0d0a 91       		.byte	0x91
 2809 0d0b 70       		.sleb128 -16
 2810 0d0c 00       		.byte	0
 2811 0d0d 22       		.uleb128 0x22
 2812 0d0e 16010000 		.4byte	.LBB5
 2813 0d12 1C000000 		.4byte	.LBE5-.LBB5
 2814 0d16 2A0D0000 		.4byte	0xd2a
 2815 0d1a 1A       		.uleb128 0x1a
 2816 0d1b 351E0000 		.4byte	.LASF327
 2817 0d1f 01       		.byte	0x1
 2818 0d20 7A06     		.2byte	0x67a
 2819 0d22 C60D0000 		.4byte	0xdc6
 2820 0d26 02       		.uleb128 0x2
 2821 0d27 91       		.byte	0x91
 2822 0d28 60       		.sleb128 -32
 2823 0d29 00       		.byte	0
 2824 0d2a 22       		.uleb128 0x22
 2825 0d2b 4E010000 		.4byte	.LBB6
 2826 0d2f 3E000000 		.4byte	.LBE6-.LBB6
 2827 0d33 630D0000 		.4byte	0xd63
 2828 0d37 1A       		.uleb128 0x1a
 2829 0d38 C3020000 		.4byte	.LASF328
ARM GAS  C:\Users\ROUSSMA\AppData\Local\Temp\cc3gA5P4.s 			page 89


 2830 0d3c 01       		.byte	0x1
 2831 0d3d 9206     		.2byte	0x692
 2832 0d3f D60D0000 		.4byte	0xdd6
 2833 0d43 02       		.uleb128 0x2
 2834 0d44 91       		.byte	0x91
 2835 0d45 6C       		.sleb128 -20
 2836 0d46 19       		.uleb128 0x19
 2837 0d47 64010000 		.4byte	.LBB7
 2838 0d4b 18000000 		.4byte	.LBE7-.LBB7
 2839 0d4f 1A       		.uleb128 0x1a
 2840 0d50 AD170000 		.4byte	.LASF329
 2841 0d54 01       		.byte	0x1
 2842 0d55 9906     		.2byte	0x699
 2843 0d57 080A0000 		.4byte	0xa08
 2844 0d5b 05       		.uleb128 0x5
 2845 0d5c 03       		.byte	0x3
 2846 0d5d 00000000 		.4byte	gPrepWriteReqMem.6666
 2847 0d61 00       		.byte	0
 2848 0d62 00       		.byte	0
 2849 0d63 22       		.uleb128 0x22
 2850 0d64 AC010000 		.4byte	.LBB8
 2851 0d68 40000000 		.4byte	.LBE8-.LBB8
 2852 0d6c 800D0000 		.4byte	0xd80
 2853 0d70 1A       		.uleb128 0x1a
 2854 0d71 72000000 		.4byte	.LASF330
 2855 0d75 01       		.byte	0x1
 2856 0d76 BB06     		.2byte	0x6bb
 2857 0d78 66030000 		.4byte	0x366
 2858 0d7c 02       		.uleb128 0x2
 2859 0d7d 91       		.byte	0x91
 2860 0d7e 5E       		.sleb128 -34
 2861 0d7f 00       		.byte	0
 2862 0d80 22       		.uleb128 0x22
 2863 0d81 F8010000 		.4byte	.LBB9
 2864 0d85 3C000000 		.4byte	.LBE9-.LBB9
 2865 0d89 AC0D0000 		.4byte	0xdac
 2866 0d8d 1A       		.uleb128 0x1a
 2867 0d8e 0C210000 		.4byte	.LASF331
 2868 0d92 01       		.byte	0x1
 2869 0d93 DD06     		.2byte	0x6dd
 2870 0d95 9C060000 		.4byte	0x69c
 2871 0d99 02       		.uleb128 0x2
 2872 0d9a 91       		.byte	0x91
 2873 0d9b 54       		.sleb128 -44
 2874 0d9c 1A       		.uleb128 0x1a
 2875 0d9d BA230000 		.4byte	.LASF332
 2876 0da1 01       		.byte	0x1
 2877 0da2 DE06     		.2byte	0x6de
 2878 0da4 DC0D0000 		.4byte	0xddc
 2879 0da8 02       		.uleb128 0x2
 2880 0da9 91       		.byte	0x91
 2881 0daa 68       		.sleb128 -24
 2882 0dab 00       		.byte	0
 2883 0dac 19       		.uleb128 0x19
 2884 0dad 0E030000 		.4byte	.LBB10
 2885 0db1 38000000 		.4byte	.LBE10-.LBB10
 2886 0db5 1A       		.uleb128 0x1a
ARM GAS  C:\Users\ROUSSMA\AppData\Local\Temp\cc3gA5P4.s 			page 90


 2887 0db6 81120000 		.4byte	.LASF333
 2888 0dba 01       		.byte	0x1
 2889 0dbb 7807     		.2byte	0x778
 2890 0dbd 77000000 		.4byte	0x77
 2891 0dc1 02       		.uleb128 0x2
 2892 0dc2 91       		.byte	0x91
 2893 0dc3 76       		.sleb128 -10
 2894 0dc4 00       		.byte	0
 2895 0dc5 00       		.byte	0
 2896 0dc6 0F       		.uleb128 0xf
 2897 0dc7 6B000000 		.4byte	0x6b
 2898 0dcb D60D0000 		.4byte	0xdd6
 2899 0dcf 10       		.uleb128 0x10
 2900 0dd0 B0000000 		.4byte	0xb0
 2901 0dd4 01       		.byte	0x1
 2902 0dd5 00       		.byte	0
 2903 0dd6 07       		.uleb128 0x7
 2904 0dd7 04       		.byte	0x4
 2905 0dd8 75040000 		.4byte	0x475
 2906 0ddc 07       		.uleb128 0x7
 2907 0ddd 04       		.byte	0x4
 2908 0dde 34070000 		.4byte	0x734
 2909 0de2 23       		.uleb128 0x23
 2910 0de3 681C0000 		.4byte	.LASF334
 2911 0de7 08       		.byte	0x8
 2912 0de8 9C02     		.2byte	0x29c
 2913 0dea 780A0000 		.4byte	0xa78
 2914 0dee 0F       		.uleb128 0xf
 2915 0def 6B000000 		.4byte	0x6b
 2916 0df3 FF0D0000 		.4byte	0xdff
 2917 0df7 24       		.uleb128 0x24
 2918 0df8 B0000000 		.4byte	0xb0
 2919 0dfc 7F0D     		.2byte	0xd7f
 2920 0dfe 00       		.byte	0
 2921 0dff 23       		.uleb128 0x23
 2922 0e00 63200000 		.4byte	.LASF335
 2923 0e04 08       		.byte	0x8
 2924 0e05 A102     		.2byte	0x2a1
 2925 0e07 EE0D0000 		.4byte	0xdee
 2926 0e0b 25       		.uleb128 0x25
 2927 0e0c 170C0000 		.4byte	.LASF336
 2928 0e10 01       		.byte	0x1
 2929 0e11 3D       		.byte	0x3d
 2930 0e12 A4000000 		.4byte	0xa4
 2931 0e16 05       		.uleb128 0x5
 2932 0e17 03       		.byte	0x3
 2933 0e18 00000000 		.4byte	cyBle_eventHandlerFlag
 2934 0e1c 23       		.uleb128 0x23
 2935 0e1d B4060000 		.4byte	.LASF337
 2936 0e21 08       		.byte	0x8
 2937 0e22 A402     		.2byte	0x2a4
 2938 0e24 B5040000 		.4byte	0x4b5
 2939 0e28 23       		.uleb128 0x23
 2940 0e29 240E0000 		.4byte	.LASF338
 2941 0e2d 08       		.byte	0x8
 2942 0e2e A502     		.2byte	0x2a5
 2943 0e30 340E0000 		.4byte	0xe34
ARM GAS  C:\Users\ROUSSMA\AppData\Local\Temp\cc3gA5P4.s 			page 91


 2944 0e34 07       		.uleb128 0x7
 2945 0e35 04       		.byte	0x4
 2946 0e36 B5040000 		.4byte	0x4b5
 2947 0e3a 25       		.uleb128 0x25
 2948 0e3b 6A1E0000 		.4byte	.LASF339
 2949 0e3f 01       		.byte	0x1
 2950 0e40 E1       		.byte	0xe1
 2951 0e41 52060000 		.4byte	0x652
 2952 0e45 05       		.uleb128 0x5
 2953 0e46 03       		.byte	0x3
 2954 0e47 00000000 		.4byte	cyBle_authInfo
 2955 0e4b 23       		.uleb128 0x23
 2956 0e4c E41D0000 		.4byte	.LASF340
 2957 0e50 09       		.byte	0x9
 2958 0e51 A90A     		.2byte	0xaa9
 2959 0e53 B00A0000 		.4byte	0xab0
 2960 0e57 25       		.uleb128 0x25
 2961 0e58 310D0000 		.4byte	.LASF341
 2962 0e5c 01       		.byte	0x1
 2963 0e5d 3B       		.byte	0x3b
 2964 0e5e 2E090000 		.4byte	0x92e
 2965 0e62 05       		.uleb128 0x5
 2966 0e63 03       		.byte	0x3
 2967 0e64 00000000 		.4byte	cyBle_connHandle
 2968 0e68 25       		.uleb128 0x25
 2969 0e69 57120000 		.4byte	.LASF342
 2970 0e6d 01       		.byte	0x1
 2971 0e6e 3E       		.byte	0x3e
 2972 0e6f A4000000 		.4byte	0xa4
 2973 0e73 05       		.uleb128 0x5
 2974 0e74 03       		.byte	0x3
 2975 0e75 00000000 		.4byte	cyBle_busyStatus
 2976 0e79 25       		.uleb128 0x25
 2977 0e7a 260D0000 		.4byte	.LASF343
 2978 0e7e 01       		.byte	0x1
 2979 0e7f 40       		.byte	0x40
 2980 0e80 8A0E0000 		.4byte	0xe8a
 2981 0e84 05       		.uleb128 0x5
 2982 0e85 03       		.byte	0x3
 2983 0e86 00000000 		.4byte	cyBle_gaps
 2984 0e8a 1D       		.uleb128 0x1d
 2985 0e8b 140B0000 		.4byte	0xb14
 2986 0e8f 25       		.uleb128 0x25
 2987 0e90 78200000 		.4byte	.LASF344
 2988 0e94 01       		.byte	0x1
 2989 0e95 4C       		.byte	0x4c
 2990 0e96 6B000000 		.4byte	0x6b
 2991 0e9a 05       		.uleb128 0x5
 2992 0e9b 03       		.byte	0x3
 2993 0e9c 00000000 		.4byte	cyBle_advertisingIntervalType
 2994 0ea0 00       		.byte	0
 2995              		.section	.debug_abbrev,"",%progbits
 2996              	.Ldebug_abbrev0:
 2997 0000 01       		.uleb128 0x1
 2998 0001 11       		.uleb128 0x11
 2999 0002 01       		.byte	0x1
 3000 0003 25       		.uleb128 0x25
ARM GAS  C:\Users\ROUSSMA\AppData\Local\Temp\cc3gA5P4.s 			page 92


 3001 0004 0E       		.uleb128 0xe
 3002 0005 13       		.uleb128 0x13
 3003 0006 0B       		.uleb128 0xb
 3004 0007 03       		.uleb128 0x3
 3005 0008 0E       		.uleb128 0xe
 3006 0009 1B       		.uleb128 0x1b
 3007 000a 0E       		.uleb128 0xe
 3008 000b 55       		.uleb128 0x55
 3009 000c 17       		.uleb128 0x17
 3010 000d 11       		.uleb128 0x11
 3011 000e 01       		.uleb128 0x1
 3012 000f 10       		.uleb128 0x10
 3013 0010 17       		.uleb128 0x17
 3014 0011 00       		.byte	0
 3015 0012 00       		.byte	0
 3016 0013 02       		.uleb128 0x2
 3017 0014 24       		.uleb128 0x24
 3018 0015 00       		.byte	0
 3019 0016 0B       		.uleb128 0xb
 3020 0017 0B       		.uleb128 0xb
 3021 0018 3E       		.uleb128 0x3e
 3022 0019 0B       		.uleb128 0xb
 3023 001a 03       		.uleb128 0x3
 3024 001b 0E       		.uleb128 0xe
 3025 001c 00       		.byte	0
 3026 001d 00       		.byte	0
 3027 001e 03       		.uleb128 0x3
 3028 001f 24       		.uleb128 0x24
 3029 0020 00       		.byte	0
 3030 0021 0B       		.uleb128 0xb
 3031 0022 0B       		.uleb128 0xb
 3032 0023 3E       		.uleb128 0x3e
 3033 0024 0B       		.uleb128 0xb
 3034 0025 03       		.uleb128 0x3
 3035 0026 08       		.uleb128 0x8
 3036 0027 00       		.byte	0
 3037 0028 00       		.byte	0
 3038 0029 04       		.uleb128 0x4
 3039 002a 16       		.uleb128 0x16
 3040 002b 00       		.byte	0
 3041 002c 03       		.uleb128 0x3
 3042 002d 0E       		.uleb128 0xe
 3043 002e 3A       		.uleb128 0x3a
 3044 002f 0B       		.uleb128 0xb
 3045 0030 3B       		.uleb128 0x3b
 3046 0031 05       		.uleb128 0x5
 3047 0032 49       		.uleb128 0x49
 3048 0033 13       		.uleb128 0x13
 3049 0034 00       		.byte	0
 3050 0035 00       		.byte	0
 3051 0036 05       		.uleb128 0x5
 3052 0037 35       		.uleb128 0x35
 3053 0038 00       		.byte	0
 3054 0039 49       		.uleb128 0x49
 3055 003a 13       		.uleb128 0x13
 3056 003b 00       		.byte	0
 3057 003c 00       		.byte	0
ARM GAS  C:\Users\ROUSSMA\AppData\Local\Temp\cc3gA5P4.s 			page 93


 3058 003d 06       		.uleb128 0x6
 3059 003e 0F       		.uleb128 0xf
 3060 003f 00       		.byte	0
 3061 0040 0B       		.uleb128 0xb
 3062 0041 0B       		.uleb128 0xb
 3063 0042 00       		.byte	0
 3064 0043 00       		.byte	0
 3065 0044 07       		.uleb128 0x7
 3066 0045 0F       		.uleb128 0xf
 3067 0046 00       		.byte	0
 3068 0047 0B       		.uleb128 0xb
 3069 0048 0B       		.uleb128 0xb
 3070 0049 49       		.uleb128 0x49
 3071 004a 13       		.uleb128 0x13
 3072 004b 00       		.byte	0
 3073 004c 00       		.byte	0
 3074 004d 08       		.uleb128 0x8
 3075 004e 15       		.uleb128 0x15
 3076 004f 01       		.byte	0x1
 3077 0050 27       		.uleb128 0x27
 3078 0051 19       		.uleb128 0x19
 3079 0052 01       		.uleb128 0x1
 3080 0053 13       		.uleb128 0x13
 3081 0054 00       		.byte	0
 3082 0055 00       		.byte	0
 3083 0056 09       		.uleb128 0x9
 3084 0057 05       		.uleb128 0x5
 3085 0058 00       		.byte	0
 3086 0059 49       		.uleb128 0x49
 3087 005a 13       		.uleb128 0x13
 3088 005b 00       		.byte	0
 3089 005c 00       		.byte	0
 3090 005d 0A       		.uleb128 0xa
 3091 005e 04       		.uleb128 0x4
 3092 005f 01       		.byte	0x1
 3093 0060 0B       		.uleb128 0xb
 3094 0061 0B       		.uleb128 0xb
 3095 0062 49       		.uleb128 0x49
 3096 0063 13       		.uleb128 0x13
 3097 0064 3A       		.uleb128 0x3a
 3098 0065 0B       		.uleb128 0xb
 3099 0066 3B       		.uleb128 0x3b
 3100 0067 05       		.uleb128 0x5
 3101 0068 01       		.uleb128 0x1
 3102 0069 13       		.uleb128 0x13
 3103 006a 00       		.byte	0
 3104 006b 00       		.byte	0
 3105 006c 0B       		.uleb128 0xb
 3106 006d 28       		.uleb128 0x28
 3107 006e 00       		.byte	0
 3108 006f 03       		.uleb128 0x3
 3109 0070 0E       		.uleb128 0xe
 3110 0071 1C       		.uleb128 0x1c
 3111 0072 0B       		.uleb128 0xb
 3112 0073 00       		.byte	0
 3113 0074 00       		.byte	0
 3114 0075 0C       		.uleb128 0xc
ARM GAS  C:\Users\ROUSSMA\AppData\Local\Temp\cc3gA5P4.s 			page 94


 3115 0076 28       		.uleb128 0x28
 3116 0077 00       		.byte	0
 3117 0078 03       		.uleb128 0x3
 3118 0079 0E       		.uleb128 0xe
 3119 007a 1C       		.uleb128 0x1c
 3120 007b 05       		.uleb128 0x5
 3121 007c 00       		.byte	0
 3122 007d 00       		.byte	0
 3123 007e 0D       		.uleb128 0xd
 3124 007f 13       		.uleb128 0x13
 3125 0080 01       		.byte	0x1
 3126 0081 0B       		.uleb128 0xb
 3127 0082 0B       		.uleb128 0xb
 3128 0083 3A       		.uleb128 0x3a
 3129 0084 0B       		.uleb128 0xb
 3130 0085 3B       		.uleb128 0x3b
 3131 0086 05       		.uleb128 0x5
 3132 0087 01       		.uleb128 0x1
 3133 0088 13       		.uleb128 0x13
 3134 0089 00       		.byte	0
 3135 008a 00       		.byte	0
 3136 008b 0E       		.uleb128 0xe
 3137 008c 0D       		.uleb128 0xd
 3138 008d 00       		.byte	0
 3139 008e 03       		.uleb128 0x3
 3140 008f 0E       		.uleb128 0xe
 3141 0090 3A       		.uleb128 0x3a
 3142 0091 0B       		.uleb128 0xb
 3143 0092 3B       		.uleb128 0x3b
 3144 0093 05       		.uleb128 0x5
 3145 0094 49       		.uleb128 0x49
 3146 0095 13       		.uleb128 0x13
 3147 0096 38       		.uleb128 0x38
 3148 0097 0B       		.uleb128 0xb
 3149 0098 00       		.byte	0
 3150 0099 00       		.byte	0
 3151 009a 0F       		.uleb128 0xf
 3152 009b 01       		.uleb128 0x1
 3153 009c 01       		.byte	0x1
 3154 009d 49       		.uleb128 0x49
 3155 009e 13       		.uleb128 0x13
 3156 009f 01       		.uleb128 0x1
 3157 00a0 13       		.uleb128 0x13
 3158 00a1 00       		.byte	0
 3159 00a2 00       		.byte	0
 3160 00a3 10       		.uleb128 0x10
 3161 00a4 21       		.uleb128 0x21
 3162 00a5 00       		.byte	0
 3163 00a6 49       		.uleb128 0x49
 3164 00a7 13       		.uleb128 0x13
 3165 00a8 2F       		.uleb128 0x2f
 3166 00a9 0B       		.uleb128 0xb
 3167 00aa 00       		.byte	0
 3168 00ab 00       		.byte	0
 3169 00ac 11       		.uleb128 0x11
 3170 00ad 04       		.uleb128 0x4
 3171 00ae 01       		.byte	0x1
ARM GAS  C:\Users\ROUSSMA\AppData\Local\Temp\cc3gA5P4.s 			page 95


 3172 00af 0B       		.uleb128 0xb
 3173 00b0 0B       		.uleb128 0xb
 3174 00b1 49       		.uleb128 0x49
 3175 00b2 13       		.uleb128 0x13
 3176 00b3 3A       		.uleb128 0x3a
 3177 00b4 0B       		.uleb128 0xb
 3178 00b5 3B       		.uleb128 0x3b
 3179 00b6 0B       		.uleb128 0xb
 3180 00b7 01       		.uleb128 0x1
 3181 00b8 13       		.uleb128 0x13
 3182 00b9 00       		.byte	0
 3183 00ba 00       		.byte	0
 3184 00bb 12       		.uleb128 0x12
 3185 00bc 16       		.uleb128 0x16
 3186 00bd 00       		.byte	0
 3187 00be 03       		.uleb128 0x3
 3188 00bf 0E       		.uleb128 0xe
 3189 00c0 3A       		.uleb128 0x3a
 3190 00c1 0B       		.uleb128 0xb
 3191 00c2 3B       		.uleb128 0x3b
 3192 00c3 0B       		.uleb128 0xb
 3193 00c4 49       		.uleb128 0x49
 3194 00c5 13       		.uleb128 0x13
 3195 00c6 00       		.byte	0
 3196 00c7 00       		.byte	0
 3197 00c8 13       		.uleb128 0x13
 3198 00c9 0D       		.uleb128 0xd
 3199 00ca 00       		.byte	0
 3200 00cb 03       		.uleb128 0x3
 3201 00cc 08       		.uleb128 0x8
 3202 00cd 3A       		.uleb128 0x3a
 3203 00ce 0B       		.uleb128 0xb
 3204 00cf 3B       		.uleb128 0x3b
 3205 00d0 05       		.uleb128 0x5
 3206 00d1 49       		.uleb128 0x49
 3207 00d2 13       		.uleb128 0x13
 3208 00d3 38       		.uleb128 0x38
 3209 00d4 0B       		.uleb128 0xb
 3210 00d5 00       		.byte	0
 3211 00d6 00       		.byte	0
 3212 00d7 14       		.uleb128 0x14
 3213 00d8 13       		.uleb128 0x13
 3214 00d9 01       		.byte	0x1
 3215 00da 0B       		.uleb128 0xb
 3216 00db 0B       		.uleb128 0xb
 3217 00dc 3A       		.uleb128 0x3a
 3218 00dd 0B       		.uleb128 0xb
 3219 00de 3B       		.uleb128 0x3b
 3220 00df 0B       		.uleb128 0xb
 3221 00e0 01       		.uleb128 0x1
 3222 00e1 13       		.uleb128 0x13
 3223 00e2 00       		.byte	0
 3224 00e3 00       		.byte	0
 3225 00e4 15       		.uleb128 0x15
 3226 00e5 0D       		.uleb128 0xd
 3227 00e6 00       		.byte	0
 3228 00e7 03       		.uleb128 0x3
ARM GAS  C:\Users\ROUSSMA\AppData\Local\Temp\cc3gA5P4.s 			page 96


 3229 00e8 0E       		.uleb128 0xe
 3230 00e9 3A       		.uleb128 0x3a
 3231 00ea 0B       		.uleb128 0xb
 3232 00eb 3B       		.uleb128 0x3b
 3233 00ec 0B       		.uleb128 0xb
 3234 00ed 49       		.uleb128 0x49
 3235 00ee 13       		.uleb128 0x13
 3236 00ef 38       		.uleb128 0x38
 3237 00f0 0B       		.uleb128 0xb
 3238 00f1 00       		.byte	0
 3239 00f2 00       		.byte	0
 3240 00f3 16       		.uleb128 0x16
 3241 00f4 2E       		.uleb128 0x2e
 3242 00f5 01       		.byte	0x1
 3243 00f6 03       		.uleb128 0x3
 3244 00f7 0E       		.uleb128 0xe
 3245 00f8 3A       		.uleb128 0x3a
 3246 00f9 0B       		.uleb128 0xb
 3247 00fa 3B       		.uleb128 0x3b
 3248 00fb 0B       		.uleb128 0xb
 3249 00fc 27       		.uleb128 0x27
 3250 00fd 19       		.uleb128 0x19
 3251 00fe 11       		.uleb128 0x11
 3252 00ff 01       		.uleb128 0x1
 3253 0100 12       		.uleb128 0x12
 3254 0101 06       		.uleb128 0x6
 3255 0102 40       		.uleb128 0x40
 3256 0103 18       		.uleb128 0x18
 3257 0104 9642     		.uleb128 0x2116
 3258 0106 19       		.uleb128 0x19
 3259 0107 01       		.uleb128 0x1
 3260 0108 13       		.uleb128 0x13
 3261 0109 00       		.byte	0
 3262 010a 00       		.byte	0
 3263 010b 17       		.uleb128 0x17
 3264 010c 05       		.uleb128 0x5
 3265 010d 00       		.byte	0
 3266 010e 03       		.uleb128 0x3
 3267 010f 0E       		.uleb128 0xe
 3268 0110 3A       		.uleb128 0x3a
 3269 0111 0B       		.uleb128 0xb
 3270 0112 3B       		.uleb128 0x3b
 3271 0113 0B       		.uleb128 0xb
 3272 0114 49       		.uleb128 0x49
 3273 0115 13       		.uleb128 0x13
 3274 0116 02       		.uleb128 0x2
 3275 0117 18       		.uleb128 0x18
 3276 0118 00       		.byte	0
 3277 0119 00       		.byte	0
 3278 011a 18       		.uleb128 0x18
 3279 011b 34       		.uleb128 0x34
 3280 011c 00       		.byte	0
 3281 011d 03       		.uleb128 0x3
 3282 011e 0E       		.uleb128 0xe
 3283 011f 3A       		.uleb128 0x3a
 3284 0120 0B       		.uleb128 0xb
 3285 0121 3B       		.uleb128 0x3b
ARM GAS  C:\Users\ROUSSMA\AppData\Local\Temp\cc3gA5P4.s 			page 97


 3286 0122 0B       		.uleb128 0xb
 3287 0123 49       		.uleb128 0x49
 3288 0124 13       		.uleb128 0x13
 3289 0125 02       		.uleb128 0x2
 3290 0126 18       		.uleb128 0x18
 3291 0127 00       		.byte	0
 3292 0128 00       		.byte	0
 3293 0129 19       		.uleb128 0x19
 3294 012a 0B       		.uleb128 0xb
 3295 012b 01       		.byte	0x1
 3296 012c 11       		.uleb128 0x11
 3297 012d 01       		.uleb128 0x1
 3298 012e 12       		.uleb128 0x12
 3299 012f 06       		.uleb128 0x6
 3300 0130 00       		.byte	0
 3301 0131 00       		.byte	0
 3302 0132 1A       		.uleb128 0x1a
 3303 0133 34       		.uleb128 0x34
 3304 0134 00       		.byte	0
 3305 0135 03       		.uleb128 0x3
 3306 0136 0E       		.uleb128 0xe
 3307 0137 3A       		.uleb128 0x3a
 3308 0138 0B       		.uleb128 0xb
 3309 0139 3B       		.uleb128 0x3b
 3310 013a 05       		.uleb128 0x5
 3311 013b 49       		.uleb128 0x49
 3312 013c 13       		.uleb128 0x13
 3313 013d 02       		.uleb128 0x2
 3314 013e 18       		.uleb128 0x18
 3315 013f 00       		.byte	0
 3316 0140 00       		.byte	0
 3317 0141 1B       		.uleb128 0x1b
 3318 0142 2E       		.uleb128 0x2e
 3319 0143 01       		.byte	0x1
 3320 0144 03       		.uleb128 0x3
 3321 0145 0E       		.uleb128 0xe
 3322 0146 3A       		.uleb128 0x3a
 3323 0147 0B       		.uleb128 0xb
 3324 0148 3B       		.uleb128 0x3b
 3325 0149 05       		.uleb128 0x5
 3326 014a 27       		.uleb128 0x27
 3327 014b 19       		.uleb128 0x19
 3328 014c 11       		.uleb128 0x11
 3329 014d 01       		.uleb128 0x1
 3330 014e 12       		.uleb128 0x12
 3331 014f 06       		.uleb128 0x6
 3332 0150 40       		.uleb128 0x40
 3333 0151 18       		.uleb128 0x18
 3334 0152 9742     		.uleb128 0x2117
 3335 0154 19       		.uleb128 0x19
 3336 0155 01       		.uleb128 0x1
 3337 0156 13       		.uleb128 0x13
 3338 0157 00       		.byte	0
 3339 0158 00       		.byte	0
 3340 0159 1C       		.uleb128 0x1c
 3341 015a 05       		.uleb128 0x5
 3342 015b 00       		.byte	0
ARM GAS  C:\Users\ROUSSMA\AppData\Local\Temp\cc3gA5P4.s 			page 98


 3343 015c 03       		.uleb128 0x3
 3344 015d 0E       		.uleb128 0xe
 3345 015e 3A       		.uleb128 0x3a
 3346 015f 0B       		.uleb128 0xb
 3347 0160 3B       		.uleb128 0x3b
 3348 0161 05       		.uleb128 0x5
 3349 0162 49       		.uleb128 0x49
 3350 0163 13       		.uleb128 0x13
 3351 0164 02       		.uleb128 0x2
 3352 0165 18       		.uleb128 0x18
 3353 0166 00       		.byte	0
 3354 0167 00       		.byte	0
 3355 0168 1D       		.uleb128 0x1d
 3356 0169 26       		.uleb128 0x26
 3357 016a 00       		.byte	0
 3358 016b 49       		.uleb128 0x49
 3359 016c 13       		.uleb128 0x13
 3360 016d 00       		.byte	0
 3361 016e 00       		.byte	0
 3362 016f 1E       		.uleb128 0x1e
 3363 0170 2E       		.uleb128 0x2e
 3364 0171 00       		.byte	0
 3365 0172 03       		.uleb128 0x3
 3366 0173 0E       		.uleb128 0xe
 3367 0174 3A       		.uleb128 0x3a
 3368 0175 0B       		.uleb128 0xb
 3369 0176 3B       		.uleb128 0x3b
 3370 0177 05       		.uleb128 0x5
 3371 0178 27       		.uleb128 0x27
 3372 0179 19       		.uleb128 0x19
 3373 017a 11       		.uleb128 0x11
 3374 017b 01       		.uleb128 0x1
 3375 017c 12       		.uleb128 0x12
 3376 017d 06       		.uleb128 0x6
 3377 017e 40       		.uleb128 0x40
 3378 017f 18       		.uleb128 0x18
 3379 0180 9742     		.uleb128 0x2117
 3380 0182 19       		.uleb128 0x19
 3381 0183 00       		.byte	0
 3382 0184 00       		.byte	0
 3383 0185 1F       		.uleb128 0x1f
 3384 0186 2E       		.uleb128 0x2e
 3385 0187 01       		.byte	0x1
 3386 0188 3F       		.uleb128 0x3f
 3387 0189 19       		.uleb128 0x19
 3388 018a 03       		.uleb128 0x3
 3389 018b 0E       		.uleb128 0xe
 3390 018c 3A       		.uleb128 0x3a
 3391 018d 0B       		.uleb128 0xb
 3392 018e 3B       		.uleb128 0x3b
 3393 018f 05       		.uleb128 0x5
 3394 0190 27       		.uleb128 0x27
 3395 0191 19       		.uleb128 0x19
 3396 0192 49       		.uleb128 0x49
 3397 0193 13       		.uleb128 0x13
 3398 0194 11       		.uleb128 0x11
 3399 0195 01       		.uleb128 0x1
ARM GAS  C:\Users\ROUSSMA\AppData\Local\Temp\cc3gA5P4.s 			page 99


 3400 0196 12       		.uleb128 0x12
 3401 0197 06       		.uleb128 0x6
 3402 0198 40       		.uleb128 0x40
 3403 0199 18       		.uleb128 0x18
 3404 019a 9742     		.uleb128 0x2117
 3405 019c 19       		.uleb128 0x19
 3406 019d 01       		.uleb128 0x1
 3407 019e 13       		.uleb128 0x13
 3408 019f 00       		.byte	0
 3409 01a0 00       		.byte	0
 3410 01a1 20       		.uleb128 0x20
 3411 01a2 34       		.uleb128 0x34
 3412 01a3 00       		.byte	0
 3413 01a4 03       		.uleb128 0x3
 3414 01a5 08       		.uleb128 0x8
 3415 01a6 3A       		.uleb128 0x3a
 3416 01a7 0B       		.uleb128 0xb
 3417 01a8 3B       		.uleb128 0x3b
 3418 01a9 05       		.uleb128 0x5
 3419 01aa 49       		.uleb128 0x49
 3420 01ab 13       		.uleb128 0x13
 3421 01ac 02       		.uleb128 0x2
 3422 01ad 18       		.uleb128 0x18
 3423 01ae 00       		.byte	0
 3424 01af 00       		.byte	0
 3425 01b0 21       		.uleb128 0x21
 3426 01b1 2E       		.uleb128 0x2e
 3427 01b2 01       		.byte	0x1
 3428 01b3 3F       		.uleb128 0x3f
 3429 01b4 19       		.uleb128 0x19
 3430 01b5 03       		.uleb128 0x3
 3431 01b6 0E       		.uleb128 0xe
 3432 01b7 3A       		.uleb128 0x3a
 3433 01b8 0B       		.uleb128 0xb
 3434 01b9 3B       		.uleb128 0x3b
 3435 01ba 05       		.uleb128 0x5
 3436 01bb 27       		.uleb128 0x27
 3437 01bc 19       		.uleb128 0x19
 3438 01bd 11       		.uleb128 0x11
 3439 01be 01       		.uleb128 0x1
 3440 01bf 12       		.uleb128 0x12
 3441 01c0 06       		.uleb128 0x6
 3442 01c1 40       		.uleb128 0x40
 3443 01c2 18       		.uleb128 0x18
 3444 01c3 9642     		.uleb128 0x2116
 3445 01c5 19       		.uleb128 0x19
 3446 01c6 01       		.uleb128 0x1
 3447 01c7 13       		.uleb128 0x13
 3448 01c8 00       		.byte	0
 3449 01c9 00       		.byte	0
 3450 01ca 22       		.uleb128 0x22
 3451 01cb 0B       		.uleb128 0xb
 3452 01cc 01       		.byte	0x1
 3453 01cd 11       		.uleb128 0x11
 3454 01ce 01       		.uleb128 0x1
 3455 01cf 12       		.uleb128 0x12
 3456 01d0 06       		.uleb128 0x6
ARM GAS  C:\Users\ROUSSMA\AppData\Local\Temp\cc3gA5P4.s 			page 100


 3457 01d1 01       		.uleb128 0x1
 3458 01d2 13       		.uleb128 0x13
 3459 01d3 00       		.byte	0
 3460 01d4 00       		.byte	0
 3461 01d5 23       		.uleb128 0x23
 3462 01d6 34       		.uleb128 0x34
 3463 01d7 00       		.byte	0
 3464 01d8 03       		.uleb128 0x3
 3465 01d9 0E       		.uleb128 0xe
 3466 01da 3A       		.uleb128 0x3a
 3467 01db 0B       		.uleb128 0xb
 3468 01dc 3B       		.uleb128 0x3b
 3469 01dd 05       		.uleb128 0x5
 3470 01de 49       		.uleb128 0x49
 3471 01df 13       		.uleb128 0x13
 3472 01e0 3F       		.uleb128 0x3f
 3473 01e1 19       		.uleb128 0x19
 3474 01e2 3C       		.uleb128 0x3c
 3475 01e3 19       		.uleb128 0x19
 3476 01e4 00       		.byte	0
 3477 01e5 00       		.byte	0
 3478 01e6 24       		.uleb128 0x24
 3479 01e7 21       		.uleb128 0x21
 3480 01e8 00       		.byte	0
 3481 01e9 49       		.uleb128 0x49
 3482 01ea 13       		.uleb128 0x13
 3483 01eb 2F       		.uleb128 0x2f
 3484 01ec 05       		.uleb128 0x5
 3485 01ed 00       		.byte	0
 3486 01ee 00       		.byte	0
 3487 01ef 25       		.uleb128 0x25
 3488 01f0 34       		.uleb128 0x34
 3489 01f1 00       		.byte	0
 3490 01f2 03       		.uleb128 0x3
 3491 01f3 0E       		.uleb128 0xe
 3492 01f4 3A       		.uleb128 0x3a
 3493 01f5 0B       		.uleb128 0xb
 3494 01f6 3B       		.uleb128 0x3b
 3495 01f7 0B       		.uleb128 0xb
 3496 01f8 49       		.uleb128 0x49
 3497 01f9 13       		.uleb128 0x13
 3498 01fa 3F       		.uleb128 0x3f
 3499 01fb 19       		.uleb128 0x19
 3500 01fc 02       		.uleb128 0x2
 3501 01fd 18       		.uleb128 0x18
 3502 01fe 00       		.byte	0
 3503 01ff 00       		.byte	0
 3504 0200 00       		.byte	0
 3505              		.section	.debug_aranges,"",%progbits
 3506 0000 5C000000 		.4byte	0x5c
 3507 0004 0200     		.2byte	0x2
 3508 0006 00000000 		.4byte	.Ldebug_info0
 3509 000a 04       		.byte	0x4
 3510 000b 00       		.byte	0
 3511 000c 0000     		.2byte	0
 3512 000e 0000     		.2byte	0
 3513 0010 00000000 		.4byte	.LFB2
ARM GAS  C:\Users\ROUSSMA\AppData\Local\Temp\cc3gA5P4.s 			page 101


 3514 0014 74000000 		.4byte	.LFE2-.LFB2
 3515 0018 00000000 		.4byte	.LFB3
 3516 001c 10000000 		.4byte	.LFE3-.LFB3
 3517 0020 00000000 		.4byte	.LFB4
 3518 0024 1C000000 		.4byte	.LFE4-.LFB4
 3519 0028 00000000 		.4byte	.LFB5
 3520 002c 10000000 		.4byte	.LFE5-.LFB5
 3521 0030 00000000 		.4byte	.LFB6
 3522 0034 0A000000 		.4byte	.LFE6-.LFB6
 3523 0038 00000000 		.4byte	.LFB7
 3524 003c 60000000 		.4byte	.LFE7-.LFB7
 3525 0040 00000000 		.4byte	.LFB8
 3526 0044 14000000 		.4byte	.LFE8-.LFB8
 3527 0048 00000000 		.4byte	.LFB9
 3528 004c 10000000 		.4byte	.LFE9-.LFB9
 3529 0050 00000000 		.4byte	.LFB10
 3530 0054 EC030000 		.4byte	.LFE10-.LFB10
 3531 0058 00000000 		.4byte	0
 3532 005c 00000000 		.4byte	0
 3533              		.section	.debug_ranges,"",%progbits
 3534              	.Ldebug_ranges0:
 3535 0000 00000000 		.4byte	.LFB2
 3536 0004 74000000 		.4byte	.LFE2
 3537 0008 00000000 		.4byte	.LFB3
 3538 000c 10000000 		.4byte	.LFE3
 3539 0010 00000000 		.4byte	.LFB4
 3540 0014 1C000000 		.4byte	.LFE4
 3541 0018 00000000 		.4byte	.LFB5
 3542 001c 10000000 		.4byte	.LFE5
 3543 0020 00000000 		.4byte	.LFB6
 3544 0024 0A000000 		.4byte	.LFE6
 3545 0028 00000000 		.4byte	.LFB7
 3546 002c 60000000 		.4byte	.LFE7
 3547 0030 00000000 		.4byte	.LFB8
 3548 0034 14000000 		.4byte	.LFE8
 3549 0038 00000000 		.4byte	.LFB9
 3550 003c 10000000 		.4byte	.LFE9
 3551 0040 00000000 		.4byte	.LFB10
 3552 0044 EC030000 		.4byte	.LFE10
 3553 0048 00000000 		.4byte	0
 3554 004c 00000000 		.4byte	0
 3555              		.section	.debug_line,"",%progbits
 3556              	.Ldebug_line0:
 3557 0000 4C020000 		.section	.debug_str,"MS",%progbits,1
 3557      0200E000 
 3557      00000201 
 3557      FB0E0D00 
 3557      01010101 
 3558              	.LASF265:
 3559 0000 4359424C 		.ascii	"CYBLE_GATT_ERR_INVALID_CRC\000"
 3559      455F4741 
 3559      54545F45 
 3559      52525F49 
 3559      4E56414C 
 3560              	.LASF16:
 3561 001b 73697A65 		.ascii	"sizetype\000"
 3561      74797065 
ARM GAS  C:\Users\ROUSSMA\AppData\Local\Temp\cc3gA5P4.s 			page 102


 3561      00
 3562              	.LASF191:
 3563 0024 656B6579 		.ascii	"ekeySize\000"
 3563      53697A65 
 3563      00
 3564              	.LASF234:
 3565 002d 4359424C 		.ascii	"CYBLE_GATT_HANDLE_VALUE_CNF\000"
 3565      455F4741 
 3565      54545F48 
 3565      414E444C 
 3565      455F5641 
 3566              	.LASF37:
 3567 0049 4359424C 		.ascii	"CYBLE_EVT_GAP_NUMERIC_COMPARISON_REQUEST\000"
 3567      455F4556 
 3567      545F4741 
 3567      505F4E55 
 3567      4D455249 
 3568              	.LASF330:
 3569 0072 61706952 		.ascii	"apiResult\000"
 3569      6573756C 
 3569      7400
 3570              	.LASF313:
 3571 007c 4379426C 		.ascii	"CyBle_WriteReqHandler\000"
 3571      655F5772 
 3571      69746552 
 3571      65714861 
 3571      6E646C65 
 3572              	.LASF143:
 3573 0092 72657175 		.ascii	"request\000"
 3573      65737400 
 3574              	.LASF180:
 3575 009a 4359424C 		.ascii	"CYBLE_GAP_AUTH_ERROR_CODE_SPEC_MAX_VALUE\000"
 3575      455F4741 
 3575      505F4155 
 3575      54485F45 
 3575      52524F52 
 3576              	.LASF273:
 3577 00c3 4359424C 		.ascii	"CYBLE_GATT_ERR_CCCD_IMPROPERLY_CONFIGURED\000"
 3577      455F4741 
 3577      54545F45 
 3577      52525F43 
 3577      4343445F 
 3578              	.LASF315:
 3579 00ed 6576656E 		.ascii	"eventParam\000"
 3579      74506172 
 3579      616D00
 3580              	.LASF31:
 3581 00f8 4359424C 		.ascii	"CYBLE_EVT_GAP_DEVICE_CONNECTED\000"
 3581      455F4556 
 3581      545F4741 
 3581      505F4445 
 3581      56494345 
 3582              	.LASF163:
 3583 0117 4359424C 		.ascii	"CYBLE_GAP_IOCAP_NOINPUT_NOOUTPUT\000"
 3583      455F4741 
 3583      505F494F 
 3583      4341505F 
ARM GAS  C:\Users\ROUSSMA\AppData\Local\Temp\cc3gA5P4.s 			page 103


 3583      4E4F494E 
 3584              	.LASF49:
 3585 0138 4359424C 		.ascii	"CYBLE_EVT_GATT_CONNECT_IND\000"
 3585      455F4556 
 3585      545F4741 
 3585      54545F43 
 3585      4F4E4E45 
 3586              	.LASF227:
 3587 0153 4359424C 		.ascii	"CYBLE_GATT_WRITE_CMD\000"
 3587      455F4741 
 3587      54545F57 
 3587      52495445 
 3587      5F434D44 
 3588              	.LASF11:
 3589 0168 75696E74 		.ascii	"uint32\000"
 3589      333200
 3590              	.LASF304:
 3591 016f 67617053 		.ascii	"gapServiceCharHandle\000"
 3591      65727669 
 3591      63654368 
 3591      61724861 
 3591      6E646C65 
 3592              	.LASF137:
 3593 0184 626C6550 		.ascii	"blePwrLevelInDbm\000"
 3593      77724C65 
 3593      76656C49 
 3593      6E44626D 
 3593      00
 3594              	.LASF239:
 3595 0195 4359424C 		.ascii	"CYBLE_GATT_ERR_READ_NOT_PERMITTED\000"
 3595      455F4741 
 3595      54545F45 
 3595      52525F52 
 3595      4541445F 
 3596              	.LASF254:
 3597 01b7 4359424C 		.ascii	"CYBLE_GATT_ERR_INSUFFICIENT_RESOURCE\000"
 3597      455F4741 
 3597      54545F45 
 3597      52525F49 
 3597      4E535546 
 3598              	.LASF228:
 3599 01dc 4359424C 		.ascii	"CYBLE_GATT_PREPARE_WRITE_REQ\000"
 3599      455F4741 
 3599      54545F50 
 3599      52455041 
 3599      52455F57 
 3600              	.LASF253:
 3601 01f9 4359424C 		.ascii	"CYBLE_GATT_ERR_UNSUPPORTED_GROUP_TYPE\000"
 3601      455F4741 
 3601      54545F45 
 3601      52525F55 
 3601      4E535550 
 3602              	.LASF105:
 3603 021f 4359424C 		.ascii	"CYBLE_ERROR_L2CAP_CONNECTION_ENTITY_NOT_FOUND\000"
 3603      455F4552 
 3603      524F525F 
 3603      4C324341 
ARM GAS  C:\Users\ROUSSMA\AppData\Local\Temp\cc3gA5P4.s 			page 104


 3603      505F434F 
 3604              	.LASF111:
 3605 024d 4359424C 		.ascii	"CYBLE_ERROR_MIC_AUTH_FAILED\000"
 3605      455F4552 
 3605      524F525F 
 3605      4D49435F 
 3605      41555448 
 3606              	.LASF69:
 3607 0269 4359424C 		.ascii	"CYBLE_EVT_GATTS_DATA_SIGNED_CMD_REQ\000"
 3607      455F4556 
 3607      545F4741 
 3607      5454535F 
 3607      44415441 
 3608              	.LASF81:
 3609 028d 4359424C 		.ascii	"CYBLE_EVT_L2CAP_CBFC_RX_CREDIT_IND\000"
 3609      455F4556 
 3609      545F4C32 
 3609      4341505F 
 3609      43424643 
 3610              	.LASF282:
 3611 02b0 4359424C 		.ascii	"CYBLE_GATT_VALUE_T\000"
 3611      455F4741 
 3611      54545F56 
 3611      414C5545 
 3611      5F5400
 3612              	.LASF328:
 3613 02c3 6D656D52 		.ascii	"memReq\000"
 3613      657100
 3614              	.LASF222:
 3615 02ca 4359424C 		.ascii	"CYBLE_GATT_READ_MULTIPLE_RSP\000"
 3615      455F4741 
 3615      54545F52 
 3615      4541445F 
 3615      4D554C54 
 3616              	.LASF148:
 3617 02e7 74797065 		.ascii	"type\000"
 3617      00
 3618              	.LASF154:
 3619 02ec 4359424C 		.ascii	"CYBLE_TO_REASON_CODE_T\000"
 3619      455F544F 
 3619      5F524541 
 3619      534F4E5F 
 3619      434F4445 
 3620              	.LASF255:
 3621 0303 4359424C 		.ascii	"CYBLE_GATT_ERR_TRIGGER_CODITION_VALUE_NOT_SUPPORTED"
 3621      455F4741 
 3621      54545F45 
 3621      52525F54 
 3621      52494747 
 3622 0336 00       		.ascii	"\000"
 3623              	.LASF181:
 3624 0337 4359424C 		.ascii	"CYBLE_GAP_AUTH_ERROR_AUTHENTICATION_TIMEOUT\000"
 3624      455F4741 
 3624      505F4155 
 3624      54485F45 
 3624      52524F52 
 3625              	.LASF173:
ARM GAS  C:\Users\ROUSSMA\AppData\Local\Temp\cc3gA5P4.s 			page 105


 3626 0363 4359424C 		.ascii	"CYBLE_GAP_AUTH_ERROR_UNSPECIFIED_REASON\000"
 3626      455F4741 
 3626      505F4155 
 3626      54485F45 
 3626      52524F52 
 3627              	.LASF216:
 3628 038b 4359424C 		.ascii	"CYBLE_GATT_READ_BY_TYPE_RSP\000"
 3628      455F4741 
 3628      54545F52 
 3628      4541445F 
 3628      42595F54 
 3629              	.LASF297:
 3630 03a7 4359424C 		.ascii	"CYBLE_CALLBACK_T\000"
 3630      455F4341 
 3630      4C4C4241 
 3630      434B5F54 
 3630      00
 3631              	.LASF66:
 3632 03b8 4359424C 		.ascii	"CYBLE_EVT_GATTC_HANDLE_VALUE_NTF\000"
 3632      455F4556 
 3632      545F4741 
 3632      5454435F 
 3632      48414E44 
 3633              	.LASF25:
 3634 03d9 4359424C 		.ascii	"CYBLE_EVT_GAP_AUTH_REQ\000"
 3634      455F4556 
 3634      545F4741 
 3634      505F4155 
 3634      54485F52 
 3635              	.LASF280:
 3636 03f0 4359424C 		.ascii	"CYBLE_CONN_HANDLE_T\000"
 3636      455F434F 
 3636      4E4E5F48 
 3636      414E444C 
 3636      455F5400 
 3637              	.LASF100:
 3638 0404 4359424C 		.ascii	"CYBLE_ERROR_BT_ON_NOT_COMPLETED\000"
 3638      455F4552 
 3638      524F525F 
 3638      42545F4F 
 3638      4E5F4E4F 
 3639              	.LASF160:
 3640 0424 4359424C 		.ascii	"CYBLE_GAP_IOCAP_DISPLAY_ONLY\000"
 3640      455F4741 
 3640      505F494F 
 3640      4341505F 
 3640      44495350 
 3641              	.LASF46:
 3642 0441 4359424C 		.ascii	"CYBLE_EVT_GAP_AUTH_REQ_REPLY_ERR\000"
 3642      455F4556 
 3642      545F4741 
 3642      505F4155 
 3642      54485F52 
 3643              	.LASF126:
 3644 0462 4359424C 		.ascii	"CYBLE_LL_PWR_LVL_NEG_3_DBM\000"
 3644      455F4C4C 
 3644      5F505752 
ARM GAS  C:\Users\ROUSSMA\AppData\Local\Temp\cc3gA5P4.s 			page 106


 3644      5F4C564C 
 3644      5F4E4547 
 3645              	.LASF320:
 3646 047d 61646472 		.ascii	"addressValid\000"
 3646      65737356 
 3646      616C6964 
 3646      00
 3647              	.LASF301:
 3648 048a 4359424C 		.ascii	"CYBLE_STATE_ADVERTISING\000"
 3648      455F5354 
 3648      4154455F 
 3648      41445645 
 3648      52544953 
 3649              	.LASF39:
 3650 04a2 4359424C 		.ascii	"CYBLE_EVT_GAP_OOB_GENERATED_NOTIFICATION\000"
 3650      455F4556 
 3650      545F4741 
 3650      505F4F4F 
 3650      425F4745 
 3651              	.LASF278:
 3652 04cb 62644861 		.ascii	"bdHandle\000"
 3652      6E646C65 
 3652      00
 3653              	.LASF267:
 3654 04d4 4359424C 		.ascii	"CYBLE_GATTS_ERR_NETWORK_NOT_AVAILABLE\000"
 3654      455F4741 
 3654      5454535F 
 3654      4552525F 
 3654      4E455457 
 3655              	.LASF166:
 3656 04fa 4359424C 		.ascii	"CYBLE_GAP_AUTH_ERROR_PASSKEY_ENTRY_FAILED\000"
 3656      455F4741 
 3656      505F4155 
 3656      54485F45 
 3656      52524F52 
 3657              	.LASF270:
 3658 0524 4359424C 		.ascii	"CYBLE_GATT_ERR_ANCS_INVALID_COMMAND\000"
 3658      455F4741 
 3658      54545F45 
 3658      52525F41 
 3658      4E43535F 
 3659              	.LASF203:
 3660 0548 6C6F6361 		.ascii	"localResolvablePvtAddr\000"
 3660      6C526573 
 3660      6F6C7661 
 3660      626C6550 
 3660      76744164 
 3661              	.LASF124:
 3662 055f 4359424C 		.ascii	"CYBLE_LL_PWR_LVL_NEG_12_DBM\000"
 3662      455F4C4C 
 3662      5F505752 
 3662      5F4C564C 
 3662      5F4E4547 
 3663              	.LASF210:
 3664 057b 4359424C 		.ascii	"CYBLE_GATT_XCHNG_MTU_RSP\000"
 3664      455F4741 
 3664      54545F58 
ARM GAS  C:\Users\ROUSSMA\AppData\Local\Temp\cc3gA5P4.s 			page 107


 3664      43484E47 
 3664      5F4D5455 
 3665              	.LASF62:
 3666 0594 4359424C 		.ascii	"CYBLE_EVT_GATTS_WRITE_CMD_REQ\000"
 3666      455F4556 
 3666      545F4741 
 3666      5454535F 
 3666      57524954 
 3667              	.LASF82:
 3668 05b2 4359424C 		.ascii	"CYBLE_EVT_L2CAP_CBFC_TX_CREDIT_IND\000"
 3668      455F4556 
 3668      545F4C32 
 3668      4341505F 
 3668      43424643 
 3669              	.LASF4:
 3670 05d5 6C6F6E67 		.ascii	"long int\000"
 3670      20696E74 
 3670      00
 3671              	.LASF185:
 3672 05de 4359424C 		.ascii	"CYBLE_GAP_RANDOM_RESOLVABLE_ADDR_TYPE\000"
 3672      455F4741 
 3672      505F5241 
 3672      4E444F4D 
 3672      5F524553 
 3673              	.LASF155:
 3674 0604 4359424C 		.ascii	"CYBLE_GAP_SEC_LEVEL_1\000"
 3674      455F4741 
 3674      505F5345 
 3674      435F4C45 
 3674      56454C5F 
 3675              	.LASF156:
 3676 061a 4359424C 		.ascii	"CYBLE_GAP_SEC_LEVEL_2\000"
 3676      455F4741 
 3676      505F5345 
 3676      435F4C45 
 3676      56454C5F 
 3677              	.LASF157:
 3678 0630 4359424C 		.ascii	"CYBLE_GAP_SEC_LEVEL_3\000"
 3678      455F4741 
 3678      505F5345 
 3678      435F4C45 
 3678      56454C5F 
 3679              	.LASF158:
 3680 0646 4359424C 		.ascii	"CYBLE_GAP_SEC_LEVEL_4\000"
 3680      455F4741 
 3680      505F5345 
 3680      435F4C45 
 3680      56454C5F 
 3681              	.LASF214:
 3682 065c 4359424C 		.ascii	"CYBLE_GATT_FIND_BY_TYPE_VALUE_RSP\000"
 3682      455F4741 
 3682      54545F46 
 3682      494E445F 
 3682      42595F54 
 3683              	.LASF18:
 3684 067e 4359424C 		.ascii	"CYBLE_EVT_STACK_ON\000"
 3684      455F4556 
ARM GAS  C:\Users\ROUSSMA\AppData\Local\Temp\cc3gA5P4.s 			page 108


 3684      545F5354 
 3684      41434B5F 
 3684      4F4E00
 3685              	.LASF107:
 3686 0691 4359424C 		.ascii	"CYBLE_ERROR_L2CAP_PSM_NOT_IN_RANGE\000"
 3686      455F4552 
 3686      524F525F 
 3686      4C324341 
 3686      505F5053 
 3687              	.LASF337:
 3688 06b4 6379426C 		.ascii	"cyBle_deviceAddress\000"
 3688      655F6465 
 3688      76696365 
 3688      41646472 
 3688      65737300 
 3689              	.LASF266:
 3690 06c8 4359424C 		.ascii	"CYBLE_GATTS_ERR_HPS_INVALID_REQUEST\000"
 3690      455F4741 
 3690      5454535F 
 3690      4552525F 
 3690      4850535F 
 3691              	.LASF241:
 3692 06ec 4359424C 		.ascii	"CYBLE_GATT_ERR_INVALID_PDU\000"
 3692      455F4741 
 3692      54545F45 
 3692      52525F49 
 3692      4E56414C 
 3693              	.LASF169:
 3694 0707 4359424C 		.ascii	"CYBLE_GAP_AUTH_ERROR_CONFIRM_VALUE_NOT_MATCH\000"
 3694      455F4741 
 3694      505F4155 
 3694      54485F45 
 3694      52524F52 
 3695              	.LASF119:
 3696 0734 4359424C 		.ascii	"CYBLE_ERROR_CHAR_IS_NOT_DISCOVERED\000"
 3696      455F4552 
 3696      524F525F 
 3696      43484152 
 3696      5F49535F 
 3697              	.LASF285:
 3698 0757 4359424C 		.ascii	"CYBLE_GATT_HANDLE_VALUE_PAIR_T\000"
 3698      455F4741 
 3698      54545F48 
 3698      414E444C 
 3698      455F5641 
 3699              	.LASF138:
 3700 0776 626C6553 		.ascii	"bleSsChId\000"
 3700      73436849 
 3700      6400
 3701              	.LASF75:
 3702 0780 4359424C 		.ascii	"CYBLE_EVT_L2CAP_COMMAND_REJ\000"
 3702      455F4556 
 3702      545F4C32 
 3702      4341505F 
 3702      434F4D4D 
 3703              	.LASF309:
 3704 079c 7270614F 		.ascii	"rpaOnlyCharHandle\000"
ARM GAS  C:\Users\ROUSSMA\AppData\Local\Temp\cc3gA5P4.s 			page 109


 3704      6E6C7943 
 3704      68617248 
 3704      616E646C 
 3704      6500
 3705              	.LASF220:
 3706 07ae 4359424C 		.ascii	"CYBLE_GATT_READ_BLOB_RSP\000"
 3706      455F4741 
 3706      54545F52 
 3706      4541445F 
 3706      424C4F42 
 3707              	.LASF250:
 3708 07c7 4359424C 		.ascii	"CYBLE_GATT_ERR_INVALID_ATTRIBUTE_LEN\000"
 3708      455F4741 
 3708      54545F45 
 3708      52525F49 
 3708      4E56414C 
 3709              	.LASF108:
 3710 07ec 4359424C 		.ascii	"CYBLE_ERROR_GATT_DB_INVALID_ATTR_HANDLE\000"
 3710      455F4552 
 3710      524F525F 
 3710      47415454 
 3710      5F44425F 
 3711              	.LASF0:
 3712 0814 7369676E 		.ascii	"signed char\000"
 3712      65642063 
 3712      68617200 
 3713              	.LASF123:
 3714 0820 4359424C 		.ascii	"CYBLE_LL_PWR_LVL_NEG_18_DBM\000"
 3714      455F4C4C 
 3714      5F505752 
 3714      5F4C564C 
 3714      5F4E4547 
 3715              	.LASF211:
 3716 083c 4359424C 		.ascii	"CYBLE_GATT_FIND_INFO_REQ\000"
 3716      455F4741 
 3716      54545F46 
 3716      494E445F 
 3716      494E464F 
 3717              	.LASF20:
 3718 0855 4359424C 		.ascii	"CYBLE_EVT_HARDWARE_ERROR\000"
 3718      455F4556 
 3718      545F4841 
 3718      52445741 
 3718      52455F45 
 3719              	.LASF349:
 3720 086e 4379426C 		.ascii	"CyBle_EventHandler\000"
 3720      655F4576 
 3720      656E7448 
 3720      616E646C 
 3720      657200
 3721              	.LASF89:
 3722 0881 4359424C 		.ascii	"CYBLE_ERROR_OK\000"
 3722      455F4552 
 3722      524F525F 
 3722      4F4B00
 3723              	.LASF136:
 3724 0890 4359424C 		.ascii	"CYBLE_BLESS_PHY_CH_GRP_ID_T\000"
ARM GAS  C:\Users\ROUSSMA\AppData\Local\Temp\cc3gA5P4.s 			page 110


 3724      455F424C 
 3724      4553535F 
 3724      5048595F 
 3724      43485F47 
 3725              	.LASF201:
 3726 08ac 70656572 		.ascii	"peerBdAddr\000"
 3726      42644164 
 3726      647200
 3727              	.LASF207:
 3728 08b7 4359424C 		.ascii	"CYBLE_GAP_ENHANCE_CONN_COMPLETE_T\000"
 3728      455F4741 
 3728      505F454E 
 3728      48414E43 
 3728      455F434F 
 3729              	.LASF53:
 3730 08d9 4359424C 		.ascii	"CYBLE_EVT_GATTC_READ_BY_GROUP_TYPE_RSP\000"
 3730      455F4556 
 3730      545F4741 
 3730      5454435F 
 3730      52454144 
 3731              	.LASF179:
 3732 0900 4359424C 		.ascii	"CYBLE_GAP_AUTH_ERROR_CROSS_TRANSPORT_KEY_GEN_DER_NO"
 3732      455F4741 
 3732      505F4155 
 3732      54485F45 
 3732      52524F52 
 3733 0933 545F414C 		.ascii	"T_ALLOWED\000"
 3733      4C4F5745 
 3733      4400
 3734              	.LASF298:
 3735 093d 4359424C 		.ascii	"CYBLE_STATE_STOPPED\000"
 3735      455F5354 
 3735      4154455F 
 3735      53544F50 
 3735      50454400 
 3736              	.LASF294:
 3737 0951 4359424C 		.ascii	"CYBLE_GATTS_ERR_PARAM_T\000"
 3737      455F4741 
 3737      5454535F 
 3737      4552525F 
 3737      50415241 
 3738              	.LASF1:
 3739 0969 756E7369 		.ascii	"unsigned char\000"
 3739      676E6564 
 3739      20636861 
 3739      7200
 3740              	.LASF52:
 3741 0977 4359424C 		.ascii	"CYBLE_EVT_GATTC_XCHNG_MTU_RSP\000"
 3741      455F4556 
 3741      545F4741 
 3741      5454435F 
 3741      5843484E 
 3742              	.LASF233:
 3743 0995 4359424C 		.ascii	"CYBLE_GATT_HANDLE_VALUE_IND\000"
 3743      455F4741 
 3743      54545F48 
 3743      414E444C 
ARM GAS  C:\Users\ROUSSMA\AppData\Local\Temp\cc3gA5P4.s 			page 111


 3743      455F5641 
 3744              	.LASF43:
 3745 09b1 4359424C 		.ascii	"CYBLE_EVT_GAP_SMP_NEGOTIATED_AUTH_INFO\000"
 3745      455F4556 
 3745      545F4741 
 3745      505F534D 
 3745      505F4E45 
 3746              	.LASF44:
 3747 09d8 4359424C 		.ascii	"CYBLE_EVT_GAP_CONN_ESTB\000"
 3747      455F4556 
 3747      545F4741 
 3747      505F434F 
 3747      4E4E5F45 
 3748              	.LASF293:
 3749 09f0 6572726F 		.ascii	"errorCode\000"
 3749      72436F64 
 3749      6500
 3750              	.LASF175:
 3751 09fa 4359424C 		.ascii	"CYBLE_GAP_AUTH_ERROR_INVALID_PARAMETERS\000"
 3751      455F4741 
 3751      505F4155 
 3751      54485F45 
 3751      52524F52 
 3752              	.LASF145:
 3753 0a22 636F6E66 		.ascii	"configMemory\000"
 3753      69674D65 
 3753      6D6F7279 
 3753      00
 3754              	.LASF79:
 3755 0a2f 4359424C 		.ascii	"CYBLE_EVT_L2CAP_CBFC_DISCONN_CNF\000"
 3755      455F4556 
 3755      545F4C32 
 3755      4341505F 
 3755      43424643 
 3756              	.LASF56:
 3757 0a50 4359424C 		.ascii	"CYBLE_EVT_GATTC_FIND_BY_TYPE_VALUE_RSP\000"
 3757      455F4556 
 3757      545F4741 
 3757      5454435F 
 3757      46494E44 
 3758              	.LASF186:
 3759 0a77 4359424C 		.ascii	"CYBLE_GAP_PUBLIC_IDENTITY_ADDR_TYPE\000"
 3759      455F4741 
 3759      505F5055 
 3759      424C4943 
 3759      5F494445 
 3760              	.LASF40:
 3761 0a9b 4359424C 		.ascii	"CYBLE_EVT_GAP_DATA_LENGTH_CHANGE\000"
 3761      455F4556 
 3761      545F4741 
 3761      505F4441 
 3761      54415F4C 
 3762              	.LASF14:
 3763 0abc 63686172 		.ascii	"char\000"
 3763      00
 3764              	.LASF127:
 3765 0ac1 4359424C 		.ascii	"CYBLE_LL_PWR_LVL_NEG_2_DBM\000"
ARM GAS  C:\Users\ROUSSMA\AppData\Local\Temp\cc3gA5P4.s 			page 112


 3765      455F4C4C 
 3765      5F505752 
 3765      5F4C564C 
 3765      5F4E4547 
 3766              	.LASF226:
 3767 0adc 4359424C 		.ascii	"CYBLE_GATT_WRITE_RSP\000"
 3767      455F4741 
 3767      54545F57 
 3767      52495445 
 3767      5F525350 
 3768              	.LASF59:
 3769 0af1 4359424C 		.ascii	"CYBLE_EVT_GATTC_READ_MULTI_RSP\000"
 3769      455F4556 
 3769      545F4741 
 3769      5454435F 
 3769      52454144 
 3770              	.LASF194:
 3771 0b10 4359424C 		.ascii	"CYBLE_GAP_AUTH_INFO_T\000"
 3771      455F4741 
 3771      505F4155 
 3771      54485F49 
 3771      4E464F5F 
 3772              	.LASF162:
 3773 0b26 4359424C 		.ascii	"CYBLE_GAP_IOCAP_KEYBOARD_ONLY\000"
 3773      455F4741 
 3773      505F494F 
 3773      4341505F 
 3773      4B455942 
 3774              	.LASF17:
 3775 0b44 4359424C 		.ascii	"CYBLE_EVT_HOST_INVALID\000"
 3775      455F4556 
 3775      545F484F 
 3775      53545F49 
 3775      4E56414C 
 3776              	.LASF262:
 3777 0b5b 4359424C 		.ascii	"CYBLE_GATT_ERR_MISSING_CRC\000"
 3777      455F4741 
 3777      54545F45 
 3777      52525F4D 
 3777      49535349 
 3778              	.LASF251:
 3779 0b76 4359424C 		.ascii	"CYBLE_GATT_ERR_UNLIKELY_ERROR\000"
 3779      455F4741 
 3779      54545F45 
 3779      52525F55 
 3779      4E4C494B 
 3780              	.LASF42:
 3781 0b94 4359424C 		.ascii	"CYBLE_EVT_GAPC_DIRECT_ADV_REPORT\000"
 3781      455F4556 
 3781      545F4741 
 3781      50435F44 
 3781      49524543 
 3782              	.LASF209:
 3783 0bb5 4359424C 		.ascii	"CYBLE_GATT_XCNHG_MTU_REQ\000"
 3783      455F4741 
 3783      54545F58 
 3783      434E4847 
ARM GAS  C:\Users\ROUSSMA\AppData\Local\Temp\cc3gA5P4.s 			page 113


 3783      5F4D5455 
 3784              	.LASF96:
 3785 0bce 4359424C 		.ascii	"CYBLE_ERROR_NO_DEVICE_ENTITY\000"
 3785      455F4552 
 3785      524F525F 
 3785      4E4F5F44 
 3785      45564943 
 3786              	.LASF58:
 3787 0beb 4359424C 		.ascii	"CYBLE_EVT_GATTC_READ_BLOB_RSP\000"
 3787      455F4556 
 3787      545F4741 
 3787      5454435F 
 3787      52454144 
 3788              	.LASF319:
 3789 0c09 64657669 		.ascii	"deviceAddress\000"
 3789      63654164 
 3789      64726573 
 3789      7300
 3790              	.LASF336:
 3791 0c17 6379426C 		.ascii	"cyBle_eventHandlerFlag\000"
 3791      655F6576 
 3791      656E7448 
 3791      616E646C 
 3791      6572466C 
 3792              	.LASF65:
 3793 0c2e 4359424C 		.ascii	"CYBLE_EVT_GATTC_EXEC_WRITE_RSP\000"
 3793      455F4556 
 3793      545F4741 
 3793      5454435F 
 3793      45584543 
 3794              	.LASF256:
 3795 0c4d 4359424C 		.ascii	"CYBLE_GATT_ERR_HEART_RATE_CONTROL_POINT_NOT_SUPPORT"
 3795      455F4741 
 3795      54545F45 
 3795      52525F48 
 3795      45415254 
 3796 0c80 454400   		.ascii	"ED\000"
 3797              	.LASF248:
 3798 0c83 4359424C 		.ascii	"CYBLE_GATT_ERR_ATTRIBUTE_NOT_LONG\000"
 3798      455F4741 
 3798      54545F45 
 3798      52525F41 
 3798      54545249 
 3799              	.LASF159:
 3800 0ca5 4359424C 		.ascii	"CYBLE_GAP_SEC_LEVEL_MASK\000"
 3800      455F4741 
 3800      505F5345 
 3800      435F4C45 
 3800      56454C5F 
 3801              	.LASF70:
 3802 0cbe 4359424C 		.ascii	"CYBLE_EVT_GATTC_STOP_CMD_COMPLETE\000"
 3802      455F4556 
 3802      545F4741 
 3802      5454435F 
 3802      53544F50 
 3803              	.LASF187:
 3804 0ce0 4359424C 		.ascii	"CYBLE_GAP_RANDOM_IDENTITY_ADDR_TYPE\000"
ARM GAS  C:\Users\ROUSSMA\AppData\Local\Temp\cc3gA5P4.s 			page 114


 3804      455F4741 
 3804      505F5241 
 3804      4E444F4D 
 3804      5F494445 
 3805              	.LASF272:
 3806 0d04 4359424C 		.ascii	"CYBLE_GATT_ERR_ANCS_ACTION_FAILED\000"
 3806      455F4741 
 3806      54545F45 
 3806      52525F41 
 3806      4E43535F 
 3807              	.LASF343:
 3808 0d26 6379426C 		.ascii	"cyBle_gaps\000"
 3808      655F6761 
 3808      707300
 3809              	.LASF341:
 3810 0d31 6379426C 		.ascii	"cyBle_connHandle\000"
 3810      655F636F 
 3810      6E6E4861 
 3810      6E646C65 
 3810      00
 3811              	.LASF208:
 3812 0d42 4359424C 		.ascii	"CYBLE_GATT_ERROR_RSP\000"
 3812      455F4741 
 3812      54545F45 
 3812      52524F52 
 3812      5F525350 
 3813              	.LASF115:
 3814 0d57 4359424C 		.ascii	"CYBLE_ERROR_CONTROLLER_BUSY\000"
 3814      455F4552 
 3814      524F525F 
 3814      434F4E54 
 3814      524F4C4C 
 3815              	.LASF90:
 3816 0d73 4359424C 		.ascii	"CYBLE_ERROR_INVALID_PARAMETER\000"
 3816      455F4552 
 3816      524F525F 
 3816      494E5641 
 3816      4C49445F 
 3817              	.LASF323:
 3818 0d91 4379426C 		.ascii	"CyBle_GapConnUpdateCompleteEventHandler\000"
 3818      655F4761 
 3818      70436F6E 
 3818      6E557064 
 3818      61746543 
 3819              	.LASF178:
 3820 0db9 4359424C 		.ascii	"CYBLE_GAP_AUTH_ERROR_BR_EDR_PAIRING_IN_PROGRESS\000"
 3820      455F4741 
 3820      505F4155 
 3820      54485F45 
 3820      52524F52 
 3821              	.LASF92:
 3822 0de9 4359424C 		.ascii	"CYBLE_ERROR_MEMORY_ALLOCATION_FAILED\000"
 3822      455F4552 
 3822      524F525F 
 3822      4D454D4F 
 3822      52595F41 
 3823              	.LASF290:
ARM GAS  C:\Users\ROUSSMA\AppData\Local\Temp\cc3gA5P4.s 			page 115


 3824 0e0e 70726570 		.ascii	"prepareWriteQueueSize\000"
 3824      61726557 
 3824      72697465 
 3824      51756575 
 3824      6553697A 
 3825              	.LASF338:
 3826 0e24 6379426C 		.ascii	"cyBle_sflashDeviceAddress\000"
 3826      655F7366 
 3826      6C617368 
 3826      44657669 
 3826      63654164 
 3827              	.LASF235:
 3828 0e3e 4359424C 		.ascii	"CYBLE_GATT_SIGNED_WRITE_CMD\000"
 3828      455F4741 
 3828      54545F53 
 3828      49474E45 
 3828      445F5752 
 3829              	.LASF263:
 3830 0e5a 4359424C 		.ascii	"CYBLE_GATTS_ERR_CCCD_IMPROPERLY_CONFIGURED\000"
 3830      455F4741 
 3830      5454535F 
 3830      4552525F 
 3830      43434344 
 3831              	.LASF231:
 3832 0e85 4359424C 		.ascii	"CYBLE_GATT_EXECUTE_WRITE_RSP\000"
 3832      455F4741 
 3832      54545F45 
 3832      58454355 
 3832      54455F57 
 3833              	.LASF116:
 3834 0ea2 4359424C 		.ascii	"CYBLE_ERROR_MAX\000"
 3834      455F4552 
 3834      524F525F 
 3834      4D415800 
 3835              	.LASF74:
 3836 0eb2 4359424C 		.ascii	"CYBLE_EVT_L2CAP_CONN_PARAM_UPDATE_RSP\000"
 3836      455F4556 
 3836      545F4C32 
 3836      4341505F 
 3836      434F4E4E 
 3837              	.LASF182:
 3838 0ed8 4359424C 		.ascii	"CYBLE_GAP_AUTH_ERROR_LINK_DISCONNECTED\000"
 3838      455F4741 
 3838      505F4155 
 3838      54485F45 
 3838      52524F52 
 3839              	.LASF86:
 3840 0eff 4359424C 		.ascii	"CYBLE_EVT_HCI_PKT\000"
 3840      455F4556 
 3840      545F4843 
 3840      495F504B 
 3840      5400
 3841              	.LASF206:
 3842 0f11 6D617374 		.ascii	"masterClockAccuracy\000"
 3842      6572436C 
 3842      6F636B41 
 3842      63637572 
ARM GAS  C:\Users\ROUSSMA\AppData\Local\Temp\cc3gA5P4.s 			page 116


 3842      61637900 
 3843              	.LASF345:
 3844 0f25 474E5520 		.ascii	"GNU C11 5.4.1 20160609 (release) [ARM/embedded-5-br"
 3844      43313120 
 3844      352E342E 
 3844      31203230 
 3844      31363036 
 3845 0f58 616E6368 		.ascii	"anch revision 237715] -mcpu=cortex-m0 -mthumb -g -O"
 3845      20726576 
 3845      6973696F 
 3845      6E203233 
 3845      37373135 
 3846 0f8b 30202D66 		.ascii	"0 -ffunction-sections -ffat-lto-objects\000"
 3846      66756E63 
 3846      74696F6E 
 3846      2D736563 
 3846      74696F6E 
 3847              	.LASF257:
 3848 0fb3 4359424C 		.ascii	"CYBLE_GATT_ERR_USER_DATA_ACCESS_NOT_PERMITTED\000"
 3848      455F4741 
 3848      54545F45 
 3848      52525F55 
 3848      5345525F 
 3849              	.LASF28:
 3850 0fe1 4359424C 		.ascii	"CYBLE_EVT_GAP_AUTH_COMPLETE\000"
 3850      455F4556 
 3850      545F4741 
 3850      505F4155 
 3850      54485F43 
 3851              	.LASF29:
 3852 0ffd 4359424C 		.ascii	"CYBLE_EVT_GAP_AUTH_FAILED\000"
 3852      455F4556 
 3852      545F4741 
 3852      505F4155 
 3852      54485F46 
 3853              	.LASF144:
 3854 1017 616C6C6F 		.ascii	"allocFree\000"
 3854      63467265 
 3854      6500
 3855              	.LASF121:
 3856 1021 4359424C 		.ascii	"CYBLE_ERROR_STACK_BUSY\000"
 3856      455F4552 
 3856      524F525F 
 3856      53544143 
 3856      4B5F4255 
 3857              	.LASF224:
 3858 1038 4359424C 		.ascii	"CYBLE_GATT_READ_BY_GROUP_RSP\000"
 3858      455F4741 
 3858      54545F52 
 3858      4541445F 
 3858      42595F47 
 3859              	.LASF93:
 3860 1055 4359424C 		.ascii	"CYBLE_ERROR_INSUFFICIENT_RESOURCES\000"
 3860      455F4552 
 3860      524F525F 
 3860      494E5355 
 3860      46464943 
ARM GAS  C:\Users\ROUSSMA\AppData\Local\Temp\cc3gA5P4.s 			page 117


 3861              	.LASF261:
 3862 1078 4359424C 		.ascii	"CYBLE_GATT_ERR_OP_CODE_NOT_SUPPORTED\000"
 3862      455F4741 
 3862      54545F45 
 3862      52525F4F 
 3862      505F434F 
 3863              	.LASF130:
 3864 109d 4359424C 		.ascii	"CYBLE_LL_PWR_LVL_3_DBM\000"
 3864      455F4C4C 
 3864      5F505752 
 3864      5F4C564C 
 3864      5F335F44 
 3865              	.LASF5:
 3866 10b4 6C6F6E67 		.ascii	"long unsigned int\000"
 3866      20756E73 
 3866      69676E65 
 3866      6420696E 
 3866      7400
 3867              	.LASF217:
 3868 10c6 4359424C 		.ascii	"CYBLE_GATT_READ_REQ\000"
 3868      455F4741 
 3868      54545F52 
 3868      4541445F 
 3868      52455100 
 3869              	.LASF195:
 3870 10da 73746174 		.ascii	"status\000"
 3870      757300
 3871              	.LASF128:
 3872 10e1 4359424C 		.ascii	"CYBLE_LL_PWR_LVL_NEG_1_DBM\000"
 3872      455F4C4C 
 3872      5F505752 
 3872      5F4C564C 
 3872      5F4E4547 
 3873              	.LASF113:
 3874 10fc 4359424C 		.ascii	"CYBLE_ERROR_UNSUPPORTED_FEATURE_OR_PARAMETER_VALUE\000"
 3874      455F4552 
 3874      524F525F 
 3874      554E5355 
 3874      50504F52 
 3875              	.LASF141:
 3876 112f 4359424C 		.ascii	"CYBLE_INVALID_REQUEST\000"
 3876      455F494E 
 3876      56414C49 
 3876      445F5245 
 3876      51554553 
 3877              	.LASF172:
 3878 1145 4359424C 		.ascii	"CYBLE_GAP_AUTH_ERROR_COMMAND_NOT_SUPPORTED\000"
 3878      455F4741 
 3878      505F4155 
 3878      54485F45 
 3878      52524F52 
 3879              	.LASF168:
 3880 1170 4359424C 		.ascii	"CYBLE_GAP_AUTH_ERROR_AUTHENTICATION_REQ_NOT_MET\000"
 3880      455F4741 
 3880      505F4155 
 3880      54485F45 
 3880      52524F52 
ARM GAS  C:\Users\ROUSSMA\AppData\Local\Temp\cc3gA5P4.s 			page 118


 3881              	.LASF232:
 3882 11a0 4359424C 		.ascii	"CYBLE_GATT_HANDLE_VALUE_NTF\000"
 3882      455F4741 
 3882      54545F48 
 3882      414E444C 
 3882      455F5641 
 3883              	.LASF103:
 3884 11bc 4359424C 		.ascii	"CYBLE_ERROR_L2CAP_PSM_ALREADY_REGISTERED\000"
 3884      455F4552 
 3884      524F525F 
 3884      4C324341 
 3884      505F5053 
 3885              	.LASF269:
 3886 11e5 4359424C 		.ascii	"CYBLE_GATT_ERR_ANCS_UNKNOWN_COMMAND\000"
 3886      455F4741 
 3886      54545F45 
 3886      52525F41 
 3886      4E43535F 
 3887              	.LASF291:
 3888 1209 4359424C 		.ascii	"CYBLE_PREPARE_WRITE_REQUEST_MEMORY_T\000"
 3888      455F5052 
 3888      45504152 
 3888      455F5752 
 3888      4954455F 
 3889              	.LASF34:
 3890 122e 4359424C 		.ascii	"CYBLE_EVT_GAP_CONNECTION_UPDATE_COMPLETE\000"
 3890      455F4556 
 3890      545F4741 
 3890      505F434F 
 3890      4E4E4543 
 3891              	.LASF342:
 3892 1257 6379426C 		.ascii	"cyBle_busyStatus\000"
 3892      655F6275 
 3892      73795374 
 3892      61747573 
 3892      00
 3893              	.LASF299:
 3894 1268 4359424C 		.ascii	"CYBLE_STATE_INITIALIZING\000"
 3894      455F5354 
 3894      4154455F 
 3894      494E4954 
 3894      49414C49 
 3895              	.LASF333:
 3896 1281 6379426C 		.ascii	"cyBle_mtuSize\000"
 3896      655F6D74 
 3896      7553697A 
 3896      6500
 3897              	.LASF174:
 3898 128f 4359424C 		.ascii	"CYBLE_GAP_AUTH_ERROR_REPEATED_ATTEMPTS\000"
 3898      455F4741 
 3898      505F4155 
 3898      54485F45 
 3898      52524F52 
 3899              	.LASF78:
 3900 12b6 4359424C 		.ascii	"CYBLE_EVT_L2CAP_CBFC_DISCONN_IND\000"
 3900      455F4556 
 3900      545F4C32 
ARM GAS  C:\Users\ROUSSMA\AppData\Local\Temp\cc3gA5P4.s 			page 119


 3900      4341505F 
 3900      43424643 
 3901              	.LASF347:
 3902 12d7 433A5C55 		.ascii	"C:\\Users\\ROUSSMA\\Documents\\PSoC Creator\\RGB_OL"
 3902      73657273 
 3902      5C524F55 
 3902      53534D41 
 3902      5C446F63 
 3903 1305 45445C52 		.ascii	"ED\\RGB_OLED.cydsn\000"
 3903      47425F4F 
 3903      4C45442E 
 3903      63796473 
 3903      6E00
 3904              	.LASF26:
 3905 1317 4359424C 		.ascii	"CYBLE_EVT_GAP_PASSKEY_ENTRY_REQUEST\000"
 3905      455F4556 
 3905      545F4741 
 3905      505F5041 
 3905      53534B45 
 3906              	.LASF176:
 3907 133b 4359424C 		.ascii	"CYBLE_GAP_AUTH_ERROR_DHKEY_CHECK_FAILED\000"
 3907      455F4741 
 3907      505F4155 
 3907      54485F45 
 3907      52524F52 
 3908              	.LASF132:
 3909 1363 4359424C 		.ascii	"CYBLE_BLESS_PWR_LVL_T\000"
 3909      455F424C 
 3909      4553535F 
 3909      5057525F 
 3909      4C564C5F 
 3910              	.LASF318:
 3911 1379 4379426C 		.ascii	"CyBle_GattConnectReqHandler\000"
 3911      655F4761 
 3911      7474436F 
 3911      6E6E6563 
 3911      74526571 
 3912              	.LASF184:
 3913 1395 4359424C 		.ascii	"CYBLE_GAP_PUBLIC_ADDR_TYPE\000"
 3913      455F4741 
 3913      505F5055 
 3913      424C4943 
 3913      5F414444 
 3914              	.LASF171:
 3915 13b0 4359424C 		.ascii	"CYBLE_GAP_AUTH_ERROR_INSUFFICIENT_ENCRYPTION_KEY_SI"
 3915      455F4741 
 3915      505F4155 
 3915      54485F45 
 3915      52524F52 
 3916 13e3 5A4500   		.ascii	"ZE\000"
 3917              	.LASF6:
 3918 13e6 6C6F6E67 		.ascii	"long long int\000"
 3918      206C6F6E 
 3918      6720696E 
 3918      7400
 3919              	.LASF317:
 3920 13f4 4379426C 		.ascii	"CyBle_GattDisconnectEventHandler\000"
ARM GAS  C:\Users\ROUSSMA\AppData\Local\Temp\cc3gA5P4.s 			page 120


 3920      655F4761 
 3920      74744469 
 3920      73636F6E 
 3920      6E656374 
 3921              	.LASF146:
 3922 1415 4359424C 		.ascii	"CYBLE_MEMORY_REQUEST_T\000"
 3922      455F4D45 
 3922      4D4F5259 
 3922      5F524551 
 3922      55455354 
 3923              	.LASF189:
 3924 142c 73656375 		.ascii	"security\000"
 3924      72697479 
 3924      00
 3925              	.LASF246:
 3926 1435 4359424C 		.ascii	"CYBLE_GATT_ERR_PREPARE_WRITE_QUEUE_FULL\000"
 3926      455F4741 
 3926      54545F45 
 3926      52525F50 
 3926      52455041 
 3927              	.LASF104:
 3928 145d 4359424C 		.ascii	"CYBLE_ERROR_L2CAP_PSM_NOT_REGISTERED\000"
 3928      455F4552 
 3928      524F525F 
 3928      4C324341 
 3928      505F5053 
 3929              	.LASF94:
 3930 1482 4359424C 		.ascii	"CYBLE_ERROR_OOB_NOT_AVAILABLE\000"
 3930      455F4552 
 3930      524F525F 
 3930      4F4F425F 
 3930      4E4F545F 
 3931              	.LASF13:
 3932 14a0 646F7562 		.ascii	"double\000"
 3932      6C6500
 3933              	.LASF109:
 3934 14a7 4359424C 		.ascii	"CYBLE_ERROR_DEVICE_ALREADY_EXISTS\000"
 3934      455F4552 
 3934      524F525F 
 3934      44455649 
 3934      43455F41 
 3935              	.LASF84:
 3936 14c9 4359424C 		.ascii	"CYBLE_EVT_PENDING_FLASH_WRITE\000"
 3936      455F4556 
 3936      545F5045 
 3936      4E44494E 
 3936      475F464C 
 3937              	.LASF249:
 3938 14e7 4359424C 		.ascii	"CYBLE_GATT_ERR_INSUFFICIENT_ENC_KEY_SIZE\000"
 3938      455F4741 
 3938      54545F45 
 3938      52525F49 
 3938      4E535546 
 3939              	.LASF131:
 3940 1510 4359424C 		.ascii	"CYBLE_LL_PWR_LVL_MAX\000"
 3940      455F4C4C 
 3940      5F505752 
ARM GAS  C:\Users\ROUSSMA\AppData\Local\Temp\cc3gA5P4.s 			page 121


 3940      5F4C564C 
 3940      5F4D4158 
 3941              	.LASF305:
 3942 1525 64657669 		.ascii	"deviceNameCharHandle\000"
 3942      63654E61 
 3942      6D654368 
 3942      61724861 
 3942      6E646C65 
 3943              	.LASF274:
 3944 153a 4359424C 		.ascii	"CYBLE_GATT_ERR_PROCEDURE_ALREADY_IN_PROGRESS\000"
 3944      455F4741 
 3944      54545F45 
 3944      52525F50 
 3944      524F4345 
 3945              	.LASF41:
 3946 1567 4359424C 		.ascii	"CYBLE_EVT_GAP_ENHANCE_CONN_COMPLETE\000"
 3946      455F4556 
 3946      545F4741 
 3946      505F454E 
 3946      48414E43 
 3947              	.LASF106:
 3948 158b 4359424C 		.ascii	"CYBLE_ERROR_L2CAP_CHANNEL_NOT_FOUND\000"
 3948      455F4552 
 3948      524F525F 
 3948      4C324341 
 3948      505F4348 
 3949              	.LASF97:
 3950 15af 4359424C 		.ascii	"CYBLE_ERROR_REPEATED_ATTEMPTS\000"
 3950      455F4552 
 3950      524F525F 
 3950      52455045 
 3950      41544544 
 3951              	.LASF314:
 3952 15cd 4379426C 		.ascii	"CyBle_ValueConfirmation\000"
 3952      655F5661 
 3952      6C756543 
 3952      6F6E6669 
 3952      726D6174 
 3953              	.LASF12:
 3954 15e5 666C6F61 		.ascii	"float\000"
 3954      7400
 3955              	.LASF110:
 3956 15eb 4359424C 		.ascii	"CYBLE_ERROR_FLASH_WRITE_NOT_PERMITED\000"
 3956      455F4552 
 3956      524F525F 
 3956      464C4153 
 3956      485F5752 
 3957              	.LASF71:
 3958 1610 4359424C 		.ascii	"CYBLE_EVT_GATTS_READ_CHAR_VAL_ACCESS_REQ\000"
 3958      455F4556 
 3958      545F4741 
 3958      5454535F 
 3958      52454144 
 3959              	.LASF292:
 3960 1639 6F70636F 		.ascii	"opcode\000"
 3960      646500
 3961              	.LASF245:
ARM GAS  C:\Users\ROUSSMA\AppData\Local\Temp\cc3gA5P4.s 			page 122


 3962 1640 4359424C 		.ascii	"CYBLE_GATT_ERR_INSUFFICIENT_AUTHORIZATION\000"
 3962      455F4741 
 3962      54545F45 
 3962      52525F49 
 3962      4E535546 
 3963              	.LASF284:
 3964 166a 61747472 		.ascii	"attrHandle\000"
 3964      48616E64 
 3964      6C6500
 3965              	.LASF190:
 3966 1675 626F6E64 		.ascii	"bonding\000"
 3966      696E6700 
 3967              	.LASF296:
 3968 167d 4359424C 		.ascii	"CYBLE_GATTS_WRITE_REQ_PARAM_T\000"
 3968      455F4741 
 3968      5454535F 
 3968      57524954 
 3968      455F5245 
 3969              	.LASF8:
 3970 169b 756E7369 		.ascii	"unsigned int\000"
 3970      676E6564 
 3970      20696E74 
 3970      00
 3971              	.LASF63:
 3972 16a8 4359424C 		.ascii	"CYBLE_EVT_GATTS_PREP_WRITE_REQ\000"
 3972      455F4556 
 3972      545F4741 
 3972      5454535F 
 3972      50524550 
 3973              	.LASF242:
 3974 16c7 4359424C 		.ascii	"CYBLE_GATT_ERR_INSUFFICIENT_AUTHENTICATION\000"
 3974      455F4741 
 3974      54545F45 
 3974      52525F49 
 3974      4E535546 
 3975              	.LASF287:
 3976 16f2 4359424C 		.ascii	"CYBLE_GATT_XCHG_MTU_PARAM_T\000"
 3976      455F4741 
 3976      54545F58 
 3976      4348475F 
 3976      4D54555F 
 3977              	.LASF134:
 3978 170e 4359424C 		.ascii	"CYBLE_LL_CONN_CH_TYPE\000"
 3978      455F4C4C 
 3978      5F434F4E 
 3978      4E5F4348 
 3978      5F545950 
 3979              	.LASF260:
 3980 1724 4359424C 		.ascii	"CYBLE_GATTS_ERR_PROCEDURE_ALREADY_IN_PROGRESS\000"
 3980      455F4741 
 3980      5454535F 
 3980      4552525F 
 3980      50524F43 
 3981              	.LASF202:
 3982 1752 70656572 		.ascii	"peerBdAddrType\000"
 3982      42644164 
 3982      64725479 
ARM GAS  C:\Users\ROUSSMA\AppData\Local\Temp\cc3gA5P4.s 			page 123


 3982      706500
 3983              	.LASF312:
 3984 1761 6572725F 		.ascii	"err_param\000"
 3984      70617261 
 3984      6D00
 3985              	.LASF102:
 3986 176b 4359424C 		.ascii	"CYBLE_ERROR_L2CAP_PSM_WRONG_ENCODING\000"
 3986      455F4552 
 3986      524F525F 
 3986      4C324341 
 3986      505F5053 
 3987              	.LASF229:
 3988 1790 4359424C 		.ascii	"CYBLE_GATT_PREPARE_WRITE_RSP\000"
 3988      455F4741 
 3988      54545F50 
 3988      52455041 
 3988      52455F57 
 3989              	.LASF329:
 3990 17ad 67507265 		.ascii	"gPrepWriteReqMem\000"
 3990      70577269 
 3990      74655265 
 3990      714D656D 
 3990      00
 3991              	.LASF247:
 3992 17be 4359424C 		.ascii	"CYBLE_GATT_ERR_ATTRIBUTE_NOT_FOUND\000"
 3992      455F4741 
 3992      54545F45 
 3992      52525F41 
 3992      54545249 
 3993              	.LASF88:
 3994 17e1 4359424C 		.ascii	"CYBLE_EVT_MAX\000"
 3994      455F4556 
 3994      545F4D41 
 3994      5800
 3995              	.LASF35:
 3996 17ef 4359424C 		.ascii	"CYBLE_EVT_GAPC_SCAN_START_STOP\000"
 3996      455F4556 
 3996      545F4741 
 3996      50435F53 
 3996      43414E5F 
 3997              	.LASF348:
 3998 180e 4379426C 		.ascii	"CyBle_IsDeviceAddressValid\000"
 3998      655F4973 
 3998      44657669 
 3998      63654164 
 3998      64726573 
 3999              	.LASF183:
 4000 1829 4359424C 		.ascii	"CYBLE_GAP_AUTH_FAILED_REASON_T\000"
 4000      455F4741 
 4000      505F4155 
 4000      54485F46 
 4000      41494C45 
 4001              	.LASF60:
 4002 1848 4359424C 		.ascii	"CYBLE_EVT_GATTS_WRITE_REQ\000"
 4002      455F4556 
 4002      545F4741 
 4002      5454535F 
ARM GAS  C:\Users\ROUSSMA\AppData\Local\Temp\cc3gA5P4.s 			page 124


 4002      57524954 
 4003              	.LASF307:
 4004 1862 70726566 		.ascii	"prefConnParamCharHandle\000"
 4004      436F6E6E 
 4004      50617261 
 4004      6D436861 
 4004      7248616E 
 4005              	.LASF27:
 4006 187a 4359424C 		.ascii	"CYBLE_EVT_GAP_PASSKEY_DISPLAY_REQUEST\000"
 4006      455F4556 
 4006      545F4741 
 4006      505F5041 
 4006      53534B45 
 4007              	.LASF118:
 4008 18a0 4359424C 		.ascii	"CYBLE_ERROR_IND_DISABLED\000"
 4008      455F4552 
 4008      524F525F 
 4008      494E445F 
 4008      44495341 
 4009              	.LASF117:
 4010 18b9 4359424C 		.ascii	"CYBLE_ERROR_NTF_DISABLED\000"
 4010      455F4552 
 4010      524F525F 
 4010      4E54465F 
 4010      44495341 
 4011              	.LASF221:
 4012 18d2 4359424C 		.ascii	"CYBLE_GATT_READ_MULTIPLE_REQ\000"
 4012      455F4741 
 4012      54545F52 
 4012      4541445F 
 4012      4D554C54 
 4013              	.LASF57:
 4014 18ef 4359424C 		.ascii	"CYBLE_EVT_GATTC_READ_RSP\000"
 4014      455F4556 
 4014      545F4741 
 4014      5454435F 
 4014      52454144 
 4015              	.LASF244:
 4016 1908 4359424C 		.ascii	"CYBLE_GATT_ERR_INVALID_OFFSET\000"
 4016      455F4741 
 4016      54545F45 
 4016      52525F49 
 4016      4E56414C 
 4017              	.LASF215:
 4018 1926 4359424C 		.ascii	"CYBLE_GATT_READ_BY_TYPE_REQ\000"
 4018      455F4741 
 4018      54545F52 
 4018      4541445F 
 4018      42595F54 
 4019              	.LASF77:
 4020 1942 4359424C 		.ascii	"CYBLE_EVT_L2CAP_CBFC_CONN_CNF\000"
 4020      455F4556 
 4020      545F4C32 
 4020      4341505F 
 4020      43424643 
 4021              	.LASF275:
 4022 1960 4359424C 		.ascii	"CYBLE_GATT_ERR_OUT_OF_RANGE\000"
ARM GAS  C:\Users\ROUSSMA\AppData\Local\Temp\cc3gA5P4.s 			page 125


 4022      455F4741 
 4022      54545F45 
 4022      52525F4F 
 4022      55545F4F 
 4023              	.LASF87:
 4024 197c 4359424C 		.ascii	"CYBLE_EVT_FLASH_CORRUPT\000"
 4024      455F4556 
 4024      545F464C 
 4024      4153485F 
 4024      434F5252 
 4025              	.LASF15:
 4026 1994 6C6F6E67 		.ascii	"long double\000"
 4026      20646F75 
 4026      626C6500 
 4027              	.LASF213:
 4028 19a0 4359424C 		.ascii	"CYBLE_GATT_FIND_BY_TYPE_VALUE_REQ\000"
 4028      455F4741 
 4028      54545F46 
 4028      494E445F 
 4028      42595F54 
 4029              	.LASF125:
 4030 19c2 4359424C 		.ascii	"CYBLE_LL_PWR_LVL_NEG_6_DBM\000"
 4030      455F4C4C 
 4030      5F505752 
 4030      5F4C564C 
 4030      5F4E4547 
 4031              	.LASF23:
 4032 19dd 4359424C 		.ascii	"CYBLE_EVT_MEMORY_REQUEST\000"
 4032      455F4556 
 4032      545F4D45 
 4032      4D4F5259 
 4032      5F524551 
 4033              	.LASF306:
 4034 19f6 61707065 		.ascii	"appearanceCharHandle\000"
 4034      6172616E 
 4034      63654368 
 4034      61724861 
 4034      6E646C65 
 4035              	.LASF165:
 4036 1a0b 4359424C 		.ascii	"CYBLE_GAP_AUTH_ERROR_NONE\000"
 4036      455F4741 
 4036      505F4155 
 4036      54485F45 
 4036      52524F52 
 4037              	.LASF33:
 4038 1a25 4359424C 		.ascii	"CYBLE_EVT_GAP_ENCRYPT_CHANGE\000"
 4038      455F4556 
 4038      545F4741 
 4038      505F454E 
 4038      43525950 
 4039              	.LASF288:
 4040 1a42 71756575 		.ascii	"queueBuffer\000"
 4040      65427566 
 4040      66657200 
 4041              	.LASF51:
 4042 1a4e 4359424C 		.ascii	"CYBLE_EVT_GATTS_XCNHG_MTU_REQ\000"
 4042      455F4556 
ARM GAS  C:\Users\ROUSSMA\AppData\Local\Temp\cc3gA5P4.s 			page 126


 4042      545F4741 
 4042      5454535F 
 4042      58434E48 
 4043              	.LASF212:
 4044 1a6c 4359424C 		.ascii	"CYBLE_GATT_FIND_INFO_RSP\000"
 4044      455F4741 
 4044      54545F46 
 4044      494E445F 
 4044      494E464F 
 4045              	.LASF167:
 4046 1a85 4359424C 		.ascii	"CYBLE_GAP_AUTH_ERROR_OOB_DATA_NOT_AVAILABLE\000"
 4046      455F4741 
 4046      505F4155 
 4046      54485F45 
 4046      52524F52 
 4047              	.LASF47:
 4048 1ab1 4359424C 		.ascii	"CYBLE_EVT_GAP_SMP_LOC_P256_KEYS_GEN_AND_SET_COMPLET"
 4048      455F4556 
 4048      545F4741 
 4048      505F534D 
 4048      505F4C4F 
 4049 1ae4 4500     		.ascii	"E\000"
 4050              	.LASF140:
 4051 1ae6 4359424C 		.ascii	"CYBLE_PREPARED_WRITE_REQUEST\000"
 4051      455F5052 
 4051      45504152 
 4051      45445F57 
 4051      52495445 
 4052              	.LASF199:
 4053 1b03 4359424C 		.ascii	"CYBLE_GAP_CONN_PARAM_UPDATED_IN_CONTROLLER_T\000"
 4053      455F4741 
 4053      505F434F 
 4053      4E4E5F50 
 4053      4152414D 
 4054              	.LASF7:
 4055 1b30 6C6F6E67 		.ascii	"long long unsigned int\000"
 4055      206C6F6E 
 4055      6720756E 
 4055      7369676E 
 4055      65642069 
 4056              	.LASF238:
 4057 1b47 4359424C 		.ascii	"CYBLE_GATT_ERR_INVALID_HANDLE\000"
 4057      455F4741 
 4057      54545F45 
 4057      52525F49 
 4057      4E56414C 
 4058              	.LASF346:
 4059 1b65 47656E65 		.ascii	"Generated_Source\\PSoC4\\BLE_1_eventHandler.c\000"
 4059      72617465 
 4059      645F536F 
 4059      75726365 
 4059      5C50536F 
 4060              	.LASF19:
 4061 1b91 4359424C 		.ascii	"CYBLE_EVT_TIMEOUT\000"
 4061      455F4556 
 4061      545F5449 
 4061      4D454F55 
ARM GAS  C:\Users\ROUSSMA\AppData\Local\Temp\cc3gA5P4.s 			page 127


 4061      5400
 4062              	.LASF204:
 4063 1ba3 70656572 		.ascii	"peerResolvablePvtAddr\000"
 4063      5265736F 
 4063      6C766162 
 4063      6C655076 
 4063      74416464 
 4064              	.LASF236:
 4065 1bb9 4359424C 		.ascii	"CYBLE_GATT_UNKNOWN_PDU_IND\000"
 4065      455F4741 
 4065      54545F55 
 4065      4E4B4E4F 
 4065      574E5F50 
 4066              	.LASF120:
 4067 1bd4 4359424C 		.ascii	"CYBLE_ERROR_INVALID_STATE\000"
 4067      455F4552 
 4067      524F525F 
 4067      494E5641 
 4067      4C49445F 
 4068              	.LASF277:
 4069 1bee 4359424C 		.ascii	"CYBLE_GATT_DB_ATTR_HANDLE_T\000"
 4069      455F4741 
 4069      54545F44 
 4069      425F4154 
 4069      54525F48 
 4070              	.LASF325:
 4071 1c0a 626C6553 		.ascii	"bleSsPowerLevel\000"
 4071      73506F77 
 4071      65724C65 
 4071      76656C00 
 4072              	.LASF80:
 4073 1c1a 4359424C 		.ascii	"CYBLE_EVT_L2CAP_CBFC_DATA_READ\000"
 4073      455F4556 
 4073      545F4C32 
 4073      4341505F 
 4073      43424643 
 4074              	.LASF237:
 4075 1c39 4359424C 		.ascii	"CYBLE_GATT_ERR_NONE\000"
 4075      455F4741 
 4075      54545F45 
 4075      52525F4E 
 4075      4F4E4500 
 4076              	.LASF283:
 4077 1c4d 76616C75 		.ascii	"value\000"
 4077      6500
 4078              	.LASF289:
 4079 1c53 746F7461 		.ascii	"totalAttrValueLength\000"
 4079      6C417474 
 4079      7256616C 
 4079      75654C65 
 4079      6E677468 
 4080              	.LASF334:
 4081 1c68 4379426C 		.ascii	"CyBle_ApplCallback\000"
 4081      655F4170 
 4081      706C4361 
 4081      6C6C6261 
 4081      636B00
ARM GAS  C:\Users\ROUSSMA\AppData\Local\Temp\cc3gA5P4.s 			page 128


 4082              	.LASF114:
 4083 1c7b 4359424C 		.ascii	"CYBLE_ERROR_FLASH_WRITE\000"
 4083      455F4552 
 4083      524F525F 
 4083      464C4153 
 4083      485F5752 
 4084              	.LASF151:
 4085 1c93 4359424C 		.ascii	"CYBLE_GAP_SCAN_TO\000"
 4085      455F4741 
 4085      505F5343 
 4085      414E5F54 
 4085      4F00
 4086              	.LASF259:
 4087 1ca5 4359424C 		.ascii	"CYBLE_GATT_ERR_HTS_OUT_OF_RANGE\000"
 4087      455F4741 
 4087      54545F45 
 4087      52525F48 
 4087      54535F4F 
 4088              	.LASF310:
 4089 1cc5 4359424C 		.ascii	"CYBLE_GAPS_T\000"
 4089      455F4741 
 4089      50535F54 
 4089      00
 4090              	.LASF149:
 4091 1cd2 4359424C 		.ascii	"CYBLE_GAP_BD_ADDR_T\000"
 4091      455F4741 
 4091      505F4244 
 4091      5F414444 
 4091      525F5400 
 4092              	.LASF219:
 4093 1ce6 4359424C 		.ascii	"CYBLE_GATT_READ_BLOB_REQ\000"
 4093      455F4741 
 4093      54545F52 
 4093      4541445F 
 4093      424C4F42 
 4094              	.LASF150:
 4095 1cff 4359424C 		.ascii	"CYBLE_GAP_ADV_MODE_TO\000"
 4095      455F4741 
 4095      505F4144 
 4095      565F4D4F 
 4095      44455F54 
 4096              	.LASF295:
 4097 1d15 68616E64 		.ascii	"handleValPair\000"
 4097      6C655661 
 4097      6C506169 
 4097      7200
 4098              	.LASF286:
 4099 1d23 636F6E6E 		.ascii	"connHandle\000"
 4099      48616E64 
 4099      6C6500
 4100              	.LASF316:
 4101 1d2e 4379426C 		.ascii	"CyBle_TimeOutEventHandler\000"
 4101      655F5469 
 4101      6D654F75 
 4101      74457665 
 4101      6E744861 
 4102              	.LASF170:
ARM GAS  C:\Users\ROUSSMA\AppData\Local\Temp\cc3gA5P4.s 			page 129


 4103 1d48 4359424C 		.ascii	"CYBLE_GAP_AUTH_ERROR_PAIRING_NOT_SUPPORTED\000"
 4103      455F4741 
 4103      505F4155 
 4103      54485F45 
 4103      52524F52 
 4104              	.LASF153:
 4105 1d73 4359424C 		.ascii	"CYBLE_GENERIC_TO\000"
 4105      455F4745 
 4105      4E455249 
 4105      435F544F 
 4105      00
 4106              	.LASF55:
 4107 1d84 4359424C 		.ascii	"CYBLE_EVT_GATTC_FIND_INFO_RSP\000"
 4107      455F4556 
 4107      545F4741 
 4107      5454435F 
 4107      46494E44 
 4108              	.LASF54:
 4109 1da2 4359424C 		.ascii	"CYBLE_EVT_GATTC_READ_BY_TYPE_RSP\000"
 4109      455F4556 
 4109      545F4741 
 4109      5454435F 
 4109      52454144 
 4110              	.LASF264:
 4111 1dc3 4359424C 		.ascii	"CYBLE_GATTS_ERR_OPERATION_FAILED\000"
 4111      455F4741 
 4111      5454535F 
 4111      4552525F 
 4111      4F504552 
 4112              	.LASF340:
 4113 1de4 6379426C 		.ascii	"cyBle_state\000"
 4113      655F7374 
 4113      61746500 
 4114              	.LASF193:
 4115 1df0 70616972 		.ascii	"pairingProperties\000"
 4115      696E6750 
 4115      726F7065 
 4115      72746965 
 4115      7300
 4116              	.LASF61:
 4117 1e02 4359424C 		.ascii	"CYBLE_EVT_GATTC_WRITE_RSP\000"
 4117      455F4556 
 4117      545F4741 
 4117      5454435F 
 4117      57524954 
 4118              	.LASF302:
 4119 1e1c 4359424C 		.ascii	"CYBLE_STATE_DISCONNECTED\000"
 4119      455F5354 
 4119      4154455F 
 4119      44495343 
 4119      4F4E4E45 
 4120              	.LASF327:
 4121 1e35 6C654D61 		.ascii	"leMask\000"
 4121      736B00
 4122              	.LASF30:
 4123 1e3c 4359424C 		.ascii	"CYBLE_EVT_GAPP_ADVERTISEMENT_START_STOP\000"
 4123      455F4556 
ARM GAS  C:\Users\ROUSSMA\AppData\Local\Temp\cc3gA5P4.s 			page 130


 4123      545F4741 
 4123      50505F41 
 4123      44564552 
 4124              	.LASF9:
 4125 1e64 75696E74 		.ascii	"uint8\000"
 4125      3800
 4126              	.LASF339:
 4127 1e6a 6379426C 		.ascii	"cyBle_authInfo\000"
 4127      655F6175 
 4127      7468496E 
 4127      666F00
 4128              	.LASF38:
 4129 1e79 4359424C 		.ascii	"CYBLE_EVT_GAP_KEYPRESS_NOTIFICATION\000"
 4129      455F4556 
 4129      545F4741 
 4129      505F4B45 
 4129      59505245 
 4130              	.LASF321:
 4131 1e9d 4379426C 		.ascii	"CyBle_L2Cap_ConnParamUpdateRspEventHandler\000"
 4131      655F4C32 
 4131      4361705F 
 4131      436F6E6E 
 4131      50617261 
 4132              	.LASF225:
 4133 1ec8 4359424C 		.ascii	"CYBLE_GATT_WRITE_REQ\000"
 4133      455F4741 
 4133      54545F57 
 4133      52495445 
 4133      5F524551 
 4134              	.LASF2:
 4135 1edd 73686F72 		.ascii	"short int\000"
 4135      7420696E 
 4135      7400
 4136              	.LASF192:
 4137 1ee7 61757468 		.ascii	"authErr\000"
 4137      45727200 
 4138              	.LASF112:
 4139 1eef 4359424C 		.ascii	"CYBLE_ERROR_HARDWARE_FAILURE\000"
 4139      455F4552 
 4139      524F525F 
 4139      48415244 
 4139      57415245 
 4140              	.LASF258:
 4141 1f0c 4359424C 		.ascii	"CYBLE_GATT_ERR_CPS_INAPPROPRIATE_CONNECTION_PARAMET"
 4141      455F4741 
 4141      54545F45 
 4141      52525F43 
 4141      50535F49 
 4142 1f3f 45525300 		.ascii	"ERS\000"
 4143              	.LASF243:
 4144 1f43 4359424C 		.ascii	"CYBLE_GATT_ERR_REQUEST_NOT_SUPPORTED\000"
 4144      455F4741 
 4144      54545F45 
 4144      52525F52 
 4144      45515545 
 4145              	.LASF48:
 4146 1f68 4359424C 		.ascii	"CYBLE_EVT_GATTC_ERROR_RSP\000"
ARM GAS  C:\Users\ROUSSMA\AppData\Local\Temp\cc3gA5P4.s 			page 131


 4146      455F4556 
 4146      545F4741 
 4146      5454435F 
 4146      4552524F 
 4147              	.LASF164:
 4148 1f82 4359424C 		.ascii	"CYBLE_GAP_IOCAP_KEYBOARD_DISPLAY\000"
 4148      455F4741 
 4148      505F494F 
 4148      4341505F 
 4148      4B455942 
 4149              	.LASF303:
 4150 1fa3 4359424C 		.ascii	"CYBLE_STATE_T\000"
 4150      455F5354 
 4150      4154455F 
 4150      5400
 4151              	.LASF76:
 4152 1fb1 4359424C 		.ascii	"CYBLE_EVT_L2CAP_CBFC_CONN_IND\000"
 4152      455F4556 
 4152      545F4C32 
 4152      4341505F 
 4152      43424643 
 4153              	.LASF64:
 4154 1fcf 4359424C 		.ascii	"CYBLE_EVT_GATTS_EXEC_WRITE_REQ\000"
 4154      455F4556 
 4154      545F4741 
 4154      5454535F 
 4154      45584543 
 4155              	.LASF24:
 4156 1fee 4359424C 		.ascii	"CYBLE_EVT_GAPC_SCAN_PROGRESS_RESULT\000"
 4156      455F4556 
 4156      545F4741 
 4156      50435F53 
 4156      43414E5F 
 4157              	.LASF276:
 4158 2012 4359424C 		.ascii	"CYBLE_GATT_ERR_CODE_T\000"
 4158      455F4741 
 4158      54545F45 
 4158      52525F43 
 4158      4F44455F 
 4159              	.LASF271:
 4160 2028 4359424C 		.ascii	"CYBLE_GATT_ERR_ANCS_INVALID_PARAMETER\000"
 4160      455F4741 
 4160      54545F45 
 4160      52525F41 
 4160      4E43535F 
 4161              	.LASF98:
 4162 204e 4359424C 		.ascii	"CYBLE_ERROR_GAP_ROLE\000"
 4162      455F4552 
 4162      524F525F 
 4162      4741505F 
 4162      524F4C45 
 4163              	.LASF335:
 4164 2063 6379426C 		.ascii	"cyBle_stackMemoryRam\000"
 4164      655F7374 
 4164      61636B4D 
 4164      656D6F72 
 4164      7952616D 
ARM GAS  C:\Users\ROUSSMA\AppData\Local\Temp\cc3gA5P4.s 			page 132


 4165              	.LASF344:
 4166 2078 6379426C 		.ascii	"cyBle_advertisingIntervalType\000"
 4166      655F6164 
 4166      76657274 
 4166      6973696E 
 4166      67496E74 
 4167              	.LASF45:
 4168 2096 4359424C 		.ascii	"CYBLE_EVT_GAP_SCAN_REQ_RECVD\000"
 4168      455F4556 
 4168      545F4741 
 4168      505F5343 
 4168      414E5F52 
 4169              	.LASF308:
 4170 20b3 63656E74 		.ascii	"centralAddrResolutionCharHandle\000"
 4170      72616C41 
 4170      64647252 
 4170      65736F6C 
 4170      7574696F 
 4171              	.LASF147:
 4172 20d3 62644164 		.ascii	"bdAddr\000"
 4172      647200
 4173              	.LASF268:
 4174 20da 4359424C 		.ascii	"CYBLE_GATT_ERR_ANS_COMMAND_NOT_SUPPORTED\000"
 4174      455F4741 
 4174      54545F45 
 4174      52525F41 
 4174      4E535F43 
 4175              	.LASF322:
 4176 2103 72657370 		.ascii	"response\000"
 4176      6F6E7365 
 4176      00
 4177              	.LASF331:
 4178 210c 636F6E6E 		.ascii	"connCParam\000"
 4178      43506172 
 4178      616D00
 4179              	.LASF218:
 4180 2117 4359424C 		.ascii	"CYBLE_GATT_READ_RSP\000"
 4180      455F4741 
 4180      54545F52 
 4180      4541445F 
 4180      52535000 
 4181              	.LASF326:
 4182 212b 62644164 		.ascii	"bdAddrLoc\000"
 4182      64724C6F 
 4182      6300
 4183              	.LASF95:
 4184 2135 4359424C 		.ascii	"CYBLE_ERROR_NO_CONNECTION\000"
 4184      455F4552 
 4184      524F525F 
 4184      4E4F5F43 
 4184      4F4E4E45 
 4185              	.LASF129:
 4186 214f 4359424C 		.ascii	"CYBLE_LL_PWR_LVL_0_DBM\000"
 4186      455F4C4C 
 4186      5F505752 
 4186      5F4C564C 
 4186      5F305F44 
ARM GAS  C:\Users\ROUSSMA\AppData\Local\Temp\cc3gA5P4.s 			page 133


 4187              	.LASF133:
 4188 2166 4359424C 		.ascii	"CYBLE_LL_ADV_CH_TYPE\000"
 4188      455F4C4C 
 4188      5F414456 
 4188      5F43485F 
 4188      54595045 
 4189              	.LASF85:
 4190 217b 4359424C 		.ascii	"CYBLE_EVT_LE_PING_AUTH_TIMEOUT\000"
 4190      455F4556 
 4190      545F4C45 
 4190      5F50494E 
 4190      475F4155 
 4191              	.LASF122:
 4192 219a 4359424C 		.ascii	"CYBLE_API_RESULT_T\000"
 4192      455F4150 
 4192      495F5245 
 4192      53554C54 
 4192      5F5400
 4193              	.LASF67:
 4194 21ad 4359424C 		.ascii	"CYBLE_EVT_GATTC_HANDLE_VALUE_IND\000"
 4194      455F4556 
 4194      545F4741 
 4194      5454435F 
 4194      48414E44 
 4195              	.LASF324:
 4196 21ce 6576656E 		.ascii	"eventCode\000"
 4196      74436F64 
 4196      6500
 4197              	.LASF101:
 4198 21d8 4359424C 		.ascii	"CYBLE_ERROR_SEC_FAILED\000"
 4198      455F4552 
 4198      524F525F 
 4198      5345435F 
 4198      4641494C 
 4199              	.LASF22:
 4200 21ef 4359424C 		.ascii	"CYBLE_EVT_STACK_BUSY_STATUS\000"
 4200      455F4556 
 4200      545F5354 
 4200      41434B5F 
 4200      42555359 
 4201              	.LASF197:
 4202 220b 636F6E6E 		.ascii	"connLatency\000"
 4202      4C617465 
 4202      6E637900 
 4203              	.LASF177:
 4204 2217 4359424C 		.ascii	"CYBLE_GAP_AUTH_ERROR_NUMERIC_COMPARISON_FAILED\000"
 4204      455F4741 
 4204      505F4155 
 4204      54485F45 
 4204      52524F52 
 4205              	.LASF161:
 4206 2246 4359424C 		.ascii	"CYBLE_GAP_IOCAP_DISPLAY_YESNO\000"
 4206      455F4741 
 4206      505F494F 
 4206      4341505F 
 4206      44495350 
 4207              	.LASF36:
ARM GAS  C:\Users\ROUSSMA\AppData\Local\Temp\cc3gA5P4.s 			page 134


 4208 2264 4359424C 		.ascii	"CYBLE_EVT_GAP_KEYINFO_EXCHNGE_CMPLT\000"
 4208      455F4556 
 4208      545F4741 
 4208      505F4B45 
 4208      59494E46 
 4209              	.LASF230:
 4210 2288 4359424C 		.ascii	"CYBLE_GATT_EXECUTE_WRITE_REQ\000"
 4210      455F4741 
 4210      54545F45 
 4210      58454355 
 4210      54455F57 
 4211              	.LASF139:
 4212 22a5 4359424C 		.ascii	"CYBLE_BLESS_PWR_IN_DB_T\000"
 4212      455F424C 
 4212      4553535F 
 4212      5057525F 
 4212      494E5F44 
 4213              	.LASF135:
 4214 22bd 4359424C 		.ascii	"CYBLE_LL_MAX_CH_TYPE\000"
 4214      455F4C4C 
 4214      5F4D4158 
 4214      5F43485F 
 4214      54595045 
 4215              	.LASF73:
 4216 22d2 4359424C 		.ascii	"CYBLE_EVT_L2CAP_CONN_PARAM_UPDATE_REQ\000"
 4216      455F4556 
 4216      545F4C32 
 4216      4341505F 
 4216      434F4E4E 
 4217              	.LASF142:
 4218 22f8 4359424C 		.ascii	"CYBLE_PROTOCOL_REQ_T\000"
 4218      455F5052 
 4218      4F544F43 
 4218      4F4C5F52 
 4218      45515F54 
 4219              	.LASF311:
 4220 230d 67617474 		.ascii	"gattErr\000"
 4220      45727200 
 4221              	.LASF240:
 4222 2315 4359424C 		.ascii	"CYBLE_GATT_ERR_WRITE_NOT_PERMITTED\000"
 4222      455F4741 
 4222      54545F45 
 4222      52525F57 
 4222      52495445 
 4223              	.LASF196:
 4224 2338 636F6E6E 		.ascii	"connIntv\000"
 4224      496E7476 
 4224      00
 4225              	.LASF3:
 4226 2341 73686F72 		.ascii	"short unsigned int\000"
 4226      7420756E 
 4226      7369676E 
 4226      65642069 
 4226      6E7400
 4227              	.LASF252:
 4228 2354 4359424C 		.ascii	"CYBLE_GATT_ERR_INSUFFICIENT_ENCRYPTION\000"
 4228      455F4741 
ARM GAS  C:\Users\ROUSSMA\AppData\Local\Temp\cc3gA5P4.s 			page 135


 4228      54545F45 
 4228      52525F49 
 4228      4E535546 
 4229              	.LASF205:
 4230 237b 726F6C65 		.ascii	"role\000"
 4230      00
 4231              	.LASF188:
 4232 2380 4359424C 		.ascii	"CYBLE_GAP_ADV_ADDR_TYPE_T\000"
 4232      455F4741 
 4232      505F4144 
 4232      565F4144 
 4232      44525F54 
 4233              	.LASF300:
 4234 239a 4359424C 		.ascii	"CYBLE_STATE_CONNECTED\000"
 4234      455F5354 
 4234      4154455F 
 4234      434F4E4E 
 4234      45435445 
 4235              	.LASF281:
 4236 23b0 61637475 		.ascii	"actualLen\000"
 4236      616C4C65 
 4236      6E00
 4237              	.LASF332:
 4238 23ba 636F6E6E 		.ascii	"connEnhanceParam\000"
 4238      456E6861 
 4238      6E636550 
 4238      6172616D 
 4238      00
 4239              	.LASF223:
 4240 23cb 4359424C 		.ascii	"CYBLE_GATT_READ_BY_GROUP_REQ\000"
 4240      455F4741 
 4240      54545F52 
 4240      4541445F 
 4240      42595F47 
 4241              	.LASF279:
 4242 23e8 61747449 		.ascii	"attId\000"
 4242      6400
 4243              	.LASF91:
 4244 23ee 4359424C 		.ascii	"CYBLE_ERROR_INVALID_OPERATION\000"
 4244      455F4552 
 4244      524F525F 
 4244      494E5641 
 4244      4C49445F 
 4245              	.LASF21:
 4246 240c 4359424C 		.ascii	"CYBLE_EVT_HCI_STATUS\000"
 4246      455F4556 
 4246      545F4843 
 4246      495F5354 
 4246      41545553 
 4247              	.LASF50:
 4248 2421 4359424C 		.ascii	"CYBLE_EVT_GATT_DISCONNECT_IND\000"
 4248      455F4556 
 4248      545F4741 
 4248      54545F44 
 4248      4953434F 
 4249              	.LASF198:
 4250 243f 73757065 		.ascii	"supervisionTO\000"
ARM GAS  C:\Users\ROUSSMA\AppData\Local\Temp\cc3gA5P4.s 			page 136


 4250      72766973 
 4250      696F6E54 
 4250      4F00
 4251              	.LASF152:
 4252 244d 4359424C 		.ascii	"CYBLE_GATT_RSP_TO\000"
 4252      455F4741 
 4252      54545F52 
 4252      53505F54 
 4252      4F00
 4253              	.LASF83:
 4254 245f 4359424C 		.ascii	"CYBLE_EVT_L2CAP_CBFC_DATA_WRITE_IND\000"
 4254      455F4556 
 4254      545F4C32 
 4254      4341505F 
 4254      43424643 
 4255              	.LASF72:
 4256 2483 4359424C 		.ascii	"CYBLE_EVT_GATTC_LONG_PROCEDURE_END\000"
 4256      455F4556 
 4256      545F4741 
 4256      5454435F 
 4256      4C4F4E47 
 4257              	.LASF200:
 4258 24a6 73757065 		.ascii	"supervisionTo\000"
 4258      72766973 
 4258      696F6E54 
 4258      6F00
 4259              	.LASF32:
 4260 24b4 4359424C 		.ascii	"CYBLE_EVT_GAP_DEVICE_DISCONNECTED\000"
 4260      455F4556 
 4260      545F4741 
 4260      505F4445 
 4260      56494345 
 4261              	.LASF68:
 4262 24d6 4359424C 		.ascii	"CYBLE_EVT_GATTS_HANDLE_VALUE_CNF\000"
 4262      455F4556 
 4262      545F4741 
 4262      5454535F 
 4262      48414E44 
 4263              	.LASF10:
 4264 24f7 75696E74 		.ascii	"uint16\000"
 4264      313600
 4265              	.LASF99:
 4266 24fe 4359424C 		.ascii	"CYBLE_ERROR_TX_POWER_READ\000"
 4266      455F4552 
 4266      524F525F 
 4266      54585F50 
 4266      4F574552 
 4267              		.ident	"GCC: (GNU Tools for ARM Embedded Processors) 5.4.1 20160609 (release) [ARM/embedded-5-bran
