ARM GAS  C:\Users\ROUSSMA\AppData\Local\Temp\cc3gA5P4.s 			page 1


   1              		.syntax unified
   2              		.cpu cortex-m0
   3              		.fpu softvfp
   4              		.eabi_attribute 20, 1
   5              		.eabi_attribute 21, 1
   6              		.eabi_attribute 23, 3
   7              		.eabi_attribute 24, 1
   8              		.eabi_attribute 25, 1
   9              		.eabi_attribute 26, 1
  10              		.eabi_attribute 30, 6
  11              		.eabi_attribute 34, 0
  12              		.eabi_attribute 18, 4
  13              		.thumb
  14              		.syntax unified
  15              		.file	"BLE_1_eventHandler.c"
  16              		.text
  17              	.Ltext0:
  18              		.cfi_sections	.debug_frame
  19              		.comm	cyBle_connHandle,2,4
  20              		.comm	cyBle_eventHandlerFlag,1,1
  21              		.comm	cyBle_busyStatus,1,1
  22              		.global	cyBle_gaps
  23              		.section	.rodata
  24              		.align	2
  25              		.type	cyBle_gaps, %object
  26              		.size	cyBle_gaps, 12
  27              	cyBle_gaps:
  28 0000 0100     		.short	1
  29 0002 0300     		.short	3
  30 0004 0500     		.short	5
  31 0006 0700     		.short	7
  32 0008 0900     		.short	9
  33 000a 0B00     		.short	11
  34              		.comm	cyBle_advertisingIntervalType,1,1
  35              		.global	cyBle_authInfo
  36              		.data
  37              		.align	2
  38              		.type	cyBle_authInfo, %object
  39              		.size	cyBle_authInfo, 5
  40              	cyBle_authInfo:
  41 0000 10       		.byte	16
  42 0001 00       		.byte	0
  43 0002 10       		.byte	16
  44 0003 00       		.byte	0
  45 0004 00       		.byte	0
  46              		.section	.text.CyBle_WriteReqHandler,"ax",%progbits
  47              		.align	2
  48              		.code	16
  49              		.thumb_func
  50              		.type	CyBle_WriteReqHandler, %function
  51              	CyBle_WriteReqHandler:
  52              	.LFB2:
  53              		.file 1 "Generated_Source\\PSoC4\\BLE_1_eventHandler.c"
   1:Generated_Source\PSoC4/BLE_1_eventHandler.c **** /***************************************************************************//**
   2:Generated_Source\PSoC4/BLE_1_eventHandler.c **** * \file CYBLE_eventHandler.c
   3:Generated_Source\PSoC4/BLE_1_eventHandler.c **** * \version 3.30
   4:Generated_Source\PSoC4/BLE_1_eventHandler.c **** * 
ARM GAS  C:\Users\ROUSSMA\AppData\Local\Temp\cc3gA5P4.s 			page 2


   5:Generated_Source\PSoC4/BLE_1_eventHandler.c **** * \brief
   6:Generated_Source\PSoC4/BLE_1_eventHandler.c **** *  This file contains the source code for the Event Handler State Machine
   7:Generated_Source\PSoC4/BLE_1_eventHandler.c **** *  of the BLE Component.
   8:Generated_Source\PSoC4/BLE_1_eventHandler.c **** * 
   9:Generated_Source\PSoC4/BLE_1_eventHandler.c **** ********************************************************************************
  10:Generated_Source\PSoC4/BLE_1_eventHandler.c **** * \copyright
  11:Generated_Source\PSoC4/BLE_1_eventHandler.c **** * Copyright 2014-2016, Cypress Semiconductor Corporation.  All rights reserved.
  12:Generated_Source\PSoC4/BLE_1_eventHandler.c **** * You may use this file only in accordance with the license, terms, conditions,
  13:Generated_Source\PSoC4/BLE_1_eventHandler.c **** * disclaimers, and limitations in the end user license agreement accompanying
  14:Generated_Source\PSoC4/BLE_1_eventHandler.c **** * the software package with which this file was provided.
  15:Generated_Source\PSoC4/BLE_1_eventHandler.c **** *******************************************************************************/
  16:Generated_Source\PSoC4/BLE_1_eventHandler.c **** 
  17:Generated_Source\PSoC4/BLE_1_eventHandler.c **** #include "BLE_1_eventHandler.h"
  18:Generated_Source\PSoC4/BLE_1_eventHandler.c **** 
  19:Generated_Source\PSoC4/BLE_1_eventHandler.c **** 
  20:Generated_Source\PSoC4/BLE_1_eventHandler.c **** /***************************************
  21:Generated_Source\PSoC4/BLE_1_eventHandler.c **** * Private Function Prototypes
  22:Generated_Source\PSoC4/BLE_1_eventHandler.c **** ***************************************/
  23:Generated_Source\PSoC4/BLE_1_eventHandler.c **** 
  24:Generated_Source\PSoC4/BLE_1_eventHandler.c **** static void CyBle_GattDisconnectEventHandler(void);
  25:Generated_Source\PSoC4/BLE_1_eventHandler.c **** static void CyBle_TimeOutEventHandler(const CYBLE_TO_REASON_CODE_T *eventParam);
  26:Generated_Source\PSoC4/BLE_1_eventHandler.c **** static void CyBle_GattConnectReqHandler(void);
  27:Generated_Source\PSoC4/BLE_1_eventHandler.c **** static void CyBle_L2Cap_ConnParamUpdateRspEventHandler(uint16 response);
  28:Generated_Source\PSoC4/BLE_1_eventHandler.c **** static void CyBle_GapConnUpdateCompleteEventHandler(const CYBLE_GAP_CONN_PARAM_UPDATED_IN_CONTROLLE
  29:Generated_Source\PSoC4/BLE_1_eventHandler.c **** 
  30:Generated_Source\PSoC4/BLE_1_eventHandler.c **** 
  31:Generated_Source\PSoC4/BLE_1_eventHandler.c **** #if (CYBLE_GATT_ROLE_SERVER)
  32:Generated_Source\PSoC4/BLE_1_eventHandler.c **** 
  33:Generated_Source\PSoC4/BLE_1_eventHandler.c **** static void CyBle_WriteReqHandler(CYBLE_GATTS_WRITE_REQ_PARAM_T *eventParam);
  34:Generated_Source\PSoC4/BLE_1_eventHandler.c **** static void CyBle_ValueConfirmation(const CYBLE_CONN_HANDLE_T *eventParam);
  35:Generated_Source\PSoC4/BLE_1_eventHandler.c **** 
  36:Generated_Source\PSoC4/BLE_1_eventHandler.c **** #endif /* CYBLE_GATT_ROLE_SERVER */
  37:Generated_Source\PSoC4/BLE_1_eventHandler.c **** 
  38:Generated_Source\PSoC4/BLE_1_eventHandler.c **** #if (CYBLE_GATT_ROLE_CLIENT)
  39:Generated_Source\PSoC4/BLE_1_eventHandler.c **** 
  40:Generated_Source\PSoC4/BLE_1_eventHandler.c **** static void CyBle_GapcDiscoverCharacteristicsEventHandler(CYBLE_DISC_CHAR_INFO_T *discCharInfo);
  41:Generated_Source\PSoC4/BLE_1_eventHandler.c **** static CYBLE_GATT_ATTR_HANDLE_RANGE_T CyBle_GetCharRange(void);
  42:Generated_Source\PSoC4/BLE_1_eventHandler.c **** static void CyBle_GattcWriteResponseEventHandler(const CYBLE_CONN_HANDLE_T *eventParam);
  43:Generated_Source\PSoC4/BLE_1_eventHandler.c **** static void CyBle_NotificationEventHandler(CYBLE_GATTC_HANDLE_VALUE_NTF_PARAM_T *eventParam);
  44:Generated_Source\PSoC4/BLE_1_eventHandler.c **** static void CyBle_IndicationEventHandler(CYBLE_GATTC_HANDLE_VALUE_IND_PARAM_T *eventParam);
  45:Generated_Source\PSoC4/BLE_1_eventHandler.c **** static void CyBle_ReadResponseEventHandler(CYBLE_GATTC_READ_RSP_PARAM_T *eventParam);
  46:Generated_Source\PSoC4/BLE_1_eventHandler.c **** static void CyBle_ReadMultipleResponseEventHandler(CYBLE_GATTC_READ_RSP_PARAM_T *eventParam);
  47:Generated_Source\PSoC4/BLE_1_eventHandler.c **** 
  48:Generated_Source\PSoC4/BLE_1_eventHandler.c **** #endif /* CYBLE_GATT_ROLE_CLIENT */
  49:Generated_Source\PSoC4/BLE_1_eventHandler.c **** 
  50:Generated_Source\PSoC4/BLE_1_eventHandler.c **** 
  51:Generated_Source\PSoC4/BLE_1_eventHandler.c **** /***************************************
  52:Generated_Source\PSoC4/BLE_1_eventHandler.c **** * Global Variables
  53:Generated_Source\PSoC4/BLE_1_eventHandler.c **** ***************************************/
  54:Generated_Source\PSoC4/BLE_1_eventHandler.c **** 
  55:Generated_Source\PSoC4/BLE_1_eventHandler.c **** /* This global variable is initialized after connection with peer device, 
  56:Generated_Source\PSoC4/BLE_1_eventHandler.c ****    after CYBLE_EVT_GATT_CONNECT_IND event, and could be used by application code
  57:Generated_Source\PSoC4/BLE_1_eventHandler.c ****    to send data to peer device. 
  58:Generated_Source\PSoC4/BLE_1_eventHandler.c **** */
  59:Generated_Source\PSoC4/BLE_1_eventHandler.c **** CYBLE_CONN_HANDLE_T cyBle_connHandle;
  60:Generated_Source\PSoC4/BLE_1_eventHandler.c **** 
  61:Generated_Source\PSoC4/BLE_1_eventHandler.c **** volatile uint8 cyBle_eventHandlerFlag;
ARM GAS  C:\Users\ROUSSMA\AppData\Local\Temp\cc3gA5P4.s 			page 3


  62:Generated_Source\PSoC4/BLE_1_eventHandler.c **** volatile uint8 cyBle_busyStatus;
  63:Generated_Source\PSoC4/BLE_1_eventHandler.c **** 
  64:Generated_Source\PSoC4/BLE_1_eventHandler.c **** const CYBLE_GAPS_T cyBle_gaps =
  65:Generated_Source\PSoC4/BLE_1_eventHandler.c **** {
  66:Generated_Source\PSoC4/BLE_1_eventHandler.c ****     0x0001u,    /* Handle of the GAP service */
  67:Generated_Source\PSoC4/BLE_1_eventHandler.c ****     0x0003u,    /* Handle of the Device Name characteristic */
  68:Generated_Source\PSoC4/BLE_1_eventHandler.c ****     0x0005u,    /* Handle of the Appearance characteristic */
  69:Generated_Source\PSoC4/BLE_1_eventHandler.c ****     0x0007u,    /* Handle of the Peripheral Preferred Connection Parameters characteristic */
  70:Generated_Source\PSoC4/BLE_1_eventHandler.c ****     0x0009u,    /* Handle of the Central Address Resolution characteristic */
  71:Generated_Source\PSoC4/BLE_1_eventHandler.c ****     0x000Bu,    /* Handle of the Resolvable Private Address Only characteristic */
  72:Generated_Source\PSoC4/BLE_1_eventHandler.c **** };
  73:Generated_Source\PSoC4/BLE_1_eventHandler.c **** 
  74:Generated_Source\PSoC4/BLE_1_eventHandler.c **** 
  75:Generated_Source\PSoC4/BLE_1_eventHandler.c **** #if(CYBLE_GAP_ROLE_PERIPHERAL || CYBLE_GAP_ROLE_BROADCASTER) 
  76:Generated_Source\PSoC4/BLE_1_eventHandler.c ****     uint8 cyBle_advertisingIntervalType;
  77:Generated_Source\PSoC4/BLE_1_eventHandler.c **** #endif /* CYBLE_GAP_ROLE_PERIPHERAL || CYBLE_GAP_ROLE_BROADCASTER) */
  78:Generated_Source\PSoC4/BLE_1_eventHandler.c **** 
  79:Generated_Source\PSoC4/BLE_1_eventHandler.c **** #if(CYBLE_GAP_ROLE_CENTRAL || CYBLE_GAP_ROLE_OBSERVER) 
  80:Generated_Source\PSoC4/BLE_1_eventHandler.c ****     uint8 cyBle_scanningIntervalType;
  81:Generated_Source\PSoC4/BLE_1_eventHandler.c **** #endif /* CYBLE_GAP_ROLE_CENTRAL || CYBLE_GAP_ROLE_OBSERVER */
  82:Generated_Source\PSoC4/BLE_1_eventHandler.c **** 
  83:Generated_Source\PSoC4/BLE_1_eventHandler.c **** #if(CYBLE_GATT_ROLE_SERVER)
  84:Generated_Source\PSoC4/BLE_1_eventHandler.c **** #if defined CYBLE_CTS_SERVER || defined CYBLE_ESS_SERVER
  85:Generated_Source\PSoC4/BLE_1_eventHandler.c **** CYBLE_GATT_ERR_CODE_T cyBle_gattError;
  86:Generated_Source\PSoC4/BLE_1_eventHandler.c **** #endif /* defined CYBLE_CTS_SERVER || defined CYBLE_ESS_SERVER */
  87:Generated_Source\PSoC4/BLE_1_eventHandler.c **** #endif /* CYBLE_GATT_ROLE_SERVER */
  88:Generated_Source\PSoC4/BLE_1_eventHandler.c **** 
  89:Generated_Source\PSoC4/BLE_1_eventHandler.c **** #if(CYBLE_GATT_ROLE_CLIENT)
  90:Generated_Source\PSoC4/BLE_1_eventHandler.c **** uint8 cyBle_disCount; /* Counter for discovery procedures */
  91:Generated_Source\PSoC4/BLE_1_eventHandler.c **** 
  92:Generated_Source\PSoC4/BLE_1_eventHandler.c **** #ifdef CYBLE_CUSTOM_CLIENT
  93:Generated_Source\PSoC4/BLE_1_eventHandler.c **** /* Discovery included service information, used for 128-bit UUID read response handle 
  94:Generated_Source\PSoC4/BLE_1_eventHandler.c ****    and for continue discovery. 
  95:Generated_Source\PSoC4/BLE_1_eventHandler.c **** */
  96:Generated_Source\PSoC4/BLE_1_eventHandler.c **** static CYBLE_DISC_INCL_INFO_T cyBle_discInclInfo;
  97:Generated_Source\PSoC4/BLE_1_eventHandler.c **** #endif /* CYBLE_CUSTOM_CLIENT */
  98:Generated_Source\PSoC4/BLE_1_eventHandler.c **** 
  99:Generated_Source\PSoC4/BLE_1_eventHandler.c **** #ifdef CYBLE_HIDS_CLIENT
 100:Generated_Source\PSoC4/BLE_1_eventHandler.c ****     static uint8 disServiceIndex;      /* To discovery descriptors for multiple HID service instanc
 101:Generated_Source\PSoC4/BLE_1_eventHandler.c **** #endif /* CYBLE_HIDS_CLIENT */
 102:Generated_Source\PSoC4/BLE_1_eventHandler.c **** 
 103:Generated_Source\PSoC4/BLE_1_eventHandler.c **** CYBLE_DISC_SRVC_INFO_T cyBle_serverInfo[CYBLE_SRVI_COUNT] = /*3*/
 104:Generated_Source\PSoC4/BLE_1_eventHandler.c **** {
 105:Generated_Source\PSoC4/BLE_1_eventHandler.c ****     {{CYBLE_GATT_INVALID_ATTR_HANDLE_VALUE, CYBLE_GATT_INVALID_ATTR_HANDLE_VALUE}, CYBLE_UUID_GAP_S
 106:Generated_Source\PSoC4/BLE_1_eventHandler.c ****     {{CYBLE_GATT_INVALID_ATTR_HANDLE_VALUE, CYBLE_GATT_INVALID_ATTR_HANDLE_VALUE}, CYBLE_UUID_GATT_
 107:Generated_Source\PSoC4/BLE_1_eventHandler.c **** #ifdef CYBLE_AIOS_CLIENT
 108:Generated_Source\PSoC4/BLE_1_eventHandler.c ****     {{CYBLE_GATT_INVALID_ATTR_HANDLE_VALUE, CYBLE_GATT_INVALID_ATTR_HANDLE_VALUE}, CYBLE_UUID_AUTOM
 109:Generated_Source\PSoC4/BLE_1_eventHandler.c **** #endif /* CYBLE_BCS_CLIENT */
 110:Generated_Source\PSoC4/BLE_1_eventHandler.c **** #ifdef CYBLE_ANCS_CLIENT
 111:Generated_Source\PSoC4/BLE_1_eventHandler.c ****     {{CYBLE_GATT_INVALID_ATTR_HANDLE_VALUE, CYBLE_GATT_INVALID_ATTR_HANDLE_VALUE}, 0x0000u},
 112:Generated_Source\PSoC4/BLE_1_eventHandler.c **** #endif /* CYBLE_ANCS_CLIENT */
 113:Generated_Source\PSoC4/BLE_1_eventHandler.c **** #ifdef CYBLE_ANS_CLIENT
 114:Generated_Source\PSoC4/BLE_1_eventHandler.c ****     {{CYBLE_GATT_INVALID_ATTR_HANDLE_VALUE, CYBLE_GATT_INVALID_ATTR_HANDLE_VALUE}, 
 115:Generated_Source\PSoC4/BLE_1_eventHandler.c ****         CYBLE_UUID_ALERT_NOTIFICATION_SERVICE},
 116:Generated_Source\PSoC4/BLE_1_eventHandler.c **** #endif /* CYBLE_ANS_CLIENT */
 117:Generated_Source\PSoC4/BLE_1_eventHandler.c **** #ifdef CYBLE_BAS_CLIENT
 118:Generated_Source\PSoC4/BLE_1_eventHandler.c ****     {{CYBLE_GATT_INVALID_ATTR_HANDLE_VALUE, CYBLE_GATT_INVALID_ATTR_HANDLE_VALUE}, CYBLE_UUID_BAS_S
ARM GAS  C:\Users\ROUSSMA\AppData\Local\Temp\cc3gA5P4.s 			page 4


 119:Generated_Source\PSoC4/BLE_1_eventHandler.c ****     #if(CYBLE_BASC_SERVICE_COUNT > 1u) /* Generate it by GUI */
 120:Generated_Source\PSoC4/BLE_1_eventHandler.c ****         
 121:Generated_Source\PSoC4/BLE_1_eventHandler.c ****     #endif /* CYBLE_BASC_SERVICE_COUNT > 1u */
 122:Generated_Source\PSoC4/BLE_1_eventHandler.c **** #endif /* CYBLE_BAS_CLIENT */
 123:Generated_Source\PSoC4/BLE_1_eventHandler.c **** #ifdef CYBLE_BCS_CLIENT
 124:Generated_Source\PSoC4/BLE_1_eventHandler.c ****     {{CYBLE_GATT_INVALID_ATTR_HANDLE_VALUE, CYBLE_GATT_INVALID_ATTR_HANDLE_VALUE}, CYBLE_UUID_BODY_
 125:Generated_Source\PSoC4/BLE_1_eventHandler.c **** #endif /* CYBLE_BCS_CLIENT */
 126:Generated_Source\PSoC4/BLE_1_eventHandler.c **** #ifdef CYBLE_BLS_CLIENT
 127:Generated_Source\PSoC4/BLE_1_eventHandler.c ****     {{CYBLE_GATT_INVALID_ATTR_HANDLE_VALUE, CYBLE_GATT_INVALID_ATTR_HANDLE_VALUE}, CYBLE_UUID_BLOOD
 128:Generated_Source\PSoC4/BLE_1_eventHandler.c **** #endif /* CYBLE_BLS_CLIENT */
 129:Generated_Source\PSoC4/BLE_1_eventHandler.c **** #ifdef CYBLE_BMS_CLIENT
 130:Generated_Source\PSoC4/BLE_1_eventHandler.c ****     {{CYBLE_GATT_INVALID_ATTR_HANDLE_VALUE, CYBLE_GATT_INVALID_ATTR_HANDLE_VALUE}, CYBLE_UUID_BOND_
 131:Generated_Source\PSoC4/BLE_1_eventHandler.c **** #endif /* CYBLE_BMS_CLIENT */
 132:Generated_Source\PSoC4/BLE_1_eventHandler.c **** #ifdef CYBLE_CGMS_CLIENT
 133:Generated_Source\PSoC4/BLE_1_eventHandler.c ****     {{CYBLE_GATT_INVALID_ATTR_HANDLE_VALUE, CYBLE_GATT_INVALID_ATTR_HANDLE_VALUE}, CYBLE_UUID_CGM_S
 134:Generated_Source\PSoC4/BLE_1_eventHandler.c **** #endif /* CYBLE_CGMS_CLIENT */
 135:Generated_Source\PSoC4/BLE_1_eventHandler.c **** #ifdef CYBLE_CPS_CLIENT
 136:Generated_Source\PSoC4/BLE_1_eventHandler.c ****     {{CYBLE_GATT_INVALID_ATTR_HANDLE_VALUE, CYBLE_GATT_INVALID_ATTR_HANDLE_VALUE}, CYBLE_UUID_CPS_S
 137:Generated_Source\PSoC4/BLE_1_eventHandler.c **** #endif /* CYBLE_CPS_CLIENT */
 138:Generated_Source\PSoC4/BLE_1_eventHandler.c **** #ifdef CYBLE_CSCS_CLIENT
 139:Generated_Source\PSoC4/BLE_1_eventHandler.c ****     {{CYBLE_GATT_INVALID_ATTR_HANDLE_VALUE, CYBLE_GATT_INVALID_ATTR_HANDLE_VALUE}, 
 140:Generated_Source\PSoC4/BLE_1_eventHandler.c ****         CYBLE_UUID_CYCLING_SPEED_AND_CADENCE_SERVICE},
 141:Generated_Source\PSoC4/BLE_1_eventHandler.c **** #endif /* CYBLE_CSCS_CLIENT */
 142:Generated_Source\PSoC4/BLE_1_eventHandler.c **** #ifdef CYBLE_CTS_CLIENT
 143:Generated_Source\PSoC4/BLE_1_eventHandler.c ****     {{CYBLE_GATT_INVALID_ATTR_HANDLE_VALUE, CYBLE_GATT_INVALID_ATTR_HANDLE_VALUE}, CYBLE_UUID_CURRE
 144:Generated_Source\PSoC4/BLE_1_eventHandler.c **** #endif /* CYBLE_CTS_CLIENT */
 145:Generated_Source\PSoC4/BLE_1_eventHandler.c **** #ifdef CYBLE_CUSTOM_CLIENT
 146:Generated_Source\PSoC4/BLE_1_eventHandler.c ****     
 147:Generated_Source\PSoC4/BLE_1_eventHandler.c **** #endif /* CYBLE_CUSTOM_CLIENT */
 148:Generated_Source\PSoC4/BLE_1_eventHandler.c **** #ifdef CYBLE_DIS_CLIENT
 149:Generated_Source\PSoC4/BLE_1_eventHandler.c ****     {{CYBLE_GATT_INVALID_ATTR_HANDLE_VALUE, CYBLE_GATT_INVALID_ATTR_HANDLE_VALUE}, CYBLE_UUID_DEVIC
 150:Generated_Source\PSoC4/BLE_1_eventHandler.c **** #endif /* CYBLE_DIS_CLIENT */
 151:Generated_Source\PSoC4/BLE_1_eventHandler.c **** #ifdef CYBLE_ESS_CLIENT
 152:Generated_Source\PSoC4/BLE_1_eventHandler.c ****     {{CYBLE_GATT_INVALID_ATTR_HANDLE_VALUE, CYBLE_GATT_INVALID_ATTR_HANDLE_VALUE}, 
 153:Generated_Source\PSoC4/BLE_1_eventHandler.c ****         CYBLE_UUID_ENVIRONMENTAL_SENSING_SERVICE},
 154:Generated_Source\PSoC4/BLE_1_eventHandler.c **** #endif /* CYBLE_ESS_CLIENT */
 155:Generated_Source\PSoC4/BLE_1_eventHandler.c **** #ifdef CYBLE_GLS_CLIENT
 156:Generated_Source\PSoC4/BLE_1_eventHandler.c ****     {{CYBLE_GATT_INVALID_ATTR_HANDLE_VALUE, CYBLE_GATT_INVALID_ATTR_HANDLE_VALUE}, CYBLE_UUID_GLUCO
 157:Generated_Source\PSoC4/BLE_1_eventHandler.c **** #endif /* CYBLE_GLS_CLIENT */
 158:Generated_Source\PSoC4/BLE_1_eventHandler.c **** #ifdef CYBLE_HIDS_CLIENT
 159:Generated_Source\PSoC4/BLE_1_eventHandler.c ****     {{CYBLE_GATT_INVALID_ATTR_HANDLE_VALUE, CYBLE_GATT_INVALID_ATTR_HANDLE_VALUE}, CYBLE_UUID_HIDS_
 160:Generated_Source\PSoC4/BLE_1_eventHandler.c ****     #if(CYBLE_HIDSC_SERVICE_COUNT > 1u) /* Generate it by GUI */
 161:Generated_Source\PSoC4/BLE_1_eventHandler.c ****         
 162:Generated_Source\PSoC4/BLE_1_eventHandler.c ****     #endif /* CYBLE_HIDSC_SERVICE_COUNT > 1u */
 163:Generated_Source\PSoC4/BLE_1_eventHandler.c **** #endif /* CYBLE_HIDS_CLIENT */
 164:Generated_Source\PSoC4/BLE_1_eventHandler.c **** #ifdef CYBLE_HPS_CLIENT
 165:Generated_Source\PSoC4/BLE_1_eventHandler.c ****     {{CYBLE_GATT_INVALID_ATTR_HANDLE_VALUE, CYBLE_GATT_INVALID_ATTR_HANDLE_VALUE}, CYBLE_UUID_HTTP_
 166:Generated_Source\PSoC4/BLE_1_eventHandler.c **** #endif /* CYBLE_HPS_CLIENT */
 167:Generated_Source\PSoC4/BLE_1_eventHandler.c **** #ifdef CYBLE_HRS_CLIENT
 168:Generated_Source\PSoC4/BLE_1_eventHandler.c ****     {{CYBLE_GATT_INVALID_ATTR_HANDLE_VALUE, CYBLE_GATT_INVALID_ATTR_HANDLE_VALUE}, CYBLE_UUID_HEART
 169:Generated_Source\PSoC4/BLE_1_eventHandler.c **** #endif /* CYBLE_HRS_CLIENT */
 170:Generated_Source\PSoC4/BLE_1_eventHandler.c **** #ifdef CYBLE_HTS_CLIENT
 171:Generated_Source\PSoC4/BLE_1_eventHandler.c ****     {{CYBLE_GATT_INVALID_ATTR_HANDLE_VALUE, CYBLE_GATT_INVALID_ATTR_HANDLE_VALUE}, CYBLE_UUID_HEALT
 172:Generated_Source\PSoC4/BLE_1_eventHandler.c **** #endif /* CYBLE_HTS_CLIENT */
 173:Generated_Source\PSoC4/BLE_1_eventHandler.c **** #ifdef CYBLE_IAS_CLIENT
 174:Generated_Source\PSoC4/BLE_1_eventHandler.c ****     {{CYBLE_GATT_INVALID_ATTR_HANDLE_VALUE, CYBLE_GATT_INVALID_ATTR_HANDLE_VALUE}, CYBLE_UUID_IMMED
 175:Generated_Source\PSoC4/BLE_1_eventHandler.c **** #endif /* CYBLE_IAS_CLIENT */
ARM GAS  C:\Users\ROUSSMA\AppData\Local\Temp\cc3gA5P4.s 			page 5


 176:Generated_Source\PSoC4/BLE_1_eventHandler.c **** #ifdef CYBLE_IPS_CLIENT
 177:Generated_Source\PSoC4/BLE_1_eventHandler.c ****     {{CYBLE_GATT_INVALID_ATTR_HANDLE_VALUE, CYBLE_GATT_INVALID_ATTR_HANDLE_VALUE}, CYBLE_UUID_IPS_S
 178:Generated_Source\PSoC4/BLE_1_eventHandler.c **** #endif /* CYBLE_IPS_CLIENT */
 179:Generated_Source\PSoC4/BLE_1_eventHandler.c **** #ifdef CYBLE_LLS_CLIENT
 180:Generated_Source\PSoC4/BLE_1_eventHandler.c ****     {{CYBLE_GATT_INVALID_ATTR_HANDLE_VALUE, CYBLE_GATT_INVALID_ATTR_HANDLE_VALUE}, CYBLE_UUID_LINK_
 181:Generated_Source\PSoC4/BLE_1_eventHandler.c **** #endif /* CYBLE_LLS_CLIENT */
 182:Generated_Source\PSoC4/BLE_1_eventHandler.c **** #ifdef CYBLE_LNS_CLIENT
 183:Generated_Source\PSoC4/BLE_1_eventHandler.c ****     {{CYBLE_GATT_INVALID_ATTR_HANDLE_VALUE, CYBLE_GATT_INVALID_ATTR_HANDLE_VALUE}, CYBLE_UUID_LOCAT
 184:Generated_Source\PSoC4/BLE_1_eventHandler.c **** #endif /* CYBLE_LNS_CLIENT */
 185:Generated_Source\PSoC4/BLE_1_eventHandler.c **** #ifdef CYBLE_NDCS_CLIENT
 186:Generated_Source\PSoC4/BLE_1_eventHandler.c ****     {{CYBLE_GATT_INVALID_ATTR_HANDLE_VALUE, CYBLE_GATT_INVALID_ATTR_HANDLE_VALUE}, CYBLE_UUID_NEXT_
 187:Generated_Source\PSoC4/BLE_1_eventHandler.c **** #endif /* CYBLE_NDCS_CLIENT */
 188:Generated_Source\PSoC4/BLE_1_eventHandler.c **** #ifdef CYBLE_IPSS_CLIENT
 189:Generated_Source\PSoC4/BLE_1_eventHandler.c ****     {{CYBLE_GATT_INVALID_ATTR_HANDLE_VALUE, CYBLE_GATT_INVALID_ATTR_HANDLE_VALUE}, CYBLE_UUID_INTER
 190:Generated_Source\PSoC4/BLE_1_eventHandler.c **** #endif /* CYBLE_IPSS_CLIENT */
 191:Generated_Source\PSoC4/BLE_1_eventHandler.c **** #ifdef CYBLE_PASS_CLIENT
 192:Generated_Source\PSoC4/BLE_1_eventHandler.c ****     {{CYBLE_GATT_INVALID_ATTR_HANDLE_VALUE, CYBLE_GATT_INVALID_ATTR_HANDLE_VALUE}, CYBLE_UUID_PHONE
 193:Generated_Source\PSoC4/BLE_1_eventHandler.c **** #endif /* CYBLE_PASS_CLIENT */
 194:Generated_Source\PSoC4/BLE_1_eventHandler.c **** #ifdef CYBLE_PLXS_CLIENT
 195:Generated_Source\PSoC4/BLE_1_eventHandler.c ****     {{CYBLE_GATT_INVALID_ATTR_HANDLE_VALUE, CYBLE_GATT_INVALID_ATTR_HANDLE_VALUE}, CYBLE_UUID_PLXS_
 196:Generated_Source\PSoC4/BLE_1_eventHandler.c **** #endif /* CYBLE_PLXS_CLIENT */
 197:Generated_Source\PSoC4/BLE_1_eventHandler.c **** #ifdef CYBLE_RSCS_CLIENT
 198:Generated_Source\PSoC4/BLE_1_eventHandler.c ****     {{CYBLE_GATT_INVALID_ATTR_HANDLE_VALUE, CYBLE_GATT_INVALID_ATTR_HANDLE_VALUE}, CYBLE_UUID_RUNNI
 199:Generated_Source\PSoC4/BLE_1_eventHandler.c **** #endif /* CYBLE_RSCS_CLIENT */
 200:Generated_Source\PSoC4/BLE_1_eventHandler.c **** #ifdef CYBLE_RTUS_CLIENT
 201:Generated_Source\PSoC4/BLE_1_eventHandler.c ****     {{CYBLE_GATT_INVALID_ATTR_HANDLE_VALUE, CYBLE_GATT_INVALID_ATTR_HANDLE_VALUE}, CYBLE_UUID_REF_T
 202:Generated_Source\PSoC4/BLE_1_eventHandler.c **** #endif /* CYBLE_RTUS_CLIENT */
 203:Generated_Source\PSoC4/BLE_1_eventHandler.c **** #ifdef CYBLE_SCPS_CLIENT
 204:Generated_Source\PSoC4/BLE_1_eventHandler.c ****     {{CYBLE_GATT_INVALID_ATTR_HANDLE_VALUE, CYBLE_GATT_INVALID_ATTR_HANDLE_VALUE}, CYBLE_UUID_SCAN_
 205:Generated_Source\PSoC4/BLE_1_eventHandler.c **** #endif /* CYBLE_SCPS_CLIENT */
 206:Generated_Source\PSoC4/BLE_1_eventHandler.c **** #ifdef CYBLE_TPS_CLIENT
 207:Generated_Source\PSoC4/BLE_1_eventHandler.c ****     {{CYBLE_GATT_INVALID_ATTR_HANDLE_VALUE, CYBLE_GATT_INVALID_ATTR_HANDLE_VALUE}, CYBLE_UUID_TX_PO
 208:Generated_Source\PSoC4/BLE_1_eventHandler.c **** #endif /* CYBLE_TPS_CLIENT */
 209:Generated_Source\PSoC4/BLE_1_eventHandler.c **** #ifdef CYBLE_UDS_CLIENT
 210:Generated_Source\PSoC4/BLE_1_eventHandler.c ****     {{CYBLE_GATT_INVALID_ATTR_HANDLE_VALUE, CYBLE_GATT_INVALID_ATTR_HANDLE_VALUE}, CYBLE_UUID_USER_
 211:Generated_Source\PSoC4/BLE_1_eventHandler.c **** #endif /* CYBLE_UDS_CLIENT */
 212:Generated_Source\PSoC4/BLE_1_eventHandler.c **** #ifdef CYBLE_WSS_CLIENT
 213:Generated_Source\PSoC4/BLE_1_eventHandler.c ****     {{CYBLE_GATT_INVALID_ATTR_HANDLE_VALUE, CYBLE_GATT_INVALID_ATTR_HANDLE_VALUE}, CYBLE_UUID_WEIGH
 214:Generated_Source\PSoC4/BLE_1_eventHandler.c **** #endif /* CYBLE_WSS_CLIENT */
 215:Generated_Source\PSoC4/BLE_1_eventHandler.c **** #ifdef CYBLE_WPTS_CLIENT
 216:Generated_Source\PSoC4/BLE_1_eventHandler.c ****     {{CYBLE_GATT_INVALID_ATTR_HANDLE_VALUE, CYBLE_GATT_INVALID_ATTR_HANDLE_VALUE}, CYBLE_UUID_WIREL
 217:Generated_Source\PSoC4/BLE_1_eventHandler.c **** #endif /* CYBLE_WPTS_CLIENT */
 218:Generated_Source\PSoC4/BLE_1_eventHandler.c **** };
 219:Generated_Source\PSoC4/BLE_1_eventHandler.c **** 
 220:Generated_Source\PSoC4/BLE_1_eventHandler.c **** CYBLE_GAPC_T cyBle_gapc;
 221:Generated_Source\PSoC4/BLE_1_eventHandler.c **** 
 222:Generated_Source\PSoC4/BLE_1_eventHandler.c **** #endif /* CYBLE_GATT_ROLE_CLIENT */
 223:Generated_Source\PSoC4/BLE_1_eventHandler.c **** 
 224:Generated_Source\PSoC4/BLE_1_eventHandler.c **** /* Default device security */
 225:Generated_Source\PSoC4/BLE_1_eventHandler.c **** CYBLE_GAP_AUTH_INFO_T cyBle_authInfo =
 226:Generated_Source\PSoC4/BLE_1_eventHandler.c **** {
 227:Generated_Source\PSoC4/BLE_1_eventHandler.c ****     (CYBLE_GAP_SEC_MODE_1 | CYBLE_GAP_SEC_LEVEL_1 ), /* uint8 security */
 228:Generated_Source\PSoC4/BLE_1_eventHandler.c ****     CYBLE_GAP_BONDING_NONE, /* uint8 bonding */
 229:Generated_Source\PSoC4/BLE_1_eventHandler.c ****     0x10u,      /* uint8 ekeySize */
 230:Generated_Source\PSoC4/BLE_1_eventHandler.c ****     CYBLE_GAP_AUTH_ERROR_NONE, /* CYBLE_AUTH_FAILED_REASON_T authErr */
 231:Generated_Source\PSoC4/BLE_1_eventHandler.c ****     0x00u,      /* uint8 pairingProperties */
 232:Generated_Source\PSoC4/BLE_1_eventHandler.c **** };
ARM GAS  C:\Users\ROUSSMA\AppData\Local\Temp\cc3gA5P4.s 			page 6


 233:Generated_Source\PSoC4/BLE_1_eventHandler.c **** 
 234:Generated_Source\PSoC4/BLE_1_eventHandler.c **** #if(CYBLE_GATT_ROLE_SERVER)
 235:Generated_Source\PSoC4/BLE_1_eventHandler.c **** 
 236:Generated_Source\PSoC4/BLE_1_eventHandler.c **** 
 237:Generated_Source\PSoC4/BLE_1_eventHandler.c **** /******************************************************************************    
 238:Generated_Source\PSoC4/BLE_1_eventHandler.c **** * Function Name: CyBle_WriteReqHandler
 239:Generated_Source\PSoC4/BLE_1_eventHandler.c **** ***************************************************************************//**
 240:Generated_Source\PSoC4/BLE_1_eventHandler.c **** * 
 241:Generated_Source\PSoC4/BLE_1_eventHandler.c **** *  Handles the Write Request event from BLE stack.
 242:Generated_Source\PSoC4/BLE_1_eventHandler.c **** * 
 243:Generated_Source\PSoC4/BLE_1_eventHandler.c **** *  CYBLE_GATTS_WRITE_REQ_PARAM_T * eventParam - event parameter
 244:Generated_Source\PSoC4/BLE_1_eventHandler.c **** * 
 245:Generated_Source\PSoC4/BLE_1_eventHandler.c **** * \return
 246:Generated_Source\PSoC4/BLE_1_eventHandler.c **** *  None
 247:Generated_Source\PSoC4/BLE_1_eventHandler.c **** * 
 248:Generated_Source\PSoC4/BLE_1_eventHandler.c **** ******************************************************************************/
 249:Generated_Source\PSoC4/BLE_1_eventHandler.c **** static void CyBle_WriteReqHandler(CYBLE_GATTS_WRITE_REQ_PARAM_T *eventParam)
 250:Generated_Source\PSoC4/BLE_1_eventHandler.c **** {
  54              		.loc 1 250 0
  55              		.cfi_startproc
  56              		@ args = 0, pretend = 0, frame = 16
  57              		@ frame_needed = 1, uses_anonymous_args = 0
  58 0000 90B5     		push	{r4, r7, lr}
  59              		.cfi_def_cfa_offset 12
  60              		.cfi_offset 4, -12
  61              		.cfi_offset 7, -8
  62              		.cfi_offset 14, -4
  63 0002 85B0     		sub	sp, sp, #20
  64              		.cfi_def_cfa_offset 32
  65 0004 00AF     		add	r7, sp, #0
  66              		.cfi_def_cfa_register 7
  67 0006 7860     		str	r0, [r7, #4]
 251:Generated_Source\PSoC4/BLE_1_eventHandler.c ****     CYBLE_GATT_ERR_CODE_T gattErr;
 252:Generated_Source\PSoC4/BLE_1_eventHandler.c **** #if defined CYBLE_CTS_SERVER || defined CYBLE_ESS_SERVER
 253:Generated_Source\PSoC4/BLE_1_eventHandler.c ****     cyBle_gattError = CYBLE_GATT_ERR_NONE;
 254:Generated_Source\PSoC4/BLE_1_eventHandler.c **** #endif /* defined CYBLE_CTS_SERVER || defined CYBLE_ESS_SERVER */
 255:Generated_Source\PSoC4/BLE_1_eventHandler.c ****     
 256:Generated_Source\PSoC4/BLE_1_eventHandler.c ****     gattErr = CyBle_GattsWriteEventHandler(eventParam);
  68              		.loc 1 256 0
  69 0008 0F23     		movs	r3, #15
  70 000a FC18     		adds	r4, r7, r3
  71 000c 7B68     		ldr	r3, [r7, #4]
  72 000e 1800     		movs	r0, r3
  73 0010 FFF7FEFF 		bl	CyBle_GattsWriteEventHandler
  74 0014 0300     		movs	r3, r0
  75 0016 2370     		strb	r3, [r4]
 257:Generated_Source\PSoC4/BLE_1_eventHandler.c **** #ifdef CYBLE_AIOS_SERVER
 258:Generated_Source\PSoC4/BLE_1_eventHandler.c ****     if(((cyBle_eventHandlerFlag & CYBLE_CALLBACK) != 0u) && (gattErr == CYBLE_GATT_ERR_NONE))
 259:Generated_Source\PSoC4/BLE_1_eventHandler.c ****     {
 260:Generated_Source\PSoC4/BLE_1_eventHandler.c ****         gattErr = CyBle_AiossWriteEventHandler(eventParam);
 261:Generated_Source\PSoC4/BLE_1_eventHandler.c ****     }
 262:Generated_Source\PSoC4/BLE_1_eventHandler.c **** #endif /* CYBLE_AIOS_SERVER */
 263:Generated_Source\PSoC4/BLE_1_eventHandler.c **** #ifdef CYBLE_ANCS_SERVER
 264:Generated_Source\PSoC4/BLE_1_eventHandler.c ****     if(((cyBle_eventHandlerFlag & CYBLE_CALLBACK) != 0u) && (gattErr == CYBLE_GATT_ERR_NONE))
 265:Generated_Source\PSoC4/BLE_1_eventHandler.c ****     {
 266:Generated_Source\PSoC4/BLE_1_eventHandler.c ****         gattErr = CyBle_AncssWriteEventHandler(eventParam);
 267:Generated_Source\PSoC4/BLE_1_eventHandler.c ****     }
ARM GAS  C:\Users\ROUSSMA\AppData\Local\Temp\cc3gA5P4.s 			page 7


 268:Generated_Source\PSoC4/BLE_1_eventHandler.c **** #endif /* CYBLE_ANCS_SERVER */
 269:Generated_Source\PSoC4/BLE_1_eventHandler.c **** #ifdef CYBLE_ANS_SERVER
 270:Generated_Source\PSoC4/BLE_1_eventHandler.c ****     if(((cyBle_eventHandlerFlag & CYBLE_CALLBACK) != 0u) && (gattErr == CYBLE_GATT_ERR_NONE))
 271:Generated_Source\PSoC4/BLE_1_eventHandler.c ****     {
 272:Generated_Source\PSoC4/BLE_1_eventHandler.c ****         gattErr = CyBle_AnssWriteEventHandler(eventParam);
 273:Generated_Source\PSoC4/BLE_1_eventHandler.c ****     }
 274:Generated_Source\PSoC4/BLE_1_eventHandler.c **** #endif /* CYBLE_ANS_SERVER */
 275:Generated_Source\PSoC4/BLE_1_eventHandler.c **** #ifdef CYBLE_BAS_SERVER
 276:Generated_Source\PSoC4/BLE_1_eventHandler.c ****     if(((cyBle_eventHandlerFlag & CYBLE_CALLBACK) != 0u) && (gattErr == CYBLE_GATT_ERR_NONE))
 277:Generated_Source\PSoC4/BLE_1_eventHandler.c ****     {
 278:Generated_Source\PSoC4/BLE_1_eventHandler.c ****         gattErr = CyBle_BassWriteEventHandler(eventParam);
 279:Generated_Source\PSoC4/BLE_1_eventHandler.c ****     }
 280:Generated_Source\PSoC4/BLE_1_eventHandler.c **** #endif /* CYBLE_BAS_SERVER */
 281:Generated_Source\PSoC4/BLE_1_eventHandler.c **** #ifdef CYBLE_BCS_SERVER
 282:Generated_Source\PSoC4/BLE_1_eventHandler.c ****     if(((cyBle_eventHandlerFlag & CYBLE_CALLBACK) != 0u) && (gattErr == CYBLE_GATT_ERR_NONE))
 283:Generated_Source\PSoC4/BLE_1_eventHandler.c ****     {
 284:Generated_Source\PSoC4/BLE_1_eventHandler.c ****         gattErr = CyBle_BcssWriteEventHandler(eventParam);
 285:Generated_Source\PSoC4/BLE_1_eventHandler.c ****     }
 286:Generated_Source\PSoC4/BLE_1_eventHandler.c **** #endif /* CYBLE_BCS_SERVER */
 287:Generated_Source\PSoC4/BLE_1_eventHandler.c **** #ifdef CYBLE_BLS_SERVER
 288:Generated_Source\PSoC4/BLE_1_eventHandler.c ****     if(((cyBle_eventHandlerFlag & CYBLE_CALLBACK) != 0u) && (gattErr == CYBLE_GATT_ERR_NONE))
 289:Generated_Source\PSoC4/BLE_1_eventHandler.c ****     {
 290:Generated_Source\PSoC4/BLE_1_eventHandler.c ****         gattErr = CyBle_BlssWriteEventHandler(eventParam);
 291:Generated_Source\PSoC4/BLE_1_eventHandler.c ****     }
 292:Generated_Source\PSoC4/BLE_1_eventHandler.c **** #endif /* CYBLE_BLS_SERVER */
 293:Generated_Source\PSoC4/BLE_1_eventHandler.c **** #ifdef CYBLE_BMS_SERVER
 294:Generated_Source\PSoC4/BLE_1_eventHandler.c ****     if(((cyBle_eventHandlerFlag & CYBLE_CALLBACK) != 0u) && (gattErr == CYBLE_GATT_ERR_NONE))
 295:Generated_Source\PSoC4/BLE_1_eventHandler.c ****     {
 296:Generated_Source\PSoC4/BLE_1_eventHandler.c ****         gattErr = CyBle_BmssWriteEventHandler(eventParam);
 297:Generated_Source\PSoC4/BLE_1_eventHandler.c ****     }
 298:Generated_Source\PSoC4/BLE_1_eventHandler.c **** #endif /* CYBLE_BMS_SERVER */
 299:Generated_Source\PSoC4/BLE_1_eventHandler.c **** #ifdef CYBLE_BTS_SERVER
 300:Generated_Source\PSoC4/BLE_1_eventHandler.c ****     if((cyBle_eventHandlerFlag & CYBLE_CALLBACK) != 0u)
 301:Generated_Source\PSoC4/BLE_1_eventHandler.c ****     {
 302:Generated_Source\PSoC4/BLE_1_eventHandler.c ****         gattErr = CyBle_BtsWriteEventHandler(eventParam);
 303:Generated_Source\PSoC4/BLE_1_eventHandler.c ****     }
 304:Generated_Source\PSoC4/BLE_1_eventHandler.c **** #endif /* CYBLE_BTS_SERVER */
 305:Generated_Source\PSoC4/BLE_1_eventHandler.c **** #ifdef CYBLE_CGMS_SERVER
 306:Generated_Source\PSoC4/BLE_1_eventHandler.c ****     if(((cyBle_eventHandlerFlag & CYBLE_CALLBACK) != 0u) && (gattErr == CYBLE_GATT_ERR_NONE))
 307:Generated_Source\PSoC4/BLE_1_eventHandler.c ****     {
 308:Generated_Source\PSoC4/BLE_1_eventHandler.c ****         gattErr = CyBle_CgmssWriteEventHandler(eventParam);
 309:Generated_Source\PSoC4/BLE_1_eventHandler.c ****     }
 310:Generated_Source\PSoC4/BLE_1_eventHandler.c **** #endif /* CYBLE_CGMS_SERVER */
 311:Generated_Source\PSoC4/BLE_1_eventHandler.c **** #ifdef CYBLE_CPS_SERVER
 312:Generated_Source\PSoC4/BLE_1_eventHandler.c ****     if(((cyBle_eventHandlerFlag & CYBLE_CALLBACK) != 0u) && (gattErr == CYBLE_GATT_ERR_NONE))
 313:Generated_Source\PSoC4/BLE_1_eventHandler.c ****     {
 314:Generated_Source\PSoC4/BLE_1_eventHandler.c ****         gattErr = CyBle_CpssWriteEventHandler(eventParam);
 315:Generated_Source\PSoC4/BLE_1_eventHandler.c ****     }
 316:Generated_Source\PSoC4/BLE_1_eventHandler.c **** #endif /* CYBLE_CPS_SERVER */
 317:Generated_Source\PSoC4/BLE_1_eventHandler.c **** #ifdef CYBLE_CSCS_SERVER
 318:Generated_Source\PSoC4/BLE_1_eventHandler.c ****     if(((cyBle_eventHandlerFlag & CYBLE_CALLBACK) != 0u) && (gattErr == CYBLE_GATT_ERR_NONE))
 319:Generated_Source\PSoC4/BLE_1_eventHandler.c ****     {
 320:Generated_Source\PSoC4/BLE_1_eventHandler.c ****         gattErr = CyBle_CscssWriteEventHandler(eventParam);
 321:Generated_Source\PSoC4/BLE_1_eventHandler.c ****     }
 322:Generated_Source\PSoC4/BLE_1_eventHandler.c **** #endif /* CYBLE_CSCS_SERVER */
 323:Generated_Source\PSoC4/BLE_1_eventHandler.c **** #ifdef CYBLE_CTS_SERVER
 324:Generated_Source\PSoC4/BLE_1_eventHandler.c ****     if(((cyBle_eventHandlerFlag & CYBLE_CALLBACK) != 0u) && (gattErr == CYBLE_GATT_ERR_NONE))
ARM GAS  C:\Users\ROUSSMA\AppData\Local\Temp\cc3gA5P4.s 			page 8


 325:Generated_Source\PSoC4/BLE_1_eventHandler.c ****     {
 326:Generated_Source\PSoC4/BLE_1_eventHandler.c ****         gattErr = CyBle_CtssWriteEventHandler(eventParam);
 327:Generated_Source\PSoC4/BLE_1_eventHandler.c ****     }
 328:Generated_Source\PSoC4/BLE_1_eventHandler.c **** #endif /* CYBLE_CTS_SERVER */
 329:Generated_Source\PSoC4/BLE_1_eventHandler.c **** #ifdef CYBLE_ESS_SERVER
 330:Generated_Source\PSoC4/BLE_1_eventHandler.c ****     if(((cyBle_eventHandlerFlag & CYBLE_CALLBACK) != 0u) && (gattErr == CYBLE_GATT_ERR_NONE))
 331:Generated_Source\PSoC4/BLE_1_eventHandler.c ****     {
 332:Generated_Source\PSoC4/BLE_1_eventHandler.c ****         gattErr = CyBle_EsssWriteEventHandler(eventParam);
 333:Generated_Source\PSoC4/BLE_1_eventHandler.c ****     }
 334:Generated_Source\PSoC4/BLE_1_eventHandler.c **** #endif /* CYBLE_ESS_SERVER */
 335:Generated_Source\PSoC4/BLE_1_eventHandler.c **** #ifdef CYBLE_GLS_SERVER
 336:Generated_Source\PSoC4/BLE_1_eventHandler.c ****     if(((cyBle_eventHandlerFlag & CYBLE_CALLBACK) != 0u) && (gattErr == CYBLE_GATT_ERR_NONE))
 337:Generated_Source\PSoC4/BLE_1_eventHandler.c ****     {
 338:Generated_Source\PSoC4/BLE_1_eventHandler.c ****         gattErr = CyBle_GlssWriteEventHandler(eventParam);
 339:Generated_Source\PSoC4/BLE_1_eventHandler.c ****     }
 340:Generated_Source\PSoC4/BLE_1_eventHandler.c **** #endif /* CYBLE_GLS_SERVER */
 341:Generated_Source\PSoC4/BLE_1_eventHandler.c **** #ifdef CYBLE_HIDS_SERVER
 342:Generated_Source\PSoC4/BLE_1_eventHandler.c ****     if(((cyBle_eventHandlerFlag & CYBLE_CALLBACK) != 0u) && (gattErr == CYBLE_GATT_ERR_NONE))
 343:Generated_Source\PSoC4/BLE_1_eventHandler.c ****     {
 344:Generated_Source\PSoC4/BLE_1_eventHandler.c ****         gattErr = CyBle_HidssWriteEventHandler(eventParam);
 345:Generated_Source\PSoC4/BLE_1_eventHandler.c ****     }
 346:Generated_Source\PSoC4/BLE_1_eventHandler.c **** #endif /* CYBLE_HIDS_SERVER */
 347:Generated_Source\PSoC4/BLE_1_eventHandler.c **** #ifdef CYBLE_HPS_SERVER
 348:Generated_Source\PSoC4/BLE_1_eventHandler.c ****     if(((cyBle_eventHandlerFlag & CYBLE_CALLBACK) != 0u) && (gattErr == CYBLE_GATT_ERR_NONE))
 349:Generated_Source\PSoC4/BLE_1_eventHandler.c ****     {
 350:Generated_Source\PSoC4/BLE_1_eventHandler.c ****         gattErr = CyBle_HpssWriteEventHandler(eventParam);
 351:Generated_Source\PSoC4/BLE_1_eventHandler.c ****     }
 352:Generated_Source\PSoC4/BLE_1_eventHandler.c **** #endif /* CYBLE_HPS_SERVER */
 353:Generated_Source\PSoC4/BLE_1_eventHandler.c **** #ifdef CYBLE_HRS_SERVER
 354:Generated_Source\PSoC4/BLE_1_eventHandler.c ****     if(((cyBle_eventHandlerFlag & CYBLE_CALLBACK) != 0u) && (gattErr == CYBLE_GATT_ERR_NONE))
 355:Generated_Source\PSoC4/BLE_1_eventHandler.c ****     {
 356:Generated_Source\PSoC4/BLE_1_eventHandler.c ****         gattErr = CyBle_HrssWriteEventHandler(eventParam);
 357:Generated_Source\PSoC4/BLE_1_eventHandler.c ****     }
 358:Generated_Source\PSoC4/BLE_1_eventHandler.c **** #endif /* CYBLE_HRS_SERVER */
 359:Generated_Source\PSoC4/BLE_1_eventHandler.c **** #ifdef CYBLE_HTS_SERVER
 360:Generated_Source\PSoC4/BLE_1_eventHandler.c ****     if(((cyBle_eventHandlerFlag & CYBLE_CALLBACK) != 0u) && (gattErr == CYBLE_GATT_ERR_NONE))
 361:Generated_Source\PSoC4/BLE_1_eventHandler.c ****     {
 362:Generated_Source\PSoC4/BLE_1_eventHandler.c ****         gattErr = CyBle_HtssWriteEventHandler(eventParam);
 363:Generated_Source\PSoC4/BLE_1_eventHandler.c ****     }
 364:Generated_Source\PSoC4/BLE_1_eventHandler.c **** #endif /* CYBLE_HTS_SERVER */
 365:Generated_Source\PSoC4/BLE_1_eventHandler.c **** #ifdef CYBLE_IPS_SERVER
 366:Generated_Source\PSoC4/BLE_1_eventHandler.c ****     if(((cyBle_eventHandlerFlag & CYBLE_CALLBACK) != 0u) && (gattErr == CYBLE_GATT_ERR_NONE))
 367:Generated_Source\PSoC4/BLE_1_eventHandler.c ****     {
 368:Generated_Source\PSoC4/BLE_1_eventHandler.c ****         gattErr = CyBle_IpssWriteEventHandler(eventParam);
 369:Generated_Source\PSoC4/BLE_1_eventHandler.c ****     }
 370:Generated_Source\PSoC4/BLE_1_eventHandler.c **** #endif /* CYBLE_IPS_SERVER */
 371:Generated_Source\PSoC4/BLE_1_eventHandler.c **** #ifdef CYBLE_LLS_SERVER
 372:Generated_Source\PSoC4/BLE_1_eventHandler.c ****     if(((cyBle_eventHandlerFlag & CYBLE_CALLBACK) != 0u) && (gattErr == CYBLE_GATT_ERR_NONE))
 373:Generated_Source\PSoC4/BLE_1_eventHandler.c ****     {
 374:Generated_Source\PSoC4/BLE_1_eventHandler.c ****         gattErr = CyBle_LlssWriteEventHandler(eventParam);
 375:Generated_Source\PSoC4/BLE_1_eventHandler.c ****     }
 376:Generated_Source\PSoC4/BLE_1_eventHandler.c **** #endif /* CYBLE_LLS_SERVER */
 377:Generated_Source\PSoC4/BLE_1_eventHandler.c **** #ifdef CYBLE_LNS_SERVER
 378:Generated_Source\PSoC4/BLE_1_eventHandler.c ****     if(((cyBle_eventHandlerFlag & CYBLE_CALLBACK) != 0u) && (gattErr == CYBLE_GATT_ERR_NONE))
 379:Generated_Source\PSoC4/BLE_1_eventHandler.c ****     {
 380:Generated_Source\PSoC4/BLE_1_eventHandler.c ****         gattErr = CyBle_LnssWriteEventHandler(eventParam);
 381:Generated_Source\PSoC4/BLE_1_eventHandler.c ****     }
ARM GAS  C:\Users\ROUSSMA\AppData\Local\Temp\cc3gA5P4.s 			page 9


 382:Generated_Source\PSoC4/BLE_1_eventHandler.c **** #endif /* CYBLE_LNS_SERVER */
 383:Generated_Source\PSoC4/BLE_1_eventHandler.c **** #ifdef CYBLE_PASS_SERVER
 384:Generated_Source\PSoC4/BLE_1_eventHandler.c ****     if(((cyBle_eventHandlerFlag & CYBLE_CALLBACK) != 0u) && (gattErr == CYBLE_GATT_ERR_NONE))
 385:Generated_Source\PSoC4/BLE_1_eventHandler.c ****     {
 386:Generated_Source\PSoC4/BLE_1_eventHandler.c ****         gattErr = CyBle_PasssWriteEventHandler(eventParam);
 387:Generated_Source\PSoC4/BLE_1_eventHandler.c ****     }
 388:Generated_Source\PSoC4/BLE_1_eventHandler.c **** #endif /* CYBLE_PASS_SERVER */
 389:Generated_Source\PSoC4/BLE_1_eventHandler.c **** #ifdef CYBLE_PLXS_SERVER
 390:Generated_Source\PSoC4/BLE_1_eventHandler.c ****     if(((cyBle_eventHandlerFlag & CYBLE_CALLBACK) != 0u) && (gattErr == CYBLE_GATT_ERR_NONE))
 391:Generated_Source\PSoC4/BLE_1_eventHandler.c ****     {
 392:Generated_Source\PSoC4/BLE_1_eventHandler.c ****         gattErr = CyBle_PlxssWriteEventHandler(eventParam);
 393:Generated_Source\PSoC4/BLE_1_eventHandler.c ****     }
 394:Generated_Source\PSoC4/BLE_1_eventHandler.c **** #endif /* CYBLE_PLXS_SERVER */    
 395:Generated_Source\PSoC4/BLE_1_eventHandler.c **** #ifdef CYBLE_RSCS_SERVER
 396:Generated_Source\PSoC4/BLE_1_eventHandler.c ****     if(((cyBle_eventHandlerFlag & CYBLE_CALLBACK) != 0u) && (gattErr == CYBLE_GATT_ERR_NONE))
 397:Generated_Source\PSoC4/BLE_1_eventHandler.c ****     {
 398:Generated_Source\PSoC4/BLE_1_eventHandler.c ****         gattErr = CyBle_RscssWriteEventHandler(eventParam);
 399:Generated_Source\PSoC4/BLE_1_eventHandler.c ****     }
 400:Generated_Source\PSoC4/BLE_1_eventHandler.c **** #endif /* CYBLE_RSCS_SERVER */
 401:Generated_Source\PSoC4/BLE_1_eventHandler.c **** #ifdef CYBLE_SCPS_SERVER
 402:Generated_Source\PSoC4/BLE_1_eventHandler.c ****     if(((cyBle_eventHandlerFlag & CYBLE_CALLBACK) != 0u) && (gattErr == CYBLE_GATT_ERR_NONE))
 403:Generated_Source\PSoC4/BLE_1_eventHandler.c ****     {
 404:Generated_Source\PSoC4/BLE_1_eventHandler.c ****         gattErr = CyBle_ScpssWriteEventHandler(eventParam);
 405:Generated_Source\PSoC4/BLE_1_eventHandler.c ****     }
 406:Generated_Source\PSoC4/BLE_1_eventHandler.c **** #endif /* CYBLE_SCPS_SERVER */
 407:Generated_Source\PSoC4/BLE_1_eventHandler.c **** #ifdef CYBLE_TPS_SERVER
 408:Generated_Source\PSoC4/BLE_1_eventHandler.c ****     if(((cyBle_eventHandlerFlag & CYBLE_CALLBACK) != 0u) && (gattErr == CYBLE_GATT_ERR_NONE))
 409:Generated_Source\PSoC4/BLE_1_eventHandler.c ****     {
 410:Generated_Source\PSoC4/BLE_1_eventHandler.c ****         gattErr = CyBle_TpssWriteEventHandler(eventParam);
 411:Generated_Source\PSoC4/BLE_1_eventHandler.c ****     }
 412:Generated_Source\PSoC4/BLE_1_eventHandler.c **** #endif /* CYBLE_TPS_SERVER */
 413:Generated_Source\PSoC4/BLE_1_eventHandler.c **** #ifdef CYBLE_UDS_SERVER
 414:Generated_Source\PSoC4/BLE_1_eventHandler.c ****     if(((cyBle_eventHandlerFlag & CYBLE_CALLBACK) != 0u) && (gattErr == CYBLE_GATT_ERR_NONE))
 415:Generated_Source\PSoC4/BLE_1_eventHandler.c ****     {
 416:Generated_Source\PSoC4/BLE_1_eventHandler.c ****         gattErr = CyBle_UdssWriteEventHandler(eventParam);
 417:Generated_Source\PSoC4/BLE_1_eventHandler.c ****     }
 418:Generated_Source\PSoC4/BLE_1_eventHandler.c **** #endif /* CYBLE_UDS_SERVER */
 419:Generated_Source\PSoC4/BLE_1_eventHandler.c **** #ifdef CYBLE_WPTS_SERVER
 420:Generated_Source\PSoC4/BLE_1_eventHandler.c ****     if(((cyBle_eventHandlerFlag & CYBLE_CALLBACK) != 0u) && (gattErr == CYBLE_GATT_ERR_NONE))
 421:Generated_Source\PSoC4/BLE_1_eventHandler.c ****     {
 422:Generated_Source\PSoC4/BLE_1_eventHandler.c ****         gattErr = CyBle_WptssWriteEventHandler(eventParam);
 423:Generated_Source\PSoC4/BLE_1_eventHandler.c ****     }
 424:Generated_Source\PSoC4/BLE_1_eventHandler.c **** #endif /* CYBLE_WPTS_SERVER */
 425:Generated_Source\PSoC4/BLE_1_eventHandler.c **** #ifdef CYBLE_WSS_SERVER
 426:Generated_Source\PSoC4/BLE_1_eventHandler.c ****     if(((cyBle_eventHandlerFlag & CYBLE_CALLBACK) != 0u) && (gattErr == CYBLE_GATT_ERR_NONE))
 427:Generated_Source\PSoC4/BLE_1_eventHandler.c ****     {
 428:Generated_Source\PSoC4/BLE_1_eventHandler.c ****         gattErr = CyBle_WsssWriteEventHandler(eventParam);
 429:Generated_Source\PSoC4/BLE_1_eventHandler.c ****     }
 430:Generated_Source\PSoC4/BLE_1_eventHandler.c **** #endif /* CYBLE_WSS_SERVER */
 431:Generated_Source\PSoC4/BLE_1_eventHandler.c **** 
 432:Generated_Source\PSoC4/BLE_1_eventHandler.c ****     /* Send response when event was handled by service */
 433:Generated_Source\PSoC4/BLE_1_eventHandler.c ****     if((cyBle_eventHandlerFlag & CYBLE_CALLBACK) == 0u)
  76              		.loc 1 433 0
  77 0018 154B     		ldr	r3, .L5
  78 001a 1B78     		ldrb	r3, [r3]
  79 001c DBB2     		uxtb	r3, r3
  80 001e 1A00     		movs	r2, r3
ARM GAS  C:\Users\ROUSSMA\AppData\Local\Temp\cc3gA5P4.s 			page 10


  81 0020 0123     		movs	r3, #1
  82 0022 1340     		ands	r3, r2
  83 0024 1FD1     		bne	.L4
 434:Generated_Source\PSoC4/BLE_1_eventHandler.c ****     {
 435:Generated_Source\PSoC4/BLE_1_eventHandler.c ****         if(gattErr != CYBLE_GATT_ERR_NONE)
  84              		.loc 1 435 0
  85 0026 0F23     		movs	r3, #15
  86 0028 FB18     		adds	r3, r7, r3
  87 002a 1B78     		ldrb	r3, [r3]
  88 002c 002B     		cmp	r3, #0
  89 002e 16D0     		beq	.L3
  90              	.LBB2:
 436:Generated_Source\PSoC4/BLE_1_eventHandler.c ****         {
 437:Generated_Source\PSoC4/BLE_1_eventHandler.c ****             CYBLE_GATTS_ERR_PARAM_T err_param;
 438:Generated_Source\PSoC4/BLE_1_eventHandler.c ****             
 439:Generated_Source\PSoC4/BLE_1_eventHandler.c ****             err_param.opcode = (uint8) CYBLE_GATT_WRITE_REQ;
  91              		.loc 1 439 0
  92 0030 0823     		movs	r3, #8
  93 0032 FB18     		adds	r3, r7, r3
  94 0034 1222     		movs	r2, #18
  95 0036 9A70     		strb	r2, [r3, #2]
 440:Generated_Source\PSoC4/BLE_1_eventHandler.c ****             err_param.attrHandle = eventParam->handleValPair.attrHandle;
  96              		.loc 1 440 0
  97 0038 7B68     		ldr	r3, [r7, #4]
  98 003a 9A89     		ldrh	r2, [r3, #12]
  99 003c 0823     		movs	r3, #8
 100 003e FB18     		adds	r3, r7, r3
 101 0040 1A80     		strh	r2, [r3]
 441:Generated_Source\PSoC4/BLE_1_eventHandler.c ****             err_param.errorCode = gattErr;
 102              		.loc 1 441 0
 103 0042 0823     		movs	r3, #8
 104 0044 FB18     		adds	r3, r7, r3
 105 0046 0F22     		movs	r2, #15
 106 0048 BA18     		adds	r2, r7, r2
 107 004a 1278     		ldrb	r2, [r2]
 108 004c DA70     		strb	r2, [r3, #3]
 442:Generated_Source\PSoC4/BLE_1_eventHandler.c **** 
 443:Generated_Source\PSoC4/BLE_1_eventHandler.c ****             /* Send Error Response */
 444:Generated_Source\PSoC4/BLE_1_eventHandler.c ****             (void)CyBle_GattsErrorRsp(eventParam->connHandle, &err_param);
 109              		.loc 1 444 0
 110 004e 0823     		movs	r3, #8
 111 0050 FA18     		adds	r2, r7, r3
 112 0052 7B68     		ldr	r3, [r7, #4]
 113 0054 1100     		movs	r1, r2
 114 0056 1868     		ldr	r0, [r3]
 115 0058 FFF7FEFF 		bl	CyBle_GattsErrorRsp
 116              	.LBE2:
 445:Generated_Source\PSoC4/BLE_1_eventHandler.c ****         }
 446:Generated_Source\PSoC4/BLE_1_eventHandler.c ****         else
 447:Generated_Source\PSoC4/BLE_1_eventHandler.c ****         {
 448:Generated_Source\PSoC4/BLE_1_eventHandler.c ****             (void)CyBle_GattsWriteRsp(eventParam->connHandle);
 449:Generated_Source\PSoC4/BLE_1_eventHandler.c ****         }
 450:Generated_Source\PSoC4/BLE_1_eventHandler.c ****     }
 451:Generated_Source\PSoC4/BLE_1_eventHandler.c **** }
 117              		.loc 1 451 0
 118 005c 03E0     		b	.L4
 119              	.L3:
ARM GAS  C:\Users\ROUSSMA\AppData\Local\Temp\cc3gA5P4.s 			page 11


 448:Generated_Source\PSoC4/BLE_1_eventHandler.c ****         }
 120              		.loc 1 448 0
 121 005e 7B68     		ldr	r3, [r7, #4]
 122 0060 1868     		ldr	r0, [r3]
 123 0062 FFF7FEFF 		bl	CyBle_GattsWriteRsp
 124              	.L4:
 125              		.loc 1 451 0
 126 0066 C046     		nop
 127 0068 BD46     		mov	sp, r7
 128 006a 05B0     		add	sp, sp, #20
 129              		@ sp needed
 130 006c 90BD     		pop	{r4, r7, pc}
 131              	.L6:
 132 006e C046     		.align	2
 133              	.L5:
 134 0070 00000000 		.word	cyBle_eventHandlerFlag
 135              		.cfi_endproc
 136              	.LFE2:
 137              		.size	CyBle_WriteReqHandler, .-CyBle_WriteReqHandler
 138              		.section	.text.CyBle_ValueConfirmation,"ax",%progbits
 139              		.align	2
 140              		.code	16
 141              		.thumb_func
 142              		.type	CyBle_ValueConfirmation, %function
 143              	CyBle_ValueConfirmation:
 144              	.LFB3:
 452:Generated_Source\PSoC4/BLE_1_eventHandler.c **** 
 453:Generated_Source\PSoC4/BLE_1_eventHandler.c **** 
 454:Generated_Source\PSoC4/BLE_1_eventHandler.c **** /****************************************************************************** 
 455:Generated_Source\PSoC4/BLE_1_eventHandler.c **** * Function Name: CyBle_ValueConfirmation
 456:Generated_Source\PSoC4/BLE_1_eventHandler.c **** ***************************************************************************//**
 457:Generated_Source\PSoC4/BLE_1_eventHandler.c **** * 
 458:Generated_Source\PSoC4/BLE_1_eventHandler.c **** *  Handles the Value Confirmation request event from the BLE stack.
 459:Generated_Source\PSoC4/BLE_1_eventHandler.c **** * 
 460:Generated_Source\PSoC4/BLE_1_eventHandler.c **** *  \param eventParam: Pointer to a structure of type 'CYBLE_CONN_HANDLE_T'
 461:Generated_Source\PSoC4/BLE_1_eventHandler.c **** * 
 462:Generated_Source\PSoC4/BLE_1_eventHandler.c **** * \return
 463:Generated_Source\PSoC4/BLE_1_eventHandler.c **** *  None
 464:Generated_Source\PSoC4/BLE_1_eventHandler.c **** * 
 465:Generated_Source\PSoC4/BLE_1_eventHandler.c **** ******************************************************************************/
 466:Generated_Source\PSoC4/BLE_1_eventHandler.c **** static void CyBle_ValueConfirmation(const CYBLE_CONN_HANDLE_T *eventParam)
 467:Generated_Source\PSoC4/BLE_1_eventHandler.c **** {
 145              		.loc 1 467 0
 146              		.cfi_startproc
 147              		@ args = 0, pretend = 0, frame = 8
 148              		@ frame_needed = 1, uses_anonymous_args = 0
 149 0000 80B5     		push	{r7, lr}
 150              		.cfi_def_cfa_offset 8
 151              		.cfi_offset 7, -8
 152              		.cfi_offset 14, -4
 153 0002 82B0     		sub	sp, sp, #8
 154              		.cfi_def_cfa_offset 16
 155 0004 00AF     		add	r7, sp, #0
 156              		.cfi_def_cfa_register 7
 157 0006 7860     		str	r0, [r7, #4]
 468:Generated_Source\PSoC4/BLE_1_eventHandler.c ****     if(eventParam != NULL)
 469:Generated_Source\PSoC4/BLE_1_eventHandler.c ****     {
ARM GAS  C:\Users\ROUSSMA\AppData\Local\Temp\cc3gA5P4.s 			page 12


 470:Generated_Source\PSoC4/BLE_1_eventHandler.c ****     #ifdef CYBLE_AIOS_SERVER
 471:Generated_Source\PSoC4/BLE_1_eventHandler.c ****         if((cyBle_eventHandlerFlag & CYBLE_CALLBACK) != 0u)
 472:Generated_Source\PSoC4/BLE_1_eventHandler.c ****         {
 473:Generated_Source\PSoC4/BLE_1_eventHandler.c ****             CyBle_AiossConfirmationEventHandler(eventParam);
 474:Generated_Source\PSoC4/BLE_1_eventHandler.c ****         }
 475:Generated_Source\PSoC4/BLE_1_eventHandler.c ****     #endif /* CYBLE_AIOS_SERVER */
 476:Generated_Source\PSoC4/BLE_1_eventHandler.c ****     #ifdef CYBLE_BCS_SERVER
 477:Generated_Source\PSoC4/BLE_1_eventHandler.c ****         CyBle_BcssConfirmationEventHandler(eventParam);
 478:Generated_Source\PSoC4/BLE_1_eventHandler.c ****     #endif /* CYBLE_BCS_SERVER */
 479:Generated_Source\PSoC4/BLE_1_eventHandler.c ****     #ifdef CYBLE_BLS_SERVER
 480:Generated_Source\PSoC4/BLE_1_eventHandler.c ****         if((cyBle_eventHandlerFlag & CYBLE_CALLBACK) != 0u)
 481:Generated_Source\PSoC4/BLE_1_eventHandler.c ****         {
 482:Generated_Source\PSoC4/BLE_1_eventHandler.c ****             CyBle_BlssConfirmationEventHandler(eventParam);
 483:Generated_Source\PSoC4/BLE_1_eventHandler.c ****         }
 484:Generated_Source\PSoC4/BLE_1_eventHandler.c ****     #endif /* CYBLE_BLS_SERVER */
 485:Generated_Source\PSoC4/BLE_1_eventHandler.c ****     
 486:Generated_Source\PSoC4/BLE_1_eventHandler.c ****     #ifdef CYBLE_CGMS_SERVER
 487:Generated_Source\PSoC4/BLE_1_eventHandler.c ****         if((cyBle_eventHandlerFlag & CYBLE_CALLBACK) != 0u)
 488:Generated_Source\PSoC4/BLE_1_eventHandler.c ****         {
 489:Generated_Source\PSoC4/BLE_1_eventHandler.c ****             CyBle_CgmssConfirmationEventHandler(eventParam);
 490:Generated_Source\PSoC4/BLE_1_eventHandler.c ****         }
 491:Generated_Source\PSoC4/BLE_1_eventHandler.c ****     #endif /* CYBLE_CGMS_SERVER */
 492:Generated_Source\PSoC4/BLE_1_eventHandler.c ****     
 493:Generated_Source\PSoC4/BLE_1_eventHandler.c ****     #ifdef CYBLE_CPS_SERVER
 494:Generated_Source\PSoC4/BLE_1_eventHandler.c ****         if((cyBle_eventHandlerFlag & CYBLE_CALLBACK) != 0u)
 495:Generated_Source\PSoC4/BLE_1_eventHandler.c ****         {
 496:Generated_Source\PSoC4/BLE_1_eventHandler.c ****             CyBle_CpssConfirmationEventHandler(eventParam);
 497:Generated_Source\PSoC4/BLE_1_eventHandler.c ****         }
 498:Generated_Source\PSoC4/BLE_1_eventHandler.c ****     #endif /* CYBLE_CPS_SERVER */
 499:Generated_Source\PSoC4/BLE_1_eventHandler.c ****     
 500:Generated_Source\PSoC4/BLE_1_eventHandler.c ****     #ifdef CYBLE_CSCS_SERVER
 501:Generated_Source\PSoC4/BLE_1_eventHandler.c ****         if((cyBle_eventHandlerFlag & CYBLE_CALLBACK) != 0u)
 502:Generated_Source\PSoC4/BLE_1_eventHandler.c ****         {
 503:Generated_Source\PSoC4/BLE_1_eventHandler.c ****             CyBle_CscssConfirmationEventHandler(eventParam);
 504:Generated_Source\PSoC4/BLE_1_eventHandler.c ****         }
 505:Generated_Source\PSoC4/BLE_1_eventHandler.c ****     #endif /* CYBLE_CSCS_SERVER */
 506:Generated_Source\PSoC4/BLE_1_eventHandler.c ****     
 507:Generated_Source\PSoC4/BLE_1_eventHandler.c ****     #ifdef CYBLE_ESS_SERVER
 508:Generated_Source\PSoC4/BLE_1_eventHandler.c ****         if((cyBle_eventHandlerFlag & CYBLE_CALLBACK) != 0u)
 509:Generated_Source\PSoC4/BLE_1_eventHandler.c ****         {
 510:Generated_Source\PSoC4/BLE_1_eventHandler.c ****             CyBle_EsssConfirmationEventHandler(eventParam);
 511:Generated_Source\PSoC4/BLE_1_eventHandler.c ****         }
 512:Generated_Source\PSoC4/BLE_1_eventHandler.c ****     #endif /* CYBLE_ESS_SERVER */
 513:Generated_Source\PSoC4/BLE_1_eventHandler.c ****     
 514:Generated_Source\PSoC4/BLE_1_eventHandler.c ****     #ifdef CYBLE_GLS_SERVER
 515:Generated_Source\PSoC4/BLE_1_eventHandler.c ****         if((cyBle_eventHandlerFlag & CYBLE_CALLBACK) != 0u)
 516:Generated_Source\PSoC4/BLE_1_eventHandler.c ****         {
 517:Generated_Source\PSoC4/BLE_1_eventHandler.c ****             CyBle_GlssConfirmationEventHandler(eventParam);
 518:Generated_Source\PSoC4/BLE_1_eventHandler.c ****         }
 519:Generated_Source\PSoC4/BLE_1_eventHandler.c ****     #endif /* CYBLE_GLS_SERVER */
 520:Generated_Source\PSoC4/BLE_1_eventHandler.c ****     
 521:Generated_Source\PSoC4/BLE_1_eventHandler.c ****     #ifdef CYBLE_HTS_SERVER
 522:Generated_Source\PSoC4/BLE_1_eventHandler.c ****         if((cyBle_eventHandlerFlag & CYBLE_CALLBACK) != 0u)
 523:Generated_Source\PSoC4/BLE_1_eventHandler.c ****         {
 524:Generated_Source\PSoC4/BLE_1_eventHandler.c ****             CyBle_HtssConfirmationEventHandler(eventParam);
 525:Generated_Source\PSoC4/BLE_1_eventHandler.c ****         }
 526:Generated_Source\PSoC4/BLE_1_eventHandler.c ****     #endif /* CYBLE_HTS_SERVER */
ARM GAS  C:\Users\ROUSSMA\AppData\Local\Temp\cc3gA5P4.s 			page 13


 527:Generated_Source\PSoC4/BLE_1_eventHandler.c **** 
 528:Generated_Source\PSoC4/BLE_1_eventHandler.c ****     #ifdef CYBLE_LNS_SERVER
 529:Generated_Source\PSoC4/BLE_1_eventHandler.c ****         if((cyBle_eventHandlerFlag & CYBLE_CALLBACK) != 0u)
 530:Generated_Source\PSoC4/BLE_1_eventHandler.c ****         {
 531:Generated_Source\PSoC4/BLE_1_eventHandler.c ****             CyBle_LnssConfirmationEventHandler(eventParam);
 532:Generated_Source\PSoC4/BLE_1_eventHandler.c ****         }
 533:Generated_Source\PSoC4/BLE_1_eventHandler.c ****     #endif /* CYBLE_LNS_SERVER */
 534:Generated_Source\PSoC4/BLE_1_eventHandler.c ****     
 535:Generated_Source\PSoC4/BLE_1_eventHandler.c ****     #ifdef CYBLE_RSCS_SERVER
 536:Generated_Source\PSoC4/BLE_1_eventHandler.c ****         if((cyBle_eventHandlerFlag & CYBLE_CALLBACK) != 0u)
 537:Generated_Source\PSoC4/BLE_1_eventHandler.c ****         {
 538:Generated_Source\PSoC4/BLE_1_eventHandler.c ****             CyBle_RscssConfirmationEventHandler(eventParam);
 539:Generated_Source\PSoC4/BLE_1_eventHandler.c ****         }
 540:Generated_Source\PSoC4/BLE_1_eventHandler.c ****     #endif /* CYBLE_RSCS_SERVER */
 541:Generated_Source\PSoC4/BLE_1_eventHandler.c ****     
 542:Generated_Source\PSoC4/BLE_1_eventHandler.c ****     #ifdef CYBLE_UDS_SERVER
 543:Generated_Source\PSoC4/BLE_1_eventHandler.c ****         if((cyBle_eventHandlerFlag & CYBLE_CALLBACK) != 0u)
 544:Generated_Source\PSoC4/BLE_1_eventHandler.c ****         {
 545:Generated_Source\PSoC4/BLE_1_eventHandler.c ****             CyBle_UdssConfirmationEventHandler(eventParam);
 546:Generated_Source\PSoC4/BLE_1_eventHandler.c ****         }
 547:Generated_Source\PSoC4/BLE_1_eventHandler.c ****     #endif /* CYBLE_UDS_SERVER */
 548:Generated_Source\PSoC4/BLE_1_eventHandler.c ****     
 549:Generated_Source\PSoC4/BLE_1_eventHandler.c ****     #ifdef CYBLE_WPTS_SERVER
 550:Generated_Source\PSoC4/BLE_1_eventHandler.c ****         if((cyBle_eventHandlerFlag & CYBLE_CALLBACK) != 0u)
 551:Generated_Source\PSoC4/BLE_1_eventHandler.c ****         {
 552:Generated_Source\PSoC4/BLE_1_eventHandler.c ****             CyBle_WptssConfirmationEventHandler(eventParam);
 553:Generated_Source\PSoC4/BLE_1_eventHandler.c ****         }
 554:Generated_Source\PSoC4/BLE_1_eventHandler.c ****     #endif /* CYBLE_WPTS_SERVER */
 555:Generated_Source\PSoC4/BLE_1_eventHandler.c ****     
 556:Generated_Source\PSoC4/BLE_1_eventHandler.c ****     #ifdef CYBLE_WSS_SERVER
 557:Generated_Source\PSoC4/BLE_1_eventHandler.c ****         if((cyBle_eventHandlerFlag & CYBLE_CALLBACK) != 0u)
 558:Generated_Source\PSoC4/BLE_1_eventHandler.c ****         {
 559:Generated_Source\PSoC4/BLE_1_eventHandler.c ****             CyBle_WsssConfirmationEventHandler(eventParam);
 560:Generated_Source\PSoC4/BLE_1_eventHandler.c ****         }
 561:Generated_Source\PSoC4/BLE_1_eventHandler.c ****     #endif /* CYBLE_WSS_SERVER */
 562:Generated_Source\PSoC4/BLE_1_eventHandler.c ****     }
 563:Generated_Source\PSoC4/BLE_1_eventHandler.c **** }
 158              		.loc 1 563 0
 159 0008 C046     		nop
 160 000a BD46     		mov	sp, r7
 161 000c 02B0     		add	sp, sp, #8
 162              		@ sp needed
 163 000e 80BD     		pop	{r7, pc}
 164              		.cfi_endproc
 165              	.LFE3:
 166              		.size	CyBle_ValueConfirmation, .-CyBle_ValueConfirmation
 167              		.section	.text.CyBle_GattDisconnectEventHandler,"ax",%progbits
 168              		.align	2
 169              		.code	16
 170              		.thumb_func
 171              		.type	CyBle_GattDisconnectEventHandler, %function
 172              	CyBle_GattDisconnectEventHandler:
 173              	.LFB4:
 564:Generated_Source\PSoC4/BLE_1_eventHandler.c **** 
 565:Generated_Source\PSoC4/BLE_1_eventHandler.c **** #endif /* CYBLE_GATT_ROLE_SERVER */
 566:Generated_Source\PSoC4/BLE_1_eventHandler.c **** 
 567:Generated_Source\PSoC4/BLE_1_eventHandler.c **** 
ARM GAS  C:\Users\ROUSSMA\AppData\Local\Temp\cc3gA5P4.s 			page 14


 568:Generated_Source\PSoC4/BLE_1_eventHandler.c **** #if (CYBLE_GATT_ROLE_CLIENT)
 569:Generated_Source\PSoC4/BLE_1_eventHandler.c **** 
 570:Generated_Source\PSoC4/BLE_1_eventHandler.c **** /****************************************************************************** 
 571:Generated_Source\PSoC4/BLE_1_eventHandler.c **** * Function Name: CyBle_GattcWriteResponseEventHandler
 572:Generated_Source\PSoC4/BLE_1_eventHandler.c **** ***************************************************************************//**
 573:Generated_Source\PSoC4/BLE_1_eventHandler.c **** * 
 574:Generated_Source\PSoC4/BLE_1_eventHandler.c **** *  Handles the Write response event from the BLE stack.
 575:Generated_Source\PSoC4/BLE_1_eventHandler.c **** * 
 576:Generated_Source\PSoC4/BLE_1_eventHandler.c **** *  \param eventParam: Pointer to a structure of type 'CYBLE_CONN_HANDLE_T'
 577:Generated_Source\PSoC4/BLE_1_eventHandler.c **** * 
 578:Generated_Source\PSoC4/BLE_1_eventHandler.c **** * \return
 579:Generated_Source\PSoC4/BLE_1_eventHandler.c **** *  None
 580:Generated_Source\PSoC4/BLE_1_eventHandler.c **** * 
 581:Generated_Source\PSoC4/BLE_1_eventHandler.c **** ******************************************************************************/
 582:Generated_Source\PSoC4/BLE_1_eventHandler.c **** static void CyBle_GattcWriteResponseEventHandler(const CYBLE_CONN_HANDLE_T *eventParam)
 583:Generated_Source\PSoC4/BLE_1_eventHandler.c **** {
 584:Generated_Source\PSoC4/BLE_1_eventHandler.c **** 
 585:Generated_Source\PSoC4/BLE_1_eventHandler.c **** #ifdef CYBLE_AIOS_CLIENT
 586:Generated_Source\PSoC4/BLE_1_eventHandler.c ****     if((cyBle_eventHandlerFlag & CYBLE_CALLBACK) != 0u)
 587:Generated_Source\PSoC4/BLE_1_eventHandler.c ****     {
 588:Generated_Source\PSoC4/BLE_1_eventHandler.c ****         CyBle_AioscWriteResponseEventHandler(eventParam);
 589:Generated_Source\PSoC4/BLE_1_eventHandler.c ****     }
 590:Generated_Source\PSoC4/BLE_1_eventHandler.c **** #endif /* CYBLE_AIOS_CLIENT */
 591:Generated_Source\PSoC4/BLE_1_eventHandler.c **** 
 592:Generated_Source\PSoC4/BLE_1_eventHandler.c **** #ifdef CYBLE_ANCS_CLIENT
 593:Generated_Source\PSoC4/BLE_1_eventHandler.c ****     CyBle_AncscWriteResponseEventHandler(eventParam);
 594:Generated_Source\PSoC4/BLE_1_eventHandler.c **** #endif /* CYBLE_ANCS_CLIENT */
 595:Generated_Source\PSoC4/BLE_1_eventHandler.c **** 
 596:Generated_Source\PSoC4/BLE_1_eventHandler.c **** #ifdef CYBLE_ANS_CLIENT
 597:Generated_Source\PSoC4/BLE_1_eventHandler.c ****     if((cyBle_eventHandlerFlag & CYBLE_CALLBACK) != 0u)
 598:Generated_Source\PSoC4/BLE_1_eventHandler.c ****     {
 599:Generated_Source\PSoC4/BLE_1_eventHandler.c ****         CyBle_AnscWriteResponseEventHandler(eventParam);
 600:Generated_Source\PSoC4/BLE_1_eventHandler.c ****     }
 601:Generated_Source\PSoC4/BLE_1_eventHandler.c **** #endif /* CYBLE_ANS_CLIENT */
 602:Generated_Source\PSoC4/BLE_1_eventHandler.c **** 
 603:Generated_Source\PSoC4/BLE_1_eventHandler.c **** #ifdef CYBLE_BAS_CLIENT
 604:Generated_Source\PSoC4/BLE_1_eventHandler.c ****     if((cyBle_eventHandlerFlag & CYBLE_CALLBACK) != 0u)
 605:Generated_Source\PSoC4/BLE_1_eventHandler.c ****     {
 606:Generated_Source\PSoC4/BLE_1_eventHandler.c ****         CyBle_BascWriteResponseEventHandler(eventParam);
 607:Generated_Source\PSoC4/BLE_1_eventHandler.c ****     }
 608:Generated_Source\PSoC4/BLE_1_eventHandler.c **** #endif /* CYBLE_BAS_CLIENT */
 609:Generated_Source\PSoC4/BLE_1_eventHandler.c **** 
 610:Generated_Source\PSoC4/BLE_1_eventHandler.c **** #ifdef CYBLE_BCS_CLIENT
 611:Generated_Source\PSoC4/BLE_1_eventHandler.c ****     if((cyBle_eventHandlerFlag & CYBLE_CALLBACK) != 0u)
 612:Generated_Source\PSoC4/BLE_1_eventHandler.c ****     {
 613:Generated_Source\PSoC4/BLE_1_eventHandler.c ****         CyBle_BcscWriteResponseEventHandler(eventParam);
 614:Generated_Source\PSoC4/BLE_1_eventHandler.c ****     }
 615:Generated_Source\PSoC4/BLE_1_eventHandler.c **** #endif /* CYBLE_BCS_CLIENT */
 616:Generated_Source\PSoC4/BLE_1_eventHandler.c **** 
 617:Generated_Source\PSoC4/BLE_1_eventHandler.c **** #ifdef CYBLE_BLS_CLIENT
 618:Generated_Source\PSoC4/BLE_1_eventHandler.c ****     if((cyBle_eventHandlerFlag & CYBLE_CALLBACK) != 0u)
 619:Generated_Source\PSoC4/BLE_1_eventHandler.c ****     {
 620:Generated_Source\PSoC4/BLE_1_eventHandler.c ****         CyBle_BlscWriteResponseEventHandler(eventParam);
 621:Generated_Source\PSoC4/BLE_1_eventHandler.c ****     }
 622:Generated_Source\PSoC4/BLE_1_eventHandler.c **** #endif /* CYBLE_BLS_CLIENT */
 623:Generated_Source\PSoC4/BLE_1_eventHandler.c **** 
 624:Generated_Source\PSoC4/BLE_1_eventHandler.c **** #ifdef CYBLE_BMS_CLIENT
ARM GAS  C:\Users\ROUSSMA\AppData\Local\Temp\cc3gA5P4.s 			page 15


 625:Generated_Source\PSoC4/BLE_1_eventHandler.c ****     if((cyBle_eventHandlerFlag & CYBLE_CALLBACK) != 0u)
 626:Generated_Source\PSoC4/BLE_1_eventHandler.c ****     {
 627:Generated_Source\PSoC4/BLE_1_eventHandler.c ****         CyBle_BmscWriteResponseEventHandler(eventParam);
 628:Generated_Source\PSoC4/BLE_1_eventHandler.c ****     }
 629:Generated_Source\PSoC4/BLE_1_eventHandler.c **** #endif /* CYBLE_BMS_CLIENT */
 630:Generated_Source\PSoC4/BLE_1_eventHandler.c **** 
 631:Generated_Source\PSoC4/BLE_1_eventHandler.c **** #ifdef CYBLE_CGMS_CLIENT
 632:Generated_Source\PSoC4/BLE_1_eventHandler.c ****     if((cyBle_eventHandlerFlag & CYBLE_CALLBACK) != 0u)
 633:Generated_Source\PSoC4/BLE_1_eventHandler.c ****     {
 634:Generated_Source\PSoC4/BLE_1_eventHandler.c ****         CyBle_CgmscWriteResponseEventHandler(eventParam);
 635:Generated_Source\PSoC4/BLE_1_eventHandler.c ****     }
 636:Generated_Source\PSoC4/BLE_1_eventHandler.c **** #endif /* CYBLE_CGMS_CLIENT */
 637:Generated_Source\PSoC4/BLE_1_eventHandler.c **** 
 638:Generated_Source\PSoC4/BLE_1_eventHandler.c **** #ifdef CYBLE_CPS_CLIENT
 639:Generated_Source\PSoC4/BLE_1_eventHandler.c ****     if((cyBle_eventHandlerFlag & CYBLE_CALLBACK) != 0u)
 640:Generated_Source\PSoC4/BLE_1_eventHandler.c ****     {
 641:Generated_Source\PSoC4/BLE_1_eventHandler.c ****         CyBle_CpscWriteResponseEventHandler(eventParam);
 642:Generated_Source\PSoC4/BLE_1_eventHandler.c ****     }
 643:Generated_Source\PSoC4/BLE_1_eventHandler.c **** #endif /* CYBLE_CPS_CLIENT */
 644:Generated_Source\PSoC4/BLE_1_eventHandler.c **** 
 645:Generated_Source\PSoC4/BLE_1_eventHandler.c **** #ifdef CYBLE_CSCS_CLIENT
 646:Generated_Source\PSoC4/BLE_1_eventHandler.c ****     if((cyBle_eventHandlerFlag & CYBLE_CALLBACK) != 0u)
 647:Generated_Source\PSoC4/BLE_1_eventHandler.c ****     {
 648:Generated_Source\PSoC4/BLE_1_eventHandler.c ****         CyBle_CscscWriteResponseEventHandler(eventParam);
 649:Generated_Source\PSoC4/BLE_1_eventHandler.c ****     }
 650:Generated_Source\PSoC4/BLE_1_eventHandler.c **** #endif /* CYBLE_CSCS_CLIENT */
 651:Generated_Source\PSoC4/BLE_1_eventHandler.c **** 
 652:Generated_Source\PSoC4/BLE_1_eventHandler.c **** #ifdef CYBLE_CTS_CLIENT
 653:Generated_Source\PSoC4/BLE_1_eventHandler.c ****     if((cyBle_eventHandlerFlag & CYBLE_CALLBACK) != 0u)
 654:Generated_Source\PSoC4/BLE_1_eventHandler.c ****     {
 655:Generated_Source\PSoC4/BLE_1_eventHandler.c ****         CyBle_CtscWriteResponseEventHandler(eventParam);
 656:Generated_Source\PSoC4/BLE_1_eventHandler.c ****     }
 657:Generated_Source\PSoC4/BLE_1_eventHandler.c **** #endif /* CYBLE_CTS_CLIENT */
 658:Generated_Source\PSoC4/BLE_1_eventHandler.c **** 
 659:Generated_Source\PSoC4/BLE_1_eventHandler.c **** #ifdef CYBLE_ESS_CLIENT
 660:Generated_Source\PSoC4/BLE_1_eventHandler.c ****     if((cyBle_eventHandlerFlag & CYBLE_CALLBACK) != 0u)
 661:Generated_Source\PSoC4/BLE_1_eventHandler.c ****     {
 662:Generated_Source\PSoC4/BLE_1_eventHandler.c ****         CyBle_EsscWriteResponseEventHandler(eventParam);
 663:Generated_Source\PSoC4/BLE_1_eventHandler.c ****     }
 664:Generated_Source\PSoC4/BLE_1_eventHandler.c **** #endif /* CYBLE_ESS_CLIENT */
 665:Generated_Source\PSoC4/BLE_1_eventHandler.c **** 
 666:Generated_Source\PSoC4/BLE_1_eventHandler.c **** #ifdef CYBLE_GLS_CLIENT
 667:Generated_Source\PSoC4/BLE_1_eventHandler.c ****     if((cyBle_eventHandlerFlag & CYBLE_CALLBACK) != 0u)
 668:Generated_Source\PSoC4/BLE_1_eventHandler.c ****     {
 669:Generated_Source\PSoC4/BLE_1_eventHandler.c ****         CyBle_GlscWriteResponseEventHandler(eventParam);
 670:Generated_Source\PSoC4/BLE_1_eventHandler.c ****     }
 671:Generated_Source\PSoC4/BLE_1_eventHandler.c **** #endif /* CYBLE_GLS_CLIENT */
 672:Generated_Source\PSoC4/BLE_1_eventHandler.c **** 
 673:Generated_Source\PSoC4/BLE_1_eventHandler.c **** #ifdef CYBLE_HIDS_CLIENT
 674:Generated_Source\PSoC4/BLE_1_eventHandler.c ****     if((cyBle_eventHandlerFlag & CYBLE_CALLBACK) != 0u)
 675:Generated_Source\PSoC4/BLE_1_eventHandler.c ****     {
 676:Generated_Source\PSoC4/BLE_1_eventHandler.c ****         CyBle_HidscWriteResponseEventHandler(eventParam);
 677:Generated_Source\PSoC4/BLE_1_eventHandler.c ****     }
 678:Generated_Source\PSoC4/BLE_1_eventHandler.c **** #endif /* CYBLE_HIDS_CLIENT */
 679:Generated_Source\PSoC4/BLE_1_eventHandler.c **** 
 680:Generated_Source\PSoC4/BLE_1_eventHandler.c **** #ifdef CYBLE_HPS_CLIENT
 681:Generated_Source\PSoC4/BLE_1_eventHandler.c ****     if((cyBle_eventHandlerFlag & CYBLE_CALLBACK) != 0u)
ARM GAS  C:\Users\ROUSSMA\AppData\Local\Temp\cc3gA5P4.s 			page 16


 682:Generated_Source\PSoC4/BLE_1_eventHandler.c ****     {
 683:Generated_Source\PSoC4/BLE_1_eventHandler.c ****         CyBle_HpscWriteResponseEventHandler(eventParam);
 684:Generated_Source\PSoC4/BLE_1_eventHandler.c ****     }
 685:Generated_Source\PSoC4/BLE_1_eventHandler.c **** #endif /* CYBLE_HPS_CLIENT */
 686:Generated_Source\PSoC4/BLE_1_eventHandler.c **** 
 687:Generated_Source\PSoC4/BLE_1_eventHandler.c **** #ifdef CYBLE_HRS_CLIENT
 688:Generated_Source\PSoC4/BLE_1_eventHandler.c ****     if((cyBle_eventHandlerFlag & CYBLE_CALLBACK) != 0u)
 689:Generated_Source\PSoC4/BLE_1_eventHandler.c ****     {
 690:Generated_Source\PSoC4/BLE_1_eventHandler.c ****         CyBle_HrscWriteResponseEventHandler(eventParam);
 691:Generated_Source\PSoC4/BLE_1_eventHandler.c ****     }
 692:Generated_Source\PSoC4/BLE_1_eventHandler.c **** #endif /* CYBLE_HRS_CLIENT */
 693:Generated_Source\PSoC4/BLE_1_eventHandler.c **** 
 694:Generated_Source\PSoC4/BLE_1_eventHandler.c **** #ifdef CYBLE_HTS_CLIENT
 695:Generated_Source\PSoC4/BLE_1_eventHandler.c ****     if((cyBle_eventHandlerFlag & CYBLE_CALLBACK) != 0u)
 696:Generated_Source\PSoC4/BLE_1_eventHandler.c ****     {
 697:Generated_Source\PSoC4/BLE_1_eventHandler.c ****         CyBle_HtscWriteResponseEventHandler(eventParam);
 698:Generated_Source\PSoC4/BLE_1_eventHandler.c ****     }
 699:Generated_Source\PSoC4/BLE_1_eventHandler.c **** #endif /* CYBLE_HTS_CLIENT */
 700:Generated_Source\PSoC4/BLE_1_eventHandler.c **** 
 701:Generated_Source\PSoC4/BLE_1_eventHandler.c **** #ifdef CYBLE_IPS_CLIENT
 702:Generated_Source\PSoC4/BLE_1_eventHandler.c ****     if((cyBle_eventHandlerFlag & CYBLE_CALLBACK) != 0u)
 703:Generated_Source\PSoC4/BLE_1_eventHandler.c ****     {
 704:Generated_Source\PSoC4/BLE_1_eventHandler.c ****         CyBle_IpscWriteResponseEventHandler(eventParam);
 705:Generated_Source\PSoC4/BLE_1_eventHandler.c ****     }
 706:Generated_Source\PSoC4/BLE_1_eventHandler.c **** #endif /* CYBLE_IPS_CLIENT */
 707:Generated_Source\PSoC4/BLE_1_eventHandler.c **** 
 708:Generated_Source\PSoC4/BLE_1_eventHandler.c **** #ifdef CYBLE_LLS_CLIENT
 709:Generated_Source\PSoC4/BLE_1_eventHandler.c ****     if((cyBle_eventHandlerFlag & CYBLE_CALLBACK) != 0u)
 710:Generated_Source\PSoC4/BLE_1_eventHandler.c ****     {
 711:Generated_Source\PSoC4/BLE_1_eventHandler.c ****         CyBle_LlscWriteResponseEventHandler(eventParam);
 712:Generated_Source\PSoC4/BLE_1_eventHandler.c ****     }
 713:Generated_Source\PSoC4/BLE_1_eventHandler.c **** #endif /* CYBLE_LLS_CLIENT */
 714:Generated_Source\PSoC4/BLE_1_eventHandler.c **** 
 715:Generated_Source\PSoC4/BLE_1_eventHandler.c **** #ifdef CYBLE_LNS_CLIENT
 716:Generated_Source\PSoC4/BLE_1_eventHandler.c ****     if((cyBle_eventHandlerFlag & CYBLE_CALLBACK) != 0u)
 717:Generated_Source\PSoC4/BLE_1_eventHandler.c ****     {
 718:Generated_Source\PSoC4/BLE_1_eventHandler.c ****         CyBle_LnscWriteResponseEventHandler(eventParam);
 719:Generated_Source\PSoC4/BLE_1_eventHandler.c ****     }
 720:Generated_Source\PSoC4/BLE_1_eventHandler.c **** #endif /* CYBLE_LNS_CLIENT */
 721:Generated_Source\PSoC4/BLE_1_eventHandler.c **** 
 722:Generated_Source\PSoC4/BLE_1_eventHandler.c **** #ifdef CYBLE_PASS_CLIENT
 723:Generated_Source\PSoC4/BLE_1_eventHandler.c ****     if((cyBle_eventHandlerFlag & CYBLE_CALLBACK) != 0u)
 724:Generated_Source\PSoC4/BLE_1_eventHandler.c ****     {
 725:Generated_Source\PSoC4/BLE_1_eventHandler.c ****         CyBle_PasscWriteResponseEventHandler(eventParam);
 726:Generated_Source\PSoC4/BLE_1_eventHandler.c ****     }
 727:Generated_Source\PSoC4/BLE_1_eventHandler.c **** #endif /* CYBLE_PASS_CLIENT */
 728:Generated_Source\PSoC4/BLE_1_eventHandler.c **** 
 729:Generated_Source\PSoC4/BLE_1_eventHandler.c **** #ifdef CYBLE_PLXS_CLIENT
 730:Generated_Source\PSoC4/BLE_1_eventHandler.c ****     if((cyBle_eventHandlerFlag & CYBLE_CALLBACK) != 0u)
 731:Generated_Source\PSoC4/BLE_1_eventHandler.c ****     {
 732:Generated_Source\PSoC4/BLE_1_eventHandler.c ****         CyBle_PlxscWriteResponseEventHandler(eventParam);
 733:Generated_Source\PSoC4/BLE_1_eventHandler.c ****     }
 734:Generated_Source\PSoC4/BLE_1_eventHandler.c **** #endif /* CYBLE_PASS_CLIENT */
 735:Generated_Source\PSoC4/BLE_1_eventHandler.c **** 
 736:Generated_Source\PSoC4/BLE_1_eventHandler.c **** #ifdef CYBLE_RSCS_CLIENT
 737:Generated_Source\PSoC4/BLE_1_eventHandler.c ****     if((cyBle_eventHandlerFlag & CYBLE_CALLBACK) != 0u)
 738:Generated_Source\PSoC4/BLE_1_eventHandler.c ****     {
ARM GAS  C:\Users\ROUSSMA\AppData\Local\Temp\cc3gA5P4.s 			page 17


 739:Generated_Source\PSoC4/BLE_1_eventHandler.c ****         CyBle_RscscWriteResponseEventHandler(eventParam);
 740:Generated_Source\PSoC4/BLE_1_eventHandler.c ****     }
 741:Generated_Source\PSoC4/BLE_1_eventHandler.c **** #endif /* CYBLE_RSCS_CLIENT */
 742:Generated_Source\PSoC4/BLE_1_eventHandler.c **** 
 743:Generated_Source\PSoC4/BLE_1_eventHandler.c **** #ifdef CYBLE_SCPS_CLIENT
 744:Generated_Source\PSoC4/BLE_1_eventHandler.c ****     if((cyBle_eventHandlerFlag & CYBLE_CALLBACK) != 0u)
 745:Generated_Source\PSoC4/BLE_1_eventHandler.c ****     {
 746:Generated_Source\PSoC4/BLE_1_eventHandler.c ****         CyBle_ScpscWriteResponseEventHandler(eventParam);
 747:Generated_Source\PSoC4/BLE_1_eventHandler.c ****     }
 748:Generated_Source\PSoC4/BLE_1_eventHandler.c **** #endif /* CYBLE_SCPS_CLIENT */
 749:Generated_Source\PSoC4/BLE_1_eventHandler.c **** 
 750:Generated_Source\PSoC4/BLE_1_eventHandler.c **** #ifdef CYBLE_TPS_CLIENT
 751:Generated_Source\PSoC4/BLE_1_eventHandler.c ****     if((cyBle_eventHandlerFlag & CYBLE_CALLBACK) != 0u)
 752:Generated_Source\PSoC4/BLE_1_eventHandler.c ****     {
 753:Generated_Source\PSoC4/BLE_1_eventHandler.c ****         CyBle_TpscWriteResponseEventHandler(eventParam);
 754:Generated_Source\PSoC4/BLE_1_eventHandler.c ****     }
 755:Generated_Source\PSoC4/BLE_1_eventHandler.c **** #endif /* CYBLE_TPS_CLIENT */
 756:Generated_Source\PSoC4/BLE_1_eventHandler.c **** 
 757:Generated_Source\PSoC4/BLE_1_eventHandler.c **** #ifdef CYBLE_UDS_CLIENT
 758:Generated_Source\PSoC4/BLE_1_eventHandler.c ****     if((cyBle_eventHandlerFlag & CYBLE_CALLBACK) != 0u)
 759:Generated_Source\PSoC4/BLE_1_eventHandler.c ****     {
 760:Generated_Source\PSoC4/BLE_1_eventHandler.c ****         CyBle_UdscWriteResponseEventHandler(eventParam);
 761:Generated_Source\PSoC4/BLE_1_eventHandler.c ****     }
 762:Generated_Source\PSoC4/BLE_1_eventHandler.c **** #endif /* CYBLE_UDS_CLIENT */
 763:Generated_Source\PSoC4/BLE_1_eventHandler.c **** #ifdef CYBLE_WPTS_CLIENT
 764:Generated_Source\PSoC4/BLE_1_eventHandler.c ****     if((cyBle_eventHandlerFlag & CYBLE_CALLBACK) != 0u)
 765:Generated_Source\PSoC4/BLE_1_eventHandler.c ****     {
 766:Generated_Source\PSoC4/BLE_1_eventHandler.c ****         CyBle_WptscWriteResponseEventHandler(eventParam);
 767:Generated_Source\PSoC4/BLE_1_eventHandler.c ****     }
 768:Generated_Source\PSoC4/BLE_1_eventHandler.c **** #endif /* CYBLE_WPTS_CLIENT */
 769:Generated_Source\PSoC4/BLE_1_eventHandler.c **** #ifdef CYBLE_WSS_CLIENT
 770:Generated_Source\PSoC4/BLE_1_eventHandler.c ****     if((cyBle_eventHandlerFlag & CYBLE_CALLBACK) != 0u)
 771:Generated_Source\PSoC4/BLE_1_eventHandler.c ****     {
 772:Generated_Source\PSoC4/BLE_1_eventHandler.c ****         CyBle_WsscWriteResponseEventHandler(eventParam);
 773:Generated_Source\PSoC4/BLE_1_eventHandler.c ****     }
 774:Generated_Source\PSoC4/BLE_1_eventHandler.c **** #endif /* CYBLE_WSS_CLIENT */
 775:Generated_Source\PSoC4/BLE_1_eventHandler.c **** }
 776:Generated_Source\PSoC4/BLE_1_eventHandler.c **** 
 777:Generated_Source\PSoC4/BLE_1_eventHandler.c **** 
 778:Generated_Source\PSoC4/BLE_1_eventHandler.c **** /******************************************************************************    
 779:Generated_Source\PSoC4/BLE_1_eventHandler.c **** * Function Name: CyBle_NotificationEventHandler
 780:Generated_Source\PSoC4/BLE_1_eventHandler.c **** ***************************************************************************//**
 781:Generated_Source\PSoC4/BLE_1_eventHandler.c **** * 
 782:Generated_Source\PSoC4/BLE_1_eventHandler.c **** *  Handles the Notification event from BLE stack.
 783:Generated_Source\PSoC4/BLE_1_eventHandler.c **** * 
 784:Generated_Source\PSoC4/BLE_1_eventHandler.c **** *  \param eventParam: event parameter
 785:Generated_Source\PSoC4/BLE_1_eventHandler.c **** * 
 786:Generated_Source\PSoC4/BLE_1_eventHandler.c **** * \return
 787:Generated_Source\PSoC4/BLE_1_eventHandler.c **** *  None
 788:Generated_Source\PSoC4/BLE_1_eventHandler.c **** * 
 789:Generated_Source\PSoC4/BLE_1_eventHandler.c **** ******************************************************************************/
 790:Generated_Source\PSoC4/BLE_1_eventHandler.c **** static void CyBle_NotificationEventHandler(CYBLE_GATTC_HANDLE_VALUE_NTF_PARAM_T *eventParam)
 791:Generated_Source\PSoC4/BLE_1_eventHandler.c **** {
 792:Generated_Source\PSoC4/BLE_1_eventHandler.c **** #ifdef CYBLE_AIOS_CLIENT
 793:Generated_Source\PSoC4/BLE_1_eventHandler.c ****     if((cyBle_eventHandlerFlag & CYBLE_CALLBACK) != 0u)
 794:Generated_Source\PSoC4/BLE_1_eventHandler.c ****     {
 795:Generated_Source\PSoC4/BLE_1_eventHandler.c ****         CyBle_AioscNotificationEventHandler(eventParam);
ARM GAS  C:\Users\ROUSSMA\AppData\Local\Temp\cc3gA5P4.s 			page 18


 796:Generated_Source\PSoC4/BLE_1_eventHandler.c ****     }
 797:Generated_Source\PSoC4/BLE_1_eventHandler.c **** #endif /* CYBLE_AIOS_CLIENT */
 798:Generated_Source\PSoC4/BLE_1_eventHandler.c **** #ifdef CYBLE_ANCS_CLIENT
 799:Generated_Source\PSoC4/BLE_1_eventHandler.c ****     CyBle_AncscNotificationEventHandler(eventParam);
 800:Generated_Source\PSoC4/BLE_1_eventHandler.c **** #endif /* CYBLE_ANCS_CLIENT */
 801:Generated_Source\PSoC4/BLE_1_eventHandler.c **** #ifdef CYBLE_ANS_CLIENT
 802:Generated_Source\PSoC4/BLE_1_eventHandler.c ****     if((cyBle_eventHandlerFlag & CYBLE_CALLBACK) != 0u)
 803:Generated_Source\PSoC4/BLE_1_eventHandler.c ****     {
 804:Generated_Source\PSoC4/BLE_1_eventHandler.c ****         CyBle_AnscNotificationEventHandler(eventParam);
 805:Generated_Source\PSoC4/BLE_1_eventHandler.c ****     }
 806:Generated_Source\PSoC4/BLE_1_eventHandler.c **** #endif /* CYBLE_ANS_CLIENT */
 807:Generated_Source\PSoC4/BLE_1_eventHandler.c **** #ifdef CYBLE_BAS_CLIENT
 808:Generated_Source\PSoC4/BLE_1_eventHandler.c ****     if((cyBle_eventHandlerFlag & CYBLE_CALLBACK) != 0u)
 809:Generated_Source\PSoC4/BLE_1_eventHandler.c ****     {
 810:Generated_Source\PSoC4/BLE_1_eventHandler.c ****         CyBle_BascNotificationEventHandler(eventParam);
 811:Generated_Source\PSoC4/BLE_1_eventHandler.c ****     }
 812:Generated_Source\PSoC4/BLE_1_eventHandler.c **** #endif /* CYBLE_BAS_CLIENT */
 813:Generated_Source\PSoC4/BLE_1_eventHandler.c **** #ifdef CYBLE_BLS_CLIENT
 814:Generated_Source\PSoC4/BLE_1_eventHandler.c ****     if((cyBle_eventHandlerFlag & CYBLE_CALLBACK) != 0u)
 815:Generated_Source\PSoC4/BLE_1_eventHandler.c ****     {
 816:Generated_Source\PSoC4/BLE_1_eventHandler.c ****         CyBle_BlscNotificationEventHandler(eventParam);
 817:Generated_Source\PSoC4/BLE_1_eventHandler.c ****     }
 818:Generated_Source\PSoC4/BLE_1_eventHandler.c **** #endif /* CYBLE_BLS_CLIENT */
 819:Generated_Source\PSoC4/BLE_1_eventHandler.c **** #ifdef CYBLE_CGMS_CLIENT
 820:Generated_Source\PSoC4/BLE_1_eventHandler.c ****     if((cyBle_eventHandlerFlag & CYBLE_CALLBACK) != 0u)
 821:Generated_Source\PSoC4/BLE_1_eventHandler.c ****     {
 822:Generated_Source\PSoC4/BLE_1_eventHandler.c ****         CyBle_CgmscNotificationEventHandler(eventParam);
 823:Generated_Source\PSoC4/BLE_1_eventHandler.c ****     }
 824:Generated_Source\PSoC4/BLE_1_eventHandler.c **** #endif /* CYBLE_CGMS_CLIENT */
 825:Generated_Source\PSoC4/BLE_1_eventHandler.c **** #ifdef CYBLE_CPS_CLIENT
 826:Generated_Source\PSoC4/BLE_1_eventHandler.c ****     if((cyBle_eventHandlerFlag & CYBLE_CALLBACK) != 0u)
 827:Generated_Source\PSoC4/BLE_1_eventHandler.c ****     {
 828:Generated_Source\PSoC4/BLE_1_eventHandler.c ****         CyBle_CpscNotificationEventHandler(eventParam);
 829:Generated_Source\PSoC4/BLE_1_eventHandler.c ****     }
 830:Generated_Source\PSoC4/BLE_1_eventHandler.c **** #endif /* CYBLE_CPS_CLIENT */
 831:Generated_Source\PSoC4/BLE_1_eventHandler.c **** #ifdef CYBLE_CSCS_CLIENT
 832:Generated_Source\PSoC4/BLE_1_eventHandler.c ****     if((cyBle_eventHandlerFlag & CYBLE_CALLBACK) != 0u)
 833:Generated_Source\PSoC4/BLE_1_eventHandler.c ****     {
 834:Generated_Source\PSoC4/BLE_1_eventHandler.c ****         CyBle_CscscNotificationEventHandler(eventParam);
 835:Generated_Source\PSoC4/BLE_1_eventHandler.c ****     }
 836:Generated_Source\PSoC4/BLE_1_eventHandler.c **** #endif /* CYBLE_CSCS_CLIENT */
 837:Generated_Source\PSoC4/BLE_1_eventHandler.c **** #ifdef CYBLE_CTS_CLIENT
 838:Generated_Source\PSoC4/BLE_1_eventHandler.c ****     if((cyBle_eventHandlerFlag & CYBLE_CALLBACK) != 0u)
 839:Generated_Source\PSoC4/BLE_1_eventHandler.c ****     {
 840:Generated_Source\PSoC4/BLE_1_eventHandler.c ****         CyBle_CtscNotificationEventHandler(eventParam);
 841:Generated_Source\PSoC4/BLE_1_eventHandler.c ****     }
 842:Generated_Source\PSoC4/BLE_1_eventHandler.c **** #endif /* CYBLE_CTS_CLIENT */
 843:Generated_Source\PSoC4/BLE_1_eventHandler.c **** #ifdef CYBLE_ESS_CLIENT
 844:Generated_Source\PSoC4/BLE_1_eventHandler.c ****     if((cyBle_eventHandlerFlag & CYBLE_CALLBACK) != 0u)
 845:Generated_Source\PSoC4/BLE_1_eventHandler.c ****     {
 846:Generated_Source\PSoC4/BLE_1_eventHandler.c ****         CyBle_EsscNotificationEventHandler(eventParam);
 847:Generated_Source\PSoC4/BLE_1_eventHandler.c ****     }
 848:Generated_Source\PSoC4/BLE_1_eventHandler.c **** #endif /* CYBLE_ESS_CLIENT */
 849:Generated_Source\PSoC4/BLE_1_eventHandler.c **** #ifdef CYBLE_GLS_CLIENT
 850:Generated_Source\PSoC4/BLE_1_eventHandler.c ****     if((cyBle_eventHandlerFlag & CYBLE_CALLBACK) != 0u)
 851:Generated_Source\PSoC4/BLE_1_eventHandler.c ****     {
 852:Generated_Source\PSoC4/BLE_1_eventHandler.c ****         CyBle_GlscNotificationEventHandler(eventParam);
ARM GAS  C:\Users\ROUSSMA\AppData\Local\Temp\cc3gA5P4.s 			page 19


 853:Generated_Source\PSoC4/BLE_1_eventHandler.c ****     }
 854:Generated_Source\PSoC4/BLE_1_eventHandler.c **** #endif /* CYBLE_GLS_CLIENT */
 855:Generated_Source\PSoC4/BLE_1_eventHandler.c **** #ifdef CYBLE_HIDS_CLIENT
 856:Generated_Source\PSoC4/BLE_1_eventHandler.c ****     if((cyBle_eventHandlerFlag & CYBLE_CALLBACK) != 0u)
 857:Generated_Source\PSoC4/BLE_1_eventHandler.c ****     {
 858:Generated_Source\PSoC4/BLE_1_eventHandler.c ****         CyBle_HidscNotificationEventHandler(eventParam);
 859:Generated_Source\PSoC4/BLE_1_eventHandler.c ****     }
 860:Generated_Source\PSoC4/BLE_1_eventHandler.c **** #endif /* CYBLE_HIDS_CLIENT */
 861:Generated_Source\PSoC4/BLE_1_eventHandler.c **** #ifdef CYBLE_HPS_CLIENT
 862:Generated_Source\PSoC4/BLE_1_eventHandler.c ****     if((cyBle_eventHandlerFlag & CYBLE_CALLBACK) != 0u)
 863:Generated_Source\PSoC4/BLE_1_eventHandler.c ****     {
 864:Generated_Source\PSoC4/BLE_1_eventHandler.c ****         CyBle_HpscNotificationEventHandler(eventParam);
 865:Generated_Source\PSoC4/BLE_1_eventHandler.c ****     }
 866:Generated_Source\PSoC4/BLE_1_eventHandler.c **** #endif /* CYBLE_HPS_CLIENT */
 867:Generated_Source\PSoC4/BLE_1_eventHandler.c **** #ifdef CYBLE_HRS_CLIENT
 868:Generated_Source\PSoC4/BLE_1_eventHandler.c ****     if((cyBle_eventHandlerFlag & CYBLE_CALLBACK) != 0u)
 869:Generated_Source\PSoC4/BLE_1_eventHandler.c ****     {
 870:Generated_Source\PSoC4/BLE_1_eventHandler.c ****         CyBle_HrscNotificationEventHandler(eventParam);
 871:Generated_Source\PSoC4/BLE_1_eventHandler.c ****     }
 872:Generated_Source\PSoC4/BLE_1_eventHandler.c **** #endif /* CYBLE_HRS_CLIENT */
 873:Generated_Source\PSoC4/BLE_1_eventHandler.c **** #ifdef CYBLE_HTS_CLIENT
 874:Generated_Source\PSoC4/BLE_1_eventHandler.c ****     if((cyBle_eventHandlerFlag & CYBLE_CALLBACK) != 0u)
 875:Generated_Source\PSoC4/BLE_1_eventHandler.c ****     {
 876:Generated_Source\PSoC4/BLE_1_eventHandler.c ****         CyBle_HtscNotificationEventHandler(eventParam);
 877:Generated_Source\PSoC4/BLE_1_eventHandler.c ****     }
 878:Generated_Source\PSoC4/BLE_1_eventHandler.c **** #endif /* CYBLE_HTS_CLIENT */
 879:Generated_Source\PSoC4/BLE_1_eventHandler.c **** #ifdef CYBLE_LNS_CLIENT
 880:Generated_Source\PSoC4/BLE_1_eventHandler.c ****     if((cyBle_eventHandlerFlag & CYBLE_CALLBACK) != 0u)
 881:Generated_Source\PSoC4/BLE_1_eventHandler.c ****     {
 882:Generated_Source\PSoC4/BLE_1_eventHandler.c ****         CyBle_LnscNotificationEventHandler(eventParam);
 883:Generated_Source\PSoC4/BLE_1_eventHandler.c ****     }
 884:Generated_Source\PSoC4/BLE_1_eventHandler.c **** #endif /* CYBLE_LNS_CLIENT */
 885:Generated_Source\PSoC4/BLE_1_eventHandler.c **** #ifdef CYBLE_PASS_CLIENT
 886:Generated_Source\PSoC4/BLE_1_eventHandler.c ****     if((cyBle_eventHandlerFlag & CYBLE_CALLBACK) != 0u)
 887:Generated_Source\PSoC4/BLE_1_eventHandler.c ****     {
 888:Generated_Source\PSoC4/BLE_1_eventHandler.c ****         CyBle_PasscNotificationEventHandler(eventParam);
 889:Generated_Source\PSoC4/BLE_1_eventHandler.c ****     }
 890:Generated_Source\PSoC4/BLE_1_eventHandler.c **** #endif /* CYBLE_PASS_CLIENT */
 891:Generated_Source\PSoC4/BLE_1_eventHandler.c **** #ifdef CYBLE_RSCS_CLIENT
 892:Generated_Source\PSoC4/BLE_1_eventHandler.c ****     if((cyBle_eventHandlerFlag & CYBLE_CALLBACK) != 0u)
 893:Generated_Source\PSoC4/BLE_1_eventHandler.c ****     {
 894:Generated_Source\PSoC4/BLE_1_eventHandler.c ****         CyBle_RscscNotificationEventHandler(eventParam);
 895:Generated_Source\PSoC4/BLE_1_eventHandler.c ****     }
 896:Generated_Source\PSoC4/BLE_1_eventHandler.c **** #endif /* CYBLE_RSCS_CLIENT */
 897:Generated_Source\PSoC4/BLE_1_eventHandler.c **** #ifdef CYBLE_SCPS_CLIENT
 898:Generated_Source\PSoC4/BLE_1_eventHandler.c ****     if((cyBle_eventHandlerFlag & CYBLE_CALLBACK) != 0u)
 899:Generated_Source\PSoC4/BLE_1_eventHandler.c ****     {
 900:Generated_Source\PSoC4/BLE_1_eventHandler.c ****         CyBle_ScpscNotificationEventHandler(eventParam);
 901:Generated_Source\PSoC4/BLE_1_eventHandler.c ****     }
 902:Generated_Source\PSoC4/BLE_1_eventHandler.c **** #endif /* CYBLE_SCPS_CLIENT */
 903:Generated_Source\PSoC4/BLE_1_eventHandler.c **** #ifdef CYBLE_TPS_CLIENT
 904:Generated_Source\PSoC4/BLE_1_eventHandler.c ****     if((cyBle_eventHandlerFlag & CYBLE_CALLBACK) != 0u)
 905:Generated_Source\PSoC4/BLE_1_eventHandler.c ****     {
 906:Generated_Source\PSoC4/BLE_1_eventHandler.c ****         CyBle_TpscNotificationEventHandler(eventParam);
 907:Generated_Source\PSoC4/BLE_1_eventHandler.c ****     }
 908:Generated_Source\PSoC4/BLE_1_eventHandler.c **** #endif /* CYBLE_TPS_CLIENT */
 909:Generated_Source\PSoC4/BLE_1_eventHandler.c **** #ifdef CYBLE_UDS_CLIENT
ARM GAS  C:\Users\ROUSSMA\AppData\Local\Temp\cc3gA5P4.s 			page 20


 910:Generated_Source\PSoC4/BLE_1_eventHandler.c ****     if((cyBle_eventHandlerFlag & CYBLE_CALLBACK) != 0u)
 911:Generated_Source\PSoC4/BLE_1_eventHandler.c ****     {
 912:Generated_Source\PSoC4/BLE_1_eventHandler.c ****         CyBle_UdscNotificationEventHandler(eventParam);
 913:Generated_Source\PSoC4/BLE_1_eventHandler.c ****     }
 914:Generated_Source\PSoC4/BLE_1_eventHandler.c **** #endif /* CYBLE_UDS_CLIENT */
 915:Generated_Source\PSoC4/BLE_1_eventHandler.c **** #ifdef CYBLE_WPTS_CLIENT
 916:Generated_Source\PSoC4/BLE_1_eventHandler.c ****     if((cyBle_eventHandlerFlag & CYBLE_CALLBACK) != 0u)
 917:Generated_Source\PSoC4/BLE_1_eventHandler.c ****     {
 918:Generated_Source\PSoC4/BLE_1_eventHandler.c ****         CyBle_WptscNotificationEventHandler(eventParam);
 919:Generated_Source\PSoC4/BLE_1_eventHandler.c ****     }
 920:Generated_Source\PSoC4/BLE_1_eventHandler.c **** #endif /* CYBLE_WPTS_CLIENT */
 921:Generated_Source\PSoC4/BLE_1_eventHandler.c **** }
 922:Generated_Source\PSoC4/BLE_1_eventHandler.c **** 
 923:Generated_Source\PSoC4/BLE_1_eventHandler.c **** 
 924:Generated_Source\PSoC4/BLE_1_eventHandler.c **** /******************************************************************************    
 925:Generated_Source\PSoC4/BLE_1_eventHandler.c **** * Function Name: CyBle_IndicationEventHandler
 926:Generated_Source\PSoC4/BLE_1_eventHandler.c **** ***************************************************************************//**
 927:Generated_Source\PSoC4/BLE_1_eventHandler.c **** * 
 928:Generated_Source\PSoC4/BLE_1_eventHandler.c **** *  Handles the Indication event from BLE stack.
 929:Generated_Source\PSoC4/BLE_1_eventHandler.c **** * 
 930:Generated_Source\PSoC4/BLE_1_eventHandler.c **** *  \param eventParam: event parameter
 931:Generated_Source\PSoC4/BLE_1_eventHandler.c **** * 
 932:Generated_Source\PSoC4/BLE_1_eventHandler.c **** * \return
 933:Generated_Source\PSoC4/BLE_1_eventHandler.c **** *  None
 934:Generated_Source\PSoC4/BLE_1_eventHandler.c **** * 
 935:Generated_Source\PSoC4/BLE_1_eventHandler.c **** ******************************************************************************/
 936:Generated_Source\PSoC4/BLE_1_eventHandler.c **** static void CyBle_IndicationEventHandler(CYBLE_GATTC_HANDLE_VALUE_IND_PARAM_T *eventParam)
 937:Generated_Source\PSoC4/BLE_1_eventHandler.c **** {
 938:Generated_Source\PSoC4/BLE_1_eventHandler.c **** #ifdef CYBLE_AIOS_CLIENT
 939:Generated_Source\PSoC4/BLE_1_eventHandler.c ****     if((cyBle_eventHandlerFlag & CYBLE_CALLBACK) != 0u)
 940:Generated_Source\PSoC4/BLE_1_eventHandler.c ****     {
 941:Generated_Source\PSoC4/BLE_1_eventHandler.c ****         CyBle_AioscIndicationEventHandler(eventParam);
 942:Generated_Source\PSoC4/BLE_1_eventHandler.c ****     }
 943:Generated_Source\PSoC4/BLE_1_eventHandler.c **** #endif /* CYBLE_AIOS_CLIENT */
 944:Generated_Source\PSoC4/BLE_1_eventHandler.c **** #ifdef CYBLE_BCS_CLIENT
 945:Generated_Source\PSoC4/BLE_1_eventHandler.c ****     if((cyBle_eventHandlerFlag & CYBLE_CALLBACK) != 0u)
 946:Generated_Source\PSoC4/BLE_1_eventHandler.c ****     {
 947:Generated_Source\PSoC4/BLE_1_eventHandler.c ****         CyBle_BcscIndicationEventHandler(eventParam);
 948:Generated_Source\PSoC4/BLE_1_eventHandler.c ****     }
 949:Generated_Source\PSoC4/BLE_1_eventHandler.c **** #endif /* CYBLE_BCS_CLIENT */
 950:Generated_Source\PSoC4/BLE_1_eventHandler.c **** #ifdef CYBLE_BLS_CLIENT
 951:Generated_Source\PSoC4/BLE_1_eventHandler.c ****     if((cyBle_eventHandlerFlag & CYBLE_CALLBACK) != 0u)
 952:Generated_Source\PSoC4/BLE_1_eventHandler.c ****     {
 953:Generated_Source\PSoC4/BLE_1_eventHandler.c ****         CyBle_BlscIndicationEventHandler(eventParam);
 954:Generated_Source\PSoC4/BLE_1_eventHandler.c ****     }
 955:Generated_Source\PSoC4/BLE_1_eventHandler.c **** #endif /* CYBLE_BLS_CLIENT */
 956:Generated_Source\PSoC4/BLE_1_eventHandler.c **** #ifdef CYBLE_CGMS_CLIENT
 957:Generated_Source\PSoC4/BLE_1_eventHandler.c ****     if((cyBle_eventHandlerFlag & CYBLE_CALLBACK) != 0u)
 958:Generated_Source\PSoC4/BLE_1_eventHandler.c ****     {
 959:Generated_Source\PSoC4/BLE_1_eventHandler.c ****         CyBle_CgmscIndicationEventHandler(eventParam);
 960:Generated_Source\PSoC4/BLE_1_eventHandler.c ****     }
 961:Generated_Source\PSoC4/BLE_1_eventHandler.c **** #endif /* CYBLE_CGMS_CLIENT */
 962:Generated_Source\PSoC4/BLE_1_eventHandler.c **** #ifdef CYBLE_CPS_CLIENT
 963:Generated_Source\PSoC4/BLE_1_eventHandler.c ****     if((cyBle_eventHandlerFlag & CYBLE_CALLBACK) != 0u)
 964:Generated_Source\PSoC4/BLE_1_eventHandler.c ****     {
 965:Generated_Source\PSoC4/BLE_1_eventHandler.c ****         CyBle_CpscIndicationEventHandler(eventParam);
 966:Generated_Source\PSoC4/BLE_1_eventHandler.c ****     }
ARM GAS  C:\Users\ROUSSMA\AppData\Local\Temp\cc3gA5P4.s 			page 21


 967:Generated_Source\PSoC4/BLE_1_eventHandler.c **** #endif /* CYBLE_CPS_CLIENT */
 968:Generated_Source\PSoC4/BLE_1_eventHandler.c **** #ifdef CYBLE_CSCS_CLIENT
 969:Generated_Source\PSoC4/BLE_1_eventHandler.c ****     if((cyBle_eventHandlerFlag & CYBLE_CALLBACK) != 0u)
 970:Generated_Source\PSoC4/BLE_1_eventHandler.c ****     {
 971:Generated_Source\PSoC4/BLE_1_eventHandler.c ****         CyBle_CscscIndicationEventHandler(eventParam);
 972:Generated_Source\PSoC4/BLE_1_eventHandler.c ****     }
 973:Generated_Source\PSoC4/BLE_1_eventHandler.c **** #endif /* CYBLE_CSCS_CLIENT */
 974:Generated_Source\PSoC4/BLE_1_eventHandler.c **** #ifdef CYBLE_ESS_CLIENT
 975:Generated_Source\PSoC4/BLE_1_eventHandler.c ****     if((cyBle_eventHandlerFlag & CYBLE_CALLBACK) != 0u)
 976:Generated_Source\PSoC4/BLE_1_eventHandler.c ****     {
 977:Generated_Source\PSoC4/BLE_1_eventHandler.c ****         CyBle_EsscIndicationEventHandler(eventParam);
 978:Generated_Source\PSoC4/BLE_1_eventHandler.c ****     }
 979:Generated_Source\PSoC4/BLE_1_eventHandler.c **** #endif /* CYBLE_ESS_CLIENT */
 980:Generated_Source\PSoC4/BLE_1_eventHandler.c **** #ifdef CYBLE_GLS_CLIENT
 981:Generated_Source\PSoC4/BLE_1_eventHandler.c ****     if((cyBle_eventHandlerFlag & CYBLE_CALLBACK) != 0u)
 982:Generated_Source\PSoC4/BLE_1_eventHandler.c ****     {
 983:Generated_Source\PSoC4/BLE_1_eventHandler.c ****         CyBle_GlscIndicationEventHandler(eventParam);
 984:Generated_Source\PSoC4/BLE_1_eventHandler.c ****     }
 985:Generated_Source\PSoC4/BLE_1_eventHandler.c **** #endif /* CYBLE_GLS_CLIENT */
 986:Generated_Source\PSoC4/BLE_1_eventHandler.c **** #ifdef CYBLE_HTS_CLIENT
 987:Generated_Source\PSoC4/BLE_1_eventHandler.c ****     if((cyBle_eventHandlerFlag & CYBLE_CALLBACK) != 0u)
 988:Generated_Source\PSoC4/BLE_1_eventHandler.c ****     {
 989:Generated_Source\PSoC4/BLE_1_eventHandler.c ****         CyBle_HtscIndicationEventHandler(eventParam);
 990:Generated_Source\PSoC4/BLE_1_eventHandler.c ****     }
 991:Generated_Source\PSoC4/BLE_1_eventHandler.c **** #endif /* CYBLE_HTS_CLIENT */
 992:Generated_Source\PSoC4/BLE_1_eventHandler.c **** #ifdef CYBLE_LNS_CLIENT
 993:Generated_Source\PSoC4/BLE_1_eventHandler.c ****     if((cyBle_eventHandlerFlag & CYBLE_CALLBACK) != 0u)
 994:Generated_Source\PSoC4/BLE_1_eventHandler.c ****     {
 995:Generated_Source\PSoC4/BLE_1_eventHandler.c ****         CyBle_LnscIndicationEventHandler(eventParam);
 996:Generated_Source\PSoC4/BLE_1_eventHandler.c ****     }
 997:Generated_Source\PSoC4/BLE_1_eventHandler.c **** #endif /* CYBLE_LNS_CLIENT */
 998:Generated_Source\PSoC4/BLE_1_eventHandler.c **** #ifdef CYBLE_RSCS_CLIENT
 999:Generated_Source\PSoC4/BLE_1_eventHandler.c ****     if((cyBle_eventHandlerFlag & CYBLE_CALLBACK) != 0u)
1000:Generated_Source\PSoC4/BLE_1_eventHandler.c ****     {
1001:Generated_Source\PSoC4/BLE_1_eventHandler.c ****         CyBle_RscscIndicationEventHandler(eventParam);
1002:Generated_Source\PSoC4/BLE_1_eventHandler.c ****     }
1003:Generated_Source\PSoC4/BLE_1_eventHandler.c **** #endif /* CYBLE_RSCS_CLIENT */
1004:Generated_Source\PSoC4/BLE_1_eventHandler.c **** #ifdef CYBLE_UDS_CLIENT
1005:Generated_Source\PSoC4/BLE_1_eventHandler.c ****     if((cyBle_eventHandlerFlag & CYBLE_CALLBACK) != 0u)
1006:Generated_Source\PSoC4/BLE_1_eventHandler.c ****     {
1007:Generated_Source\PSoC4/BLE_1_eventHandler.c ****         CyBle_UdscIndicationEventHandler(eventParam);
1008:Generated_Source\PSoC4/BLE_1_eventHandler.c ****     }
1009:Generated_Source\PSoC4/BLE_1_eventHandler.c **** #endif /* CYBLE_UDS_CLIENT */
1010:Generated_Source\PSoC4/BLE_1_eventHandler.c **** #ifdef CYBLE_WPTS_CLIENT
1011:Generated_Source\PSoC4/BLE_1_eventHandler.c ****     if((cyBle_eventHandlerFlag & CYBLE_CALLBACK) != 0u)
1012:Generated_Source\PSoC4/BLE_1_eventHandler.c ****     {
1013:Generated_Source\PSoC4/BLE_1_eventHandler.c ****         CyBle_WptscIndicationEventHandler(eventParam);
1014:Generated_Source\PSoC4/BLE_1_eventHandler.c ****     }
1015:Generated_Source\PSoC4/BLE_1_eventHandler.c **** #endif /* CYBLE_WPTS_CLIENT */
1016:Generated_Source\PSoC4/BLE_1_eventHandler.c **** #ifdef CYBLE_WSS_CLIENT
1017:Generated_Source\PSoC4/BLE_1_eventHandler.c ****     if((cyBle_eventHandlerFlag & CYBLE_CALLBACK) != 0u)
1018:Generated_Source\PSoC4/BLE_1_eventHandler.c ****     {
1019:Generated_Source\PSoC4/BLE_1_eventHandler.c ****         CyBle_WsscIndicationEventHandler(eventParam);
1020:Generated_Source\PSoC4/BLE_1_eventHandler.c ****     }
1021:Generated_Source\PSoC4/BLE_1_eventHandler.c **** #endif /* CYBLE_WSS_CLIENT */
1022:Generated_Source\PSoC4/BLE_1_eventHandler.c **** }
1023:Generated_Source\PSoC4/BLE_1_eventHandler.c **** 
ARM GAS  C:\Users\ROUSSMA\AppData\Local\Temp\cc3gA5P4.s 			page 22


1024:Generated_Source\PSoC4/BLE_1_eventHandler.c **** /******************************************************************************    
1025:Generated_Source\PSoC4/BLE_1_eventHandler.c **** * Function Name: CyBle_ReadResponseEventHandler
1026:Generated_Source\PSoC4/BLE_1_eventHandler.c **** ***************************************************************************//**
1027:Generated_Source\PSoC4/BLE_1_eventHandler.c **** * 
1028:Generated_Source\PSoC4/BLE_1_eventHandler.c **** *  Handles the Read Response event from BLE stack.
1029:Generated_Source\PSoC4/BLE_1_eventHandler.c **** * 
1030:Generated_Source\PSoC4/BLE_1_eventHandler.c **** *  \param eventParam: event parameter
1031:Generated_Source\PSoC4/BLE_1_eventHandler.c **** * 
1032:Generated_Source\PSoC4/BLE_1_eventHandler.c **** * \return
1033:Generated_Source\PSoC4/BLE_1_eventHandler.c **** *  None
1034:Generated_Source\PSoC4/BLE_1_eventHandler.c **** * 
1035:Generated_Source\PSoC4/BLE_1_eventHandler.c **** ******************************************************************************/
1036:Generated_Source\PSoC4/BLE_1_eventHandler.c **** static void CyBle_ReadResponseEventHandler(CYBLE_GATTC_READ_RSP_PARAM_T *eventParam)
1037:Generated_Source\PSoC4/BLE_1_eventHandler.c **** {
1038:Generated_Source\PSoC4/BLE_1_eventHandler.c **** #ifdef CYBLE_CUSTOM_CLIENT
1039:Generated_Source\PSoC4/BLE_1_eventHandler.c ****     /* Read response with 128-bit included service uuid */
1040:Generated_Source\PSoC4/BLE_1_eventHandler.c ****     if((CyBle_GetClientState() == CYBLE_CLIENT_STATE_INCL_DISCOVERING) &&
1041:Generated_Source\PSoC4/BLE_1_eventHandler.c ****        (cyBle_discInclInfo.inclDefHandle != 0u))
1042:Generated_Source\PSoC4/BLE_1_eventHandler.c ****     {
1043:Generated_Source\PSoC4/BLE_1_eventHandler.c ****         CYBLE_DISC_SRVC128_INFO_T discServInfo;
1044:Generated_Source\PSoC4/BLE_1_eventHandler.c **** 
1045:Generated_Source\PSoC4/BLE_1_eventHandler.c ****         /* Store service range */
1046:Generated_Source\PSoC4/BLE_1_eventHandler.c ****         discServInfo.range = cyBle_discInclInfo.inclHandleRange;
1047:Generated_Source\PSoC4/BLE_1_eventHandler.c ****         (void)memcpy((void *) discServInfo.uuid.uuid128.value, (void *)eventParam->value.val, event
1048:Generated_Source\PSoC4/BLE_1_eventHandler.c ****         CyBle_CustomcDiscoverServiceEventHandler(&discServInfo);
1049:Generated_Source\PSoC4/BLE_1_eventHandler.c ****         
1050:Generated_Source\PSoC4/BLE_1_eventHandler.c ****         /* Re-initiate CyBle_GattcFindIncludedServices function, setting the start
1051:Generated_Source\PSoC4/BLE_1_eventHandler.c ****            handle to the attribute handle which is placed next to the one used in
1052:Generated_Source\PSoC4/BLE_1_eventHandler.c ****            the above step.
1053:Generated_Source\PSoC4/BLE_1_eventHandler.c ****         */
1054:Generated_Source\PSoC4/BLE_1_eventHandler.c ****         discServInfo.range.startHandle = cyBle_discInclInfo.inclDefHandle + 1u;
1055:Generated_Source\PSoC4/BLE_1_eventHandler.c ****         discServInfo.range.endHandle = cyBle_serverInfo[cyBle_disCount].range.endHandle;
1056:Generated_Source\PSoC4/BLE_1_eventHandler.c ****         if(discServInfo.range.startHandle <= discServInfo.range.endHandle)
1057:Generated_Source\PSoC4/BLE_1_eventHandler.c ****         {
1058:Generated_Source\PSoC4/BLE_1_eventHandler.c ****             if(CYBLE_ERROR_OK != CyBle_GattcFindIncludedServices(cyBle_connHandle, &discServInfo.ra
1059:Generated_Source\PSoC4/BLE_1_eventHandler.c ****             {
1060:Generated_Source\PSoC4/BLE_1_eventHandler.c ****                 CyBle_ApplCallback(CYBLE_EVT_GATTC_INCL_DISCOVERY_FAILED, NULL);
1061:Generated_Source\PSoC4/BLE_1_eventHandler.c ****                 cyBle_eventHandlerFlag &= (uint8)~CYBLE_AUTO_DISCOVERY;
1062:Generated_Source\PSoC4/BLE_1_eventHandler.c ****             }
1063:Generated_Source\PSoC4/BLE_1_eventHandler.c ****         }
1064:Generated_Source\PSoC4/BLE_1_eventHandler.c ****         else /* Continue discovery of the following service */
1065:Generated_Source\PSoC4/BLE_1_eventHandler.c ****         {
1066:Generated_Source\PSoC4/BLE_1_eventHandler.c ****             CyBle_NextInclDiscovery(CYBLE_DISCOVERY_CONTINUE);
1067:Generated_Source\PSoC4/BLE_1_eventHandler.c ****         }
1068:Generated_Source\PSoC4/BLE_1_eventHandler.c ****         
1069:Generated_Source\PSoC4/BLE_1_eventHandler.c ****         cyBle_eventHandlerFlag &= (uint8)~CYBLE_CALLBACK;
1070:Generated_Source\PSoC4/BLE_1_eventHandler.c ****     #ifdef CYBLE_CUSTOM_CLIENT
1071:Generated_Source\PSoC4/BLE_1_eventHandler.c ****         cyBle_discInclInfo.inclDefHandle = 0u;
1072:Generated_Source\PSoC4/BLE_1_eventHandler.c ****     #endif /* CYBLE_CUSTOM_CLIENT */
1073:Generated_Source\PSoC4/BLE_1_eventHandler.c ****     }
1074:Generated_Source\PSoC4/BLE_1_eventHandler.c **** #endif /* CYBLE_CUSTOM_CLIENT */
1075:Generated_Source\PSoC4/BLE_1_eventHandler.c **** #ifdef CYBLE_AIOS_CLIENT
1076:Generated_Source\PSoC4/BLE_1_eventHandler.c ****     if((cyBle_eventHandlerFlag & CYBLE_CALLBACK) != 0u)
1077:Generated_Source\PSoC4/BLE_1_eventHandler.c ****     {
1078:Generated_Source\PSoC4/BLE_1_eventHandler.c ****         CyBle_AioscReadResponseEventHandler(eventParam);
1079:Generated_Source\PSoC4/BLE_1_eventHandler.c ****     }
1080:Generated_Source\PSoC4/BLE_1_eventHandler.c **** #endif /* CYBLE_AIOS_CLIENT */
ARM GAS  C:\Users\ROUSSMA\AppData\Local\Temp\cc3gA5P4.s 			page 23


1081:Generated_Source\PSoC4/BLE_1_eventHandler.c **** #ifdef CYBLE_ANCS_CLIENT
1082:Generated_Source\PSoC4/BLE_1_eventHandler.c ****     if((cyBle_eventHandlerFlag & CYBLE_CALLBACK) != 0u)
1083:Generated_Source\PSoC4/BLE_1_eventHandler.c ****     {
1084:Generated_Source\PSoC4/BLE_1_eventHandler.c ****         CyBle_AncscReadResponseEventHandler(eventParam);
1085:Generated_Source\PSoC4/BLE_1_eventHandler.c ****     }
1086:Generated_Source\PSoC4/BLE_1_eventHandler.c **** #endif /* CYBLE_ANCS_CLIENT */
1087:Generated_Source\PSoC4/BLE_1_eventHandler.c **** #ifdef CYBLE_ANS_CLIENT
1088:Generated_Source\PSoC4/BLE_1_eventHandler.c ****     if((cyBle_eventHandlerFlag & CYBLE_CALLBACK) != 0u)
1089:Generated_Source\PSoC4/BLE_1_eventHandler.c ****     {
1090:Generated_Source\PSoC4/BLE_1_eventHandler.c ****         CyBle_AnscReadResponseEventHandler(eventParam);
1091:Generated_Source\PSoC4/BLE_1_eventHandler.c ****     }
1092:Generated_Source\PSoC4/BLE_1_eventHandler.c **** #endif /* CYBLE_ANS_CLIENT */
1093:Generated_Source\PSoC4/BLE_1_eventHandler.c **** #ifdef CYBLE_BAS_CLIENT
1094:Generated_Source\PSoC4/BLE_1_eventHandler.c ****     if((cyBle_eventHandlerFlag & CYBLE_CALLBACK) != 0u)
1095:Generated_Source\PSoC4/BLE_1_eventHandler.c ****     {
1096:Generated_Source\PSoC4/BLE_1_eventHandler.c ****         CyBle_BascReadResponseEventHandler(eventParam);
1097:Generated_Source\PSoC4/BLE_1_eventHandler.c ****     }
1098:Generated_Source\PSoC4/BLE_1_eventHandler.c **** #endif /* CYBLE_BAS_CLIENT */
1099:Generated_Source\PSoC4/BLE_1_eventHandler.c **** #ifdef CYBLE_BLS_CLIENT
1100:Generated_Source\PSoC4/BLE_1_eventHandler.c ****     if((cyBle_eventHandlerFlag & CYBLE_CALLBACK) != 0u)
1101:Generated_Source\PSoC4/BLE_1_eventHandler.c ****     {
1102:Generated_Source\PSoC4/BLE_1_eventHandler.c ****         CyBle_BlscReadResponseEventHandler(eventParam);
1103:Generated_Source\PSoC4/BLE_1_eventHandler.c ****     }
1104:Generated_Source\PSoC4/BLE_1_eventHandler.c **** #endif /* CYBLE_BLS_CLIENT */
1105:Generated_Source\PSoC4/BLE_1_eventHandler.c **** #ifdef CYBLE_BCS_CLIENT
1106:Generated_Source\PSoC4/BLE_1_eventHandler.c ****     if((cyBle_eventHandlerFlag & CYBLE_CALLBACK) != 0u)
1107:Generated_Source\PSoC4/BLE_1_eventHandler.c ****     {
1108:Generated_Source\PSoC4/BLE_1_eventHandler.c ****         CyBle_BcscReadResponseEventHandler(eventParam);
1109:Generated_Source\PSoC4/BLE_1_eventHandler.c ****     }
1110:Generated_Source\PSoC4/BLE_1_eventHandler.c **** #endif /* CYBLE_BCS_CLIENT */
1111:Generated_Source\PSoC4/BLE_1_eventHandler.c **** #ifdef CYBLE_BMS_CLIENT
1112:Generated_Source\PSoC4/BLE_1_eventHandler.c ****     if((cyBle_eventHandlerFlag & CYBLE_CALLBACK) != 0u)
1113:Generated_Source\PSoC4/BLE_1_eventHandler.c ****     {
1114:Generated_Source\PSoC4/BLE_1_eventHandler.c ****         CyBle_BmscReadResponseEventHandler(eventParam);
1115:Generated_Source\PSoC4/BLE_1_eventHandler.c ****     }
1116:Generated_Source\PSoC4/BLE_1_eventHandler.c **** #endif /* CYBLE_BMS_CLIENT */
1117:Generated_Source\PSoC4/BLE_1_eventHandler.c **** #ifdef CYBLE_CGMS_CLIENT
1118:Generated_Source\PSoC4/BLE_1_eventHandler.c ****     if((cyBle_eventHandlerFlag & CYBLE_CALLBACK) != 0u)
1119:Generated_Source\PSoC4/BLE_1_eventHandler.c ****     {
1120:Generated_Source\PSoC4/BLE_1_eventHandler.c ****         CyBle_CgmscReadResponseEventHandler(eventParam);
1121:Generated_Source\PSoC4/BLE_1_eventHandler.c ****     }
1122:Generated_Source\PSoC4/BLE_1_eventHandler.c **** #endif /* CYBLE_CGMS_CLIENT */
1123:Generated_Source\PSoC4/BLE_1_eventHandler.c **** #ifdef CYBLE_CPS_CLIENT
1124:Generated_Source\PSoC4/BLE_1_eventHandler.c ****     if((cyBle_eventHandlerFlag & CYBLE_CALLBACK) != 0u)
1125:Generated_Source\PSoC4/BLE_1_eventHandler.c ****     {
1126:Generated_Source\PSoC4/BLE_1_eventHandler.c ****         CyBle_CpscReadResponseEventHandler(eventParam);
1127:Generated_Source\PSoC4/BLE_1_eventHandler.c ****     }
1128:Generated_Source\PSoC4/BLE_1_eventHandler.c **** #endif /* CYBLE_CPS_CLIENT */
1129:Generated_Source\PSoC4/BLE_1_eventHandler.c **** #ifdef CYBLE_CSCS_CLIENT
1130:Generated_Source\PSoC4/BLE_1_eventHandler.c ****     if((cyBle_eventHandlerFlag & CYBLE_CALLBACK) != 0u)
1131:Generated_Source\PSoC4/BLE_1_eventHandler.c ****     {
1132:Generated_Source\PSoC4/BLE_1_eventHandler.c ****         CyBle_CscscReadResponseEventHandler(eventParam);
1133:Generated_Source\PSoC4/BLE_1_eventHandler.c ****     }
1134:Generated_Source\PSoC4/BLE_1_eventHandler.c **** #endif /* CYBLE_CSCS_CLIENT */
1135:Generated_Source\PSoC4/BLE_1_eventHandler.c **** #ifdef CYBLE_CTS_CLIENT
1136:Generated_Source\PSoC4/BLE_1_eventHandler.c ****     if((cyBle_eventHandlerFlag & CYBLE_CALLBACK) != 0u)
1137:Generated_Source\PSoC4/BLE_1_eventHandler.c ****     {
ARM GAS  C:\Users\ROUSSMA\AppData\Local\Temp\cc3gA5P4.s 			page 24


1138:Generated_Source\PSoC4/BLE_1_eventHandler.c ****         CyBle_CtscReadResponseEventHandler(eventParam);
1139:Generated_Source\PSoC4/BLE_1_eventHandler.c ****     }
1140:Generated_Source\PSoC4/BLE_1_eventHandler.c **** #endif /* CYBLE_BAS_CLIENT */
1141:Generated_Source\PSoC4/BLE_1_eventHandler.c **** #ifdef CYBLE_DIS_CLIENT
1142:Generated_Source\PSoC4/BLE_1_eventHandler.c ****     if((cyBle_eventHandlerFlag & CYBLE_CALLBACK) != 0u)
1143:Generated_Source\PSoC4/BLE_1_eventHandler.c ****     {
1144:Generated_Source\PSoC4/BLE_1_eventHandler.c ****         CyBle_DiscReadResponseEventHandler(eventParam);
1145:Generated_Source\PSoC4/BLE_1_eventHandler.c ****     }
1146:Generated_Source\PSoC4/BLE_1_eventHandler.c **** #endif /* CYBLE_DIS_CLIENT */
1147:Generated_Source\PSoC4/BLE_1_eventHandler.c **** #ifdef CYBLE_ESS_CLIENT
1148:Generated_Source\PSoC4/BLE_1_eventHandler.c ****     if((cyBle_eventHandlerFlag & CYBLE_CALLBACK) != 0u)
1149:Generated_Source\PSoC4/BLE_1_eventHandler.c ****     {
1150:Generated_Source\PSoC4/BLE_1_eventHandler.c ****         CyBle_EsscReadResponseEventHandler(eventParam);
1151:Generated_Source\PSoC4/BLE_1_eventHandler.c ****     }
1152:Generated_Source\PSoC4/BLE_1_eventHandler.c **** #endif /* CYBLE_ESS_CLIENT */
1153:Generated_Source\PSoC4/BLE_1_eventHandler.c **** #ifdef CYBLE_GLS_CLIENT
1154:Generated_Source\PSoC4/BLE_1_eventHandler.c ****     if((cyBle_eventHandlerFlag & CYBLE_CALLBACK) != 0u)
1155:Generated_Source\PSoC4/BLE_1_eventHandler.c ****     {
1156:Generated_Source\PSoC4/BLE_1_eventHandler.c ****         CyBle_GlscReadResponseEventHandler(eventParam);
1157:Generated_Source\PSoC4/BLE_1_eventHandler.c ****     }
1158:Generated_Source\PSoC4/BLE_1_eventHandler.c **** #endif /* CYBLE_GLS_CLIENT */
1159:Generated_Source\PSoC4/BLE_1_eventHandler.c **** #ifdef CYBLE_HIDS_CLIENT
1160:Generated_Source\PSoC4/BLE_1_eventHandler.c ****     if((cyBle_eventHandlerFlag & CYBLE_CALLBACK) != 0u)
1161:Generated_Source\PSoC4/BLE_1_eventHandler.c ****     {
1162:Generated_Source\PSoC4/BLE_1_eventHandler.c ****         CyBle_HidscReadResponseEventHandler(eventParam);
1163:Generated_Source\PSoC4/BLE_1_eventHandler.c ****     }
1164:Generated_Source\PSoC4/BLE_1_eventHandler.c **** #endif /* CYBLE_HIDS_CLIENT */
1165:Generated_Source\PSoC4/BLE_1_eventHandler.c **** #ifdef CYBLE_HPS_CLIENT
1166:Generated_Source\PSoC4/BLE_1_eventHandler.c ****     if((cyBle_eventHandlerFlag & CYBLE_CALLBACK) != 0u)
1167:Generated_Source\PSoC4/BLE_1_eventHandler.c ****     {
1168:Generated_Source\PSoC4/BLE_1_eventHandler.c ****         CyBle_HpscReadResponseEventHandler(eventParam);
1169:Generated_Source\PSoC4/BLE_1_eventHandler.c ****     }
1170:Generated_Source\PSoC4/BLE_1_eventHandler.c **** #endif /* CYBLE_HPS_CLIENT */
1171:Generated_Source\PSoC4/BLE_1_eventHandler.c **** #ifdef CYBLE_HRS_CLIENT
1172:Generated_Source\PSoC4/BLE_1_eventHandler.c ****     if((cyBle_eventHandlerFlag & CYBLE_CALLBACK) != 0u)
1173:Generated_Source\PSoC4/BLE_1_eventHandler.c ****     {
1174:Generated_Source\PSoC4/BLE_1_eventHandler.c ****         CyBle_HrscReadResponseEventHandler(eventParam);
1175:Generated_Source\PSoC4/BLE_1_eventHandler.c ****     }
1176:Generated_Source\PSoC4/BLE_1_eventHandler.c **** #endif /* CYBLE_HRS_CLIENT */
1177:Generated_Source\PSoC4/BLE_1_eventHandler.c **** #ifdef CYBLE_HTS_CLIENT
1178:Generated_Source\PSoC4/BLE_1_eventHandler.c ****     if((cyBle_eventHandlerFlag & CYBLE_CALLBACK) != 0u)
1179:Generated_Source\PSoC4/BLE_1_eventHandler.c ****     {
1180:Generated_Source\PSoC4/BLE_1_eventHandler.c ****         CyBle_HtscReadResponseEventHandler(eventParam);
1181:Generated_Source\PSoC4/BLE_1_eventHandler.c ****     }
1182:Generated_Source\PSoC4/BLE_1_eventHandler.c **** #endif /* CYBLE_HTS_CLIENT */
1183:Generated_Source\PSoC4/BLE_1_eventHandler.c **** #ifdef CYBLE_IPS_CLIENT
1184:Generated_Source\PSoC4/BLE_1_eventHandler.c ****     if((cyBle_eventHandlerFlag & CYBLE_CALLBACK) != 0u)
1185:Generated_Source\PSoC4/BLE_1_eventHandler.c ****     {
1186:Generated_Source\PSoC4/BLE_1_eventHandler.c ****         CyBle_IpscReadResponseEventHandler(eventParam);
1187:Generated_Source\PSoC4/BLE_1_eventHandler.c ****     }
1188:Generated_Source\PSoC4/BLE_1_eventHandler.c **** #endif /* CYBLE_IPS_CLIENT */
1189:Generated_Source\PSoC4/BLE_1_eventHandler.c **** #ifdef CYBLE_LLS_CLIENT
1190:Generated_Source\PSoC4/BLE_1_eventHandler.c ****     if((cyBle_eventHandlerFlag & CYBLE_CALLBACK) != 0u)
1191:Generated_Source\PSoC4/BLE_1_eventHandler.c ****     {
1192:Generated_Source\PSoC4/BLE_1_eventHandler.c ****         CyBle_LlscReadResponseEventHandler(eventParam);
1193:Generated_Source\PSoC4/BLE_1_eventHandler.c ****     }
1194:Generated_Source\PSoC4/BLE_1_eventHandler.c **** #endif /* CYBLE_LLS_CLIENT */
ARM GAS  C:\Users\ROUSSMA\AppData\Local\Temp\cc3gA5P4.s 			page 25


1195:Generated_Source\PSoC4/BLE_1_eventHandler.c **** #ifdef CYBLE_LNS_CLIENT
1196:Generated_Source\PSoC4/BLE_1_eventHandler.c ****     if((cyBle_eventHandlerFlag & CYBLE_CALLBACK) != 0u)
1197:Generated_Source\PSoC4/BLE_1_eventHandler.c ****     {
1198:Generated_Source\PSoC4/BLE_1_eventHandler.c ****         CyBle_LnscReadResponseEventHandler(eventParam);
1199:Generated_Source\PSoC4/BLE_1_eventHandler.c ****     }
1200:Generated_Source\PSoC4/BLE_1_eventHandler.c **** #endif /* CYBLE_LNS_CLIENT */
1201:Generated_Source\PSoC4/BLE_1_eventHandler.c **** #ifdef CYBLE_NDCS_CLIENT
1202:Generated_Source\PSoC4/BLE_1_eventHandler.c ****     if((cyBle_eventHandlerFlag & CYBLE_CALLBACK) != 0u)
1203:Generated_Source\PSoC4/BLE_1_eventHandler.c ****     {
1204:Generated_Source\PSoC4/BLE_1_eventHandler.c ****         CyBle_NdcscReadResponseEventHandler(eventParam);
1205:Generated_Source\PSoC4/BLE_1_eventHandler.c ****     }
1206:Generated_Source\PSoC4/BLE_1_eventHandler.c **** #endif /* CYBLE_NDCS_CLIENT */
1207:Generated_Source\PSoC4/BLE_1_eventHandler.c **** #ifdef CYBLE_PASS_CLIENT
1208:Generated_Source\PSoC4/BLE_1_eventHandler.c ****     if((cyBle_eventHandlerFlag & CYBLE_CALLBACK) != 0u)
1209:Generated_Source\PSoC4/BLE_1_eventHandler.c ****     {
1210:Generated_Source\PSoC4/BLE_1_eventHandler.c ****         CyBle_PasscReadResponseEventHandler(eventParam);
1211:Generated_Source\PSoC4/BLE_1_eventHandler.c ****     }
1212:Generated_Source\PSoC4/BLE_1_eventHandler.c **** #endif /* CYBLE_PASS_CLIENT */
1213:Generated_Source\PSoC4/BLE_1_eventHandler.c **** #ifdef CYBLE_PLXS_CLIENT
1214:Generated_Source\PSoC4/BLE_1_eventHandler.c ****     if((cyBle_eventHandlerFlag & CYBLE_CALLBACK) != 0u)
1215:Generated_Source\PSoC4/BLE_1_eventHandler.c ****     {
1216:Generated_Source\PSoC4/BLE_1_eventHandler.c ****         CyBle_PlxscReadResponseEventHandler(eventParam);
1217:Generated_Source\PSoC4/BLE_1_eventHandler.c ****     }
1218:Generated_Source\PSoC4/BLE_1_eventHandler.c **** #endif /* CYBLE_PLXS_CLIENT */
1219:Generated_Source\PSoC4/BLE_1_eventHandler.c **** #ifdef CYBLE_RSCS_CLIENT
1220:Generated_Source\PSoC4/BLE_1_eventHandler.c ****     if((cyBle_eventHandlerFlag & CYBLE_CALLBACK) != 0u)
1221:Generated_Source\PSoC4/BLE_1_eventHandler.c ****     {
1222:Generated_Source\PSoC4/BLE_1_eventHandler.c ****         CyBle_RscscReadResponseEventHandler(eventParam);
1223:Generated_Source\PSoC4/BLE_1_eventHandler.c ****     }
1224:Generated_Source\PSoC4/BLE_1_eventHandler.c **** #endif /* CYBLE_RSCS_CLIENT */
1225:Generated_Source\PSoC4/BLE_1_eventHandler.c **** #ifdef CYBLE_RTUS_CLIENT
1226:Generated_Source\PSoC4/BLE_1_eventHandler.c ****     if((cyBle_eventHandlerFlag & CYBLE_CALLBACK) != 0u)
1227:Generated_Source\PSoC4/BLE_1_eventHandler.c ****     {
1228:Generated_Source\PSoC4/BLE_1_eventHandler.c ****         CyBle_RtuscReadResponseEventHandler(eventParam);
1229:Generated_Source\PSoC4/BLE_1_eventHandler.c ****     }
1230:Generated_Source\PSoC4/BLE_1_eventHandler.c **** #endif /* CYBLE_RTUS_CLIENT */
1231:Generated_Source\PSoC4/BLE_1_eventHandler.c **** #ifdef CYBLE_SCPS_CLIENT
1232:Generated_Source\PSoC4/BLE_1_eventHandler.c ****     if((cyBle_eventHandlerFlag & CYBLE_CALLBACK) != 0u)
1233:Generated_Source\PSoC4/BLE_1_eventHandler.c ****     {
1234:Generated_Source\PSoC4/BLE_1_eventHandler.c ****         CyBle_ScpscReadResponseEventHandler(eventParam);
1235:Generated_Source\PSoC4/BLE_1_eventHandler.c ****     }
1236:Generated_Source\PSoC4/BLE_1_eventHandler.c **** #endif /* CYBLE_SCPS_CLIENT */
1237:Generated_Source\PSoC4/BLE_1_eventHandler.c **** #ifdef CYBLE_TPS_CLIENT
1238:Generated_Source\PSoC4/BLE_1_eventHandler.c ****     if((cyBle_eventHandlerFlag & CYBLE_CALLBACK) != 0u)
1239:Generated_Source\PSoC4/BLE_1_eventHandler.c ****     {
1240:Generated_Source\PSoC4/BLE_1_eventHandler.c ****         CyBle_TpscReadResponseEventHandler(eventParam);
1241:Generated_Source\PSoC4/BLE_1_eventHandler.c ****     }
1242:Generated_Source\PSoC4/BLE_1_eventHandler.c **** #endif /* CYBLE_TPS_CLIENT */
1243:Generated_Source\PSoC4/BLE_1_eventHandler.c **** #ifdef CYBLE_UDS_CLIENT
1244:Generated_Source\PSoC4/BLE_1_eventHandler.c ****     if((cyBle_eventHandlerFlag & CYBLE_CALLBACK) != 0u)
1245:Generated_Source\PSoC4/BLE_1_eventHandler.c ****     {
1246:Generated_Source\PSoC4/BLE_1_eventHandler.c ****         CyBle_UdscReadResponseEventHandler(eventParam);
1247:Generated_Source\PSoC4/BLE_1_eventHandler.c ****     }
1248:Generated_Source\PSoC4/BLE_1_eventHandler.c **** #endif /* CYBLE_UDS_CLIENT */
1249:Generated_Source\PSoC4/BLE_1_eventHandler.c **** #ifdef CYBLE_WPTS_CLIENT
1250:Generated_Source\PSoC4/BLE_1_eventHandler.c ****     if((cyBle_eventHandlerFlag & CYBLE_CALLBACK) != 0u)
1251:Generated_Source\PSoC4/BLE_1_eventHandler.c ****     {
ARM GAS  C:\Users\ROUSSMA\AppData\Local\Temp\cc3gA5P4.s 			page 26


1252:Generated_Source\PSoC4/BLE_1_eventHandler.c ****         CyBle_WptscReadResponseEventHandler(eventParam);
1253:Generated_Source\PSoC4/BLE_1_eventHandler.c ****     }
1254:Generated_Source\PSoC4/BLE_1_eventHandler.c **** #endif /* CYBLE_WPTS_CLIENT */
1255:Generated_Source\PSoC4/BLE_1_eventHandler.c **** #ifdef CYBLE_WSS_CLIENT
1256:Generated_Source\PSoC4/BLE_1_eventHandler.c ****     if((cyBle_eventHandlerFlag & CYBLE_CALLBACK) != 0u)
1257:Generated_Source\PSoC4/BLE_1_eventHandler.c ****     {
1258:Generated_Source\PSoC4/BLE_1_eventHandler.c ****         CyBle_WsscReadResponseEventHandler(eventParam);
1259:Generated_Source\PSoC4/BLE_1_eventHandler.c ****     }
1260:Generated_Source\PSoC4/BLE_1_eventHandler.c **** #endif /* CYBLE_WSS_CLIENT */
1261:Generated_Source\PSoC4/BLE_1_eventHandler.c **** }
1262:Generated_Source\PSoC4/BLE_1_eventHandler.c **** 
1263:Generated_Source\PSoC4/BLE_1_eventHandler.c **** /******************************************************************************    
1264:Generated_Source\PSoC4/BLE_1_eventHandler.c **** * Function Name: CyBle_ReadMultipleResponseEventHandler
1265:Generated_Source\PSoC4/BLE_1_eventHandler.c **** ***************************************************************************//**
1266:Generated_Source\PSoC4/BLE_1_eventHandler.c **** * 
1267:Generated_Source\PSoC4/BLE_1_eventHandler.c **** *  Handles the Read Multiple Response event from BLE stack.
1268:Generated_Source\PSoC4/BLE_1_eventHandler.c **** * 
1269:Generated_Source\PSoC4/BLE_1_eventHandler.c **** *  \param eventParam: event parameter
1270:Generated_Source\PSoC4/BLE_1_eventHandler.c **** * 
1271:Generated_Source\PSoC4/BLE_1_eventHandler.c **** * \return
1272:Generated_Source\PSoC4/BLE_1_eventHandler.c **** *  None
1273:Generated_Source\PSoC4/BLE_1_eventHandler.c **** * 
1274:Generated_Source\PSoC4/BLE_1_eventHandler.c **** ******************************************************************************/
1275:Generated_Source\PSoC4/BLE_1_eventHandler.c **** static void CyBle_ReadMultipleResponseEventHandler(CYBLE_GATTC_READ_RSP_PARAM_T *eventParam)
1276:Generated_Source\PSoC4/BLE_1_eventHandler.c **** {
1277:Generated_Source\PSoC4/BLE_1_eventHandler.c **** #ifdef CYBLE_CUSTOM_CLIENT
1278:Generated_Source\PSoC4/BLE_1_eventHandler.c ****     /* Read response with 128-bit included service uuid */
1279:Generated_Source\PSoC4/BLE_1_eventHandler.c ****     if((CYBLE_CLIENT_STATE_INCL_DISCOVERING == CyBle_GetClientState()) &&
1280:Generated_Source\PSoC4/BLE_1_eventHandler.c ****        (cyBle_discInclInfo.inclDefHandle != 0u))
1281:Generated_Source\PSoC4/BLE_1_eventHandler.c ****     {
1282:Generated_Source\PSoC4/BLE_1_eventHandler.c ****         CYBLE_DISC_SRVC128_INFO_T discServInfo;
1283:Generated_Source\PSoC4/BLE_1_eventHandler.c **** 
1284:Generated_Source\PSoC4/BLE_1_eventHandler.c ****         /* Store service range */
1285:Generated_Source\PSoC4/BLE_1_eventHandler.c ****         discServInfo.range = cyBle_discInclInfo.inclHandleRange;
1286:Generated_Source\PSoC4/BLE_1_eventHandler.c ****         (void)memcpy((void *) discServInfo.uuid.uuid128.value, (void *)eventParam->value.val, event
1287:Generated_Source\PSoC4/BLE_1_eventHandler.c ****         CyBle_CustomcDiscoverServiceEventHandler(&discServInfo);
1288:Generated_Source\PSoC4/BLE_1_eventHandler.c ****         
1289:Generated_Source\PSoC4/BLE_1_eventHandler.c ****         /* Re-initiate CyBle_GattcFindIncludedServices function, setting the start
1290:Generated_Source\PSoC4/BLE_1_eventHandler.c ****            handle to the attribute handle which is placed next to the one used in
1291:Generated_Source\PSoC4/BLE_1_eventHandler.c ****            the above step.
1292:Generated_Source\PSoC4/BLE_1_eventHandler.c ****         */
1293:Generated_Source\PSoC4/BLE_1_eventHandler.c ****         discServInfo.range.startHandle = cyBle_discInclInfo.inclDefHandle + 1;
1294:Generated_Source\PSoC4/BLE_1_eventHandler.c ****         discServInfo.range.endHandle = cyBle_serverInfo[cyBle_disCount].range.endHandle;
1295:Generated_Source\PSoC4/BLE_1_eventHandler.c ****         if(discServInfo.range.startHandle <= discServInfo.range.endHandle)
1296:Generated_Source\PSoC4/BLE_1_eventHandler.c ****         {
1297:Generated_Source\PSoC4/BLE_1_eventHandler.c ****             if(CYBLE_ERROR_OK != CyBle_GattcFindIncludedServices(cyBle_connHandle, &discServInfo.ra
1298:Generated_Source\PSoC4/BLE_1_eventHandler.c ****             {
1299:Generated_Source\PSoC4/BLE_1_eventHandler.c ****                 CyBle_ApplCallback(CYBLE_EVT_GATTC_INCL_DISCOVERY_FAILED, NULL);
1300:Generated_Source\PSoC4/BLE_1_eventHandler.c ****                 cyBle_eventHandlerFlag &= (uint8)~CYBLE_AUTO_DISCOVERY;
1301:Generated_Source\PSoC4/BLE_1_eventHandler.c ****             }
1302:Generated_Source\PSoC4/BLE_1_eventHandler.c ****         }
1303:Generated_Source\PSoC4/BLE_1_eventHandler.c ****         else /* Continue discovery of the following service */
1304:Generated_Source\PSoC4/BLE_1_eventHandler.c ****         {
1305:Generated_Source\PSoC4/BLE_1_eventHandler.c ****             CyBle_NextInclDiscovery(CYBLE_DISCOVERY_CONTINUE);
1306:Generated_Source\PSoC4/BLE_1_eventHandler.c ****         }
1307:Generated_Source\PSoC4/BLE_1_eventHandler.c ****         
1308:Generated_Source\PSoC4/BLE_1_eventHandler.c ****         cyBle_eventHandlerFlag &= (uint8)~CYBLE_CALLBACK;
ARM GAS  C:\Users\ROUSSMA\AppData\Local\Temp\cc3gA5P4.s 			page 27


1309:Generated_Source\PSoC4/BLE_1_eventHandler.c ****     #ifdef CYBLE_CUSTOM_CLIENT
1310:Generated_Source\PSoC4/BLE_1_eventHandler.c ****         cyBle_discInclInfo.inclDefHandle = 0u;
1311:Generated_Source\PSoC4/BLE_1_eventHandler.c ****     #endif /* CYBLE_CUSTOM_CLIENT */
1312:Generated_Source\PSoC4/BLE_1_eventHandler.c ****     }
1313:Generated_Source\PSoC4/BLE_1_eventHandler.c **** #endif /* CYBLE_CUSTOM_CLIENT */
1314:Generated_Source\PSoC4/BLE_1_eventHandler.c **** #ifdef CYBLE_IPS_CLIENT
1315:Generated_Source\PSoC4/BLE_1_eventHandler.c ****     if((cyBle_eventHandlerFlag & CYBLE_CALLBACK) != 0u)
1316:Generated_Source\PSoC4/BLE_1_eventHandler.c ****     {
1317:Generated_Source\PSoC4/BLE_1_eventHandler.c ****         CyBle_IpscReadMultipleResponseEventHandler(eventParam);
1318:Generated_Source\PSoC4/BLE_1_eventHandler.c ****     }
1319:Generated_Source\PSoC4/BLE_1_eventHandler.c **** #endif /* CYBLE_IPS_CLIENT */
1320:Generated_Source\PSoC4/BLE_1_eventHandler.c ****     /* MISRA 16.7 violation workaround */
1321:Generated_Source\PSoC4/BLE_1_eventHandler.c ****     eventParam = eventParam;
1322:Generated_Source\PSoC4/BLE_1_eventHandler.c **** }
1323:Generated_Source\PSoC4/BLE_1_eventHandler.c **** #endif /* CYBLE_GATT_ROLE_CLIENT */
1324:Generated_Source\PSoC4/BLE_1_eventHandler.c **** 
1325:Generated_Source\PSoC4/BLE_1_eventHandler.c **** 
1326:Generated_Source\PSoC4/BLE_1_eventHandler.c **** /****************************************************************************** 
1327:Generated_Source\PSoC4/BLE_1_eventHandler.c **** * Function Name: CyBle_DisconnectEventHandler
1328:Generated_Source\PSoC4/BLE_1_eventHandler.c **** ***************************************************************************//**
1329:Generated_Source\PSoC4/BLE_1_eventHandler.c **** * 
1330:Generated_Source\PSoC4/BLE_1_eventHandler.c **** *  Handles the GATT Disconnection event from the BLE stack.
1331:Generated_Source\PSoC4/BLE_1_eventHandler.c **** * 
1332:Generated_Source\PSoC4/BLE_1_eventHandler.c **** * \return
1333:Generated_Source\PSoC4/BLE_1_eventHandler.c **** *  None
1334:Generated_Source\PSoC4/BLE_1_eventHandler.c **** * 
1335:Generated_Source\PSoC4/BLE_1_eventHandler.c **** ******************************************************************************/
1336:Generated_Source\PSoC4/BLE_1_eventHandler.c **** static void CyBle_GattDisconnectEventHandler(void)
1337:Generated_Source\PSoC4/BLE_1_eventHandler.c **** {
 174              		.loc 1 1337 0
 175              		.cfi_startproc
 176              		@ args = 0, pretend = 0, frame = 0
 177              		@ frame_needed = 1, uses_anonymous_args = 0
 178 0000 80B5     		push	{r7, lr}
 179              		.cfi_def_cfa_offset 8
 180              		.cfi_offset 7, -8
 181              		.cfi_offset 14, -4
 182 0002 00AF     		add	r7, sp, #0
 183              		.cfi_def_cfa_register 7
1338:Generated_Source\PSoC4/BLE_1_eventHandler.c ****     cyBle_connHandle.attId = 0u;
 184              		.loc 1 1338 0
 185 0004 044B     		ldr	r3, .L9
 186 0006 0022     		movs	r2, #0
 187 0008 5A70     		strb	r2, [r3, #1]
1339:Generated_Source\PSoC4/BLE_1_eventHandler.c ****     cyBle_connHandle.bdHandle = 0u;
 188              		.loc 1 1339 0
 189 000a 034B     		ldr	r3, .L9
 190 000c 0022     		movs	r2, #0
 191 000e 1A70     		strb	r2, [r3]
1340:Generated_Source\PSoC4/BLE_1_eventHandler.c ****     
1341:Generated_Source\PSoC4/BLE_1_eventHandler.c ****     #if (CYBLE_GATT_ROLE_CLIENT)
1342:Generated_Source\PSoC4/BLE_1_eventHandler.c ****         if(CyBle_GetClientState() == CYBLE_CLIENT_STATE_DISCOVERED)
1343:Generated_Source\PSoC4/BLE_1_eventHandler.c ****         {
1344:Generated_Source\PSoC4/BLE_1_eventHandler.c ****             CyBle_SetClientState(CYBLE_CLIENT_STATE_DISCONNECTED_DISCOVERED);
1345:Generated_Source\PSoC4/BLE_1_eventHandler.c ****         }
1346:Generated_Source\PSoC4/BLE_1_eventHandler.c ****         else
1347:Generated_Source\PSoC4/BLE_1_eventHandler.c ****         {
ARM GAS  C:\Users\ROUSSMA\AppData\Local\Temp\cc3gA5P4.s 			page 28


1348:Generated_Source\PSoC4/BLE_1_eventHandler.c ****             CyBle_SetClientState(CYBLE_CLIENT_STATE_DISCONNECTED);
1349:Generated_Source\PSoC4/BLE_1_eventHandler.c ****         }
1350:Generated_Source\PSoC4/BLE_1_eventHandler.c ****     #endif /* CYBLE_GATT_ROLE_CLIENT */
1351:Generated_Source\PSoC4/BLE_1_eventHandler.c ****         
1352:Generated_Source\PSoC4/BLE_1_eventHandler.c ****     #ifdef CYBLE_CPS_SERVER
1353:Generated_Source\PSoC4/BLE_1_eventHandler.c ****         #if CYBLE_GAP_ROLE_BROADCASTER
1354:Generated_Source\PSoC4/BLE_1_eventHandler.c ****             CyBle_CpssDisconnectEventHandler();
1355:Generated_Source\PSoC4/BLE_1_eventHandler.c ****         #endif /* CYBLE_GAP_ROLE_BROADCASTER */
1356:Generated_Source\PSoC4/BLE_1_eventHandler.c ****     #endif /* CYBLE_CPS_SERVER */
1357:Generated_Source\PSoC4/BLE_1_eventHandler.c **** 
1358:Generated_Source\PSoC4/BLE_1_eventHandler.c ****     #ifdef CYBLE_CPS_CLIENT
1359:Generated_Source\PSoC4/BLE_1_eventHandler.c ****         CyBle_CpscDisconnectEventHandler();
1360:Generated_Source\PSoC4/BLE_1_eventHandler.c ****     #endif /* CYBLE_CPS_CLIENT */
1361:Generated_Source\PSoC4/BLE_1_eventHandler.c **** 
1362:Generated_Source\PSoC4/BLE_1_eventHandler.c ****     #ifdef CYBLE_IAS_SERVER
1363:Generated_Source\PSoC4/BLE_1_eventHandler.c ****         CyBle_IassDisconnectEventHandler();
1364:Generated_Source\PSoC4/BLE_1_eventHandler.c ****     #endif /* CYBLE_IAS_SERVER */
1365:Generated_Source\PSoC4/BLE_1_eventHandler.c ****     
1366:Generated_Source\PSoC4/BLE_1_eventHandler.c ****     #ifdef CYBLE_GLS_SERVER
1367:Generated_Source\PSoC4/BLE_1_eventHandler.c ****         CyBle_GlsInit();
1368:Generated_Source\PSoC4/BLE_1_eventHandler.c ****     #endif /* CYBLE_GLS_SERVER */
1369:Generated_Source\PSoC4/BLE_1_eventHandler.c ****     
1370:Generated_Source\PSoC4/BLE_1_eventHandler.c ****     #ifdef CYBLE_LNS_SERVER
1371:Generated_Source\PSoC4/BLE_1_eventHandler.c ****         CyBle_LnsInit();
1372:Generated_Source\PSoC4/BLE_1_eventHandler.c ****     #endif /* CYBLE_LNS_SERVER */
1373:Generated_Source\PSoC4/BLE_1_eventHandler.c ****     
1374:Generated_Source\PSoC4/BLE_1_eventHandler.c ****     #ifdef CYBLE_UDS_SERVER
1375:Generated_Source\PSoC4/BLE_1_eventHandler.c ****         CyBle_UdsInit();
1376:Generated_Source\PSoC4/BLE_1_eventHandler.c ****     #endif /* CYBLE_UDS_SERVER */
1377:Generated_Source\PSoC4/BLE_1_eventHandler.c **** }
 192              		.loc 1 1377 0
 193 0010 C046     		nop
 194 0012 BD46     		mov	sp, r7
 195              		@ sp needed
 196 0014 80BD     		pop	{r7, pc}
 197              	.L10:
 198 0016 C046     		.align	2
 199              	.L9:
 200 0018 00000000 		.word	cyBle_connHandle
 201              		.cfi_endproc
 202              	.LFE4:
 203              		.size	CyBle_GattDisconnectEventHandler, .-CyBle_GattDisconnectEventHandler
 204              		.section	.text.CyBle_TimeOutEventHandler,"ax",%progbits
 205              		.align	2
 206              		.code	16
 207              		.thumb_func
 208              		.type	CyBle_TimeOutEventHandler, %function
 209              	CyBle_TimeOutEventHandler:
 210              	.LFB5:
1378:Generated_Source\PSoC4/BLE_1_eventHandler.c **** 
1379:Generated_Source\PSoC4/BLE_1_eventHandler.c **** 
1380:Generated_Source\PSoC4/BLE_1_eventHandler.c **** /****************************************************************************** 
1381:Generated_Source\PSoC4/BLE_1_eventHandler.c **** * Function Name: CyBle_TimeOutEventHandler
1382:Generated_Source\PSoC4/BLE_1_eventHandler.c **** ***************************************************************************//**
1383:Generated_Source\PSoC4/BLE_1_eventHandler.c **** * 
1384:Generated_Source\PSoC4/BLE_1_eventHandler.c **** *  Handles the CYBLE_EVT_TIMEOUT event from the BLE stack.
1385:Generated_Source\PSoC4/BLE_1_eventHandler.c **** * 
ARM GAS  C:\Users\ROUSSMA\AppData\Local\Temp\cc3gA5P4.s 			page 29


1386:Generated_Source\PSoC4/BLE_1_eventHandler.c **** *  \param eventParam: The pointer to a structure of type CYBLE_TO_REASON_CODE_T.
1387:Generated_Source\PSoC4/BLE_1_eventHandler.c **** * 
1388:Generated_Source\PSoC4/BLE_1_eventHandler.c **** * \return
1389:Generated_Source\PSoC4/BLE_1_eventHandler.c **** *  None
1390:Generated_Source\PSoC4/BLE_1_eventHandler.c **** * 
1391:Generated_Source\PSoC4/BLE_1_eventHandler.c **** ******************************************************************************/
1392:Generated_Source\PSoC4/BLE_1_eventHandler.c **** static void CyBle_TimeOutEventHandler(const CYBLE_TO_REASON_CODE_T *eventParam)
1393:Generated_Source\PSoC4/BLE_1_eventHandler.c **** {
 211              		.loc 1 1393 0
 212              		.cfi_startproc
 213              		@ args = 0, pretend = 0, frame = 8
 214              		@ frame_needed = 1, uses_anonymous_args = 0
 215 0000 80B5     		push	{r7, lr}
 216              		.cfi_def_cfa_offset 8
 217              		.cfi_offset 7, -8
 218              		.cfi_offset 14, -4
 219 0002 82B0     		sub	sp, sp, #8
 220              		.cfi_def_cfa_offset 16
 221 0004 00AF     		add	r7, sp, #0
 222              		.cfi_def_cfa_register 7
 223 0006 7860     		str	r0, [r7, #4]
1394:Generated_Source\PSoC4/BLE_1_eventHandler.c ****     if(*eventParam == CYBLE_GATT_RSP_TO)
1395:Generated_Source\PSoC4/BLE_1_eventHandler.c ****     {
1396:Generated_Source\PSoC4/BLE_1_eventHandler.c ****     #if (CYBLE_GATT_ROLE_CLIENT)
1397:Generated_Source\PSoC4/BLE_1_eventHandler.c ****         if((cyBle_eventHandlerFlag & CYBLE_AUTO_DISCOVERY) != 0u)
1398:Generated_Source\PSoC4/BLE_1_eventHandler.c ****         {
1399:Generated_Source\PSoC4/BLE_1_eventHandler.c ****             switch(CyBle_GetClientState())
1400:Generated_Source\PSoC4/BLE_1_eventHandler.c ****             {
1401:Generated_Source\PSoC4/BLE_1_eventHandler.c ****                 case CYBLE_CLIENT_STATE_SRVC_DISCOVERING:
1402:Generated_Source\PSoC4/BLE_1_eventHandler.c ****                     CyBle_ApplCallback(CYBLE_EVT_GATTC_SRVC_DISCOVERY_FAILED, NULL);
1403:Generated_Source\PSoC4/BLE_1_eventHandler.c ****                     break;
1404:Generated_Source\PSoC4/BLE_1_eventHandler.c ****                 case CYBLE_CLIENT_STATE_INCL_DISCOVERING:
1405:Generated_Source\PSoC4/BLE_1_eventHandler.c ****                     CyBle_ApplCallback(CYBLE_EVT_GATTC_INCL_DISCOVERY_FAILED, NULL);
1406:Generated_Source\PSoC4/BLE_1_eventHandler.c ****                     break;
1407:Generated_Source\PSoC4/BLE_1_eventHandler.c ****                 case CYBLE_CLIENT_STATE_CHAR_DISCOVERING:
1408:Generated_Source\PSoC4/BLE_1_eventHandler.c ****                     CyBle_ApplCallback(CYBLE_EVT_GATTC_CHAR_DISCOVERY_FAILED, NULL);
1409:Generated_Source\PSoC4/BLE_1_eventHandler.c ****                     break;
1410:Generated_Source\PSoC4/BLE_1_eventHandler.c ****                 case CYBLE_CLIENT_STATE_DESCR_DISCOVERING:
1411:Generated_Source\PSoC4/BLE_1_eventHandler.c ****                     CyBle_ApplCallback(CYBLE_EVT_GATTC_DESCR_DISCOVERY_FAILED, NULL);
1412:Generated_Source\PSoC4/BLE_1_eventHandler.c ****                     break;
1413:Generated_Source\PSoC4/BLE_1_eventHandler.c ****                 default:        /* Other states should not be set in Auto discovery mode */
1414:Generated_Source\PSoC4/BLE_1_eventHandler.c ****                     break;
1415:Generated_Source\PSoC4/BLE_1_eventHandler.c ****             }
1416:Generated_Source\PSoC4/BLE_1_eventHandler.c ****             cyBle_eventHandlerFlag &= (uint8)~CYBLE_AUTO_DISCOVERY;
1417:Generated_Source\PSoC4/BLE_1_eventHandler.c ****             CyBle_SetClientState(CYBLE_CLIENT_STATE_CONNECTED);
1418:Generated_Source\PSoC4/BLE_1_eventHandler.c ****         }
1419:Generated_Source\PSoC4/BLE_1_eventHandler.c ****     #endif /* CYBLE_GATT_ROLE_CLIENT */
1420:Generated_Source\PSoC4/BLE_1_eventHandler.c ****     #ifdef CYBLE_CPS_SERVER
1421:Generated_Source\PSoC4/BLE_1_eventHandler.c ****         CyBle_CpssTimeOutEventHandler();
1422:Generated_Source\PSoC4/BLE_1_eventHandler.c ****     #endif /* CYBLE_CPS_SERVER */
1423:Generated_Source\PSoC4/BLE_1_eventHandler.c ****     }
1424:Generated_Source\PSoC4/BLE_1_eventHandler.c ****     
1425:Generated_Source\PSoC4/BLE_1_eventHandler.c ****     /* Connection procedure timeout */
1426:Generated_Source\PSoC4/BLE_1_eventHandler.c ****     if(*eventParam == CYBLE_GENERIC_TO)
1427:Generated_Source\PSoC4/BLE_1_eventHandler.c ****     {
1428:Generated_Source\PSoC4/BLE_1_eventHandler.c ****     #if(CYBLE_GAP_ROLE_CENTRAL)
1429:Generated_Source\PSoC4/BLE_1_eventHandler.c ****         if(CyBle_GetState() == CYBLE_STATE_CONNECTING)
ARM GAS  C:\Users\ROUSSMA\AppData\Local\Temp\cc3gA5P4.s 			page 30


1430:Generated_Source\PSoC4/BLE_1_eventHandler.c ****         {
1431:Generated_Source\PSoC4/BLE_1_eventHandler.c ****             (void)CyBle_GapcCancelDeviceConnection();
1432:Generated_Source\PSoC4/BLE_1_eventHandler.c ****         }
1433:Generated_Source\PSoC4/BLE_1_eventHandler.c ****     #endif /* CYBLE_GAP_ROLE_CENTRAL */
1434:Generated_Source\PSoC4/BLE_1_eventHandler.c ****     }
1435:Generated_Source\PSoC4/BLE_1_eventHandler.c **** }
 224              		.loc 1 1435 0
 225 0008 C046     		nop
 226 000a BD46     		mov	sp, r7
 227 000c 02B0     		add	sp, sp, #8
 228              		@ sp needed
 229 000e 80BD     		pop	{r7, pc}
 230              		.cfi_endproc
 231              	.LFE5:
 232              		.size	CyBle_TimeOutEventHandler, .-CyBle_TimeOutEventHandler
 233              		.section	.text.CyBle_GattConnectReqHandler,"ax",%progbits
 234              		.align	2
 235              		.code	16
 236              		.thumb_func
 237              		.type	CyBle_GattConnectReqHandler, %function
 238              	CyBle_GattConnectReqHandler:
 239              	.LFB6:
1436:Generated_Source\PSoC4/BLE_1_eventHandler.c **** 
1437:Generated_Source\PSoC4/BLE_1_eventHandler.c **** 
1438:Generated_Source\PSoC4/BLE_1_eventHandler.c **** /****************************************************************************** 
1439:Generated_Source\PSoC4/BLE_1_eventHandler.c **** * Function Name: CyBle_GattConnectReqHandler
1440:Generated_Source\PSoC4/BLE_1_eventHandler.c **** ***************************************************************************//**
1441:Generated_Source\PSoC4/BLE_1_eventHandler.c **** * 
1442:Generated_Source\PSoC4/BLE_1_eventHandler.c **** *  Handles the GATT connect event from the BLE stack.
1443:Generated_Source\PSoC4/BLE_1_eventHandler.c **** * 
1444:Generated_Source\PSoC4/BLE_1_eventHandler.c **** * \return
1445:Generated_Source\PSoC4/BLE_1_eventHandler.c **** *  None
1446:Generated_Source\PSoC4/BLE_1_eventHandler.c **** * 
1447:Generated_Source\PSoC4/BLE_1_eventHandler.c **** ******************************************************************************/
1448:Generated_Source\PSoC4/BLE_1_eventHandler.c **** static void CyBle_GattConnectReqHandler(void)
1449:Generated_Source\PSoC4/BLE_1_eventHandler.c **** {
 240              		.loc 1 1449 0
 241              		.cfi_startproc
 242              		@ args = 0, pretend = 0, frame = 0
 243              		@ frame_needed = 1, uses_anonymous_args = 0
 244 0000 80B5     		push	{r7, lr}
 245              		.cfi_def_cfa_offset 8
 246              		.cfi_offset 7, -8
 247              		.cfi_offset 14, -4
 248 0002 00AF     		add	r7, sp, #0
 249              		.cfi_def_cfa_register 7
1450:Generated_Source\PSoC4/BLE_1_eventHandler.c ****     #ifdef CYBLE_CGMS_SERVER
1451:Generated_Source\PSoC4/BLE_1_eventHandler.c ****         CyBle_CgmsInit();
1452:Generated_Source\PSoC4/BLE_1_eventHandler.c ****     #endif /* CYBLE_CGMS_SERVER */
1453:Generated_Source\PSoC4/BLE_1_eventHandler.c ****     
1454:Generated_Source\PSoC4/BLE_1_eventHandler.c ****     #ifdef CYBLE_CPS_SERVER
1455:Generated_Source\PSoC4/BLE_1_eventHandler.c ****         CyBle_CpssConnectEventHandler();
1456:Generated_Source\PSoC4/BLE_1_eventHandler.c ****     #endif /* CYBLE_CPS_SERVER */
1457:Generated_Source\PSoC4/BLE_1_eventHandler.c ****     
1458:Generated_Source\PSoC4/BLE_1_eventHandler.c ****     #ifdef CYBLE_CSCS_SERVER
1459:Generated_Source\PSoC4/BLE_1_eventHandler.c ****             CyBle_CscsInit();
1460:Generated_Source\PSoC4/BLE_1_eventHandler.c ****     #endif /* CYBLE_CSCS_SERVER */
ARM GAS  C:\Users\ROUSSMA\AppData\Local\Temp\cc3gA5P4.s 			page 31


1461:Generated_Source\PSoC4/BLE_1_eventHandler.c ****     
1462:Generated_Source\PSoC4/BLE_1_eventHandler.c ****     #ifdef CYBLE_LLS_SERVER
1463:Generated_Source\PSoC4/BLE_1_eventHandler.c ****         CyBle_LlssConnectEventHandler();
1464:Generated_Source\PSoC4/BLE_1_eventHandler.c ****     #endif /* CYBLE_LLS_SERVER */
1465:Generated_Source\PSoC4/BLE_1_eventHandler.c ****     
1466:Generated_Source\PSoC4/BLE_1_eventHandler.c ****     #ifdef CYBLE_HIDS_SERVER
1467:Generated_Source\PSoC4/BLE_1_eventHandler.c ****         CyBle_HidssOnDeviceConnected();
1468:Generated_Source\PSoC4/BLE_1_eventHandler.c ****     #endif /* CYBLE_HIDS_SERVER */
1469:Generated_Source\PSoC4/BLE_1_eventHandler.c **** 
1470:Generated_Source\PSoC4/BLE_1_eventHandler.c ****     #ifdef CYBLE_RSCS_SERVER
1471:Generated_Source\PSoC4/BLE_1_eventHandler.c ****         CyBle_RscsInit();
1472:Generated_Source\PSoC4/BLE_1_eventHandler.c ****     #endif /* CYBLE_RSCS_SERVER */
1473:Generated_Source\PSoC4/BLE_1_eventHandler.c **** }
 250              		.loc 1 1473 0
 251 0004 C046     		nop
 252 0006 BD46     		mov	sp, r7
 253              		@ sp needed
 254 0008 80BD     		pop	{r7, pc}
 255              		.cfi_endproc
 256              	.LFE6:
 257              		.size	CyBle_GattConnectReqHandler, .-CyBle_GattConnectReqHandler
 258 000a C046     		.section	.text.CyBle_IsDeviceAddressValid,"ax",%progbits
 259              		.align	2
 260              		.global	CyBle_IsDeviceAddressValid
 261              		.code	16
 262              		.thumb_func
 263              		.type	CyBle_IsDeviceAddressValid, %function
 264              	CyBle_IsDeviceAddressValid:
 265              	.LFB7:
1474:Generated_Source\PSoC4/BLE_1_eventHandler.c **** 
1475:Generated_Source\PSoC4/BLE_1_eventHandler.c **** 
1476:Generated_Source\PSoC4/BLE_1_eventHandler.c **** #if (CYBLE_GATT_ROLE_SERVER || CYBLE_GATT_ROLE_CLIENT)
1477:Generated_Source\PSoC4/BLE_1_eventHandler.c **** 
1478:Generated_Source\PSoC4/BLE_1_eventHandler.c **** /****************************************************************************** 
1479:Generated_Source\PSoC4/BLE_1_eventHandler.c **** * Function Name: CyBle_IsDeviceAddressValid
1480:Generated_Source\PSoC4/BLE_1_eventHandler.c **** ***************************************************************************//**
1481:Generated_Source\PSoC4/BLE_1_eventHandler.c **** * 
1482:Generated_Source\PSoC4/BLE_1_eventHandler.c **** *  This function verifies that BLE public address has been programmed to SFLASH 
1483:Generated_Source\PSoC4/BLE_1_eventHandler.c **** *  during manufacture. It could be used to verify if public device address is 
1484:Generated_Source\PSoC4/BLE_1_eventHandler.c **** *  programmed to flash memory.
1485:Generated_Source\PSoC4/BLE_1_eventHandler.c **** * 
1486:Generated_Source\PSoC4/BLE_1_eventHandler.c **** *  \param deviceAddress: the pointer to the BD address of type CYBLE_GAP_BD_ADDR_T. 
1487:Generated_Source\PSoC4/BLE_1_eventHandler.c **** * 
1488:Generated_Source\PSoC4/BLE_1_eventHandler.c **** * \return
1489:Generated_Source\PSoC4/BLE_1_eventHandler.c **** *  Non zero value when a device address differs from the default SFLASH content.
1490:Generated_Source\PSoC4/BLE_1_eventHandler.c **** * 
1491:Generated_Source\PSoC4/BLE_1_eventHandler.c **** ******************************************************************************/
1492:Generated_Source\PSoC4/BLE_1_eventHandler.c **** uint8 CyBle_IsDeviceAddressValid(const CYBLE_GAP_BD_ADDR_T *deviceAddress)
1493:Generated_Source\PSoC4/BLE_1_eventHandler.c **** {
 266              		.loc 1 1493 0
 267              		.cfi_startproc
 268              		@ args = 0, pretend = 0, frame = 16
 269              		@ frame_needed = 1, uses_anonymous_args = 0
 270 0000 80B5     		push	{r7, lr}
 271              		.cfi_def_cfa_offset 8
 272              		.cfi_offset 7, -8
 273              		.cfi_offset 14, -4
ARM GAS  C:\Users\ROUSSMA\AppData\Local\Temp\cc3gA5P4.s 			page 32


 274 0002 84B0     		sub	sp, sp, #16
 275              		.cfi_def_cfa_offset 24
 276 0004 00AF     		add	r7, sp, #0
 277              		.cfi_def_cfa_register 7
 278 0006 7860     		str	r0, [r7, #4]
1494:Generated_Source\PSoC4/BLE_1_eventHandler.c ****     uint8 i;
1495:Generated_Source\PSoC4/BLE_1_eventHandler.c ****     uint8 addressValid = 0u;
 279              		.loc 1 1495 0
 280 0008 0E23     		movs	r3, #14
 281 000a FB18     		adds	r3, r7, r3
 282 000c 0022     		movs	r2, #0
 283 000e 1A70     		strb	r2, [r3]
1496:Generated_Source\PSoC4/BLE_1_eventHandler.c ****     
1497:Generated_Source\PSoC4/BLE_1_eventHandler.c ****     if(deviceAddress -> type == CYBLE_GAP_ADDR_TYPE_PUBLIC)  
 284              		.loc 1 1497 0
 285 0010 7B68     		ldr	r3, [r7, #4]
 286 0012 9B79     		ldrb	r3, [r3, #6]
 287 0014 002B     		cmp	r3, #0
 288 0016 1CD1     		bne	.L14
1498:Generated_Source\PSoC4/BLE_1_eventHandler.c ****     {
1499:Generated_Source\PSoC4/BLE_1_eventHandler.c ****         for(i = 0u; i < CYBLE_GAP_BD_ADDR_SIZE; i++)
 289              		.loc 1 1499 0
 290 0018 0F23     		movs	r3, #15
 291 001a FB18     		adds	r3, r7, r3
 292 001c 0022     		movs	r2, #0
 293 001e 1A70     		strb	r2, [r3]
 294 0020 12E0     		b	.L15
 295              	.L17:
1500:Generated_Source\PSoC4/BLE_1_eventHandler.c ****         {
1501:Generated_Source\PSoC4/BLE_1_eventHandler.c ****             if(deviceAddress->bdAddr[i] != 0u)
 296              		.loc 1 1501 0
 297 0022 0F23     		movs	r3, #15
 298 0024 FB18     		adds	r3, r7, r3
 299 0026 1B78     		ldrb	r3, [r3]
 300 0028 7A68     		ldr	r2, [r7, #4]
 301 002a D35C     		ldrb	r3, [r2, r3]
 302 002c 002B     		cmp	r3, #0
 303 002e 04D0     		beq	.L16
1502:Generated_Source\PSoC4/BLE_1_eventHandler.c ****             {
1503:Generated_Source\PSoC4/BLE_1_eventHandler.c ****                 addressValid = 1u;
 304              		.loc 1 1503 0
 305 0030 0E23     		movs	r3, #14
 306 0032 FB18     		adds	r3, r7, r3
 307 0034 0122     		movs	r2, #1
 308 0036 1A70     		strb	r2, [r3]
1504:Generated_Source\PSoC4/BLE_1_eventHandler.c ****                 break;
 309              		.loc 1 1504 0
 310 0038 0BE0     		b	.L14
 311              	.L16:
1499:Generated_Source\PSoC4/BLE_1_eventHandler.c ****         {
 312              		.loc 1 1499 0 discriminator 2
 313 003a 0F23     		movs	r3, #15
 314 003c FB18     		adds	r3, r7, r3
 315 003e 1A78     		ldrb	r2, [r3]
 316 0040 0F23     		movs	r3, #15
 317 0042 FB18     		adds	r3, r7, r3
 318 0044 0132     		adds	r2, r2, #1
ARM GAS  C:\Users\ROUSSMA\AppData\Local\Temp\cc3gA5P4.s 			page 33


 319 0046 1A70     		strb	r2, [r3]
 320              	.L15:
1499:Generated_Source\PSoC4/BLE_1_eventHandler.c ****         {
 321              		.loc 1 1499 0 is_stmt 0 discriminator 1
 322 0048 0F23     		movs	r3, #15
 323 004a FB18     		adds	r3, r7, r3
 324 004c 1B78     		ldrb	r3, [r3]
 325 004e 052B     		cmp	r3, #5
 326 0050 E7D9     		bls	.L17
 327              	.L14:
1505:Generated_Source\PSoC4/BLE_1_eventHandler.c ****             }
1506:Generated_Source\PSoC4/BLE_1_eventHandler.c ****         }
1507:Generated_Source\PSoC4/BLE_1_eventHandler.c ****     }
1508:Generated_Source\PSoC4/BLE_1_eventHandler.c ****     return (addressValid);
 328              		.loc 1 1508 0 is_stmt 1
 329 0052 0E23     		movs	r3, #14
 330 0054 FB18     		adds	r3, r7, r3
 331 0056 1B78     		ldrb	r3, [r3]
1509:Generated_Source\PSoC4/BLE_1_eventHandler.c **** }
 332              		.loc 1 1509 0
 333 0058 1800     		movs	r0, r3
 334 005a BD46     		mov	sp, r7
 335 005c 04B0     		add	sp, sp, #16
 336              		@ sp needed
 337 005e 80BD     		pop	{r7, pc}
 338              		.cfi_endproc
 339              	.LFE7:
 340              		.size	CyBle_IsDeviceAddressValid, .-CyBle_IsDeviceAddressValid
 341              		.section	.text.CyBle_L2Cap_ConnParamUpdateRspEventHandler,"ax",%progbits
 342              		.align	2
 343              		.code	16
 344              		.thumb_func
 345              		.type	CyBle_L2Cap_ConnParamUpdateRspEventHandler, %function
 346              	CyBle_L2Cap_ConnParamUpdateRspEventHandler:
 347              	.LFB8:
1510:Generated_Source\PSoC4/BLE_1_eventHandler.c **** #endif /* CYBLE_GATT_ROLE_SERVER || CYBLE_GATT_ROLE_CLIENT */
1511:Generated_Source\PSoC4/BLE_1_eventHandler.c **** 
1512:Generated_Source\PSoC4/BLE_1_eventHandler.c **** 
1513:Generated_Source\PSoC4/BLE_1_eventHandler.c **** /****************************************************************************** 
1514:Generated_Source\PSoC4/BLE_1_eventHandler.c **** * Function Name: CyBle_L2Cap_ConnParamUpdateRspHandler
1515:Generated_Source\PSoC4/BLE_1_eventHandler.c **** ***************************************************************************//**
1516:Generated_Source\PSoC4/BLE_1_eventHandler.c **** * 
1517:Generated_Source\PSoC4/BLE_1_eventHandler.c **** *  Handles the L2CAP connection parameter response event from
1518:Generated_Source\PSoC4/BLE_1_eventHandler.c **** *  the BLE stack.
1519:Generated_Source\PSoC4/BLE_1_eventHandler.c **** * 
1520:Generated_Source\PSoC4/BLE_1_eventHandler.c **** *  \param response:
1521:Generated_Source\PSoC4/BLE_1_eventHandler.c **** *      * Accepted = 0x0000
1522:Generated_Source\PSoC4/BLE_1_eventHandler.c **** *      * Rejected = 0x0001
1523:Generated_Source\PSoC4/BLE_1_eventHandler.c **** * 
1524:Generated_Source\PSoC4/BLE_1_eventHandler.c **** * \return
1525:Generated_Source\PSoC4/BLE_1_eventHandler.c **** *  None
1526:Generated_Source\PSoC4/BLE_1_eventHandler.c **** * 
1527:Generated_Source\PSoC4/BLE_1_eventHandler.c **** ******************************************************************************/
1528:Generated_Source\PSoC4/BLE_1_eventHandler.c **** static void CyBle_L2Cap_ConnParamUpdateRspEventHandler(uint16 response)
1529:Generated_Source\PSoC4/BLE_1_eventHandler.c **** {
 348              		.loc 1 1529 0
 349              		.cfi_startproc
ARM GAS  C:\Users\ROUSSMA\AppData\Local\Temp\cc3gA5P4.s 			page 34


 350              		@ args = 0, pretend = 0, frame = 8
 351              		@ frame_needed = 1, uses_anonymous_args = 0
 352 0000 80B5     		push	{r7, lr}
 353              		.cfi_def_cfa_offset 8
 354              		.cfi_offset 7, -8
 355              		.cfi_offset 14, -4
 356 0002 82B0     		sub	sp, sp, #8
 357              		.cfi_def_cfa_offset 16
 358 0004 00AF     		add	r7, sp, #0
 359              		.cfi_def_cfa_register 7
 360 0006 0200     		movs	r2, r0
 361 0008 BB1D     		adds	r3, r7, #6
 362 000a 1A80     		strh	r2, [r3]
1530:Generated_Source\PSoC4/BLE_1_eventHandler.c ****     #ifdef CYBLE_CPS_SERVER
1531:Generated_Source\PSoC4/BLE_1_eventHandler.c ****         CyBle_CpssConnParamUpdateRspEventHandler(response);
1532:Generated_Source\PSoC4/BLE_1_eventHandler.c ****     #endif /* CYBLE_CPS_SERVER */
1533:Generated_Source\PSoC4/BLE_1_eventHandler.c ****     
1534:Generated_Source\PSoC4/BLE_1_eventHandler.c ****     /* Unreferenced variable warning workaround */
1535:Generated_Source\PSoC4/BLE_1_eventHandler.c ****     if(response != 0u)
1536:Generated_Source\PSoC4/BLE_1_eventHandler.c ****     {
1537:Generated_Source\PSoC4/BLE_1_eventHandler.c ****     }
1538:Generated_Source\PSoC4/BLE_1_eventHandler.c **** }
 363              		.loc 1 1538 0
 364 000c C046     		nop
 365 000e BD46     		mov	sp, r7
 366 0010 02B0     		add	sp, sp, #8
 367              		@ sp needed
 368 0012 80BD     		pop	{r7, pc}
 369              		.cfi_endproc
 370              	.LFE8:
 371              		.size	CyBle_L2Cap_ConnParamUpdateRspEventHandler, .-CyBle_L2Cap_ConnParamUpdateRspEventHandler
 372              		.section	.text.CyBle_GapConnUpdateCompleteEventHandler,"ax",%progbits
 373              		.align	2
 374              		.code	16
 375              		.thumb_func
 376              		.type	CyBle_GapConnUpdateCompleteEventHandler, %function
 377              	CyBle_GapConnUpdateCompleteEventHandler:
 378              	.LFB9:
1539:Generated_Source\PSoC4/BLE_1_eventHandler.c **** 
1540:Generated_Source\PSoC4/BLE_1_eventHandler.c **** 
1541:Generated_Source\PSoC4/BLE_1_eventHandler.c **** /****************************************************************************** 
1542:Generated_Source\PSoC4/BLE_1_eventHandler.c **** * Function Name: CyBle_GapConnUpdateCompleteEventHandler
1543:Generated_Source\PSoC4/BLE_1_eventHandler.c **** ***************************************************************************//**
1544:Generated_Source\PSoC4/BLE_1_eventHandler.c **** * 
1545:Generated_Source\PSoC4/BLE_1_eventHandler.c **** *  Handles the CYBLE_EVT_GAP_CONNECTION_UPDATE_COMPLETE event from
1546:Generated_Source\PSoC4/BLE_1_eventHandler.c **** *  the BLE stack.
1547:Generated_Source\PSoC4/BLE_1_eventHandler.c **** * 
1548:Generated_Source\PSoC4/BLE_1_eventHandler.c **** *  \param eventParam: The pointer to the data structure specified by the event.
1549:Generated_Source\PSoC4/BLE_1_eventHandler.c **** * 
1550:Generated_Source\PSoC4/BLE_1_eventHandler.c **** * \return
1551:Generated_Source\PSoC4/BLE_1_eventHandler.c **** *  None
1552:Generated_Source\PSoC4/BLE_1_eventHandler.c **** * 
1553:Generated_Source\PSoC4/BLE_1_eventHandler.c **** ******************************************************************************/
1554:Generated_Source\PSoC4/BLE_1_eventHandler.c **** static void CyBle_GapConnUpdateCompleteEventHandler(const CYBLE_GAP_CONN_PARAM_UPDATED_IN_CONTROLLE
1555:Generated_Source\PSoC4/BLE_1_eventHandler.c **** {
 379              		.loc 1 1555 0
 380              		.cfi_startproc
ARM GAS  C:\Users\ROUSSMA\AppData\Local\Temp\cc3gA5P4.s 			page 35


 381              		@ args = 0, pretend = 0, frame = 8
 382              		@ frame_needed = 1, uses_anonymous_args = 0
 383 0000 80B5     		push	{r7, lr}
 384              		.cfi_def_cfa_offset 8
 385              		.cfi_offset 7, -8
 386              		.cfi_offset 14, -4
 387 0002 82B0     		sub	sp, sp, #8
 388              		.cfi_def_cfa_offset 16
 389 0004 00AF     		add	r7, sp, #0
 390              		.cfi_def_cfa_register 7
 391 0006 7860     		str	r0, [r7, #4]
1556:Generated_Source\PSoC4/BLE_1_eventHandler.c ****     #ifdef CYBLE_CPS_SERVER
1557:Generated_Source\PSoC4/BLE_1_eventHandler.c ****         CyBle_CpssConnUpdateCompleteEventHandler(eventParam);
1558:Generated_Source\PSoC4/BLE_1_eventHandler.c ****     #endif /* CYBLE_CPS_SERVER */
1559:Generated_Source\PSoC4/BLE_1_eventHandler.c ****     
1560:Generated_Source\PSoC4/BLE_1_eventHandler.c ****     /* Unreferenced variable warning workaround */
1561:Generated_Source\PSoC4/BLE_1_eventHandler.c ****     if(eventParam != 0u)
1562:Generated_Source\PSoC4/BLE_1_eventHandler.c ****     {
1563:Generated_Source\PSoC4/BLE_1_eventHandler.c ****     }
1564:Generated_Source\PSoC4/BLE_1_eventHandler.c **** }
 392              		.loc 1 1564 0
 393 0008 C046     		nop
 394 000a BD46     		mov	sp, r7
 395 000c 02B0     		add	sp, sp, #8
 396              		@ sp needed
 397 000e 80BD     		pop	{r7, pc}
 398              		.cfi_endproc
 399              	.LFE9:
 400              		.size	CyBle_GapConnUpdateCompleteEventHandler, .-CyBle_GapConnUpdateCompleteEventHandler
 401              		.section	.rodata
 402              		.align	2
 403              	.LC0:
 404 000c 3F       		.byte	63
 405 000d 06       		.byte	6
 406              		.section	.text.CyBle_EventHandler,"ax",%progbits
 407              		.align	2
 408              		.global	CyBle_EventHandler
 409              		.code	16
 410              		.thumb_func
 411              		.type	CyBle_EventHandler, %function
 412              	CyBle_EventHandler:
 413              	.LFB10:
1565:Generated_Source\PSoC4/BLE_1_eventHandler.c **** 
1566:Generated_Source\PSoC4/BLE_1_eventHandler.c **** 
1567:Generated_Source\PSoC4/BLE_1_eventHandler.c **** /****************************************************************************** 
1568:Generated_Source\PSoC4/BLE_1_eventHandler.c **** * Function Name: CyBle_EventHandler
1569:Generated_Source\PSoC4/BLE_1_eventHandler.c **** ***************************************************************************//**
1570:Generated_Source\PSoC4/BLE_1_eventHandler.c **** * 
1571:Generated_Source\PSoC4/BLE_1_eventHandler.c **** *  Handles the events from the BLE stack
1572:Generated_Source\PSoC4/BLE_1_eventHandler.c **** * 
1573:Generated_Source\PSoC4/BLE_1_eventHandler.c **** *  \param eventCode:    the event code
1574:Generated_Source\PSoC4/BLE_1_eventHandler.c **** *  \param eventParam:  the event parameters
1575:Generated_Source\PSoC4/BLE_1_eventHandler.c **** * 
1576:Generated_Source\PSoC4/BLE_1_eventHandler.c **** * \return
1577:Generated_Source\PSoC4/BLE_1_eventHandler.c **** *  None.
1578:Generated_Source\PSoC4/BLE_1_eventHandler.c **** * 
1579:Generated_Source\PSoC4/BLE_1_eventHandler.c **** ******************************************************************************/
ARM GAS  C:\Users\ROUSSMA\AppData\Local\Temp\cc3gA5P4.s 			page 36


1580:Generated_Source\PSoC4/BLE_1_eventHandler.c **** void CyBle_EventHandler(uint8 eventCode, void *eventParam)
1581:Generated_Source\PSoC4/BLE_1_eventHandler.c **** {
 414              		.loc 1 1581 0
 415              		.cfi_startproc
 416              		@ args = 0, pretend = 0, frame = 48
 417              		@ frame_needed = 1, uses_anonymous_args = 0
 418 0000 80B5     		push	{r7, lr}
 419              		.cfi_def_cfa_offset 8
 420              		.cfi_offset 7, -8
 421              		.cfi_offset 14, -4
 422 0002 8CB0     		sub	sp, sp, #48
 423              		.cfi_def_cfa_offset 56
 424 0004 00AF     		add	r7, sp, #0
 425              		.cfi_def_cfa_register 7
 426 0006 0200     		movs	r2, r0
 427 0008 3960     		str	r1, [r7]
 428 000a FB1D     		adds	r3, r7, #7
 429 000c 1A70     		strb	r2, [r3]
1582:Generated_Source\PSoC4/BLE_1_eventHandler.c ****     cyBle_eventHandlerFlag |= CYBLE_CALLBACK;
 430              		.loc 1 1582 0
 431 000e D64B     		ldr	r3, .L65
 432 0010 1B78     		ldrb	r3, [r3]
 433 0012 DBB2     		uxtb	r3, r3
 434 0014 0122     		movs	r2, #1
 435 0016 1343     		orrs	r3, r2
 436 0018 DAB2     		uxtb	r2, r3
 437 001a D34B     		ldr	r3, .L65
 438 001c 1A70     		strb	r2, [r3]
1583:Generated_Source\PSoC4/BLE_1_eventHandler.c **** 
1584:Generated_Source\PSoC4/BLE_1_eventHandler.c ****     /* Common Profile event handling */
1585:Generated_Source\PSoC4/BLE_1_eventHandler.c ****     switch(eventCode)
 439              		.loc 1 1585 0
 440 001e FB1D     		adds	r3, r7, #7
 441 0020 1B78     		ldrb	r3, [r3]
 442 0022 712B     		cmp	r3, #113
 443 0024 00D9     		bls	.LCB332
 444 0026 99E1     		b	.L60	@long jump
 445              	.LCB332:
 446 0028 9A00     		lsls	r2, r3, #2
 447 002a D04B     		ldr	r3, .L65+4
 448 002c D318     		adds	r3, r2, r3
 449 002e 1B68     		ldr	r3, [r3]
 450 0030 9F46     		mov	pc, r3
 451              		.section	.rodata
 452 000e 0000     		.align	2
 453              	.L24:
 454 0010 5C030000 		.word	.L60
 455 0014 32000000 		.word	.L23
 456 0018 3A010000 		.word	.L25
 457 001c 5C030000 		.word	.L60
 458 0020 5C030000 		.word	.L60
 459 0024 44010000 		.word	.L26
 460 0028 4E010000 		.word	.L27
 461 002c 5C030000 		.word	.L60
 462 0030 5C030000 		.word	.L60
 463 0034 5C030000 		.word	.L60
 464 0038 5C030000 		.word	.L60
ARM GAS  C:\Users\ROUSSMA\AppData\Local\Temp\cc3gA5P4.s 			page 37


 465 003c 5C030000 		.word	.L60
 466 0040 5C030000 		.word	.L60
 467 0044 5C030000 		.word	.L60
 468 0048 5C030000 		.word	.L60
 469 004c 5C030000 		.word	.L60
 470 0050 5C030000 		.word	.L60
 471 0054 5C030000 		.word	.L60
 472 0058 5C030000 		.word	.L60
 473 005c 5C030000 		.word	.L60
 474 0060 5C030000 		.word	.L60
 475 0064 5C030000 		.word	.L60
 476 0068 5C030000 		.word	.L60
 477 006c 5C030000 		.word	.L60
 478 0070 5C030000 		.word	.L60
 479 0074 5C030000 		.word	.L60
 480 0078 5C030000 		.word	.L60
 481 007c 5C030000 		.word	.L60
 482 0080 5C030000 		.word	.L60
 483 0084 5C030000 		.word	.L60
 484 0088 5C030000 		.word	.L60
 485 008c 5C030000 		.word	.L60
 486 0090 5C030000 		.word	.L60
 487 0094 8E010000 		.word	.L28
 488 0098 5C030000 		.word	.L60
 489 009c 5C030000 		.word	.L60
 490 00a0 5C030000 		.word	.L60
 491 00a4 5C030000 		.word	.L60
 492 00a8 4E020000 		.word	.L30
 493 00ac 36020000 		.word	.L31
 494 00b0 46020000 		.word	.L32
 495 00b4 5C030000 		.word	.L60
 496 00b8 EE010000 		.word	.L33
 497 00bc 5C030000 		.word	.L60
 498 00c0 5C030000 		.word	.L60
 499 00c4 5C030000 		.word	.L60
 500 00c8 5C030000 		.word	.L60
 501 00cc 5C030000 		.word	.L60
 502 00d0 5C030000 		.word	.L60
 503 00d4 F8010000 		.word	.L34
 504 00d8 5C030000 		.word	.L60
 505 00dc 5C030000 		.word	.L60
 506 00e0 5C030000 		.word	.L60
 507 00e4 5C030000 		.word	.L60
 508 00e8 5C030000 		.word	.L60
 509 00ec 5C030000 		.word	.L60
 510 00f0 5C030000 		.word	.L60
 511 00f4 5C030000 		.word	.L60
 512 00f8 5C030000 		.word	.L60
 513 00fc 5C030000 		.word	.L60
 514 0100 5C030000 		.word	.L60
 515 0104 5C030000 		.word	.L60
 516 0108 5C030000 		.word	.L60
 517 010c 5C030000 		.word	.L60
 518 0110 5C030000 		.word	.L60
 519 0114 EC020000 		.word	.L35
 520 0118 08030000 		.word	.L36
 521 011c 0E030000 		.word	.L37
ARM GAS  C:\Users\ROUSSMA\AppData\Local\Temp\cc3gA5P4.s 			page 38


 522 0120 5C030000 		.word	.L60
 523 0124 5C030000 		.word	.L60
 524 0128 5C030000 		.word	.L60
 525 012c 5C030000 		.word	.L60
 526 0130 5C030000 		.word	.L60
 527 0134 5C030000 		.word	.L60
 528 0138 5C030000 		.word	.L60
 529 013c 5C030000 		.word	.L60
 530 0140 48030000 		.word	.L38
 531 0144 5C030000 		.word	.L60
 532 0148 5C030000 		.word	.L60
 533 014c 5C030000 		.word	.L60
 534 0150 5C030000 		.word	.L60
 535 0154 5C030000 		.word	.L60
 536 0158 5C030000 		.word	.L60
 537 015c 5C030000 		.word	.L60
 538 0160 52030000 		.word	.L42
 539 0164 5C030000 		.word	.L60
 540 0168 5C030000 		.word	.L60
 541 016c 5C030000 		.word	.L60
 542 0170 5C030000 		.word	.L60
 543 0174 5C030000 		.word	.L60
 544 0178 5C030000 		.word	.L60
 545 017c 5C030000 		.word	.L60
 546 0180 5C030000 		.word	.L60
 547 0184 5C030000 		.word	.L60
 548 0188 5C030000 		.word	.L60
 549 018c 5C030000 		.word	.L60
 550 0190 5C030000 		.word	.L60
 551 0194 5C030000 		.word	.L60
 552 0198 5C030000 		.word	.L60
 553 019c 5C030000 		.word	.L60
 554 01a0 5C030000 		.word	.L60
 555 01a4 5C030000 		.word	.L60
 556 01a8 5C030000 		.word	.L60
 557 01ac 5C030000 		.word	.L60
 558 01b0 5C030000 		.word	.L60
 559 01b4 5C030000 		.word	.L60
 560 01b8 5C030000 		.word	.L60
 561 01bc 5C030000 		.word	.L60
 562 01c0 5C030000 		.word	.L60
 563 01c4 5C030000 		.word	.L60
 564 01c8 5C030000 		.word	.L60
 565 01cc 5C030000 		.word	.L60
 566 01d0 5C030000 		.word	.L60
 567 01d4 E0020000 		.word	.L44
 568              		.section	.text.CyBle_EventHandler
 569              	.L23:
 570              	.LBB3:
1586:Generated_Source\PSoC4/BLE_1_eventHandler.c ****     {
1587:Generated_Source\PSoC4/BLE_1_eventHandler.c ****         /**********************************************************
1588:Generated_Source\PSoC4/BLE_1_eventHandler.c ****         * General events
1589:Generated_Source\PSoC4/BLE_1_eventHandler.c ****         ************************************************************/
1590:Generated_Source\PSoC4/BLE_1_eventHandler.c ****         case CYBLE_EVT_STACK_ON:
1591:Generated_Source\PSoC4/BLE_1_eventHandler.c ****         #if(CYBLE_MODE_PROFILE)
1592:Generated_Source\PSoC4/BLE_1_eventHandler.c ****         {
1593:Generated_Source\PSoC4/BLE_1_eventHandler.c ****             CYBLE_BLESS_PWR_IN_DB_T bleSsPowerLevel;
ARM GAS  C:\Users\ROUSSMA\AppData\Local\Temp\cc3gA5P4.s 			page 39


1594:Generated_Source\PSoC4/BLE_1_eventHandler.c ****             
1595:Generated_Source\PSoC4/BLE_1_eventHandler.c ****             /* Set Tx Power Level for advertising and connection channels */
1596:Generated_Source\PSoC4/BLE_1_eventHandler.c ****             bleSsPowerLevel.blePwrLevelInDbm = CYBLE_TX_POWER_LEVEL_ADV;
 571              		.loc 1 1596 0
 572 0032 1C23     		movs	r3, #28
 573 0034 FB18     		adds	r3, r7, r3
 574 0036 0722     		movs	r2, #7
 575 0038 1A70     		strb	r2, [r3]
1597:Generated_Source\PSoC4/BLE_1_eventHandler.c ****             bleSsPowerLevel.bleSsChId = CYBLE_LL_ADV_CH_TYPE;
 576              		.loc 1 1597 0
 577 003a 1C23     		movs	r3, #28
 578 003c FB18     		adds	r3, r7, r3
 579 003e 0022     		movs	r2, #0
 580 0040 5A70     		strb	r2, [r3, #1]
1598:Generated_Source\PSoC4/BLE_1_eventHandler.c ****             (void) CyBle_SetTxPowerLevel (&bleSsPowerLevel);
 581              		.loc 1 1598 0
 582 0042 1C23     		movs	r3, #28
 583 0044 FB18     		adds	r3, r7, r3
 584 0046 1800     		movs	r0, r3
 585 0048 FFF7FEFF 		bl	CyBle_SetTxPowerLevel
1599:Generated_Source\PSoC4/BLE_1_eventHandler.c ****             bleSsPowerLevel.blePwrLevelInDbm = CYBLE_TX_POWER_LEVEL_CONN;
 586              		.loc 1 1599 0
 587 004c 1C23     		movs	r3, #28
 588 004e FB18     		adds	r3, r7, r3
 589 0050 0722     		movs	r2, #7
 590 0052 1A70     		strb	r2, [r3]
1600:Generated_Source\PSoC4/BLE_1_eventHandler.c ****             bleSsPowerLevel.bleSsChId = CYBLE_LL_CONN_CH_TYPE;
 591              		.loc 1 1600 0
 592 0054 1C23     		movs	r3, #28
 593 0056 FB18     		adds	r3, r7, r3
 594 0058 0122     		movs	r2, #1
 595 005a 5A70     		strb	r2, [r3, #1]
1601:Generated_Source\PSoC4/BLE_1_eventHandler.c ****             (void) CyBle_SetTxPowerLevel (&bleSsPowerLevel);
 596              		.loc 1 1601 0
 597 005c 1C23     		movs	r3, #28
 598 005e FB18     		adds	r3, r7, r3
 599 0060 1800     		movs	r0, r3
 600 0062 FFF7FEFF 		bl	CyBle_SetTxPowerLevel
1602:Generated_Source\PSoC4/BLE_1_eventHandler.c ****             
1603:Generated_Source\PSoC4/BLE_1_eventHandler.c ****             #if (CYBLE_GATT_ROLE_SERVER)
1604:Generated_Source\PSoC4/BLE_1_eventHandler.c ****                 /* As per Privacy Errata a call to CyBle_EnableDefaultDevicePrivacy() is
1605:Generated_Source\PSoC4/BLE_1_eventHandler.c ****                   required to set a device to use device privacy instead of network privacy
1606:Generated_Source\PSoC4/BLE_1_eventHandler.c ****                   that is enabled by default starting from BLE Stack 3.3.
1607:Generated_Source\PSoC4/BLE_1_eventHandler.c ****                 */
1608:Generated_Source\PSoC4/BLE_1_eventHandler.c ****                 if(cyBle_gaps.rpaOnlyCharHandle != CYBLE_GATT_INVALID_ATTR_HANDLE_VALUE)
 601              		.loc 1 1608 0
 602 0066 0B23     		movs	r3, #11
 603 0068 002B     		cmp	r3, #0
 604 006a 01D0     		beq	.L45
1609:Generated_Source\PSoC4/BLE_1_eventHandler.c ****                 {
1610:Generated_Source\PSoC4/BLE_1_eventHandler.c ****                     CyBle_EnableDefaultDevicePrivacy();
 605              		.loc 1 1610 0
 606 006c FFF7FEFF 		bl	CyBle_EnableDefaultDevicePrivacy
 607              	.L45:
 608              	.LBE3:
1611:Generated_Source\PSoC4/BLE_1_eventHandler.c ****                 }
1612:Generated_Source\PSoC4/BLE_1_eventHandler.c ****             #endif /* (CYBLE_GATT_ROLE_SERVER) */
ARM GAS  C:\Users\ROUSSMA\AppData\Local\Temp\cc3gA5P4.s 			page 40


1613:Generated_Source\PSoC4/BLE_1_eventHandler.c ****             
1614:Generated_Source\PSoC4/BLE_1_eventHandler.c ****             #if (CYBLE_STRICT_PAIRING_ENABLED)
1615:Generated_Source\PSoC4/BLE_1_eventHandler.c ****                 (void) CyBle_GapSetSecurityRequirements(CYBLE_STRICT_PAIRING_REQ_VALUE, CYBLE_SECUR
1616:Generated_Source\PSoC4/BLE_1_eventHandler.c ****             #endif /* (CYBLE_STRICT_PAIRING_ENABLED) */
1617:Generated_Source\PSoC4/BLE_1_eventHandler.c ****             
1618:Generated_Source\PSoC4/BLE_1_eventHandler.c ****         }
1619:Generated_Source\PSoC4/BLE_1_eventHandler.c ****         #endif /* CYBLE_MODE_PROFILE */
1620:Generated_Source\PSoC4/BLE_1_eventHandler.c ****         #if (CYBLE_GATT_ROLE_SERVER || CYBLE_GATT_ROLE_CLIENT)
1621:Generated_Source\PSoC4/BLE_1_eventHandler.c ****             /* Set device Address  */
1622:Generated_Source\PSoC4/BLE_1_eventHandler.c ****             if(CyBle_IsDeviceAddressValid(cyBle_sflashDeviceAddress) != 0u)
 609              		.loc 1 1622 0
 610 0070 BF4B     		ldr	r3, .L65+8
 611 0072 1B68     		ldr	r3, [r3]
 612 0074 1800     		movs	r0, r3
 613 0076 FFF7FEFF 		bl	CyBle_IsDeviceAddressValid
 614 007a 031E     		subs	r3, r0, #0
 615 007c 11D0     		beq	.L46
1623:Generated_Source\PSoC4/BLE_1_eventHandler.c ****             {
1624:Generated_Source\PSoC4/BLE_1_eventHandler.c ****                 (void) CyBle_SetDeviceAddress(cyBle_sflashDeviceAddress);
 616              		.loc 1 1624 0
 617 007e BC4B     		ldr	r3, .L65+8
 618 0080 1B68     		ldr	r3, [r3]
 619 0082 1800     		movs	r0, r3
 620 0084 FFF7FEFF 		bl	CyBle_SetDeviceAddress
1625:Generated_Source\PSoC4/BLE_1_eventHandler.c ****                 #if(CYBLE_GAP_ROLE_PERIPHERAL || CYBLE_GAP_ROLE_BROADCASTER)
1626:Generated_Source\PSoC4/BLE_1_eventHandler.c ****                     CyBle_ChangeAdDeviceAddress(cyBle_sflashDeviceAddress, 0u);
 621              		.loc 1 1626 0
 622 0088 B94B     		ldr	r3, .L65+8
 623 008a 1B68     		ldr	r3, [r3]
 624 008c 0021     		movs	r1, #0
 625 008e 1800     		movs	r0, r3
 626 0090 FFF7FEFF 		bl	CyBle_ChangeAdDeviceAddress
1627:Generated_Source\PSoC4/BLE_1_eventHandler.c ****                     CyBle_ChangeAdDeviceAddress(cyBle_sflashDeviceAddress, 1u);
 627              		.loc 1 1627 0
 628 0094 B64B     		ldr	r3, .L65+8
 629 0096 1B68     		ldr	r3, [r3]
 630 0098 0121     		movs	r1, #1
 631 009a 1800     		movs	r0, r3
 632 009c FFF7FEFF 		bl	CyBle_ChangeAdDeviceAddress
 633 00a0 36E0     		b	.L47
 634              	.L46:
 635              	.LBB4:
1628:Generated_Source\PSoC4/BLE_1_eventHandler.c ****                 #endif /* CYBLE_GAP_ROLE_PERIPHERAL || CYBLE_GAP_ROLE_BROADCASTER */    
1629:Generated_Source\PSoC4/BLE_1_eventHandler.c ****             }
1630:Generated_Source\PSoC4/BLE_1_eventHandler.c ****             else
1631:Generated_Source\PSoC4/BLE_1_eventHandler.c ****             {
1632:Generated_Source\PSoC4/BLE_1_eventHandler.c ****             #if (SILICON_GENERATED_DEVICE_ADDRESS != 0u)
1633:Generated_Source\PSoC4/BLE_1_eventHandler.c ****             {
1634:Generated_Source\PSoC4/BLE_1_eventHandler.c ****                 uint32 bdAddrLoc;
1635:Generated_Source\PSoC4/BLE_1_eventHandler.c ****                 bdAddrLoc = (CYBLE_SFLASH_DIE_X_REG & CYBLE_SFLASH_DIE_X_MASK) |
 636              		.loc 1 1635 0
 637 00a2 B44B     		ldr	r3, .L65+12
 638 00a4 1B78     		ldrb	r3, [r3]
 639 00a6 1A00     		movs	r2, r3
 640 00a8 3F23     		movs	r3, #63
 641 00aa 1A40     		ands	r2, r3
1636:Generated_Source\PSoC4/BLE_1_eventHandler.c ****                     ((uint32)(((uint32)CYBLE_SFLASH_DIE_Y_REG) & ((uint32)CYBLE_SFLASH_DIE_Y_MASK))
ARM GAS  C:\Users\ROUSSMA\AppData\Local\Temp\cc3gA5P4.s 			page 41


 642              		.loc 1 1636 0
 643 00ac B24B     		ldr	r3, .L65+16
 644 00ae 1B78     		ldrb	r3, [r3]
 645 00b0 9901     		lsls	r1, r3, #6
 646 00b2 FC23     		movs	r3, #252
 647 00b4 1B01     		lsls	r3, r3, #4
 648 00b6 0B40     		ands	r3, r1
1635:Generated_Source\PSoC4/BLE_1_eventHandler.c ****                     ((uint32)(((uint32)CYBLE_SFLASH_DIE_Y_REG) & ((uint32)CYBLE_SFLASH_DIE_Y_MASK))
 649              		.loc 1 1635 0
 650 00b8 1A43     		orrs	r2, r3
1637:Generated_Source\PSoC4/BLE_1_eventHandler.c ****                         CYBLE_SFLASH_DIE_X_BITS) |
1638:Generated_Source\PSoC4/BLE_1_eventHandler.c ****                     ((uint32)(((uint32)CYBLE_SFLASH_DIE_WAFER_REG) & ((uint32)CYBLE_SFLASH_DIE_WAFE
 651              		.loc 1 1638 0
 652 00ba B04B     		ldr	r3, .L65+20
 653 00bc 1B78     		ldrb	r3, [r3]
 654 00be 1903     		lsls	r1, r3, #12
 655 00c0 F823     		movs	r3, #248
 656 00c2 5B02     		lsls	r3, r3, #9
 657 00c4 0B40     		ands	r3, r1
1637:Generated_Source\PSoC4/BLE_1_eventHandler.c ****                         CYBLE_SFLASH_DIE_X_BITS) |
 658              		.loc 1 1637 0
 659 00c6 1A43     		orrs	r2, r3
1639:Generated_Source\PSoC4/BLE_1_eventHandler.c ****                         CYBLE_SFLASH_DIE_XY_BITS) |
1640:Generated_Source\PSoC4/BLE_1_eventHandler.c ****                     ((uint32)(((uint32)CYBLE_SFLASH_DIE_LOT_REG) & ((uint32)CYBLE_SFLASH_DIE_LOT_MA
 660              		.loc 1 1640 0
 661 00c8 AD4B     		ldr	r3, .L65+24
 662 00ca 1B78     		ldrb	r3, [r3]
 663 00cc 5904     		lsls	r1, r3, #17
 664 00ce FE23     		movs	r3, #254
 665 00d0 1B04     		lsls	r3, r3, #16
 666 00d2 0B40     		ands	r3, r1
1635:Generated_Source\PSoC4/BLE_1_eventHandler.c ****                     ((uint32)(((uint32)CYBLE_SFLASH_DIE_Y_REG) & ((uint32)CYBLE_SFLASH_DIE_Y_MASK))
 667              		.loc 1 1635 0
 668 00d4 1343     		orrs	r3, r2
 669 00d6 BB62     		str	r3, [r7, #40]
1641:Generated_Source\PSoC4/BLE_1_eventHandler.c ****                         CYBLE_SFLASH_DIE_XYWAFER_BITS);
1642:Generated_Source\PSoC4/BLE_1_eventHandler.c ****                             
1643:Generated_Source\PSoC4/BLE_1_eventHandler.c ****                 cyBle_deviceAddress.bdAddr[0] = (uint8)bdAddrLoc;
 670              		.loc 1 1643 0
 671 00d8 BB6A     		ldr	r3, [r7, #40]
 672 00da DAB2     		uxtb	r2, r3
 673 00dc A94B     		ldr	r3, .L65+28
 674 00de 1A70     		strb	r2, [r3]
1644:Generated_Source\PSoC4/BLE_1_eventHandler.c ****                 cyBle_deviceAddress.bdAddr[1] = (uint8)(bdAddrLoc >> 8u);
 675              		.loc 1 1644 0
 676 00e0 BB6A     		ldr	r3, [r7, #40]
 677 00e2 1B0A     		lsrs	r3, r3, #8
 678 00e4 DAB2     		uxtb	r2, r3
 679 00e6 A74B     		ldr	r3, .L65+28
 680 00e8 5A70     		strb	r2, [r3, #1]
1645:Generated_Source\PSoC4/BLE_1_eventHandler.c ****                 cyBle_deviceAddress.bdAddr[2] = (uint8)(bdAddrLoc >> 16u);
 681              		.loc 1 1645 0
 682 00ea BB6A     		ldr	r3, [r7, #40]
 683 00ec 1B0C     		lsrs	r3, r3, #16
 684 00ee DAB2     		uxtb	r2, r3
 685 00f0 A44B     		ldr	r3, .L65+28
 686 00f2 9A70     		strb	r2, [r3, #2]
ARM GAS  C:\Users\ROUSSMA\AppData\Local\Temp\cc3gA5P4.s 			page 42


 687              	.LBE4:
1646:Generated_Source\PSoC4/BLE_1_eventHandler.c ****             }
1647:Generated_Source\PSoC4/BLE_1_eventHandler.c ****             #endif /* SILICON_GENERATED_DEVICE_ADDRESS != 0u */
1648:Generated_Source\PSoC4/BLE_1_eventHandler.c ****                 (void) CyBle_SetDeviceAddress(&cyBle_deviceAddress);
 688              		.loc 1 1648 0
 689 00f4 A34B     		ldr	r3, .L65+28
 690 00f6 1800     		movs	r0, r3
 691 00f8 FFF7FEFF 		bl	CyBle_SetDeviceAddress
1649:Generated_Source\PSoC4/BLE_1_eventHandler.c ****                 #if(CYBLE_GAP_ROLE_PERIPHERAL || CYBLE_GAP_ROLE_BROADCASTER)
1650:Generated_Source\PSoC4/BLE_1_eventHandler.c ****                     CyBle_ChangeAdDeviceAddress(&cyBle_deviceAddress, 0u);
 692              		.loc 1 1650 0
 693 00fc A14B     		ldr	r3, .L65+28
 694 00fe 0021     		movs	r1, #0
 695 0100 1800     		movs	r0, r3
 696 0102 FFF7FEFF 		bl	CyBle_ChangeAdDeviceAddress
1651:Generated_Source\PSoC4/BLE_1_eventHandler.c ****                     CyBle_ChangeAdDeviceAddress(&cyBle_deviceAddress, 1u);
 697              		.loc 1 1651 0
 698 0106 9F4B     		ldr	r3, .L65+28
 699 0108 0121     		movs	r1, #1
 700 010a 1800     		movs	r0, r3
 701 010c FFF7FEFF 		bl	CyBle_ChangeAdDeviceAddress
 702              	.L47:
1652:Generated_Source\PSoC4/BLE_1_eventHandler.c ****                 #endif /* CYBLE_GAP_ROLE_PERIPHERAL || CYBLE_GAP_ROLE_BROADCASTER */    
1653:Generated_Source\PSoC4/BLE_1_eventHandler.c ****             }
1654:Generated_Source\PSoC4/BLE_1_eventHandler.c ****             /* Set device IO Capability  */
1655:Generated_Source\PSoC4/BLE_1_eventHandler.c ****             (void) CyBle_GapSetIoCap(CYBLE_IO_CAPABILITY);    
 703              		.loc 1 1655 0
 704 0110 0320     		movs	r0, #3
 705 0112 FFF7FEFF 		bl	CyBle_GapSetIoCap
 706              	.LBB5:
1656:Generated_Source\PSoC4/BLE_1_eventHandler.c ****             {
1657:Generated_Source\PSoC4/BLE_1_eventHandler.c ****                 /* Enable all 4.1 events and configured 4.2 events */
1658:Generated_Source\PSoC4/BLE_1_eventHandler.c ****                 uint8 leMask[CYBLE_LE_MASK_LENGTH] = {LO8(CYBLE_LE_MASK), HI8(CYBLE_LE_MASK)};
 707              		.loc 1 1658 0
 708 0116 1823     		movs	r3, #24
 709 0118 FA18     		adds	r2, r7, r3
 710 011a 9B4B     		ldr	r3, .L65+32
 711 011c 1000     		movs	r0, r2
 712 011e 1900     		movs	r1, r3
 713 0120 0223     		movs	r3, #2
 714 0122 1A00     		movs	r2, r3
 715 0124 FFF7FEFF 		bl	memcpy
1659:Generated_Source\PSoC4/BLE_1_eventHandler.c ****                 (void) CyBle_GapSetLeEventMask(leMask);
 716              		.loc 1 1659 0
 717 0128 1823     		movs	r3, #24
 718 012a FB18     		adds	r3, r7, r3
 719 012c 1800     		movs	r0, r3
 720 012e FFF7FEFF 		bl	CyBle_GapSetLeEventMask
 721              	.LBE5:
1660:Generated_Source\PSoC4/BLE_1_eventHandler.c ****             }
1661:Generated_Source\PSoC4/BLE_1_eventHandler.c ****         #if(CYBLE_DLE_FEATURE_ENABLED)
1662:Generated_Source\PSoC4/BLE_1_eventHandler.c ****         {
1663:Generated_Source\PSoC4/BLE_1_eventHandler.c ****             /* Set maximum suggested TX payload size */
1664:Generated_Source\PSoC4/BLE_1_eventHandler.c ****             uint16 payloadTime = CYBLE_LL_MAX_TX_TIME;
1665:Generated_Source\PSoC4/BLE_1_eventHandler.c ****             (void) CyBle_GapConvertOctetToTime(CYBLE_GAP_PHY_1MBPS, CYBLE_LL_MAX_TX_PAYLOAD_SIZE, &
1666:Generated_Source\PSoC4/BLE_1_eventHandler.c ****             (void) CyBle_GapSetSuggestedDataLength(CYBLE_LL_MAX_TX_PAYLOAD_SIZE, payloadTime); 
1667:Generated_Source\PSoC4/BLE_1_eventHandler.c ****         }
ARM GAS  C:\Users\ROUSSMA\AppData\Local\Temp\cc3gA5P4.s 			page 43


1668:Generated_Source\PSoC4/BLE_1_eventHandler.c ****         #endif /* CYBLE_DLE_FEATURE != 0u */
1669:Generated_Source\PSoC4/BLE_1_eventHandler.c ****         
1670:Generated_Source\PSoC4/BLE_1_eventHandler.c ****         #endif /* CYBLE_GATT_ROLE_SERVER || CYBLE_GATT_ROLE_CLIENT */
1671:Generated_Source\PSoC4/BLE_1_eventHandler.c ****             CyBle_SetState(CYBLE_STATE_DISCONNECTED);
 722              		.loc 1 1671 0
 723 0132 964B     		ldr	r3, .L65+36
 724 0134 0422     		movs	r2, #4
 725 0136 1A70     		strb	r2, [r3]
1672:Generated_Source\PSoC4/BLE_1_eventHandler.c ****             break;
 726              		.loc 1 1672 0
 727 0138 39E1     		b	.L48
 728              	.L25:
1673:Generated_Source\PSoC4/BLE_1_eventHandler.c ****         case CYBLE_EVT_TIMEOUT:
1674:Generated_Source\PSoC4/BLE_1_eventHandler.c ****             CyBle_TimeOutEventHandler((CYBLE_TO_REASON_CODE_T *)eventParam);
 729              		.loc 1 1674 0
 730 013a 3B68     		ldr	r3, [r7]
 731 013c 1800     		movs	r0, r3
 732 013e FFF7FEFF 		bl	CyBle_TimeOutEventHandler
1675:Generated_Source\PSoC4/BLE_1_eventHandler.c ****             break;
 733              		.loc 1 1675 0
 734 0142 34E1     		b	.L48
 735              	.L26:
1676:Generated_Source\PSoC4/BLE_1_eventHandler.c ****     	case CYBLE_EVT_STACK_BUSY_STATUS:
1677:Generated_Source\PSoC4/BLE_1_eventHandler.c ****             cyBle_busyStatus = *(uint8 *)eventParam;
 736              		.loc 1 1677 0
 737 0144 3B68     		ldr	r3, [r7]
 738 0146 1A78     		ldrb	r2, [r3]
 739 0148 914B     		ldr	r3, .L65+40
 740 014a 1A70     		strb	r2, [r3]
1678:Generated_Source\PSoC4/BLE_1_eventHandler.c ****             break;
 741              		.loc 1 1678 0
 742 014c 2FE1     		b	.L48
 743              	.L27:
 744              	.LBB6:
1679:Generated_Source\PSoC4/BLE_1_eventHandler.c ****     	case CYBLE_EVT_MEMORY_REQUEST:
1680:Generated_Source\PSoC4/BLE_1_eventHandler.c ****         #if(CYBLE_MODE_PROFILE)
1681:Generated_Source\PSoC4/BLE_1_eventHandler.c ****         {
1682:Generated_Source\PSoC4/BLE_1_eventHandler.c ****             CYBLE_MEMORY_REQUEST_T *memReq = (CYBLE_MEMORY_REQUEST_T *)eventParam;
 745              		.loc 1 1682 0
 746 014e 3B68     		ldr	r3, [r7]
 747 0150 7B62     		str	r3, [r7, #36]
1683:Generated_Source\PSoC4/BLE_1_eventHandler.c ****             if(memReq->request == CYBLE_PREPARED_WRITE_REQUEST)
 748              		.loc 1 1683 0
 749 0152 7B6A     		ldr	r3, [r7, #36]
 750 0154 1B78     		ldrb	r3, [r3]
 751 0156 002B     		cmp	r3, #0
 752 0158 00D0     		beq	.LCB501
 753 015a 01E1     		b	.L61	@long jump
 754              	.LCB501:
1684:Generated_Source\PSoC4/BLE_1_eventHandler.c ****             {  
1685:Generated_Source\PSoC4/BLE_1_eventHandler.c ****             #if(CYBLE_GATT_ENABLE_EXTERNAL_PREP_WRITE_BUFF == 0u)
1686:Generated_Source\PSoC4/BLE_1_eventHandler.c ****                 /* Stack requests to provide memory to process remote request */
1687:Generated_Source\PSoC4/BLE_1_eventHandler.c ****                 if(memReq->allocFree == CYBLE_ALLOC_MEMORY)
 755              		.loc 1 1687 0
 756 015c 7B6A     		ldr	r3, [r7, #36]
 757 015e 5B78     		ldrb	r3, [r3, #1]
 758 0160 002B     		cmp	r3, #0
ARM GAS  C:\Users\ROUSSMA\AppData\Local\Temp\cc3gA5P4.s 			page 44


 759 0162 0BD1     		bne	.L50
 760              	.LBB7:
1688:Generated_Source\PSoC4/BLE_1_eventHandler.c ****                 {
1689:Generated_Source\PSoC4/BLE_1_eventHandler.c ****                     static CYBLE_PREPARE_WRITE_REQUEST_MEMORY_T gPrepWriteReqMem;
1690:Generated_Source\PSoC4/BLE_1_eventHandler.c ****                     
1691:Generated_Source\PSoC4/BLE_1_eventHandler.c ****                     /* Configure and return statically allocated buffer at the end of cyBle_stackMe
1692:Generated_Source\PSoC4/BLE_1_eventHandler.c ****                     gPrepWriteReqMem.prepareWriteQueueSize = CYBLE_GATT_MAX_PREPARE_BUFF_COUNT;
 761              		.loc 1 1692 0
 762 0164 8B4B     		ldr	r3, .L65+44
 763 0166 0022     		movs	r2, #0
 764 0168 DA80     		strh	r2, [r3, #6]
1693:Generated_Source\PSoC4/BLE_1_eventHandler.c ****                     gPrepWriteReqMem.totalAttrValueLength = CYBLE_GATT_PREPARE_LENGTH_ALIGN;
 765              		.loc 1 1693 0
 766 016a 8A4B     		ldr	r3, .L65+44
 767 016c 0022     		movs	r2, #0
 768 016e 9A80     		strh	r2, [r3, #4]
1694:Generated_Source\PSoC4/BLE_1_eventHandler.c ****                     gPrepWriteReqMem.queueBuffer = &cyBle_stackMemoryRam[CYBLE_STACK_RAM_SIZE - 
 769              		.loc 1 1694 0
 770 0170 884B     		ldr	r3, .L65+44
 771 0172 894A     		ldr	r2, .L65+48
 772 0174 1A60     		str	r2, [r3]
1695:Generated_Source\PSoC4/BLE_1_eventHandler.c ****                                                                          CYBLE_GATT_PREPARE_WRITE_B
1696:Generated_Source\PSoC4/BLE_1_eventHandler.c ****                     memReq->configMemory = &gPrepWriteReqMem;  
 773              		.loc 1 1696 0
 774 0176 7B6A     		ldr	r3, [r7, #36]
 775 0178 864A     		ldr	r2, .L65+44
 776 017a 5A60     		str	r2, [r3, #4]
 777              	.L50:
 778              	.LBE7:
1697:Generated_Source\PSoC4/BLE_1_eventHandler.c ****                 }                
1698:Generated_Source\PSoC4/BLE_1_eventHandler.c ****                 /* Clear CYBLE_CALLBACK flag not to provide handled event to application */
1699:Generated_Source\PSoC4/BLE_1_eventHandler.c ****                 cyBle_eventHandlerFlag &= (uint8)~CYBLE_CALLBACK;
 779              		.loc 1 1699 0
 780 017c 7A4B     		ldr	r3, .L65
 781 017e 1B78     		ldrb	r3, [r3]
 782 0180 DBB2     		uxtb	r3, r3
 783 0182 0122     		movs	r2, #1
 784 0184 9343     		bics	r3, r2
 785 0186 DAB2     		uxtb	r2, r3
 786 0188 774B     		ldr	r3, .L65
 787 018a 1A70     		strb	r2, [r3]
 788              	.LBE6:
1700:Generated_Source\PSoC4/BLE_1_eventHandler.c ****             #endif  /* CYBLE_GATT_ENABLE_EXTERNAL_PREP_WRITE_BUFF == 0u */
1701:Generated_Source\PSoC4/BLE_1_eventHandler.c ****             }
1702:Generated_Source\PSoC4/BLE_1_eventHandler.c ****         }
1703:Generated_Source\PSoC4/BLE_1_eventHandler.c ****         #endif /* CYBLE_MODE_PROFILE */
1704:Generated_Source\PSoC4/BLE_1_eventHandler.c ****             break;
 789              		.loc 1 1704 0
 790 018c E8E0     		b	.L61
 791              	.L28:
1705:Generated_Source\PSoC4/BLE_1_eventHandler.c ****         /**********************************************************
1706:Generated_Source\PSoC4/BLE_1_eventHandler.c ****         * GAP events
1707:Generated_Source\PSoC4/BLE_1_eventHandler.c ****         ************************************************************/
1708:Generated_Source\PSoC4/BLE_1_eventHandler.c ****         case CYBLE_EVT_GAP_AUTH_REQ:
1709:Generated_Source\PSoC4/BLE_1_eventHandler.c ****         #if(CYBLE_MODE_PROFILE)
1710:Generated_Source\PSoC4/BLE_1_eventHandler.c ****             if((cyBle_eventHandlerFlag & CYBLE_DISABLE_AUTOMATIC_AUTH) == 0u)
 792              		.loc 1 1710 0
ARM GAS  C:\Users\ROUSSMA\AppData\Local\Temp\cc3gA5P4.s 			page 45


 793 018e 764B     		ldr	r3, .L65
 794 0190 1B78     		ldrb	r3, [r3]
 795 0192 DBB2     		uxtb	r3, r3
 796 0194 1A00     		movs	r2, r3
 797 0196 2023     		movs	r3, #32
 798 0198 1340     		ands	r3, r2
 799 019a 00D0     		beq	.LCB542
 800 019c E2E0     		b	.L62	@long jump
 801              	.LCB542:
1711:Generated_Source\PSoC4/BLE_1_eventHandler.c ****             {
1712:Generated_Source\PSoC4/BLE_1_eventHandler.c ****                 /* If the responding device does not support pairing then the responding 
1713:Generated_Source\PSoC4/BLE_1_eventHandler.c ****                    device shall respond using the Pairing Failed message with the error 
1714:Generated_Source\PSoC4/BLE_1_eventHandler.c ****                    code "Pairing Not Supported" otherwise it responds with a Pairing 
1715:Generated_Source\PSoC4/BLE_1_eventHandler.c ****                    Response message.
1716:Generated_Source\PSoC4/BLE_1_eventHandler.c ****                 */
1717:Generated_Source\PSoC4/BLE_1_eventHandler.c ****                 if(cyBle_authInfo.security == (CYBLE_GAP_SEC_MODE_1 | CYBLE_GAP_SEC_LEVEL_1))
 802              		.loc 1 1717 0
 803 019e 7F4B     		ldr	r3, .L65+52
 804 01a0 1B78     		ldrb	r3, [r3]
 805 01a2 102B     		cmp	r3, #16
 806 01a4 02D1     		bne	.L52
1718:Generated_Source\PSoC4/BLE_1_eventHandler.c ****                 {
1719:Generated_Source\PSoC4/BLE_1_eventHandler.c ****                     cyBle_authInfo.authErr = CYBLE_GAP_AUTH_ERROR_PAIRING_NOT_SUPPORTED;
 807              		.loc 1 1719 0
 808 01a6 7D4B     		ldr	r3, .L65+52
 809 01a8 0522     		movs	r2, #5
 810 01aa DA70     		strb	r2, [r3, #3]
 811              	.L52:
 812              	.LBB8:
1720:Generated_Source\PSoC4/BLE_1_eventHandler.c ****                 }    
1721:Generated_Source\PSoC4/BLE_1_eventHandler.c ****             #if(CYBLE_GAP_ROLE_PERIPHERAL)
1722:Generated_Source\PSoC4/BLE_1_eventHandler.c ****                 {
1723:Generated_Source\PSoC4/BLE_1_eventHandler.c ****                     CYBLE_API_RESULT_T apiResult;
1724:Generated_Source\PSoC4/BLE_1_eventHandler.c ****                     
1725:Generated_Source\PSoC4/BLE_1_eventHandler.c ****                     apiResult = CyBle_GappAuthReqReply(cyBle_connHandle.bdHandle, &cyBle_authInfo);
 813              		.loc 1 1725 0
 814 01ac 7C4B     		ldr	r3, .L65+56
 815 01ae 1B78     		ldrb	r3, [r3]
 816 01b0 7A4A     		ldr	r2, .L65+52
 817 01b2 1100     		movs	r1, r2
 818 01b4 1800     		movs	r0, r3
 819 01b6 FFF7FEFF 		bl	CyBle_GappAuthReqReply
 820 01ba 0300     		movs	r3, r0
 821 01bc 1A00     		movs	r2, r3
 822 01be 1623     		movs	r3, #22
 823 01c0 FB18     		adds	r3, r7, r3
 824 01c2 1A80     		strh	r2, [r3]
1726:Generated_Source\PSoC4/BLE_1_eventHandler.c ****                     /* Setting callback flag again as CyBle_GappAuthReqReply() will generate
1727:Generated_Source\PSoC4/BLE_1_eventHandler.c ****                     * CYBLE_EVT_GAP_SMP_NEGOTIATED_AUTH_INFO event which will clear the callback
1728:Generated_Source\PSoC4/BLE_1_eventHandler.c ****                     * flag.
1729:Generated_Source\PSoC4/BLE_1_eventHandler.c ****                     */
1730:Generated_Source\PSoC4/BLE_1_eventHandler.c ****                     if (apiResult != CYBLE_ERROR_OK)
 825              		.loc 1 1730 0
 826 01c4 1623     		movs	r3, #22
 827 01c6 FB18     		adds	r3, r7, r3
 828 01c8 1B88     		ldrh	r3, [r3]
 829 01ca 002B     		cmp	r3, #0
ARM GAS  C:\Users\ROUSSMA\AppData\Local\Temp\cc3gA5P4.s 			page 46


 830 01cc 06D0     		beq	.L53
1731:Generated_Source\PSoC4/BLE_1_eventHandler.c ****                     {   
1732:Generated_Source\PSoC4/BLE_1_eventHandler.c ****                         CyBle_ApplCallback(CYBLE_EVT_GAP_AUTH_REQ_REPLY_ERR , &apiResult);
 831              		.loc 1 1732 0
 832 01ce 754B     		ldr	r3, .L65+60
 833 01d0 1B68     		ldr	r3, [r3]
 834 01d2 1622     		movs	r2, #22
 835 01d4 BA18     		adds	r2, r7, r2
 836 01d6 1100     		movs	r1, r2
 837 01d8 3620     		movs	r0, #54
 838 01da 9847     		blx	r3
 839              	.L53:
1733:Generated_Source\PSoC4/BLE_1_eventHandler.c ****                     }
1734:Generated_Source\PSoC4/BLE_1_eventHandler.c ****                     cyBle_eventHandlerFlag |= CYBLE_CALLBACK;
 840              		.loc 1 1734 0
 841 01dc 624B     		ldr	r3, .L65
 842 01de 1B78     		ldrb	r3, [r3]
 843 01e0 DBB2     		uxtb	r3, r3
 844 01e2 0122     		movs	r2, #1
 845 01e4 1343     		orrs	r3, r2
 846 01e6 DAB2     		uxtb	r2, r3
 847 01e8 5F4B     		ldr	r3, .L65
 848 01ea 1A70     		strb	r2, [r3]
 849              	.LBE8:
1735:Generated_Source\PSoC4/BLE_1_eventHandler.c ****                 }
1736:Generated_Source\PSoC4/BLE_1_eventHandler.c ****             #endif /* CYBLE_GAP_ROLE_PERIPHERAL */
1737:Generated_Source\PSoC4/BLE_1_eventHandler.c ****             #if (CYBLE_GAP_ROLE_CENTRAL)
1738:Generated_Source\PSoC4/BLE_1_eventHandler.c ****                 (void)CyBle_GapAuthReq(cyBle_connHandle.bdHandle, &cyBle_authInfo);
1739:Generated_Source\PSoC4/BLE_1_eventHandler.c ****             #endif /* CYBLE_GAP_ROLE_CENTRAL */
1740:Generated_Source\PSoC4/BLE_1_eventHandler.c ****             }
1741:Generated_Source\PSoC4/BLE_1_eventHandler.c ****         #endif /* CYBLE_MODE_PROFILE */
1742:Generated_Source\PSoC4/BLE_1_eventHandler.c ****             break;
 850              		.loc 1 1742 0
 851 01ec BAE0     		b	.L62
 852              	.L33:
1743:Generated_Source\PSoC4/BLE_1_eventHandler.c ****         
1744:Generated_Source\PSoC4/BLE_1_eventHandler.c ****         case CYBLE_EVT_GAP_AUTH_COMPLETE:
1745:Generated_Source\PSoC4/BLE_1_eventHandler.c ****         #if((CYBLE_GAP_ROLE_PERIPHERAL || CYBLE_GAP_ROLE_CENTRAL) && (CYBLE_BONDING_REQUIREMENT == 
1746:Generated_Source\PSoC4/BLE_1_eventHandler.c ****             cyBle_peerBonding = ((CYBLE_GAP_AUTH_INFO_T *)eventParam)->bonding;
1747:Generated_Source\PSoC4/BLE_1_eventHandler.c ****         #endif  /* CYBLE_BONDING_REQUIREMENT == CYBLE_BONDING_YES */
1748:Generated_Source\PSoC4/BLE_1_eventHandler.c ****             break;
1749:Generated_Source\PSoC4/BLE_1_eventHandler.c ****         
1750:Generated_Source\PSoC4/BLE_1_eventHandler.c ****         case CYBLE_EVT_GAP_CONNECTION_UPDATE_COMPLETE:
1751:Generated_Source\PSoC4/BLE_1_eventHandler.c ****             CyBle_GapConnUpdateCompleteEventHandler((const CYBLE_GAP_CONN_PARAM_UPDATED_IN_CONTROLL
 853              		.loc 1 1751 0
 854 01ee 3B68     		ldr	r3, [r7]
 855 01f0 1800     		movs	r0, r3
 856 01f2 FFF7FEFF 		bl	CyBle_GapConnUpdateCompleteEventHandler
1752:Generated_Source\PSoC4/BLE_1_eventHandler.c ****             break;
 857              		.loc 1 1752 0
 858 01f6 DAE0     		b	.L48
 859              	.L34:
 860              	.LBB9:
1753:Generated_Source\PSoC4/BLE_1_eventHandler.c ****             
1754:Generated_Source\PSoC4/BLE_1_eventHandler.c ****     #if(CYBLE_LL_PRIVACY_FEATURE != 0u)        
1755:Generated_Source\PSoC4/BLE_1_eventHandler.c ****         case CYBLE_EVT_GAP_ENHANCE_CONN_COMPLETE:
1756:Generated_Source\PSoC4/BLE_1_eventHandler.c ****         {
ARM GAS  C:\Users\ROUSSMA\AppData\Local\Temp\cc3gA5P4.s 			page 47


1757:Generated_Source\PSoC4/BLE_1_eventHandler.c ****             CYBLE_GAP_CONN_PARAM_UPDATED_IN_CONTROLLER_T  connCParam;
1758:Generated_Source\PSoC4/BLE_1_eventHandler.c ****             CYBLE_GAP_ENHANCE_CONN_COMPLETE_T *connEnhanceParam;
1759:Generated_Source\PSoC4/BLE_1_eventHandler.c ****             
1760:Generated_Source\PSoC4/BLE_1_eventHandler.c ****             connEnhanceParam = (CYBLE_GAP_ENHANCE_CONN_COMPLETE_T *)eventParam;
 861              		.loc 1 1760 0
 862 01f8 3B68     		ldr	r3, [r7]
 863 01fa 3B62     		str	r3, [r7, #32]
1761:Generated_Source\PSoC4/BLE_1_eventHandler.c ****             connCParam.status = connEnhanceParam->status;
 864              		.loc 1 1761 0
 865 01fc 3B6A     		ldr	r3, [r7, #32]
 866 01fe 9A7E     		ldrb	r2, [r3, #26]
 867 0200 0C23     		movs	r3, #12
 868 0202 FB18     		adds	r3, r7, r3
 869 0204 1A70     		strb	r2, [r3]
1762:Generated_Source\PSoC4/BLE_1_eventHandler.c ****             connCParam.connIntv = connEnhanceParam->connIntv;
 870              		.loc 1 1762 0
 871 0206 3B6A     		ldr	r3, [r7, #32]
 872 0208 1A88     		ldrh	r2, [r3]
 873 020a 0C23     		movs	r3, #12
 874 020c FB18     		adds	r3, r7, r3
 875 020e 5A80     		strh	r2, [r3, #2]
1763:Generated_Source\PSoC4/BLE_1_eventHandler.c ****             connCParam.connLatency = connEnhanceParam->connLatency;
 876              		.loc 1 1763 0
 877 0210 3B6A     		ldr	r3, [r7, #32]
 878 0212 5A88     		ldrh	r2, [r3, #2]
 879 0214 0C23     		movs	r3, #12
 880 0216 FB18     		adds	r3, r7, r3
 881 0218 9A80     		strh	r2, [r3, #4]
1764:Generated_Source\PSoC4/BLE_1_eventHandler.c ****             connCParam.supervisionTO = connEnhanceParam->supervisionTo;
 882              		.loc 1 1764 0
 883 021a 3B6A     		ldr	r3, [r7, #32]
 884 021c 9A88     		ldrh	r2, [r3, #4]
 885 021e 0C23     		movs	r3, #12
 886 0220 FB18     		adds	r3, r7, r3
 887 0222 DA80     		strh	r2, [r3, #6]
1765:Generated_Source\PSoC4/BLE_1_eventHandler.c ****             CyBle_GapConnUpdateCompleteEventHandler((const CYBLE_GAP_CONN_PARAM_UPDATED_IN_CONTROLL
 888              		.loc 1 1765 0
 889 0224 0C23     		movs	r3, #12
 890 0226 FB18     		adds	r3, r7, r3
 891 0228 1800     		movs	r0, r3
 892 022a FFF7FEFF 		bl	CyBle_GapConnUpdateCompleteEventHandler
1766:Generated_Source\PSoC4/BLE_1_eventHandler.c ****             
1767:Generated_Source\PSoC4/BLE_1_eventHandler.c ****             #if(CYBLE_GAP_ROLE_CENTRAL)
1768:Generated_Source\PSoC4/BLE_1_eventHandler.c ****                 if(cyBle_connectingTimeout != 0u)
1769:Generated_Source\PSoC4/BLE_1_eventHandler.c ****                 {
1770:Generated_Source\PSoC4/BLE_1_eventHandler.c ****                    (void)CyBle_StopTimer();
1771:Generated_Source\PSoC4/BLE_1_eventHandler.c ****                 }
1772:Generated_Source\PSoC4/BLE_1_eventHandler.c ****             #endif /* CYBLE_GAP_ROLE_CENTRAL */
1773:Generated_Source\PSoC4/BLE_1_eventHandler.c ****             CyBle_SetState(CYBLE_STATE_CONNECTED);
 893              		.loc 1 1773 0
 894 022e 574B     		ldr	r3, .L65+36
 895 0230 0222     		movs	r2, #2
 896 0232 1A70     		strb	r2, [r3]
 897              	.LBE9:
1774:Generated_Source\PSoC4/BLE_1_eventHandler.c ****         }
1775:Generated_Source\PSoC4/BLE_1_eventHandler.c ****             break;
 898              		.loc 1 1775 0
ARM GAS  C:\Users\ROUSSMA\AppData\Local\Temp\cc3gA5P4.s 			page 48


 899 0234 BBE0     		b	.L48
 900              	.L31:
1776:Generated_Source\PSoC4/BLE_1_eventHandler.c ****     #endif /* CYBLE_LL_PRIVACY_FEATURE != 0u */      
1777:Generated_Source\PSoC4/BLE_1_eventHandler.c ****             
1778:Generated_Source\PSoC4/BLE_1_eventHandler.c ****         case CYBLE_EVT_GAP_DEVICE_CONNECTED:
1779:Generated_Source\PSoC4/BLE_1_eventHandler.c ****             CyBle_GapConnUpdateCompleteEventHandler((const CYBLE_GAP_CONN_PARAM_UPDATED_IN_CONTROLL
 901              		.loc 1 1779 0
 902 0236 3B68     		ldr	r3, [r7]
 903 0238 1800     		movs	r0, r3
 904 023a FFF7FEFF 		bl	CyBle_GapConnUpdateCompleteEventHandler
1780:Generated_Source\PSoC4/BLE_1_eventHandler.c ****             #if(CYBLE_GAP_ROLE_CENTRAL)
1781:Generated_Source\PSoC4/BLE_1_eventHandler.c ****                 if(cyBle_connectingTimeout != 0u)
1782:Generated_Source\PSoC4/BLE_1_eventHandler.c ****                 {
1783:Generated_Source\PSoC4/BLE_1_eventHandler.c ****                    (void)CyBle_StopTimer();
1784:Generated_Source\PSoC4/BLE_1_eventHandler.c ****                 }
1785:Generated_Source\PSoC4/BLE_1_eventHandler.c ****             #endif /* CYBLE_GAP_ROLE_CENTRAL */
1786:Generated_Source\PSoC4/BLE_1_eventHandler.c ****             CyBle_SetState(CYBLE_STATE_CONNECTED);
 905              		.loc 1 1786 0
 906 023e 534B     		ldr	r3, .L65+36
 907 0240 0222     		movs	r2, #2
 908 0242 1A70     		strb	r2, [r3]
1787:Generated_Source\PSoC4/BLE_1_eventHandler.c ****             break;
 909              		.loc 1 1787 0
 910 0244 B3E0     		b	.L48
 911              	.L32:
1788:Generated_Source\PSoC4/BLE_1_eventHandler.c **** 
1789:Generated_Source\PSoC4/BLE_1_eventHandler.c ****         case CYBLE_EVT_GAP_DEVICE_DISCONNECTED:
1790:Generated_Source\PSoC4/BLE_1_eventHandler.c ****             CyBle_SetState(CYBLE_STATE_DISCONNECTED);
 912              		.loc 1 1790 0
 913 0246 514B     		ldr	r3, .L65+36
 914 0248 0422     		movs	r2, #4
 915 024a 1A70     		strb	r2, [r3]
1791:Generated_Source\PSoC4/BLE_1_eventHandler.c ****             break;
 916              		.loc 1 1791 0
 917 024c AFE0     		b	.L48
 918              	.L30:
1792:Generated_Source\PSoC4/BLE_1_eventHandler.c ****         #if(CYBLE_GAP_ROLE_PERIPHERAL || CYBLE_GAP_ROLE_BROADCASTER)
1793:Generated_Source\PSoC4/BLE_1_eventHandler.c ****             
1794:Generated_Source\PSoC4/BLE_1_eventHandler.c ****         case CYBLE_EVT_GAPP_ADVERTISEMENT_START_STOP:
1795:Generated_Source\PSoC4/BLE_1_eventHandler.c ****             #ifdef CYBLE_CPS_SERVER
1796:Generated_Source\PSoC4/BLE_1_eventHandler.c ****                 #if(CYBLE_GAP_ROLE_BROADCASTER)
1797:Generated_Source\PSoC4/BLE_1_eventHandler.c ****                     CyBle_CpssAdvertisementStartStopEventHandler();
1798:Generated_Source\PSoC4/BLE_1_eventHandler.c ****                 #endif /* CYBLE_GAP_ROLE_BROADCASTER */
1799:Generated_Source\PSoC4/BLE_1_eventHandler.c ****             #endif /* CYBLE_CPS_SERVER */
1800:Generated_Source\PSoC4/BLE_1_eventHandler.c ****             
1801:Generated_Source\PSoC4/BLE_1_eventHandler.c ****             if((CYBLE_STATE_CONNECTED != CyBle_GetState()) && ((cyBle_eventHandlerFlag & CYBLE_CALL
 919              		.loc 1 1801 0
 920 024e 4F4B     		ldr	r3, .L65+36
 921 0250 1B78     		ldrb	r3, [r3]
 922 0252 022B     		cmp	r3, #2
 923 0254 00D1     		bne	.LCB653
 924 0256 A9E0     		b	.L63	@long jump
 925              	.LCB653:
 926              		.loc 1 1801 0 is_stmt 0 discriminator 1
 927 0258 434B     		ldr	r3, .L65
 928 025a 1B78     		ldrb	r3, [r3]
 929 025c DBB2     		uxtb	r3, r3
ARM GAS  C:\Users\ROUSSMA\AppData\Local\Temp\cc3gA5P4.s 			page 49


 930 025e 1A00     		movs	r2, r3
 931 0260 0123     		movs	r3, #1
 932 0262 1340     		ands	r3, r2
 933 0264 00D1     		bne	.LCB661
 934 0266 A1E0     		b	.L63	@long jump
 935              	.LCB661:
1802:Generated_Source\PSoC4/BLE_1_eventHandler.c ****             {
1803:Generated_Source\PSoC4/BLE_1_eventHandler.c ****                 /* After CyBle_GappStartAdvertisement first event indicates that advertising has be
1804:Generated_Source\PSoC4/BLE_1_eventHandler.c ****                 if(0u != (cyBle_eventHandlerFlag & CYBLE_START_FLAG))
 936              		.loc 1 1804 0 is_stmt 1
 937 0268 3F4B     		ldr	r3, .L65
 938 026a 1B78     		ldrb	r3, [r3]
 939 026c DBB2     		uxtb	r3, r3
 940 026e 1A00     		movs	r2, r3
 941 0270 0423     		movs	r3, #4
 942 0272 1340     		ands	r3, r2
 943 0274 0BD0     		beq	.L55
1805:Generated_Source\PSoC4/BLE_1_eventHandler.c ****                 {
1806:Generated_Source\PSoC4/BLE_1_eventHandler.c ****                     CyBle_SetState(CYBLE_STATE_ADVERTISING);
 944              		.loc 1 1806 0
 945 0276 454B     		ldr	r3, .L65+36
 946 0278 0322     		movs	r2, #3
 947 027a 1A70     		strb	r2, [r3]
1807:Generated_Source\PSoC4/BLE_1_eventHandler.c ****                     cyBle_eventHandlerFlag &= (uint8)~CYBLE_START_FLAG;
 948              		.loc 1 1807 0
 949 027c 3A4B     		ldr	r3, .L65
 950 027e 1B78     		ldrb	r3, [r3]
 951 0280 DBB2     		uxtb	r3, r3
 952 0282 0422     		movs	r2, #4
 953 0284 9343     		bics	r3, r2
 954 0286 DAB2     		uxtb	r2, r3
 955 0288 374B     		ldr	r3, .L65
 956 028a 1A70     		strb	r2, [r3]
1808:Generated_Source\PSoC4/BLE_1_eventHandler.c ****                 }
1809:Generated_Source\PSoC4/BLE_1_eventHandler.c ****                 /* When application initiated stop advertisement */
1810:Generated_Source\PSoC4/BLE_1_eventHandler.c ****                 else if(0u != (cyBle_eventHandlerFlag & CYBLE_STOP_FLAG))
1811:Generated_Source\PSoC4/BLE_1_eventHandler.c ****                 {
1812:Generated_Source\PSoC4/BLE_1_eventHandler.c ****                     CyBle_SetState(CYBLE_STATE_DISCONNECTED);  
1813:Generated_Source\PSoC4/BLE_1_eventHandler.c ****                     cyBle_eventHandlerFlag &= (uint8)~CYBLE_STOP_FLAG;
1814:Generated_Source\PSoC4/BLE_1_eventHandler.c ****                 }
1815:Generated_Source\PSoC4/BLE_1_eventHandler.c ****                 else /* Following event indicates that advertising has been stopped */
1816:Generated_Source\PSoC4/BLE_1_eventHandler.c ****                 {
1817:Generated_Source\PSoC4/BLE_1_eventHandler.c ****                     if(CyBle_GetState() == CYBLE_STATE_ADVERTISING)
1818:Generated_Source\PSoC4/BLE_1_eventHandler.c ****                     {
1819:Generated_Source\PSoC4/BLE_1_eventHandler.c ****                         CyBle_SetState(CYBLE_STATE_DISCONNECTED);
1820:Generated_Source\PSoC4/BLE_1_eventHandler.c ****                     #if ((CYBLE_SLOW_ADV_ENABLED != 0u) && (CYBLE_FAST_ADV_TIMEOUT != 0u))
1821:Generated_Source\PSoC4/BLE_1_eventHandler.c ****                         if(cyBle_advertisingIntervalType == CYBLE_ADVERTISING_FAST)
1822:Generated_Source\PSoC4/BLE_1_eventHandler.c ****                         {
1823:Generated_Source\PSoC4/BLE_1_eventHandler.c ****                             /* When fast advertising time out occur: Start slow advertising */
1824:Generated_Source\PSoC4/BLE_1_eventHandler.c ****                             if(CyBle_GappStartAdvertisement(CYBLE_ADVERTISING_SLOW) == CYBLE_ERROR_
1825:Generated_Source\PSoC4/BLE_1_eventHandler.c ****                             {
1826:Generated_Source\PSoC4/BLE_1_eventHandler.c ****                                 CyBle_SetState(CYBLE_STATE_ADVERTISING);
1827:Generated_Source\PSoC4/BLE_1_eventHandler.c ****                             }
1828:Generated_Source\PSoC4/BLE_1_eventHandler.c ****                         }
1829:Generated_Source\PSoC4/BLE_1_eventHandler.c ****                     #endif /* CYBLE_SLOW_ADV_ENABLED */
1830:Generated_Source\PSoC4/BLE_1_eventHandler.c ****                     }
1831:Generated_Source\PSoC4/BLE_1_eventHandler.c ****                 }
ARM GAS  C:\Users\ROUSSMA\AppData\Local\Temp\cc3gA5P4.s 			page 50


1832:Generated_Source\PSoC4/BLE_1_eventHandler.c ****             }
1833:Generated_Source\PSoC4/BLE_1_eventHandler.c ****             break;
 957              		.loc 1 1833 0
 958 028c 8EE0     		b	.L63
 959              	.L55:
1810:Generated_Source\PSoC4/BLE_1_eventHandler.c ****                 {
 960              		.loc 1 1810 0
 961 028e 364B     		ldr	r3, .L65
 962 0290 1B78     		ldrb	r3, [r3]
 963 0292 DBB2     		uxtb	r3, r3
 964 0294 1A00     		movs	r2, r3
 965 0296 0823     		movs	r3, #8
 966 0298 1340     		ands	r3, r2
 967 029a 0BD0     		beq	.L56
1812:Generated_Source\PSoC4/BLE_1_eventHandler.c ****                     cyBle_eventHandlerFlag &= (uint8)~CYBLE_STOP_FLAG;
 968              		.loc 1 1812 0
 969 029c 3B4B     		ldr	r3, .L65+36
 970 029e 0422     		movs	r2, #4
 971 02a0 1A70     		strb	r2, [r3]
1813:Generated_Source\PSoC4/BLE_1_eventHandler.c ****                 }
 972              		.loc 1 1813 0
 973 02a2 314B     		ldr	r3, .L65
 974 02a4 1B78     		ldrb	r3, [r3]
 975 02a6 DBB2     		uxtb	r3, r3
 976 02a8 0822     		movs	r2, #8
 977 02aa 9343     		bics	r3, r2
 978 02ac DAB2     		uxtb	r2, r3
 979 02ae 2E4B     		ldr	r3, .L65
 980 02b0 1A70     		strb	r2, [r3]
 981              		.loc 1 1833 0
 982 02b2 7BE0     		b	.L63
 983              	.L56:
1817:Generated_Source\PSoC4/BLE_1_eventHandler.c ****                     {
 984              		.loc 1 1817 0
 985 02b4 354B     		ldr	r3, .L65+36
 986 02b6 1B78     		ldrb	r3, [r3]
 987 02b8 032B     		cmp	r3, #3
 988 02ba 00D0     		beq	.LCB711
 989 02bc 76E0     		b	.L63	@long jump
 990              	.LCB711:
1819:Generated_Source\PSoC4/BLE_1_eventHandler.c ****                     #if ((CYBLE_SLOW_ADV_ENABLED != 0u) && (CYBLE_FAST_ADV_TIMEOUT != 0u))
 991              		.loc 1 1819 0
 992 02be 334B     		ldr	r3, .L65+36
 993 02c0 0422     		movs	r2, #4
 994 02c2 1A70     		strb	r2, [r3]
1821:Generated_Source\PSoC4/BLE_1_eventHandler.c ****                         {
 995              		.loc 1 1821 0
 996 02c4 384B     		ldr	r3, .L65+64
 997 02c6 1B78     		ldrb	r3, [r3]
 998 02c8 002B     		cmp	r3, #0
 999 02ca 00D0     		beq	.LCB718
 1000 02cc 6EE0     		b	.L63	@long jump
 1001              	.LCB718:
1824:Generated_Source\PSoC4/BLE_1_eventHandler.c ****                             {
 1002              		.loc 1 1824 0
 1003 02ce 0120     		movs	r0, #1
 1004 02d0 FFF7FEFF 		bl	CyBle_GappStartAdvertisement
ARM GAS  C:\Users\ROUSSMA\AppData\Local\Temp\cc3gA5P4.s 			page 51


 1005 02d4 031E     		subs	r3, r0, #0
 1006 02d6 69D1     		bne	.L63
1826:Generated_Source\PSoC4/BLE_1_eventHandler.c ****                             }
 1007              		.loc 1 1826 0
 1008 02d8 2C4B     		ldr	r3, .L65+36
 1009 02da 0322     		movs	r2, #3
 1010 02dc 1A70     		strb	r2, [r3]
 1011              		.loc 1 1833 0
 1012 02de 65E0     		b	.L63
 1013              	.L44:
1834:Generated_Source\PSoC4/BLE_1_eventHandler.c ****         #endif /* CYBLE_GAP_ROLE_PERIPHERAL || CYBLE_GAP_ROLE_BROADCASTER */
1835:Generated_Source\PSoC4/BLE_1_eventHandler.c ****         
1836:Generated_Source\PSoC4/BLE_1_eventHandler.c ****         #if(CYBLE_GAP_ROLE_CENTRAL || CYBLE_GAP_ROLE_OBSERVER)    
1837:Generated_Source\PSoC4/BLE_1_eventHandler.c ****         case CYBLE_EVT_GAPC_SCAN_START_STOP:
1838:Generated_Source\PSoC4/BLE_1_eventHandler.c ****             #ifdef CYBLE_CPS_CLIENT
1839:Generated_Source\PSoC4/BLE_1_eventHandler.c ****                 CyBle_CpscScanStartStopEventHandler();
1840:Generated_Source\PSoC4/BLE_1_eventHandler.c ****             #endif /* CYBLE_CPS_CLIENT */
1841:Generated_Source\PSoC4/BLE_1_eventHandler.c ****             
1842:Generated_Source\PSoC4/BLE_1_eventHandler.c ****             if((CYBLE_STATE_CONNECTED != CyBle_GetState()) && ((cyBle_eventHandlerFlag & CYBLE_CALL
1843:Generated_Source\PSoC4/BLE_1_eventHandler.c ****             {
1844:Generated_Source\PSoC4/BLE_1_eventHandler.c ****                 /* After CyBle_GapcStartScan first event indicates that scanning has been started *
1845:Generated_Source\PSoC4/BLE_1_eventHandler.c ****                 if(0u != (cyBle_eventHandlerFlag & CYBLE_START_FLAG))
1846:Generated_Source\PSoC4/BLE_1_eventHandler.c ****                 {
1847:Generated_Source\PSoC4/BLE_1_eventHandler.c ****                     CyBle_SetState(CYBLE_STATE_SCANNING);
1848:Generated_Source\PSoC4/BLE_1_eventHandler.c ****                     cyBle_eventHandlerFlag &= (uint8)~CYBLE_START_FLAG;
1849:Generated_Source\PSoC4/BLE_1_eventHandler.c ****                 }
1850:Generated_Source\PSoC4/BLE_1_eventHandler.c ****                 /* When application initiated stop scanning */
1851:Generated_Source\PSoC4/BLE_1_eventHandler.c ****                 else if(0u != (cyBle_eventHandlerFlag & CYBLE_STOP_FLAG))
1852:Generated_Source\PSoC4/BLE_1_eventHandler.c ****                 {
1853:Generated_Source\PSoC4/BLE_1_eventHandler.c ****                     CyBle_SetState(CYBLE_STATE_DISCONNECTED);  
1854:Generated_Source\PSoC4/BLE_1_eventHandler.c ****                     cyBle_eventHandlerFlag &= (uint8)~CYBLE_STOP_FLAG;
1855:Generated_Source\PSoC4/BLE_1_eventHandler.c ****                 }
1856:Generated_Source\PSoC4/BLE_1_eventHandler.c ****                 else /* Following event indicates that scanning has been stopped by stack */
1857:Generated_Source\PSoC4/BLE_1_eventHandler.c ****                 {
1858:Generated_Source\PSoC4/BLE_1_eventHandler.c ****                     if(CyBle_GetState() == CYBLE_STATE_SCANNING)
1859:Generated_Source\PSoC4/BLE_1_eventHandler.c ****                     {
1860:Generated_Source\PSoC4/BLE_1_eventHandler.c ****                         CyBle_SetState(CYBLE_STATE_DISCONNECTED);  
1861:Generated_Source\PSoC4/BLE_1_eventHandler.c ****                     #if ((CYBLE_SLOW_SCAN_ENABLED != 0u) && (CYBLE_FAST_SCAN_TIMEOUT != 0u))
1862:Generated_Source\PSoC4/BLE_1_eventHandler.c ****                         if(cyBle_scanningIntervalType == CYBLE_SCANNING_FAST)
1863:Generated_Source\PSoC4/BLE_1_eventHandler.c ****                         {
1864:Generated_Source\PSoC4/BLE_1_eventHandler.c ****                             /* When fast scanning time out occur: Start slow scanning */
1865:Generated_Source\PSoC4/BLE_1_eventHandler.c ****                             if(CyBle_GapcStartScan(CYBLE_SCANNING_SLOW) == CYBLE_ERROR_OK)
1866:Generated_Source\PSoC4/BLE_1_eventHandler.c ****                             {
1867:Generated_Source\PSoC4/BLE_1_eventHandler.c ****                                 CyBle_SetState(CYBLE_STATE_SCANNING);
1868:Generated_Source\PSoC4/BLE_1_eventHandler.c ****                             }
1869:Generated_Source\PSoC4/BLE_1_eventHandler.c ****                         }
1870:Generated_Source\PSoC4/BLE_1_eventHandler.c ****                     #endif /* CYBLE_SLOW_SCAN_ENABLED */
1871:Generated_Source\PSoC4/BLE_1_eventHandler.c ****                     }
1872:Generated_Source\PSoC4/BLE_1_eventHandler.c ****                 }
1873:Generated_Source\PSoC4/BLE_1_eventHandler.c ****             }
1874:Generated_Source\PSoC4/BLE_1_eventHandler.c ****             break;
1875:Generated_Source\PSoC4/BLE_1_eventHandler.c ****         #endif /* CYBLE_GAP_ROLE_CENTRAL || CYBLE_GAP_ROLE_OBSERVER */
1876:Generated_Source\PSoC4/BLE_1_eventHandler.c **** 
1877:Generated_Source\PSoC4/BLE_1_eventHandler.c ****         /**********************************************************
1878:Generated_Source\PSoC4/BLE_1_eventHandler.c ****         * L2AP events 
1879:Generated_Source\PSoC4/BLE_1_eventHandler.c ****         ************************************************************/
1880:Generated_Source\PSoC4/BLE_1_eventHandler.c ****         case CYBLE_EVT_L2CAP_CONN_PARAM_UPDATE_RSP:
ARM GAS  C:\Users\ROUSSMA\AppData\Local\Temp\cc3gA5P4.s 			page 52


1881:Generated_Source\PSoC4/BLE_1_eventHandler.c ****             CyBle_L2Cap_ConnParamUpdateRspEventHandler(*(uint16 *)eventParam);
 1014              		.loc 1 1881 0
 1015 02e0 3B68     		ldr	r3, [r7]
 1016 02e2 1B88     		ldrh	r3, [r3]
 1017 02e4 1800     		movs	r0, r3
 1018 02e6 FFF7FEFF 		bl	CyBle_L2Cap_ConnParamUpdateRspEventHandler
1882:Generated_Source\PSoC4/BLE_1_eventHandler.c ****             break;
 1019              		.loc 1 1882 0
 1020 02ea 60E0     		b	.L48
 1021              	.L35:
1883:Generated_Source\PSoC4/BLE_1_eventHandler.c ****         
1884:Generated_Source\PSoC4/BLE_1_eventHandler.c ****         /**********************************************************
1885:Generated_Source\PSoC4/BLE_1_eventHandler.c ****         * GATT events
1886:Generated_Source\PSoC4/BLE_1_eventHandler.c ****         ************************************************************/        
1887:Generated_Source\PSoC4/BLE_1_eventHandler.c ****         case CYBLE_EVT_GATT_CONNECT_IND:
1888:Generated_Source\PSoC4/BLE_1_eventHandler.c ****             cyBle_connHandle = *(CYBLE_CONN_HANDLE_T *)eventParam;
 1022              		.loc 1 1888 0
 1023 02ec 2C4A     		ldr	r2, .L65+56
 1024 02ee 3B68     		ldr	r3, [r7]
 1025 02f0 1000     		movs	r0, r2
 1026 02f2 1900     		movs	r1, r3
 1027 02f4 0223     		movs	r3, #2
 1028 02f6 1A00     		movs	r2, r3
 1029 02f8 FFF7FEFF 		bl	memcpy
1889:Generated_Source\PSoC4/BLE_1_eventHandler.c ****             cyBle_busyStatus = CYBLE_STACK_STATE_FREE;
 1030              		.loc 1 1889 0
 1031 02fc 244B     		ldr	r3, .L65+40
 1032 02fe 0022     		movs	r2, #0
 1033 0300 1A70     		strb	r2, [r3]
1890:Generated_Source\PSoC4/BLE_1_eventHandler.c ****             
1891:Generated_Source\PSoC4/BLE_1_eventHandler.c ****         #if((CYBLE_GATT_ROLE_SERVER) && (CYBLE_GATT_DB_CCCD_COUNT != 0u) && \
1892:Generated_Source\PSoC4/BLE_1_eventHandler.c ****             (CYBLE_BONDING_REQUIREMENT == CYBLE_BONDING_YES))
1893:Generated_Source\PSoC4/BLE_1_eventHandler.c ****             /* Init CCCD values in RAM when bonding is enabled */
1894:Generated_Source\PSoC4/BLE_1_eventHandler.c ****         	(void) memcpy (cyBle_attValuesCCCD, cyBle_flashStorage.attValuesCCCDFlashMemory[cyBle_conn
1895:Generated_Source\PSoC4/BLE_1_eventHandler.c ****                             CYBLE_GATT_DB_CCCD_COUNT);
1896:Generated_Source\PSoC4/BLE_1_eventHandler.c ****         #endif /* CYBLE_GATT_ROLE_SERVER && (CYBLE_BONDING_REQUIREMENT == CYBLE_BONDING_YES) */
1897:Generated_Source\PSoC4/BLE_1_eventHandler.c ****         
1898:Generated_Source\PSoC4/BLE_1_eventHandler.c ****         #if (CYBLE_GATT_ROLE_CLIENT)
1899:Generated_Source\PSoC4/BLE_1_eventHandler.c ****             CyBle_SetClientState(CYBLE_CLIENT_STATE_CONNECTED);
1900:Generated_Source\PSoC4/BLE_1_eventHandler.c ****         #endif /* CYBLE_GATT_ROLE_CLIENT */
1901:Generated_Source\PSoC4/BLE_1_eventHandler.c ****         
1902:Generated_Source\PSoC4/BLE_1_eventHandler.c ****             CyBle_GattConnectReqHandler();
 1034              		.loc 1 1902 0
 1035 0302 FFF7FEFF 		bl	CyBle_GattConnectReqHandler
1903:Generated_Source\PSoC4/BLE_1_eventHandler.c ****             break;
 1036              		.loc 1 1903 0
 1037 0306 52E0     		b	.L48
 1038              	.L36:
1904:Generated_Source\PSoC4/BLE_1_eventHandler.c **** 
1905:Generated_Source\PSoC4/BLE_1_eventHandler.c ****         case CYBLE_EVT_GATT_DISCONNECT_IND:
1906:Generated_Source\PSoC4/BLE_1_eventHandler.c ****             CyBle_GattDisconnectEventHandler();
 1039              		.loc 1 1906 0
 1040 0308 FFF7FEFF 		bl	CyBle_GattDisconnectEventHandler
1907:Generated_Source\PSoC4/BLE_1_eventHandler.c ****             break;
 1041              		.loc 1 1907 0
 1042 030c 4FE0     		b	.L48
 1043              	.L37:
ARM GAS  C:\Users\ROUSSMA\AppData\Local\Temp\cc3gA5P4.s 			page 53


 1044              	.LBB10:
1908:Generated_Source\PSoC4/BLE_1_eventHandler.c **** 
1909:Generated_Source\PSoC4/BLE_1_eventHandler.c ****     #if((CYBLE_GATT_ROLE_SERVER) || (CYBLE_GATT_ROLE_CLIENT))
1910:Generated_Source\PSoC4/BLE_1_eventHandler.c ****         case CYBLE_EVT_GATTS_XCNHG_MTU_REQ:
1911:Generated_Source\PSoC4/BLE_1_eventHandler.c ****             {
1912:Generated_Source\PSoC4/BLE_1_eventHandler.c ****                 uint16 cyBle_mtuSize;
1913:Generated_Source\PSoC4/BLE_1_eventHandler.c ****                 if(CYBLE_GATT_MTU > ((CYBLE_GATT_XCHG_MTU_PARAM_T *)eventParam)->mtu)
 1045              		.loc 1 1913 0
 1046 030e 3B68     		ldr	r3, [r7]
 1047 0310 5B88     		ldrh	r3, [r3, #2]
 1048 0312 162B     		cmp	r3, #22
 1049 0314 05D8     		bhi	.L57
1914:Generated_Source\PSoC4/BLE_1_eventHandler.c ****                 {
1915:Generated_Source\PSoC4/BLE_1_eventHandler.c ****                     cyBle_mtuSize = ((CYBLE_GATT_XCHG_MTU_PARAM_T *)eventParam)->mtu;
 1050              		.loc 1 1915 0
 1051 0316 2E23     		movs	r3, #46
 1052 0318 FB18     		adds	r3, r7, r3
 1053 031a 3A68     		ldr	r2, [r7]
 1054 031c 5288     		ldrh	r2, [r2, #2]
 1055 031e 1A80     		strh	r2, [r3]
 1056 0320 03E0     		b	.L58
 1057              	.L57:
1916:Generated_Source\PSoC4/BLE_1_eventHandler.c ****                 }
1917:Generated_Source\PSoC4/BLE_1_eventHandler.c ****                 else
1918:Generated_Source\PSoC4/BLE_1_eventHandler.c ****                 {
1919:Generated_Source\PSoC4/BLE_1_eventHandler.c ****                     cyBle_mtuSize = CYBLE_GATT_MTU;
 1058              		.loc 1 1919 0
 1059 0322 2E23     		movs	r3, #46
 1060 0324 FB18     		adds	r3, r7, r3
 1061 0326 1722     		movs	r2, #23
 1062 0328 1A80     		strh	r2, [r3]
 1063              	.L58:
1920:Generated_Source\PSoC4/BLE_1_eventHandler.c ****                 }
1921:Generated_Source\PSoC4/BLE_1_eventHandler.c ****                 (void)CyBle_GattsExchangeMtuRsp(((CYBLE_GATT_XCHG_MTU_PARAM_T *)eventParam)->connHa
 1064              		.loc 1 1921 0
 1065 032a 2E23     		movs	r3, #46
 1066 032c FB18     		adds	r3, r7, r3
 1067 032e 1988     		ldrh	r1, [r3]
 1068 0330 3B68     		ldr	r3, [r7]
 1069 0332 1A88     		ldrh	r2, [r3]
 1070 0334 0023     		movs	r3, #0
 1071 0336 1204     		lsls	r2, r2, #16
 1072 0338 120C     		lsrs	r2, r2, #16
 1073 033a 1B0C     		lsrs	r3, r3, #16
 1074 033c 1B04     		lsls	r3, r3, #16
 1075 033e 1343     		orrs	r3, r2
 1076 0340 1800     		movs	r0, r3
 1077 0342 FFF7FEFF 		bl	CyBle_GattsExchangeMtuRsp
 1078              	.LBE10:
1922:Generated_Source\PSoC4/BLE_1_eventHandler.c ****             }
1923:Generated_Source\PSoC4/BLE_1_eventHandler.c ****             break;
 1079              		.loc 1 1923 0
 1080 0346 32E0     		b	.L48
 1081              	.L38:
1924:Generated_Source\PSoC4/BLE_1_eventHandler.c ****     #endif /* CYBLE_GATT_ROLE_SERVER || CYBLE_GATT_ROLE_CLIENT */
1925:Generated_Source\PSoC4/BLE_1_eventHandler.c ****     
1926:Generated_Source\PSoC4/BLE_1_eventHandler.c ****     #if (CYBLE_GATT_ROLE_CLIENT)
ARM GAS  C:\Users\ROUSSMA\AppData\Local\Temp\cc3gA5P4.s 			page 54


1927:Generated_Source\PSoC4/BLE_1_eventHandler.c ****         case CYBLE_EVT_GAPC_SCAN_PROGRESS_RESULT:
1928:Generated_Source\PSoC4/BLE_1_eventHandler.c ****         #ifdef CYBLE_CPS_CLIENT
1929:Generated_Source\PSoC4/BLE_1_eventHandler.c ****             CyBle_CpscScanProcessEventHandler((CYBLE_GAPC_ADV_REPORT_T *)eventParam);
1930:Generated_Source\PSoC4/BLE_1_eventHandler.c ****         #endif /* CYBLE_CPS_CLIENT */
1931:Generated_Source\PSoC4/BLE_1_eventHandler.c ****             break;
1932:Generated_Source\PSoC4/BLE_1_eventHandler.c ****     #endif /* CYBLE_GATT_ROLE_CLIENT */
1933:Generated_Source\PSoC4/BLE_1_eventHandler.c **** 
1934:Generated_Source\PSoC4/BLE_1_eventHandler.c ****     #if(CYBLE_GATT_ROLE_SERVER)
1935:Generated_Source\PSoC4/BLE_1_eventHandler.c ****         case CYBLE_EVT_GATTS_WRITE_REQ:
1936:Generated_Source\PSoC4/BLE_1_eventHandler.c ****             CyBle_WriteReqHandler((CYBLE_GATTS_WRITE_REQ_PARAM_T *)eventParam);
 1082              		.loc 1 1936 0
 1083 0348 3B68     		ldr	r3, [r7]
 1084 034a 1800     		movs	r0, r3
 1085 034c FFF7FEFF 		bl	CyBle_WriteReqHandler
1937:Generated_Source\PSoC4/BLE_1_eventHandler.c ****             break;
 1086              		.loc 1 1937 0
 1087 0350 2DE0     		b	.L48
 1088              	.L42:
1938:Generated_Source\PSoC4/BLE_1_eventHandler.c **** 
1939:Generated_Source\PSoC4/BLE_1_eventHandler.c ****         case CYBLE_EVT_GATTS_WRITE_CMD_REQ:
1940:Generated_Source\PSoC4/BLE_1_eventHandler.c ****         #ifdef CYBLE_AIOS_SERVER
1941:Generated_Source\PSoC4/BLE_1_eventHandler.c ****             if((cyBle_eventHandlerFlag & CYBLE_CALLBACK) != 0u)
1942:Generated_Source\PSoC4/BLE_1_eventHandler.c ****             {
1943:Generated_Source\PSoC4/BLE_1_eventHandler.c ****                 (void)CyBle_AiossWriteEventHandler((CYBLE_GATTS_WRITE_REQ_PARAM_T *)eventParam);
1944:Generated_Source\PSoC4/BLE_1_eventHandler.c ****             }
1945:Generated_Source\PSoC4/BLE_1_eventHandler.c ****         #endif /* CYBLE_AIOS_SERVER */
1946:Generated_Source\PSoC4/BLE_1_eventHandler.c ****         #ifdef CYBLE_IAS_SERVER
1947:Generated_Source\PSoC4/BLE_1_eventHandler.c ****             if((cyBle_eventHandlerFlag & CYBLE_CALLBACK) != 0u)
1948:Generated_Source\PSoC4/BLE_1_eventHandler.c ****             {
1949:Generated_Source\PSoC4/BLE_1_eventHandler.c ****                 (void)CyBle_IassWriteCmdEventHandler((CYBLE_GATTS_WRITE_REQ_PARAM_T *)eventParam);
1950:Generated_Source\PSoC4/BLE_1_eventHandler.c ****             }
1951:Generated_Source\PSoC4/BLE_1_eventHandler.c ****         #endif /* CYBLE_IAS_SERVER */
1952:Generated_Source\PSoC4/BLE_1_eventHandler.c ****         #ifdef CYBLE_IPS_SERVER
1953:Generated_Source\PSoC4/BLE_1_eventHandler.c ****             if((cyBle_eventHandlerFlag & CYBLE_CALLBACK) != 0u)
1954:Generated_Source\PSoC4/BLE_1_eventHandler.c ****             {
1955:Generated_Source\PSoC4/BLE_1_eventHandler.c ****                 (void)CyBle_IpssWriteCmdEventHandler((CYBLE_GATTS_WRITE_REQ_PARAM_T *)eventParam);
1956:Generated_Source\PSoC4/BLE_1_eventHandler.c ****             }
1957:Generated_Source\PSoC4/BLE_1_eventHandler.c ****         #endif /* CYBLE_IPS_SERVER */
1958:Generated_Source\PSoC4/BLE_1_eventHandler.c ****         #ifdef CYBLE_HIDS_SERVER
1959:Generated_Source\PSoC4/BLE_1_eventHandler.c ****             if((cyBle_eventHandlerFlag & CYBLE_CALLBACK) != 0u)
1960:Generated_Source\PSoC4/BLE_1_eventHandler.c ****             {
1961:Generated_Source\PSoC4/BLE_1_eventHandler.c ****                 (void)CyBle_HidssWriteEventHandler((CYBLE_GATTS_WRITE_REQ_PARAM_T *)eventParam);
1962:Generated_Source\PSoC4/BLE_1_eventHandler.c ****             }
1963:Generated_Source\PSoC4/BLE_1_eventHandler.c ****         #endif /* CYBLE_HIDS_SERVER */
1964:Generated_Source\PSoC4/BLE_1_eventHandler.c ****         #ifdef CYBLE_PASS_SERVER
1965:Generated_Source\PSoC4/BLE_1_eventHandler.c ****             if((cyBle_eventHandlerFlag & CYBLE_CALLBACK) != 0u)
1966:Generated_Source\PSoC4/BLE_1_eventHandler.c ****             {
1967:Generated_Source\PSoC4/BLE_1_eventHandler.c ****                 (void)CyBle_PasssWriteCmdEventHandler((CYBLE_GATTS_WRITE_REQ_PARAM_T *)eventParam);
1968:Generated_Source\PSoC4/BLE_1_eventHandler.c ****             }
1969:Generated_Source\PSoC4/BLE_1_eventHandler.c ****         #endif /* CYBLE_PASS_SERVER */
1970:Generated_Source\PSoC4/BLE_1_eventHandler.c ****         #ifdef CYBLE_RTUS_SERVER
1971:Generated_Source\PSoC4/BLE_1_eventHandler.c ****             if((cyBle_eventHandlerFlag & CYBLE_CALLBACK) != 0u)
1972:Generated_Source\PSoC4/BLE_1_eventHandler.c ****             {
1973:Generated_Source\PSoC4/BLE_1_eventHandler.c ****                 (void)CyBle_RtussWriteCmdEventHandler((CYBLE_GATTS_WRITE_REQ_PARAM_T *)eventParam);
1974:Generated_Source\PSoC4/BLE_1_eventHandler.c ****             }
1975:Generated_Source\PSoC4/BLE_1_eventHandler.c ****         #endif /* CYBLE_RTUS_SERVER */
1976:Generated_Source\PSoC4/BLE_1_eventHandler.c ****         #ifdef CYBLE_SCPS_SERVER
ARM GAS  C:\Users\ROUSSMA\AppData\Local\Temp\cc3gA5P4.s 			page 55


1977:Generated_Source\PSoC4/BLE_1_eventHandler.c ****             if((cyBle_eventHandlerFlag & CYBLE_CALLBACK) != 0u)
1978:Generated_Source\PSoC4/BLE_1_eventHandler.c ****             {
1979:Generated_Source\PSoC4/BLE_1_eventHandler.c ****                 (void)CyBle_ScpssWriteEventHandler((CYBLE_GATTS_WRITE_REQ_PARAM_T *)eventParam);
1980:Generated_Source\PSoC4/BLE_1_eventHandler.c ****             }
1981:Generated_Source\PSoC4/BLE_1_eventHandler.c ****         #endif /* CYBLE_SCPS_SERVER */
1982:Generated_Source\PSoC4/BLE_1_eventHandler.c ****             break;
1983:Generated_Source\PSoC4/BLE_1_eventHandler.c ****         
1984:Generated_Source\PSoC4/BLE_1_eventHandler.c ****         case CYBLE_EVT_GATTS_PREP_WRITE_REQ:
1985:Generated_Source\PSoC4/BLE_1_eventHandler.c ****         #ifdef CYBLE_BMS_SERVER
1986:Generated_Source\PSoC4/BLE_1_eventHandler.c ****             CyBle_BmssPrepareWriteRequestEventHandler((CYBLE_GATTS_PREP_WRITE_REQ_PARAM_T *)eventPa
1987:Generated_Source\PSoC4/BLE_1_eventHandler.c ****         #endif /* CYBLE_BMS_SERVER */
1988:Generated_Source\PSoC4/BLE_1_eventHandler.c ****         #ifdef CYBLE_BTS_SERVER
1989:Generated_Source\PSoC4/BLE_1_eventHandler.c ****             if((cyBle_eventHandlerFlag & CYBLE_CALLBACK) != 0u)
1990:Generated_Source\PSoC4/BLE_1_eventHandler.c ****             {
1991:Generated_Source\PSoC4/BLE_1_eventHandler.c ****                 CyBle_BtssPrepareWriteRequestEventHandler((CYBLE_GATTS_PREP_WRITE_REQ_PARAM_T *)eve
1992:Generated_Source\PSoC4/BLE_1_eventHandler.c ****             }
1993:Generated_Source\PSoC4/BLE_1_eventHandler.c ****         #endif /* CYBLE_BTS_SERVER */
1994:Generated_Source\PSoC4/BLE_1_eventHandler.c ****         #ifdef CYBLE_ESS_SERVER
1995:Generated_Source\PSoC4/BLE_1_eventHandler.c ****             if((cyBle_eventHandlerFlag & CYBLE_CALLBACK) != 0u)
1996:Generated_Source\PSoC4/BLE_1_eventHandler.c ****             {
1997:Generated_Source\PSoC4/BLE_1_eventHandler.c ****                 CyBle_EsssPrepareWriteRequestEventHandler((CYBLE_GATTS_PREP_WRITE_REQ_PARAM_T *)eve
1998:Generated_Source\PSoC4/BLE_1_eventHandler.c ****             }
1999:Generated_Source\PSoC4/BLE_1_eventHandler.c ****         #endif /* CYBLE_ESS_SERVER */
2000:Generated_Source\PSoC4/BLE_1_eventHandler.c ****         #ifdef CYBLE_HPS_SERVER
2001:Generated_Source\PSoC4/BLE_1_eventHandler.c ****             if((cyBle_eventHandlerFlag & CYBLE_CALLBACK) != 0u)
2002:Generated_Source\PSoC4/BLE_1_eventHandler.c ****             {
2003:Generated_Source\PSoC4/BLE_1_eventHandler.c ****                 CyBle_HpssPrepareWriteRequestEventHandler((CYBLE_GATTS_PREP_WRITE_REQ_PARAM_T *)eve
2004:Generated_Source\PSoC4/BLE_1_eventHandler.c ****             }
2005:Generated_Source\PSoC4/BLE_1_eventHandler.c ****         #endif /* CYBLE_HPS_SERVER */
2006:Generated_Source\PSoC4/BLE_1_eventHandler.c ****         #ifdef CYBLE_IPS_SERVER
2007:Generated_Source\PSoC4/BLE_1_eventHandler.c ****             if((cyBle_eventHandlerFlag & CYBLE_CALLBACK) != 0u)
2008:Generated_Source\PSoC4/BLE_1_eventHandler.c ****             {
2009:Generated_Source\PSoC4/BLE_1_eventHandler.c ****                 CyBle_IpssPrepareWriteRequestEventHandler((CYBLE_GATTS_PREP_WRITE_REQ_PARAM_T *)eve
2010:Generated_Source\PSoC4/BLE_1_eventHandler.c ****             }
2011:Generated_Source\PSoC4/BLE_1_eventHandler.c ****         #endif /* CYBLE_IPS_SERVER */
2012:Generated_Source\PSoC4/BLE_1_eventHandler.c ****         #ifdef CYBLE_UDS_SERVER
2013:Generated_Source\PSoC4/BLE_1_eventHandler.c ****             if((cyBle_eventHandlerFlag & CYBLE_CALLBACK) != 0u)
2014:Generated_Source\PSoC4/BLE_1_eventHandler.c ****             {
2015:Generated_Source\PSoC4/BLE_1_eventHandler.c ****                 CyBle_UdssPrepareWriteRequestEventHandler((CYBLE_GATTS_PREP_WRITE_REQ_PARAM_T *)eve
2016:Generated_Source\PSoC4/BLE_1_eventHandler.c ****             }
2017:Generated_Source\PSoC4/BLE_1_eventHandler.c ****         #endif /* CYBLE_UDS_SERVER */
2018:Generated_Source\PSoC4/BLE_1_eventHandler.c ****             break;
2019:Generated_Source\PSoC4/BLE_1_eventHandler.c **** 
2020:Generated_Source\PSoC4/BLE_1_eventHandler.c ****         case CYBLE_EVT_GATTS_EXEC_WRITE_REQ:
2021:Generated_Source\PSoC4/BLE_1_eventHandler.c ****         #ifdef CYBLE_BMS_SERVER
2022:Generated_Source\PSoC4/BLE_1_eventHandler.c ****             CyBle_BmssExecuteWriteRequestEventHandler((CYBLE_GATTS_EXEC_WRITE_REQ_T *)eventParam);
2023:Generated_Source\PSoC4/BLE_1_eventHandler.c ****         #endif /* CYBLE_BMS_SERVER */
2024:Generated_Source\PSoC4/BLE_1_eventHandler.c ****         #ifdef CYBLE_BTS_SERVER
2025:Generated_Source\PSoC4/BLE_1_eventHandler.c ****             CyBle_BtssExecuteWriteRequestEventHandler((CYBLE_GATTS_EXEC_WRITE_REQ_T *)eventParam);
2026:Generated_Source\PSoC4/BLE_1_eventHandler.c ****         #endif /* CYBLE_BTS_SERVER */
2027:Generated_Source\PSoC4/BLE_1_eventHandler.c ****         #ifdef CYBLE_ESS_SERVER
2028:Generated_Source\PSoC4/BLE_1_eventHandler.c ****             CyBle_EsssExecuteWriteRequestEventHandler((CYBLE_GATTS_EXEC_WRITE_REQ_T *)eventParam);
2029:Generated_Source\PSoC4/BLE_1_eventHandler.c ****         #endif /* CYBLE_ESS_SERVER */
2030:Generated_Source\PSoC4/BLE_1_eventHandler.c ****         #ifdef CYBLE_HPS_SERVER
2031:Generated_Source\PSoC4/BLE_1_eventHandler.c ****             CyBle_HpssExecuteWriteRequestEventHandler((CYBLE_GATTS_EXEC_WRITE_REQ_T *)eventParam);
2032:Generated_Source\PSoC4/BLE_1_eventHandler.c ****         #endif /* CYBLE_HPS_SERVER */
2033:Generated_Source\PSoC4/BLE_1_eventHandler.c ****         #ifdef CYBLE_IPS_SERVER
ARM GAS  C:\Users\ROUSSMA\AppData\Local\Temp\cc3gA5P4.s 			page 56


2034:Generated_Source\PSoC4/BLE_1_eventHandler.c ****             CyBle_IpssExecuteWriteRequestEventHandler((CYBLE_GATTS_EXEC_WRITE_REQ_T *)eventParam);
2035:Generated_Source\PSoC4/BLE_1_eventHandler.c ****         #endif /* CYBLE_IPS_SERVER */
2036:Generated_Source\PSoC4/BLE_1_eventHandler.c **** 		#ifdef CYBLE_UDS_SERVER
2037:Generated_Source\PSoC4/BLE_1_eventHandler.c ****             CyBle_UdssExecuteWriteRequestEventHandler((CYBLE_GATTS_EXEC_WRITE_REQ_T *)eventParam);
2038:Generated_Source\PSoC4/BLE_1_eventHandler.c ****         #endif /* CYBLE_UDS_SERVER */
2039:Generated_Source\PSoC4/BLE_1_eventHandler.c ****             break;
2040:Generated_Source\PSoC4/BLE_1_eventHandler.c ****         
2041:Generated_Source\PSoC4/BLE_1_eventHandler.c ****         case CYBLE_EVT_GATTS_HANDLE_VALUE_CNF:
2042:Generated_Source\PSoC4/BLE_1_eventHandler.c ****             CyBle_ValueConfirmation((CYBLE_CONN_HANDLE_T *)eventParam);
 1089              		.loc 1 2042 0
 1090 0352 3B68     		ldr	r3, [r7]
 1091 0354 1800     		movs	r0, r3
 1092 0356 FFF7FEFF 		bl	CyBle_ValueConfirmation
2043:Generated_Source\PSoC4/BLE_1_eventHandler.c ****             break;
 1093              		.loc 1 2043 0
 1094 035a 28E0     		b	.L48
 1095              	.L60:
2044:Generated_Source\PSoC4/BLE_1_eventHandler.c ****             
2045:Generated_Source\PSoC4/BLE_1_eventHandler.c ****         case CYBLE_EVT_GATTS_READ_CHAR_VAL_ACCESS_REQ:
2046:Generated_Source\PSoC4/BLE_1_eventHandler.c ****         #ifdef CYBLE_UDS_SERVER
2047:Generated_Source\PSoC4/BLE_1_eventHandler.c ****             CyBle_UdssReadRequestEventHandler((CYBLE_GATTS_CHAR_VAL_READ_REQ_T *)eventParam);
2048:Generated_Source\PSoC4/BLE_1_eventHandler.c ****         #endif /* CYBLE_UDS_SERVER */
2049:Generated_Source\PSoC4/BLE_1_eventHandler.c ****             break;
2050:Generated_Source\PSoC4/BLE_1_eventHandler.c ****             
2051:Generated_Source\PSoC4/BLE_1_eventHandler.c ****     #endif /* CYBLE_GATT_ROLE_SERVER */
2052:Generated_Source\PSoC4/BLE_1_eventHandler.c **** 
2053:Generated_Source\PSoC4/BLE_1_eventHandler.c ****     #if (CYBLE_GATT_ROLE_CLIENT)
2054:Generated_Source\PSoC4/BLE_1_eventHandler.c ****         
2055:Generated_Source\PSoC4/BLE_1_eventHandler.c ****         case CYBLE_EVT_GATTC_READ_BY_GROUP_TYPE_RSP:
2056:Generated_Source\PSoC4/BLE_1_eventHandler.c ****             CyBle_ReadByGroupEventHandler((CYBLE_GATTC_READ_BY_GRP_RSP_PARAM_T *)eventParam);
2057:Generated_Source\PSoC4/BLE_1_eventHandler.c ****             break;
2058:Generated_Source\PSoC4/BLE_1_eventHandler.c **** 
2059:Generated_Source\PSoC4/BLE_1_eventHandler.c ****         case CYBLE_EVT_GATTC_READ_BY_TYPE_RSP:
2060:Generated_Source\PSoC4/BLE_1_eventHandler.c ****             CyBle_ReadByTypeEventHandler((CYBLE_GATTC_READ_BY_TYPE_RSP_PARAM_T *)eventParam);
2061:Generated_Source\PSoC4/BLE_1_eventHandler.c ****             break;
2062:Generated_Source\PSoC4/BLE_1_eventHandler.c **** 
2063:Generated_Source\PSoC4/BLE_1_eventHandler.c ****         case CYBLE_EVT_GATTC_READ_BLOB_RSP:
2064:Generated_Source\PSoC4/BLE_1_eventHandler.c ****         #ifdef CYBLE_ESS_CLIENT
2065:Generated_Source\PSoC4/BLE_1_eventHandler.c ****             CyBle_EsscReadLongRespEventHandler((CYBLE_GATTC_READ_RSP_PARAM_T *)eventParam);
2066:Generated_Source\PSoC4/BLE_1_eventHandler.c ****         #endif /* CYBLE_ESS_CLIENT */
2067:Generated_Source\PSoC4/BLE_1_eventHandler.c ****         #ifdef CYBLE_HPS_CLIENT
2068:Generated_Source\PSoC4/BLE_1_eventHandler.c ****             CyBle_HpscReadLongRespEventHandler((CYBLE_GATTC_READ_RSP_PARAM_T *)eventParam);
2069:Generated_Source\PSoC4/BLE_1_eventHandler.c ****         #endif /* CYBLE_HPS_CLIENT */
2070:Generated_Source\PSoC4/BLE_1_eventHandler.c **** 		#ifdef CYBLE_IPS_CLIENT
2071:Generated_Source\PSoC4/BLE_1_eventHandler.c ****             CyBle_IpscReadLongRespEventHandler((CYBLE_GATTC_READ_RSP_PARAM_T *)eventParam);
2072:Generated_Source\PSoC4/BLE_1_eventHandler.c ****         #endif /* CYBLE_IPS_CLIENT */
2073:Generated_Source\PSoC4/BLE_1_eventHandler.c ****         #ifdef CYBLE_UDS_CLIENT
2074:Generated_Source\PSoC4/BLE_1_eventHandler.c ****             if((cyBle_eventHandlerFlag & CYBLE_CALLBACK) != 0u)
2075:Generated_Source\PSoC4/BLE_1_eventHandler.c ****             {
2076:Generated_Source\PSoC4/BLE_1_eventHandler.c ****                 CyBle_UdscReadLongRespEventHandler((CYBLE_GATTC_READ_RSP_PARAM_T *)eventParam);
2077:Generated_Source\PSoC4/BLE_1_eventHandler.c ****             }
2078:Generated_Source\PSoC4/BLE_1_eventHandler.c ****         #endif /* CYBLE_UDS_CLIENT */
2079:Generated_Source\PSoC4/BLE_1_eventHandler.c ****             break;
2080:Generated_Source\PSoC4/BLE_1_eventHandler.c ****         
2081:Generated_Source\PSoC4/BLE_1_eventHandler.c ****         case CYBLE_EVT_GATTC_LONG_PROCEDURE_END:
2082:Generated_Source\PSoC4/BLE_1_eventHandler.c ****             CyBle_LongProcedureEndEventHandler();
2083:Generated_Source\PSoC4/BLE_1_eventHandler.c ****             break;
ARM GAS  C:\Users\ROUSSMA\AppData\Local\Temp\cc3gA5P4.s 			page 57


2084:Generated_Source\PSoC4/BLE_1_eventHandler.c ****         
2085:Generated_Source\PSoC4/BLE_1_eventHandler.c ****         case CYBLE_EVT_GATTC_FIND_INFO_RSP:
2086:Generated_Source\PSoC4/BLE_1_eventHandler.c ****             CyBle_FindInfoEventHandler((CYBLE_GATTC_FIND_INFO_RSP_PARAM_T *)eventParam);
2087:Generated_Source\PSoC4/BLE_1_eventHandler.c ****             break;
2088:Generated_Source\PSoC4/BLE_1_eventHandler.c **** 
2089:Generated_Source\PSoC4/BLE_1_eventHandler.c ****         case CYBLE_EVT_GATTC_ERROR_RSP:
2090:Generated_Source\PSoC4/BLE_1_eventHandler.c ****             CyBle_ErrorResponseEventHandler((CYBLE_GATTC_ERR_RSP_PARAM_T *)eventParam);
2091:Generated_Source\PSoC4/BLE_1_eventHandler.c ****             break;
2092:Generated_Source\PSoC4/BLE_1_eventHandler.c **** 
2093:Generated_Source\PSoC4/BLE_1_eventHandler.c ****         case CYBLE_EVT_GATTC_HANDLE_VALUE_NTF:
2094:Generated_Source\PSoC4/BLE_1_eventHandler.c ****             CyBle_NotificationEventHandler((CYBLE_GATTC_HANDLE_VALUE_NTF_PARAM_T *)eventParam);
2095:Generated_Source\PSoC4/BLE_1_eventHandler.c ****             break;
2096:Generated_Source\PSoC4/BLE_1_eventHandler.c **** 
2097:Generated_Source\PSoC4/BLE_1_eventHandler.c ****         case CYBLE_EVT_GATTC_HANDLE_VALUE_IND:
2098:Generated_Source\PSoC4/BLE_1_eventHandler.c ****             CyBle_GattcIndicationEventHandler((CYBLE_GATTC_HANDLE_VALUE_IND_PARAM_T *)eventParam);
2099:Generated_Source\PSoC4/BLE_1_eventHandler.c ****             CyBle_IndicationEventHandler((CYBLE_GATTC_HANDLE_VALUE_IND_PARAM_T *)eventParam);
2100:Generated_Source\PSoC4/BLE_1_eventHandler.c ****         
2101:Generated_Source\PSoC4/BLE_1_eventHandler.c ****             /* Respond with a Handle Value Confirmation when request handled */
2102:Generated_Source\PSoC4/BLE_1_eventHandler.c ****             if((cyBle_eventHandlerFlag & CYBLE_CALLBACK) == 0u)
2103:Generated_Source\PSoC4/BLE_1_eventHandler.c ****             {
2104:Generated_Source\PSoC4/BLE_1_eventHandler.c ****                 (void)CyBle_GattcConfirmation(((CYBLE_GATTC_HANDLE_VALUE_IND_PARAM_T *)eventParam)-
2105:Generated_Source\PSoC4/BLE_1_eventHandler.c ****             }
2106:Generated_Source\PSoC4/BLE_1_eventHandler.c ****             break;
2107:Generated_Source\PSoC4/BLE_1_eventHandler.c ****         
2108:Generated_Source\PSoC4/BLE_1_eventHandler.c ****         case CYBLE_EVT_GATTC_READ_RSP:
2109:Generated_Source\PSoC4/BLE_1_eventHandler.c ****             CyBle_ReadResponseEventHandler((CYBLE_GATTC_READ_RSP_PARAM_T *)eventParam);
2110:Generated_Source\PSoC4/BLE_1_eventHandler.c ****             break;
2111:Generated_Source\PSoC4/BLE_1_eventHandler.c ****         
2112:Generated_Source\PSoC4/BLE_1_eventHandler.c ****         case CYBLE_EVT_GATTC_READ_MULTI_RSP:
2113:Generated_Source\PSoC4/BLE_1_eventHandler.c ****             CyBle_ReadMultipleResponseEventHandler((CYBLE_GATTC_READ_RSP_PARAM_T *)eventParam);
2114:Generated_Source\PSoC4/BLE_1_eventHandler.c ****             break;
2115:Generated_Source\PSoC4/BLE_1_eventHandler.c ****             
2116:Generated_Source\PSoC4/BLE_1_eventHandler.c ****         case CYBLE_EVT_GATTC_WRITE_RSP:
2117:Generated_Source\PSoC4/BLE_1_eventHandler.c ****             CyBle_GattcWriteResponseEventHandler((CYBLE_CONN_HANDLE_T *)eventParam);
2118:Generated_Source\PSoC4/BLE_1_eventHandler.c ****             break;
2119:Generated_Source\PSoC4/BLE_1_eventHandler.c ****             
2120:Generated_Source\PSoC4/BLE_1_eventHandler.c ****         case CYBLE_EVT_GATTC_EXEC_WRITE_RSP:
2121:Generated_Source\PSoC4/BLE_1_eventHandler.c ****         #ifdef CYBLE_BMS_CLIENT
2122:Generated_Source\PSoC4/BLE_1_eventHandler.c ****             CyBle_BmscExecuteWriteResponseEventHandler((CYBLE_GATTC_EXEC_WRITE_RSP_T *)eventParam);
2123:Generated_Source\PSoC4/BLE_1_eventHandler.c ****         #endif /* CYBLE_BMS_CLIENT */
2124:Generated_Source\PSoC4/BLE_1_eventHandler.c ****         #ifdef CYBLE_ESS_CLIENT
2125:Generated_Source\PSoC4/BLE_1_eventHandler.c ****             if((cyBle_eventHandlerFlag & CYBLE_CALLBACK) != 0u)
2126:Generated_Source\PSoC4/BLE_1_eventHandler.c ****             {
2127:Generated_Source\PSoC4/BLE_1_eventHandler.c ****                 CyBle_EsscExecuteWriteResponseEventHandler((CYBLE_GATTC_EXEC_WRITE_RSP_T *)eventPar
2128:Generated_Source\PSoC4/BLE_1_eventHandler.c ****             }
2129:Generated_Source\PSoC4/BLE_1_eventHandler.c ****         #endif /* CYBLE_ESS_CLIENT */
2130:Generated_Source\PSoC4/BLE_1_eventHandler.c ****         #ifdef CYBLE_HPS_CLIENT
2131:Generated_Source\PSoC4/BLE_1_eventHandler.c ****             if((cyBle_eventHandlerFlag & CYBLE_CALLBACK) != 0u)
2132:Generated_Source\PSoC4/BLE_1_eventHandler.c ****             {
2133:Generated_Source\PSoC4/BLE_1_eventHandler.c ****                 CyBle_HpscExecuteWriteResponseEventHandler((CYBLE_GATTC_EXEC_WRITE_RSP_T *)eventPar
2134:Generated_Source\PSoC4/BLE_1_eventHandler.c ****             }
2135:Generated_Source\PSoC4/BLE_1_eventHandler.c ****         #endif /* CYBLE_HPS_CLIENT */
2136:Generated_Source\PSoC4/BLE_1_eventHandler.c ****         #ifdef CYBLE_IPS_CLIENT
2137:Generated_Source\PSoC4/BLE_1_eventHandler.c ****             if((cyBle_eventHandlerFlag & CYBLE_CALLBACK) != 0u)
2138:Generated_Source\PSoC4/BLE_1_eventHandler.c ****             {
2139:Generated_Source\PSoC4/BLE_1_eventHandler.c ****                 CyBle_IpscExecuteWriteResponseEventHandler((CYBLE_GATTC_EXEC_WRITE_RSP_T *)eventPar
2140:Generated_Source\PSoC4/BLE_1_eventHandler.c ****             }
ARM GAS  C:\Users\ROUSSMA\AppData\Local\Temp\cc3gA5P4.s 			page 58


2141:Generated_Source\PSoC4/BLE_1_eventHandler.c ****         #endif /* CYBLE_IPS_CLIENT */
2142:Generated_Source\PSoC4/BLE_1_eventHandler.c ****         #ifdef CYBLE_UDS_CLIENT
2143:Generated_Source\PSoC4/BLE_1_eventHandler.c ****             if((cyBle_eventHandlerFlag & CYBLE_CALLBACK) != 0u)
2144:Generated_Source\PSoC4/BLE_1_eventHandler.c ****             {
2145:Generated_Source\PSoC4/BLE_1_eventHandler.c ****                 CyBle_UdscExecuteWriteResponseEventHandler((CYBLE_GATTC_EXEC_WRITE_RSP_T *)eventPar
2146:Generated_Source\PSoC4/BLE_1_eventHandler.c ****             }
2147:Generated_Source\PSoC4/BLE_1_eventHandler.c ****         #endif /* CYBLE_UDS_CLIENT */
2148:Generated_Source\PSoC4/BLE_1_eventHandler.c ****             break;
2149:Generated_Source\PSoC4/BLE_1_eventHandler.c ****             
2150:Generated_Source\PSoC4/BLE_1_eventHandler.c ****     #endif /* CYBLE_GATT_ROLE_CLIENT */
2151:Generated_Source\PSoC4/BLE_1_eventHandler.c **** 
2152:Generated_Source\PSoC4/BLE_1_eventHandler.c ****     #if((CYBLE_GAP_ROLE_PERIPHERAL || CYBLE_GAP_ROLE_CENTRAL) && (CYBLE_BONDING_REQUIREMENT == CYBL
2153:Generated_Source\PSoC4/BLE_1_eventHandler.c **** 
2154:Generated_Source\PSoC4/BLE_1_eventHandler.c ****         case CYBLE_EVT_PENDING_FLASH_WRITE:
2155:Generated_Source\PSoC4/BLE_1_eventHandler.c ****             cyBle_pendingFlashWrite |= CYBLE_PENDING_STACK_FLASH_WRITE_BIT;
2156:Generated_Source\PSoC4/BLE_1_eventHandler.c ****             break;
2157:Generated_Source\PSoC4/BLE_1_eventHandler.c ****         
2158:Generated_Source\PSoC4/BLE_1_eventHandler.c ****     #endif  /* (CYBLE_BONDING_REQUIREMENT == CYBLE_BONDING_YES) */
2159:Generated_Source\PSoC4/BLE_1_eventHandler.c ****     
2160:Generated_Source\PSoC4/BLE_1_eventHandler.c ****         default:
2161:Generated_Source\PSoC4/BLE_1_eventHandler.c ****             break;
 1096              		.loc 1 2161 0
 1097 035c C046     		nop
 1098 035e 26E0     		b	.L48
 1099              	.L61:
1704:Generated_Source\PSoC4/BLE_1_eventHandler.c ****         /**********************************************************
 1100              		.loc 1 1704 0
 1101 0360 C046     		nop
 1102 0362 24E0     		b	.L48
 1103              	.L62:
1742:Generated_Source\PSoC4/BLE_1_eventHandler.c ****         
 1104              		.loc 1 1742 0
 1105 0364 C046     		nop
 1106 0366 22E0     		b	.L48
 1107              	.L66:
 1108              		.align	2
 1109              	.L65:
 1110 0368 00000000 		.word	cyBle_eventHandlerFlag
 1111 036c 10000000 		.word	.L24
 1112 0370 00000000 		.word	cyBle_sflashDeviceAddress
 1113 0374 7CF2FF0F 		.word	268431996
 1114 0378 7DF2FF0F 		.word	268431997
 1115 037c 7BF2FF0F 		.word	268431995
 1116 0380 78F2FF0F 		.word	268431992
 1117 0384 00000000 		.word	cyBle_deviceAddress
 1118 0388 0C000000 		.word	.LC0
 1119 038c 00000000 		.word	cyBle_state
 1120 0390 00000000 		.word	cyBle_busyStatus
 1121 0394 00000000 		.word	gPrepWriteReqMem.6666
 1122 0398 800D0000 		.word	cyBle_stackMemoryRam+3456
 1123 039c 00000000 		.word	cyBle_authInfo
 1124 03a0 00000000 		.word	cyBle_connHandle
 1125 03a4 00000000 		.word	CyBle_ApplCallback
 1126 03a8 00000000 		.word	cyBle_advertisingIntervalType
 1127              	.L63:
1833:Generated_Source\PSoC4/BLE_1_eventHandler.c ****         #endif /* CYBLE_GAP_ROLE_PERIPHERAL || CYBLE_GAP_ROLE_BROADCASTER */
 1128              		.loc 1 1833 0
ARM GAS  C:\Users\ROUSSMA\AppData\Local\Temp\cc3gA5P4.s 			page 59


 1129 03ac C046     		nop
 1130              	.L48:
2162:Generated_Source\PSoC4/BLE_1_eventHandler.c ****     }
2163:Generated_Source\PSoC4/BLE_1_eventHandler.c **** 
2164:Generated_Source\PSoC4/BLE_1_eventHandler.c ****     if(0u != (cyBle_eventHandlerFlag & (CYBLE_CALLBACK | CYBLE_ENABLE_ALL_EVENTS))) 
 1131              		.loc 1 2164 0
 1132 03ae 0D4B     		ldr	r3, .L67
 1133 03b0 1B78     		ldrb	r3, [r3]
 1134 03b2 DBB2     		uxtb	r3, r3
 1135 03b4 1A00     		movs	r2, r3
 1136 03b6 1123     		movs	r3, #17
 1137 03b8 1340     		ands	r3, r2
 1138 03ba 0ED0     		beq	.L64
2165:Generated_Source\PSoC4/BLE_1_eventHandler.c ****     {
2166:Generated_Source\PSoC4/BLE_1_eventHandler.c ****         cyBle_eventHandlerFlag &= (uint8)~CYBLE_CALLBACK;
 1139              		.loc 1 2166 0
 1140 03bc 094B     		ldr	r3, .L67
 1141 03be 1B78     		ldrb	r3, [r3]
 1142 03c0 DBB2     		uxtb	r3, r3
 1143 03c2 0122     		movs	r2, #1
 1144 03c4 9343     		bics	r3, r2
 1145 03c6 DAB2     		uxtb	r2, r3
 1146 03c8 064B     		ldr	r3, .L67
 1147 03ca 1A70     		strb	r2, [r3]
2167:Generated_Source\PSoC4/BLE_1_eventHandler.c ****         CyBle_ApplCallback((uint32)eventCode, eventParam);
 1148              		.loc 1 2167 0
 1149 03cc 064B     		ldr	r3, .L67+4
 1150 03ce 1B68     		ldr	r3, [r3]
 1151 03d0 FA1D     		adds	r2, r7, #7
 1152 03d2 1278     		ldrb	r2, [r2]
 1153 03d4 3968     		ldr	r1, [r7]
 1154 03d6 1000     		movs	r0, r2
 1155 03d8 9847     		blx	r3
 1156              	.L64:
2168:Generated_Source\PSoC4/BLE_1_eventHandler.c ****     }
2169:Generated_Source\PSoC4/BLE_1_eventHandler.c **** }
 1157              		.loc 1 2169 0
 1158 03da C046     		nop
 1159 03dc BD46     		mov	sp, r7
 1160 03de 0CB0     		add	sp, sp, #48
 1161              		@ sp needed
 1162 03e0 80BD     		pop	{r7, pc}
 1163              	.L68:
 1164 03e2 C046     		.align	2
 1165              	.L67:
 1166 03e4 00000000 		.word	cyBle_eventHandlerFlag
 1167 03e8 00000000 		.word	CyBle_ApplCallback
 1168              		.cfi_endproc
 1169              	.LFE10:
 1170              		.size	CyBle_EventHandler, .-CyBle_EventHandler
 1171              		.bss
 1172              		.align	2
 1173              	gPrepWriteReqMem.6666:
 1174 0000 00000000 		.space	8
 1174      00000000 
 1175              		.text
 1176              	.Letext0:
ARM GAS  C:\Users\ROUSSMA\AppData\Local\Temp\cc3gA5P4.s 			page 60


 1177              		.file 2 "Generated_Source\\PSoC4\\cytypes.h"
 1178              		.file 3 "Generated_Source\\PSoC4\\BLE_1_Stack.h"
 1179              		.file 4 "Generated_Source\\PSoC4\\BLE_1_StackHostMain.h"
 1180              		.file 5 "Generated_Source\\PSoC4\\BLE_1_StackGap.h"
 1181              		.file 6 "Generated_Source\\PSoC4\\BLE_1_StackGatt.h"
 1182              		.file 7 "Generated_Source\\PSoC4\\BLE_1_StackGattServer.h"
 1183              		.file 8 "Generated_Source\\PSoC4\\BLE_1.h"
 1184              		.file 9 "Generated_Source\\PSoC4\\BLE_1_eventHandler.h"