ARM GAS  C:\Users\ROUSSMA\AppData\Local\Temp\ccCQnK87.s 			page 1


   1              		.syntax unified
   2              		.cpu cortex-m0
   3              		.fpu softvfp
   4              		.eabi_attribute 20, 1
   5              		.eabi_attribute 21, 1
   6              		.eabi_attribute 23, 3
   7              		.eabi_attribute 24, 1
   8              		.eabi_attribute 25, 1
   9              		.eabi_attribute 26, 1
  10              		.eabi_attribute 30, 6
  11              		.eabi_attribute 34, 0
  12              		.eabi_attribute 18, 4
  13              		.thumb
  14              		.syntax unified
  15              		.file	"Capsense_TunerHelper.c"
  16              		.text
  17              	.Ltext0:
  18              		.cfi_sections	.debug_frame
  19              		.comm	Capsense_mailboxesComm,28,4
  20              		.section	.text.Capsense_TunerStart,"ax",%progbits
  21              		.align	2
  22              		.global	Capsense_TunerStart
  23              		.code	16
  24              		.thumb_func
  25              		.type	Capsense_TunerStart, %function
  26              	Capsense_TunerStart:
  27              	.LFB36:
  28              		.file 1 "Generated_Source\\PSoC4\\Capsense_TunerHelper.c"
   1:Generated_Source\PSoC4/Capsense_TunerHelper.c **** /*******************************************************************************
   2:Generated_Source\PSoC4/Capsense_TunerHelper.c **** * File Name: Capsense_TunerHelper.c
   3:Generated_Source\PSoC4/Capsense_TunerHelper.c **** * Version 2.60
   4:Generated_Source\PSoC4/Capsense_TunerHelper.c **** *
   5:Generated_Source\PSoC4/Capsense_TunerHelper.c **** * Description:
   6:Generated_Source\PSoC4/Capsense_TunerHelper.c **** *  This file provides the source code of the Tuner helper APIs for the CapSense CSD
   7:Generated_Source\PSoC4/Capsense_TunerHelper.c **** *  component.
   8:Generated_Source\PSoC4/Capsense_TunerHelper.c **** *
   9:Generated_Source\PSoC4/Capsense_TunerHelper.c **** * Note:
  10:Generated_Source\PSoC4/Capsense_TunerHelper.c **** *
  11:Generated_Source\PSoC4/Capsense_TunerHelper.c **** ********************************************************************************
  12:Generated_Source\PSoC4/Capsense_TunerHelper.c **** * Copyright 2013-2016, Cypress Semiconductor Corporation.  All rights reserved.
  13:Generated_Source\PSoC4/Capsense_TunerHelper.c **** * You may use this file only in accordance with the license, terms, conditions,
  14:Generated_Source\PSoC4/Capsense_TunerHelper.c **** * disclaimers, and limitations in the end user license agreement accompanying
  15:Generated_Source\PSoC4/Capsense_TunerHelper.c **** * the software package with which this file was provided.
  16:Generated_Source\PSoC4/Capsense_TunerHelper.c **** *******************************************************************************/
  17:Generated_Source\PSoC4/Capsense_TunerHelper.c **** 
  18:Generated_Source\PSoC4/Capsense_TunerHelper.c **** #include "Capsense_TunerHelper.h"
  19:Generated_Source\PSoC4/Capsense_TunerHelper.c **** #include "cyapicallbacks.h"
  20:Generated_Source\PSoC4/Capsense_TunerHelper.c **** 
  21:Generated_Source\PSoC4/Capsense_TunerHelper.c **** #if (Capsense_TUNER_API_GENERATE)
  22:Generated_Source\PSoC4/Capsense_TunerHelper.c ****     #include "SCB.h"
  23:Generated_Source\PSoC4/Capsense_TunerHelper.c ****     #include "SCB_EZI2C.h"
  24:Generated_Source\PSoC4/Capsense_TunerHelper.c ****     volatile Capsense_MAILBOXES Capsense_mailboxesComm;
  25:Generated_Source\PSoC4/Capsense_TunerHelper.c **** #endif  /* (Capsense_TUNER_API_GENERATE) */
  26:Generated_Source\PSoC4/Capsense_TunerHelper.c **** 
  27:Generated_Source\PSoC4/Capsense_TunerHelper.c **** /* `#START Capsense_TunerHelper_HEADER` */
  28:Generated_Source\PSoC4/Capsense_TunerHelper.c **** 
  29:Generated_Source\PSoC4/Capsense_TunerHelper.c **** /* `#END` */
ARM GAS  C:\Users\ROUSSMA\AppData\Local\Temp\ccCQnK87.s 			page 2


  30:Generated_Source\PSoC4/Capsense_TunerHelper.c **** 
  31:Generated_Source\PSoC4/Capsense_TunerHelper.c **** /*******************************************************************************
  32:Generated_Source\PSoC4/Capsense_TunerHelper.c **** * Function Name: Capsense_TunerStart
  33:Generated_Source\PSoC4/Capsense_TunerHelper.c **** ********************************************************************************
  34:Generated_Source\PSoC4/Capsense_TunerHelper.c **** *
  35:Generated_Source\PSoC4/Capsense_TunerHelper.c **** * Summary:
  36:Generated_Source\PSoC4/Capsense_TunerHelper.c **** *  Initializes the CapSense CSD component and EzI2C communication component to use
  37:Generated_Source\PSoC4/Capsense_TunerHelper.c **** *  a mailbox data structure for communication with the Tuner GUI.
  38:Generated_Source\PSoC4/Capsense_TunerHelper.c **** *  Start the scanning, after initialization is complete.
  39:Generated_Source\PSoC4/Capsense_TunerHelper.c **** *
  40:Generated_Source\PSoC4/Capsense_TunerHelper.c **** * Parameters:
  41:Generated_Source\PSoC4/Capsense_TunerHelper.c **** *  None
  42:Generated_Source\PSoC4/Capsense_TunerHelper.c **** *
  43:Generated_Source\PSoC4/Capsense_TunerHelper.c **** * Return:
  44:Generated_Source\PSoC4/Capsense_TunerHelper.c **** *  None
  45:Generated_Source\PSoC4/Capsense_TunerHelper.c **** *
  46:Generated_Source\PSoC4/Capsense_TunerHelper.c **** * Global Variables:
  47:Generated_Source\PSoC4/Capsense_TunerHelper.c **** *  None
  48:Generated_Source\PSoC4/Capsense_TunerHelper.c **** *
  49:Generated_Source\PSoC4/Capsense_TunerHelper.c **** *******************************************************************************/
  50:Generated_Source\PSoC4/Capsense_TunerHelper.c **** void Capsense_TunerStart(void)
  51:Generated_Source\PSoC4/Capsense_TunerHelper.c **** {
  29              		.loc 1 51 0
  30              		.cfi_startproc
  31              		@ args = 0, pretend = 0, frame = 0
  32              		@ frame_needed = 1, uses_anonymous_args = 0
  33 0000 80B5     		push	{r7, lr}
  34              		.cfi_def_cfa_offset 8
  35              		.cfi_offset 7, -8
  36              		.cfi_offset 14, -4
  37 0002 00AF     		add	r7, sp, #0
  38              		.cfi_def_cfa_register 7
  52:Generated_Source\PSoC4/Capsense_TunerHelper.c ****     #if (0u != Capsense_TUNER_API_GENERATE)
  53:Generated_Source\PSoC4/Capsense_TunerHelper.c **** 
  54:Generated_Source\PSoC4/Capsense_TunerHelper.c ****         /* Init mbx and quick check */
  55:Generated_Source\PSoC4/Capsense_TunerHelper.c ****         Capsense_InitMailbox(&Capsense_mailboxesComm.csdMailbox);
  39              		.loc 1 55 0
  40 0004 0B4B     		ldr	r3, .L2
  41 0006 1800     		movs	r0, r3
  42 0008 FFF7FEFF 		bl	Capsense_InitMailbox
  56:Generated_Source\PSoC4/Capsense_TunerHelper.c ****         Capsense_mailboxesComm.numMailBoxes = Capsense_DEFAULT_MAILBOXES_NUMBER;
  43              		.loc 1 56 0
  44 000c 0A4B     		ldr	r3, .L2+4
  45 000e 0122     		movs	r2, #1
  46 0010 1A70     		strb	r2, [r3]
  57:Generated_Source\PSoC4/Capsense_TunerHelper.c **** 
  58:Generated_Source\PSoC4/Capsense_TunerHelper.c ****         /* Start CapSense and baselines */
  59:Generated_Source\PSoC4/Capsense_TunerHelper.c ****         Capsense_Start();
  47              		.loc 1 59 0
  48 0012 FFF7FEFF 		bl	Capsense_Start
  60:Generated_Source\PSoC4/Capsense_TunerHelper.c **** 
  61:Generated_Source\PSoC4/Capsense_TunerHelper.c ****         /* Initialize baselines */
  62:Generated_Source\PSoC4/Capsense_TunerHelper.c ****         #if(0u != Capsense_CSHL_API_GENERATE)
  63:Generated_Source\PSoC4/Capsense_TunerHelper.c ****             Capsense_InitializeEnabledBaselines();
  49              		.loc 1 63 0
  50 0016 FFF7FEFF 		bl	Capsense_InitializeEnabledBaselines
  64:Generated_Source\PSoC4/Capsense_TunerHelper.c ****         #endif /* (0u != Capsense_CSHL_API_GENERATE) */
ARM GAS  C:\Users\ROUSSMA\AppData\Local\Temp\ccCQnK87.s 			page 3


  65:Generated_Source\PSoC4/Capsense_TunerHelper.c **** 
  66:Generated_Source\PSoC4/Capsense_TunerHelper.c ****         /* Start EzI2C, clears buf pointers */
  67:Generated_Source\PSoC4/Capsense_TunerHelper.c ****         SCB_Start();
  51              		.loc 1 67 0
  52 001a FFF7FEFF 		bl	SCB_Start
  68:Generated_Source\PSoC4/Capsense_TunerHelper.c **** 
  69:Generated_Source\PSoC4/Capsense_TunerHelper.c ****         /* Setup EzI2C buffers */
  70:Generated_Source\PSoC4/Capsense_TunerHelper.c ****         SCB_EzI2CSetBuffer1(sizeof(Capsense_mailboxesComm), sizeof(Capsense_mailboxesComm),
  53              		.loc 1 70 0
  54 001e 064B     		ldr	r3, .L2+4
  55 0020 1A00     		movs	r2, r3
  56 0022 1C21     		movs	r1, #28
  57 0024 1C20     		movs	r0, #28
  58 0026 FFF7FEFF 		bl	SCB_EzI2CSetBuffer1
  71:Generated_Source\PSoC4/Capsense_TunerHelper.c ****                                                    (volatile uint8 *) &Capsense_mailboxesComm);
  72:Generated_Source\PSoC4/Capsense_TunerHelper.c **** 
  73:Generated_Source\PSoC4/Capsense_TunerHelper.c ****         /* Starts scan all enabled sensors */
  74:Generated_Source\PSoC4/Capsense_TunerHelper.c ****         Capsense_ScanEnabledWidgets();
  59              		.loc 1 74 0
  60 002a FFF7FEFF 		bl	Capsense_ScanEnabledWidgets
  75:Generated_Source\PSoC4/Capsense_TunerHelper.c **** 
  76:Generated_Source\PSoC4/Capsense_TunerHelper.c ****     #endif  /* (0u != Capsense_TUNER_API_GENERATE) */
  77:Generated_Source\PSoC4/Capsense_TunerHelper.c **** }
  61              		.loc 1 77 0
  62 002e C046     		nop
  63 0030 BD46     		mov	sp, r7
  64              		@ sp needed
  65 0032 80BD     		pop	{r7, pc}
  66              	.L3:
  67              		.align	2
  68              	.L2:
  69 0034 01000000 		.word	Capsense_mailboxesComm+1
  70 0038 00000000 		.word	Capsense_mailboxesComm
  71              		.cfi_endproc
  72              	.LFE36:
  73              		.size	Capsense_TunerStart, .-Capsense_TunerStart
  74              		.section	.text.Capsense_TunerComm,"ax",%progbits
  75              		.align	2
  76              		.global	Capsense_TunerComm
  77              		.code	16
  78              		.thumb_func
  79              		.type	Capsense_TunerComm, %function
  80              	Capsense_TunerComm:
  81              	.LFB37:
  78:Generated_Source\PSoC4/Capsense_TunerHelper.c **** 
  79:Generated_Source\PSoC4/Capsense_TunerHelper.c **** 
  80:Generated_Source\PSoC4/Capsense_TunerHelper.c **** /*******************************************************************************
  81:Generated_Source\PSoC4/Capsense_TunerHelper.c **** * Function Name: Capsense_TunerComm
  82:Generated_Source\PSoC4/Capsense_TunerHelper.c **** ********************************************************************************
  83:Generated_Source\PSoC4/Capsense_TunerHelper.c **** *
  84:Generated_Source\PSoC4/Capsense_TunerHelper.c **** * Summary:
  85:Generated_Source\PSoC4/Capsense_TunerHelper.c **** *  This function is blocking. It waits till scanning loop is completed and applies
  86:Generated_Source\PSoC4/Capsense_TunerHelper.c **** *  the new parameters from the Tuner GUI if available (the manual tuning mode only). Updates
  87:Generated_Source\PSoC4/Capsense_TunerHelper.c **** *  the enabled baselines and state of widgets. Waits while the Tuner GUI reports that
  88:Generated_Source\PSoC4/Capsense_TunerHelper.c **** *  the mailbox content  could be modified. Then loads the report data into the outbox
  89:Generated_Source\PSoC4/Capsense_TunerHelper.c **** *  and sets a busy flag. Starts a new scanning loop.
  90:Generated_Source\PSoC4/Capsense_TunerHelper.c **** *
ARM GAS  C:\Users\ROUSSMA\AppData\Local\Temp\ccCQnK87.s 			page 4


  91:Generated_Source\PSoC4/Capsense_TunerHelper.c **** * Parameters:
  92:Generated_Source\PSoC4/Capsense_TunerHelper.c **** *  None
  93:Generated_Source\PSoC4/Capsense_TunerHelper.c **** *
  94:Generated_Source\PSoC4/Capsense_TunerHelper.c **** * Return:
  95:Generated_Source\PSoC4/Capsense_TunerHelper.c **** *  None
  96:Generated_Source\PSoC4/Capsense_TunerHelper.c **** *
  97:Generated_Source\PSoC4/Capsense_TunerHelper.c **** * Global Variables:
  98:Generated_Source\PSoC4/Capsense_TunerHelper.c **** *  None
  99:Generated_Source\PSoC4/Capsense_TunerHelper.c **** *
 100:Generated_Source\PSoC4/Capsense_TunerHelper.c **** *******************************************************************************/
 101:Generated_Source\PSoC4/Capsense_TunerHelper.c **** void Capsense_TunerComm(void)
 102:Generated_Source\PSoC4/Capsense_TunerHelper.c **** {
  82              		.loc 1 102 0
  83              		.cfi_startproc
  84              		@ args = 0, pretend = 0, frame = 0
  85              		@ frame_needed = 1, uses_anonymous_args = 0
  86 0000 80B5     		push	{r7, lr}
  87              		.cfi_def_cfa_offset 8
  88              		.cfi_offset 7, -8
  89              		.cfi_offset 14, -4
  90 0002 00AF     		add	r7, sp, #0
  91              		.cfi_def_cfa_register 7
 103:Generated_Source\PSoC4/Capsense_TunerHelper.c ****     #if (0u != Capsense_TUNER_API_GENERATE)
 104:Generated_Source\PSoC4/Capsense_TunerHelper.c ****         if (0u == Capsense_IsBusy())
  92              		.loc 1 104 0
  93 0004 FFF7FEFF 		bl	Capsense_IsBusy
  94 0008 031E     		subs	r3, r0, #0
  95 000a 21D1     		bne	.L7
 105:Generated_Source\PSoC4/Capsense_TunerHelper.c ****         {
 106:Generated_Source\PSoC4/Capsense_TunerHelper.c ****             /* Apply new settings */
 107:Generated_Source\PSoC4/Capsense_TunerHelper.c ****             #if((Capsense_TUNING_METHOD != Capsense__TUNING_NONE) &&\
 108:Generated_Source\PSoC4/Capsense_TunerHelper.c ****                 (0u != Capsense_TOTAL_TRACKPAD_GESTURES_COUNT) ||\
 109:Generated_Source\PSoC4/Capsense_TunerHelper.c ****                 (Capsense_TUNING_METHOD == Capsense__TUNING_MANUAL))
 110:Generated_Source\PSoC4/Capsense_TunerHelper.c **** 
 111:Generated_Source\PSoC4/Capsense_TunerHelper.c ****                 Capsense_ReadMessage(&Capsense_mailboxesComm.csdMailbox);
  96              		.loc 1 111 0
  97 000c 124B     		ldr	r3, .L8
  98 000e 1800     		movs	r0, r3
  99 0010 FFF7FEFF 		bl	Capsense_ReadMessage
 112:Generated_Source\PSoC4/Capsense_TunerHelper.c **** 
 113:Generated_Source\PSoC4/Capsense_TunerHelper.c ****             #endif  /* ((Capsense_TUNING_METHOD != Capsense__TUNING_NONE) &&\
 114:Generated_Source\PSoC4/Capsense_TunerHelper.c ****                         (0u != Capsense_TOTAL_TRACKPAD_GESTURES_COUNT) ||\
 115:Generated_Source\PSoC4/Capsense_TunerHelper.c ****                         (Capsense_TUNING_METHOD == Capsense__TUNING_MANUAL)) */
 116:Generated_Source\PSoC4/Capsense_TunerHelper.c **** 
 117:Generated_Source\PSoC4/Capsense_TunerHelper.c ****             #if(0u != Capsense_CSHL_API_GENERATE)
 118:Generated_Source\PSoC4/Capsense_TunerHelper.c ****                 /* Update all baselines and process all widgets */
 119:Generated_Source\PSoC4/Capsense_TunerHelper.c ****                 Capsense_UpdateEnabledBaselines();
 100              		.loc 1 119 0
 101 0014 FFF7FEFF 		bl	Capsense_UpdateEnabledBaselines
 120:Generated_Source\PSoC4/Capsense_TunerHelper.c ****                 Capsense_ProcessAllWidgets(&Capsense_mailboxesComm.csdMailbox.outbox);
 102              		.loc 1 120 0
 103 0018 104B     		ldr	r3, .L8+4
 104 001a 1800     		movs	r0, r3
 105 001c FFF7FEFF 		bl	Capsense_ProcessAllWidgets
 121:Generated_Source\PSoC4/Capsense_TunerHelper.c ****             #endif /* (0u != Capsense_CSHL_API_GENERATE) */
 122:Generated_Source\PSoC4/Capsense_TunerHelper.c **** 
 123:Generated_Source\PSoC4/Capsense_TunerHelper.c ****             Capsense_PostMessage(&Capsense_mailboxesComm.csdMailbox);
ARM GAS  C:\Users\ROUSSMA\AppData\Local\Temp\ccCQnK87.s 			page 5


 106              		.loc 1 123 0
 107 0020 0D4B     		ldr	r3, .L8
 108 0022 1800     		movs	r0, r3
 109 0024 FFF7FEFF 		bl	Capsense_PostMessage
 124:Generated_Source\PSoC4/Capsense_TunerHelper.c **** 
 125:Generated_Source\PSoC4/Capsense_TunerHelper.c ****             /* Enable EZI2C interrupts, after scan complete */
 126:Generated_Source\PSoC4/Capsense_TunerHelper.c ****             SCB_EnableInt();
 110              		.loc 1 126 0
 111 0028 0A20     		movs	r0, #10
 112 002a FFF7FEFF 		bl	CyIntEnable
 127:Generated_Source\PSoC4/Capsense_TunerHelper.c **** 
 128:Generated_Source\PSoC4/Capsense_TunerHelper.c ****             while((Capsense_mailboxesComm.csdMailbox.type != Capsense_TYPE_ID) ||
 113              		.loc 1 128 0
 114 002e C046     		nop
 115              	.L6:
 116              		.loc 1 128 0 is_stmt 0 discriminator 3
 117 0030 0B4B     		ldr	r3, .L8+8
 118 0032 5B78     		ldrb	r3, [r3, #1]
 119 0034 DBB2     		uxtb	r3, r3
 120 0036 042B     		cmp	r3, #4
 121 0038 FAD1     		bne	.L6
 129:Generated_Source\PSoC4/Capsense_TunerHelper.c ****                   (0u != (SCB_EzI2CGetActivity() & SCB_EZI2C_STATUS_BUSY))){}
 122              		.loc 1 129 0 is_stmt 1 discriminator 2
 123 003a FFF7FEFF 		bl	SCB_EzI2CGetActivity
 124 003e 0200     		movs	r2, r0
 125 0040 2023     		movs	r3, #32
 126 0042 1340     		ands	r3, r2
 128:Generated_Source\PSoC4/Capsense_TunerHelper.c ****                   (0u != (SCB_EzI2CGetActivity() & SCB_EZI2C_STATUS_BUSY))){}
 127              		.loc 1 128 0 discriminator 2
 128 0044 F4D1     		bne	.L6
 130:Generated_Source\PSoC4/Capsense_TunerHelper.c **** 
 131:Generated_Source\PSoC4/Capsense_TunerHelper.c ****             /* Disable EZI2C interrupts, while scanning */
 132:Generated_Source\PSoC4/Capsense_TunerHelper.c ****             SCB_DisableInt();
 129              		.loc 1 132 0
 130 0046 0A20     		movs	r0, #10
 131 0048 FFF7FEFF 		bl	CyIntDisable
 133:Generated_Source\PSoC4/Capsense_TunerHelper.c **** 
 134:Generated_Source\PSoC4/Capsense_TunerHelper.c ****             /* Start scan all sensors */
 135:Generated_Source\PSoC4/Capsense_TunerHelper.c ****             Capsense_ScanEnabledWidgets();
 132              		.loc 1 135 0
 133 004c FFF7FEFF 		bl	Capsense_ScanEnabledWidgets
 134              	.L7:
 136:Generated_Source\PSoC4/Capsense_TunerHelper.c ****         }
 137:Generated_Source\PSoC4/Capsense_TunerHelper.c ****     #endif /* (0u != Capsense_TUNER_API_GENERATE) */
 138:Generated_Source\PSoC4/Capsense_TunerHelper.c **** }
 135              		.loc 1 138 0
 136 0050 C046     		nop
 137 0052 BD46     		mov	sp, r7
 138              		@ sp needed
 139 0054 80BD     		pop	{r7, pc}
 140              	.L9:
 141 0056 C046     		.align	2
 142              	.L8:
 143 0058 01000000 		.word	Capsense_mailboxesComm+1
 144 005c 04000000 		.word	Capsense_mailboxesComm+4
 145 0060 00000000 		.word	Capsense_mailboxesComm
 146              		.cfi_endproc
ARM GAS  C:\Users\ROUSSMA\AppData\Local\Temp\ccCQnK87.s 			page 6


 147              	.LFE37:
 148              		.size	Capsense_TunerComm, .-Capsense_TunerComm
 149              		.section	.text.Capsense_ProcessAllWidgets,"ax",%progbits
 150              		.align	2
 151              		.global	Capsense_ProcessAllWidgets
 152              		.code	16
 153              		.thumb_func
 154              		.type	Capsense_ProcessAllWidgets, %function
 155              	Capsense_ProcessAllWidgets:
 156              	.LFB38:
 139:Generated_Source\PSoC4/Capsense_TunerHelper.c **** 
 140:Generated_Source\PSoC4/Capsense_TunerHelper.c **** 
 141:Generated_Source\PSoC4/Capsense_TunerHelper.c **** #if ((0u != Capsense_TUNER_API_GENERATE) && (0u != Capsense_CSHL_API_GENERATE))
 142:Generated_Source\PSoC4/Capsense_TunerHelper.c ****     /*******************************************************************************
 143:Generated_Source\PSoC4/Capsense_TunerHelper.c ****     * Function Name: Capsense_ProcessAllWidgets
 144:Generated_Source\PSoC4/Capsense_TunerHelper.c ****     ********************************************************************************
 145:Generated_Source\PSoC4/Capsense_TunerHelper.c ****     *
 146:Generated_Source\PSoC4/Capsense_TunerHelper.c ****     * Summary:
 147:Generated_Source\PSoC4/Capsense_TunerHelper.c ****     *  Calls the required functions to update all the widgets' state:
 148:Generated_Source\PSoC4/Capsense_TunerHelper.c ****     *   - Capsense_GetCentroidPos() - calls only if linear sliders are
 149:Generated_Source\PSoC4/Capsense_TunerHelper.c ****     *     available.
 150:Generated_Source\PSoC4/Capsense_TunerHelper.c ****     *   - Capsense_GetRadialCentroidPos() - calls only if the  radial slider is
 151:Generated_Source\PSoC4/Capsense_TunerHelper.c ****     *     available.
 152:Generated_Source\PSoC4/Capsense_TunerHelper.c ****     *   - Capsense_GetTouchCentroidPos() - calls only if the  touchpad slider
 153:Generated_Source\PSoC4/Capsense_TunerHelper.c ****     *     available.
 154:Generated_Source\PSoC4/Capsense_TunerHelper.c ****     *   - Capsense_CheckIsAnyWidgetActive();
 155:Generated_Source\PSoC4/Capsense_TunerHelper.c ****     *  The results of operations are copied to OUTBOX.
 156:Generated_Source\PSoC4/Capsense_TunerHelper.c ****     *
 157:Generated_Source\PSoC4/Capsense_TunerHelper.c ****     * Parameters:
 158:Generated_Source\PSoC4/Capsense_TunerHelper.c ****     *  None
 159:Generated_Source\PSoC4/Capsense_TunerHelper.c ****     *
 160:Generated_Source\PSoC4/Capsense_TunerHelper.c ****     * Return:
 161:Generated_Source\PSoC4/Capsense_TunerHelper.c ****     *  None
 162:Generated_Source\PSoC4/Capsense_TunerHelper.c ****     *
 163:Generated_Source\PSoC4/Capsense_TunerHelper.c ****     * Global Variables:
 164:Generated_Source\PSoC4/Capsense_TunerHelper.c ****     *  Capsense_OUTBOX outbox - the structure which is used as an output
 165:Generated_Source\PSoC4/Capsense_TunerHelper.c ****     *  buffer to report data to the Tuner GUI.
 166:Generated_Source\PSoC4/Capsense_TunerHelper.c ****     *  Update fields:
 167:Generated_Source\PSoC4/Capsense_TunerHelper.c ****     *    - position[];
 168:Generated_Source\PSoC4/Capsense_TunerHelper.c ****     *    - OnMask[];
 169:Generated_Source\PSoC4/Capsense_TunerHelper.c ****     *
 170:Generated_Source\PSoC4/Capsense_TunerHelper.c ****     * Global Variables:
 171:Generated_Source\PSoC4/Capsense_TunerHelper.c ****     *  None
 172:Generated_Source\PSoC4/Capsense_TunerHelper.c ****     *
 173:Generated_Source\PSoC4/Capsense_TunerHelper.c ****     *******************************************************************************/
 174:Generated_Source\PSoC4/Capsense_TunerHelper.c ****     void Capsense_ProcessAllWidgets(volatile Capsense_OUTBOX *outbox)
 175:Generated_Source\PSoC4/Capsense_TunerHelper.c ****     {
 157              		.loc 1 175 0
 158              		.cfi_startproc
 159              		@ args = 0, pretend = 0, frame = 16
 160              		@ frame_needed = 1, uses_anonymous_args = 0
 161 0000 80B5     		push	{r7, lr}
 162              		.cfi_def_cfa_offset 8
 163              		.cfi_offset 7, -8
 164              		.cfi_offset 14, -4
 165 0002 84B0     		sub	sp, sp, #16
 166              		.cfi_def_cfa_offset 24
ARM GAS  C:\Users\ROUSSMA\AppData\Local\Temp\ccCQnK87.s 			page 7


 167 0004 00AF     		add	r7, sp, #0
 168              		.cfi_def_cfa_register 7
 169 0006 7860     		str	r0, [r7, #4]
 176:Generated_Source\PSoC4/Capsense_TunerHelper.c ****         uint8  i = 0u;
 170              		.loc 1 176 0
 171 0008 0F23     		movs	r3, #15
 172 000a FB18     		adds	r3, r7, r3
 173 000c 0022     		movs	r2, #0
 174 000e 1A70     		strb	r2, [r3]
 177:Generated_Source\PSoC4/Capsense_TunerHelper.c **** 
 178:Generated_Source\PSoC4/Capsense_TunerHelper.c ****         #if (0u != Capsense_TOTAL_MATRIX_BUTTONS_COUNT)
 179:Generated_Source\PSoC4/Capsense_TunerHelper.c ****             uint8 mbPositionBuf[Capsense_MB_POSITION_BUFFER_SIZE];
 180:Generated_Source\PSoC4/Capsense_TunerHelper.c ****         #endif /* (0u != Capsense_TOTAL_MATRIX_BUTTONS_COUNT) */
 181:Generated_Source\PSoC4/Capsense_TunerHelper.c **** 
 182:Generated_Source\PSoC4/Capsense_TunerHelper.c ****         #if (0u != Capsense_TOTAL_TOUCH_PADS_BASIC_COUNT)
 183:Generated_Source\PSoC4/Capsense_TunerHelper.c ****             uint16 centroidPosBuf[Capsense_CENTROID_POSITION_BUFFER_SIZE];
 184:Generated_Source\PSoC4/Capsense_TunerHelper.c ****         #endif  /* (0u != Capsense_TOTAL_TOUCH_PADS_BASIC_COUNT) */
 185:Generated_Source\PSoC4/Capsense_TunerHelper.c **** 
 186:Generated_Source\PSoC4/Capsense_TunerHelper.c ****         #if(0u != Capsense_TOTAL_TRACKPAD_GESTURES_COUNT)
 187:Generated_Source\PSoC4/Capsense_TunerHelper.c ****             Capsense_POSITION_STRUCT trackpadPosBuf[Capsense_CENTROID_POSITION_BUFFER_SIZE];
 188:Generated_Source\PSoC4/Capsense_TunerHelper.c ****         #endif  /* (0u != Capsense_TOTAL_TRACKPAD_GESTURES_COUNT) */
 189:Generated_Source\PSoC4/Capsense_TunerHelper.c **** 
 190:Generated_Source\PSoC4/Capsense_TunerHelper.c ****         #if ( (0u != Capsense_TOTAL_RADIAL_SLIDERS_COUNT) || (0u != Capsense_TOTAL_TOUCH_PADS_COUNT
 191:Generated_Source\PSoC4/Capsense_TunerHelper.c ****               (0u != Capsense_TOTAL_MATRIX_BUTTONS_COUNT))
 192:Generated_Source\PSoC4/Capsense_TunerHelper.c ****             uint8 widgetCnt;
 193:Generated_Source\PSoC4/Capsense_TunerHelper.c ****         #endif  /* ((0u != Capsense_TOTAL_RADIAL_SLIDERS_COUNT) || (0u != Capsense_TOTAL_TOUCH_PADS
 194:Generated_Source\PSoC4/Capsense_TunerHelper.c ****                 *   (0u != Capsense_TOTAL_MATRIX_BUTTONS_COUNT)
 195:Generated_Source\PSoC4/Capsense_TunerHelper.c ****                 */
 196:Generated_Source\PSoC4/Capsense_TunerHelper.c **** 
 197:Generated_Source\PSoC4/Capsense_TunerHelper.c ****         /* Calculate widget with centroids */
 198:Generated_Source\PSoC4/Capsense_TunerHelper.c ****         #if (0u != Capsense_TOTAL_LINEAR_SLIDERS_COUNT)
 199:Generated_Source\PSoC4/Capsense_TunerHelper.c ****             for(; i < Capsense_TOTAL_LINEAR_SLIDERS_COUNT; i++)
 200:Generated_Source\PSoC4/Capsense_TunerHelper.c ****             {
 201:Generated_Source\PSoC4/Capsense_TunerHelper.c ****                 outbox->centroidPosition[i] = (uint16)Capsense_GetCentroidPos((uint32)i);
 202:Generated_Source\PSoC4/Capsense_TunerHelper.c ****             }
 203:Generated_Source\PSoC4/Capsense_TunerHelper.c ****         #endif /* (0u != Capsense_TOTAL_LINEAR_SLIDERS_COUNT) */
 204:Generated_Source\PSoC4/Capsense_TunerHelper.c **** 
 205:Generated_Source\PSoC4/Capsense_TunerHelper.c ****         #if (0u != Capsense_TOTAL_RADIAL_SLIDERS_COUNT)
 206:Generated_Source\PSoC4/Capsense_TunerHelper.c ****             widgetCnt = i;
 207:Generated_Source\PSoC4/Capsense_TunerHelper.c ****             for(; i < (widgetCnt + Capsense_TOTAL_RADIAL_SLIDERS_COUNT); i++)
 208:Generated_Source\PSoC4/Capsense_TunerHelper.c ****             {
 209:Generated_Source\PSoC4/Capsense_TunerHelper.c ****                 outbox->centroidPosition[i] = (uint16)Capsense_GetRadialCentroidPos((uint32)i);
 210:Generated_Source\PSoC4/Capsense_TunerHelper.c ****             }
 211:Generated_Source\PSoC4/Capsense_TunerHelper.c ****         #endif /* (0u != Capsense_TOTAL_RADIAL_SLIDERS_COUNT) */
 212:Generated_Source\PSoC4/Capsense_TunerHelper.c **** 
 213:Generated_Source\PSoC4/Capsense_TunerHelper.c ****         #if (0u != Capsense_TOTAL_TOUCH_PADS_BASIC_COUNT)
 214:Generated_Source\PSoC4/Capsense_TunerHelper.c ****             widgetCnt = i;
 215:Generated_Source\PSoC4/Capsense_TunerHelper.c ****             for(; i < (widgetCnt + (Capsense_TOTAL_TOUCH_PADS_BASIC_COUNT * 2u)); i=i+2u)
 216:Generated_Source\PSoC4/Capsense_TunerHelper.c ****             {
 217:Generated_Source\PSoC4/Capsense_TunerHelper.c ****                 if(Capsense_GetTouchCentroidPos((uint32)i, centroidPosBuf) == 0u)
 218:Generated_Source\PSoC4/Capsense_TunerHelper.c ****                 {
 219:Generated_Source\PSoC4/Capsense_TunerHelper.c ****                     outbox->centroidPosition[i + Capsense_FIRST_FINGER_X_INDEX] = Capsense_MAX_UINT
 220:Generated_Source\PSoC4/Capsense_TunerHelper.c ****                     outbox->centroidPosition[i + Capsense_FIRST_FINGER_Y_INDEX] = Capsense_MAX_UINT
 221:Generated_Source\PSoC4/Capsense_TunerHelper.c ****                 }
 222:Generated_Source\PSoC4/Capsense_TunerHelper.c ****                 else
 223:Generated_Source\PSoC4/Capsense_TunerHelper.c ****                 {
 224:Generated_Source\PSoC4/Capsense_TunerHelper.c ****                     outbox->centroidPosition[i + Capsense_FIRST_FINGER_X_INDEX] =
ARM GAS  C:\Users\ROUSSMA\AppData\Local\Temp\ccCQnK87.s 			page 8


 225:Generated_Source\PSoC4/Capsense_TunerHelper.c ****                     (uint16) centroidPosBuf[Capsense_FIRST_FINGER_X_INDEX];
 226:Generated_Source\PSoC4/Capsense_TunerHelper.c **** 
 227:Generated_Source\PSoC4/Capsense_TunerHelper.c ****                     outbox->centroidPosition[i + Capsense_FIRST_FINGER_Y_INDEX] =
 228:Generated_Source\PSoC4/Capsense_TunerHelper.c ****                     (uint16) centroidPosBuf[Capsense_FIRST_FINGER_Y_INDEX];
 229:Generated_Source\PSoC4/Capsense_TunerHelper.c ****                 }
 230:Generated_Source\PSoC4/Capsense_TunerHelper.c ****             }
 231:Generated_Source\PSoC4/Capsense_TunerHelper.c ****         #endif /* (0u != Capsense_TOTAL_TOUCH_PADS_BASIC_COUNT) */
 232:Generated_Source\PSoC4/Capsense_TunerHelper.c **** 
 233:Generated_Source\PSoC4/Capsense_TunerHelper.c ****         #if (0u != Capsense_TOTAL_TRACKPAD_GESTURES_COUNT)
 234:Generated_Source\PSoC4/Capsense_TunerHelper.c ****             widgetCnt = i;
 235:Generated_Source\PSoC4/Capsense_TunerHelper.c ****             for(; i < (widgetCnt + (Capsense_TOTAL_TRACKPAD_GESTURES_COUNT * 4u)); i=i+4u)
 236:Generated_Source\PSoC4/Capsense_TunerHelper.c ****             {
 237:Generated_Source\PSoC4/Capsense_TunerHelper.c ****                 outbox->fingersNum[Capsense_DEFAULT_TRACKPAD_INDEX] =
 238:Generated_Source\PSoC4/Capsense_TunerHelper.c ****                 (uint8)Capsense_GetDoubleTouchCentroidPos(trackpadPosBuf);
 239:Generated_Source\PSoC4/Capsense_TunerHelper.c **** 
 240:Generated_Source\PSoC4/Capsense_TunerHelper.c ****                 outbox->gestureID[Capsense_DEFAULT_TRACKPAD_INDEX] =
 241:Generated_Source\PSoC4/Capsense_TunerHelper.c ****                 (uint8)Capsense_DecodeAllGestures((uint32)outbox->fingersNum[Capsense_DEFAULT_TRACK
 242:Generated_Source\PSoC4/Capsense_TunerHelper.c **** 
 243:Generated_Source\PSoC4/Capsense_TunerHelper.c ****                 #if((0u != Capsense_ST_SCROLL_GEST_ENABLED) || (0u != Capsense_DT_SCROLL_GEST_ENABL
 244:Generated_Source\PSoC4/Capsense_TunerHelper.c ****                     /*
 245:Generated_Source\PSoC4/Capsense_TunerHelper.c ****                     Report Scroll count only for scroll and Inertial Scroll gestures.
 246:Generated_Source\PSoC4/Capsense_TunerHelper.c ****                     For all other gestures report scroll count as zero to tuner.
 247:Generated_Source\PSoC4/Capsense_TunerHelper.c ****                      */
 248:Generated_Source\PSoC4/Capsense_TunerHelper.c ****                     if (((outbox->gestureID[Capsense_DEFAULT_TRACKPAD_INDEX] & Capsense_GESTURE_TYP
 249:Generated_Source\PSoC4/Capsense_TunerHelper.c ****                         ((outbox->gestureID[Capsense_DEFAULT_TRACKPAD_INDEX] & Capsense_GESTURE_TYP
 250:Generated_Source\PSoC4/Capsense_TunerHelper.c ****                     {
 251:Generated_Source\PSoC4/Capsense_TunerHelper.c ****                         outbox->scrollCnt = Capsense_GetScrollCnt();
 252:Generated_Source\PSoC4/Capsense_TunerHelper.c ****                     }
 253:Generated_Source\PSoC4/Capsense_TunerHelper.c ****                     else
 254:Generated_Source\PSoC4/Capsense_TunerHelper.c ****                     {
 255:Generated_Source\PSoC4/Capsense_TunerHelper.c ****                         outbox->scrollCnt = 0u;
 256:Generated_Source\PSoC4/Capsense_TunerHelper.c ****                     }
 257:Generated_Source\PSoC4/Capsense_TunerHelper.c ****                 #endif /* ((0u != Capsense_ST_SCROLL_GEST_ENABLED) || (0u != Capsense_DT_SCROLL_GES
 258:Generated_Source\PSoC4/Capsense_TunerHelper.c **** 
 259:Generated_Source\PSoC4/Capsense_TunerHelper.c ****                 outbox->centroidPosition[i + Capsense_FIRST_FINGER_X_INDEX] = Capsense_MAX_UINT_16;
 260:Generated_Source\PSoC4/Capsense_TunerHelper.c ****                 outbox->centroidPosition[i + Capsense_FIRST_FINGER_Y_INDEX] = Capsense_MAX_UINT_16;
 261:Generated_Source\PSoC4/Capsense_TunerHelper.c ****                 outbox->centroidPosition[i + Capsense_SECOND_FINGER_X_INDEX] = Capsense_MAX_UINT_16
 262:Generated_Source\PSoC4/Capsense_TunerHelper.c ****                 outbox->centroidPosition[i + Capsense_SECOND_FINGER_Y_INDEX] = Capsense_MAX_UINT_16
 263:Generated_Source\PSoC4/Capsense_TunerHelper.c **** 
 264:Generated_Source\PSoC4/Capsense_TunerHelper.c ****                 if(0u != outbox->fingersNum[Capsense_DEFAULT_TRACKPAD_INDEX])
 265:Generated_Source\PSoC4/Capsense_TunerHelper.c ****                 {
 266:Generated_Source\PSoC4/Capsense_TunerHelper.c ****                     outbox->centroidPosition[i + Capsense_FIRST_FINGER_X_INDEX] =
 267:Generated_Source\PSoC4/Capsense_TunerHelper.c ****                     (uint16) trackpadPosBuf[Capsense_FIRST_FINGER_INDEX].x;
 268:Generated_Source\PSoC4/Capsense_TunerHelper.c **** 
 269:Generated_Source\PSoC4/Capsense_TunerHelper.c ****                     outbox->centroidPosition[i + Capsense_FIRST_FINGER_Y_INDEX] =
 270:Generated_Source\PSoC4/Capsense_TunerHelper.c ****                     (uint16) trackpadPosBuf[Capsense_FIRST_FINGER_INDEX].y;
 271:Generated_Source\PSoC4/Capsense_TunerHelper.c **** 
 272:Generated_Source\PSoC4/Capsense_TunerHelper.c ****                     if(outbox->fingersNum[Capsense_DEFAULT_TRACKPAD_INDEX] > 1u)
 273:Generated_Source\PSoC4/Capsense_TunerHelper.c ****                     {
 274:Generated_Source\PSoC4/Capsense_TunerHelper.c ****                         outbox->centroidPosition[i + Capsense_SECOND_FINGER_X_INDEX] =
 275:Generated_Source\PSoC4/Capsense_TunerHelper.c ****                         (uint16) trackpadPosBuf[Capsense_SECOND_FINGER_INDEX].x;
 276:Generated_Source\PSoC4/Capsense_TunerHelper.c **** 
 277:Generated_Source\PSoC4/Capsense_TunerHelper.c ****                         outbox->centroidPosition[i + Capsense_SECOND_FINGER_Y_INDEX] =
 278:Generated_Source\PSoC4/Capsense_TunerHelper.c ****                         (uint16) trackpadPosBuf[Capsense_SECOND_FINGER_INDEX].y;
 279:Generated_Source\PSoC4/Capsense_TunerHelper.c ****                     }
 280:Generated_Source\PSoC4/Capsense_TunerHelper.c ****                 }
 281:Generated_Source\PSoC4/Capsense_TunerHelper.c ****             }
ARM GAS  C:\Users\ROUSSMA\AppData\Local\Temp\ccCQnK87.s 			page 9


 282:Generated_Source\PSoC4/Capsense_TunerHelper.c ****         #endif /* (0u != Capsense_TOTAL_TRACKPAD_GESTURES_COUNT) */
 283:Generated_Source\PSoC4/Capsense_TunerHelper.c **** 
 284:Generated_Source\PSoC4/Capsense_TunerHelper.c ****         #if (0u != Capsense_TOTAL_MATRIX_BUTTONS_COUNT)
 285:Generated_Source\PSoC4/Capsense_TunerHelper.c ****             i += Capsense_TOTAL_BUTTONS_COUNT;
 286:Generated_Source\PSoC4/Capsense_TunerHelper.c ****             widgetCnt = 0u;
 287:Generated_Source\PSoC4/Capsense_TunerHelper.c ****             for(; widgetCnt < (Capsense_TOTAL_MATRIX_BUTTONS_COUNT * 2u); widgetCnt += 2u)
 288:Generated_Source\PSoC4/Capsense_TunerHelper.c ****             {
 289:Generated_Source\PSoC4/Capsense_TunerHelper.c ****                 if(Capsense_GetMatrixButtonPos((uint32)i, mbPositionBuf) == 0u)
 290:Generated_Source\PSoC4/Capsense_TunerHelper.c ****                 {
 291:Generated_Source\PSoC4/Capsense_TunerHelper.c ****                     outbox->mbPosition[widgetCnt] = Capsense_MAX_UINT_8;
 292:Generated_Source\PSoC4/Capsense_TunerHelper.c ****                     outbox->mbPosition[widgetCnt+1u] = Capsense_MAX_UINT_8;
 293:Generated_Source\PSoC4/Capsense_TunerHelper.c ****                 }
 294:Generated_Source\PSoC4/Capsense_TunerHelper.c ****                 else
 295:Generated_Source\PSoC4/Capsense_TunerHelper.c ****                 {
 296:Generated_Source\PSoC4/Capsense_TunerHelper.c ****                     outbox->mbPosition[widgetCnt] = mbPositionBuf[0u];
 297:Generated_Source\PSoC4/Capsense_TunerHelper.c ****                     outbox->mbPosition[widgetCnt+1u] = mbPositionBuf[1u];
 298:Generated_Source\PSoC4/Capsense_TunerHelper.c ****                 }
 299:Generated_Source\PSoC4/Capsense_TunerHelper.c ****                 i += 2u;
 300:Generated_Source\PSoC4/Capsense_TunerHelper.c ****             }
 301:Generated_Source\PSoC4/Capsense_TunerHelper.c ****         #endif /* (0u != Capsense_TOTAL_MATRIX_BUTTONS_COUNT) */
 302:Generated_Source\PSoC4/Capsense_TunerHelper.c **** 
 303:Generated_Source\PSoC4/Capsense_TunerHelper.c ****         #if(0u != Capsense_CSHL_API_GENERATE)
 304:Generated_Source\PSoC4/Capsense_TunerHelper.c ****             /* Update On/Off State */
 305:Generated_Source\PSoC4/Capsense_TunerHelper.c ****             (void)Capsense_CheckIsAnyWidgetActive();
 175              		.loc 1 305 0
 176 0010 FFF7FEFF 		bl	Capsense_CheckIsAnyWidgetActive
 306:Generated_Source\PSoC4/Capsense_TunerHelper.c **** 
 307:Generated_Source\PSoC4/Capsense_TunerHelper.c ****             /* Copy OnMask */
 308:Generated_Source\PSoC4/Capsense_TunerHelper.c ****             for(i=0u; i < Capsense_TOTAL_SENSOR_MASK_COUNT; i++)
 177              		.loc 1 308 0
 178 0014 0F23     		movs	r3, #15
 179 0016 FB18     		adds	r3, r7, r3
 180 0018 0022     		movs	r2, #0
 181 001a 1A70     		strb	r2, [r3]
 182 001c 10E0     		b	.L11
 183              	.L12:
 309:Generated_Source\PSoC4/Capsense_TunerHelper.c ****             {
 310:Generated_Source\PSoC4/Capsense_TunerHelper.c ****                 outbox->onMask[i]  = Capsense_sensorOnMask[i];
 184              		.loc 1 310 0 discriminator 3
 185 001e 0F23     		movs	r3, #15
 186 0020 FB18     		adds	r3, r7, r3
 187 0022 1B78     		ldrb	r3, [r3]
 188 0024 0F22     		movs	r2, #15
 189 0026 BA18     		adds	r2, r7, r2
 190 0028 1278     		ldrb	r2, [r2]
 191 002a 0A49     		ldr	r1, .L13
 192 002c 895C     		ldrb	r1, [r1, r2]
 193 002e 7A68     		ldr	r2, [r7, #4]
 194 0030 D154     		strb	r1, [r2, r3]
 308:Generated_Source\PSoC4/Capsense_TunerHelper.c ****             {
 195              		.loc 1 308 0 discriminator 3
 196 0032 0F23     		movs	r3, #15
 197 0034 FB18     		adds	r3, r7, r3
 198 0036 1A78     		ldrb	r2, [r3]
 199 0038 0F23     		movs	r3, #15
 200 003a FB18     		adds	r3, r7, r3
 201 003c 0132     		adds	r2, r2, #1
ARM GAS  C:\Users\ROUSSMA\AppData\Local\Temp\ccCQnK87.s 			page 10


 202 003e 1A70     		strb	r2, [r3]
 203              	.L11:
 308:Generated_Source\PSoC4/Capsense_TunerHelper.c ****             {
 204              		.loc 1 308 0 is_stmt 0 discriminator 1
 205 0040 0F23     		movs	r3, #15
 206 0042 FB18     		adds	r3, r7, r3
 207 0044 1B78     		ldrb	r3, [r3]
 208 0046 002B     		cmp	r3, #0
 209 0048 E9D0     		beq	.L12
 311:Generated_Source\PSoC4/Capsense_TunerHelper.c ****             }
 312:Generated_Source\PSoC4/Capsense_TunerHelper.c ****         #endif /* (0u != Capsense_CSHL_API_GENERATE) */
 313:Generated_Source\PSoC4/Capsense_TunerHelper.c **** 
 314:Generated_Source\PSoC4/Capsense_TunerHelper.c ****         /* `#START Capsense_ProcessAllWidgets_Debug` */
 315:Generated_Source\PSoC4/Capsense_TunerHelper.c **** 
 316:Generated_Source\PSoC4/Capsense_TunerHelper.c ****         /* `#END` */
 317:Generated_Source\PSoC4/Capsense_TunerHelper.c **** 
 318:Generated_Source\PSoC4/Capsense_TunerHelper.c ****         #ifdef Capsense_PROCESS_ALL_WIDGETS_CALLBACK
 319:Generated_Source\PSoC4/Capsense_TunerHelper.c ****             Capsense_ProcessAllWidgets_Callback();
 320:Generated_Source\PSoC4/Capsense_TunerHelper.c ****         #endif /* Capsense_PROCESS_ALL_WIDGETS_CALLBACK */
 321:Generated_Source\PSoC4/Capsense_TunerHelper.c ****     }
 210              		.loc 1 321 0 is_stmt 1
 211 004a C046     		nop
 212 004c BD46     		mov	sp, r7
 213 004e 04B0     		add	sp, sp, #16
 214              		@ sp needed
 215 0050 80BD     		pop	{r7, pc}
 216              	.L14:
 217 0052 C046     		.align	2
 218              	.L13:
 219 0054 00000000 		.word	Capsense_sensorOnMask
 220              		.cfi_endproc
 221              	.LFE38:
 222              		.size	Capsense_ProcessAllWidgets, .-Capsense_ProcessAllWidgets
 223              		.text
 224              	.Letext0:
 225              		.file 2 "Generated_Source\\PSoC4\\cytypes.h"
 226              		.file 3 "Generated_Source\\PSoC4\\Capsense_MBX.h"
 227              		.file 4 "Generated_Source\\PSoC4\\Capsense_CSHL.h"