ARM GAS  C:\Users\ROUSSMA\AppData\Local\Temp\ccTAVq6f.s 			page 1


   1              		.syntax unified
   2              		.cpu cortex-m0
   3              		.fpu softvfp
   4              		.eabi_attribute 20, 1
   5              		.eabi_attribute 21, 1
   6              		.eabi_attribute 23, 3
   7              		.eabi_attribute 24, 1
   8              		.eabi_attribute 25, 1
   9              		.eabi_attribute 26, 1
  10              		.eabi_attribute 30, 6
  11              		.eabi_attribute 34, 0
  12              		.eabi_attribute 18, 4
  13              		.thumb
  14              		.syntax unified
  15              		.file	"Capsense_MBX.c"
  16              		.text
  17              	.Ltext0:
  18              		.cfi_sections	.debug_frame
  19              		.section	.text.Capsense_InitCsdParams,"ax",%progbits
  20              		.align	2
  21              		.code	16
  22              		.thumb_func
  23              		.type	Capsense_InitCsdParams, %function
  24              	Capsense_InitCsdParams:
  25              	.LFB36:
  26              		.file 1 "Generated_Source\\PSoC4\\Capsense_MBX.c"
   1:Generated_Source\PSoC4/Capsense_MBX.c **** /*******************************************************************************
   2:Generated_Source\PSoC4/Capsense_MBX.c **** * File Name: Capsense_MBX.c
   3:Generated_Source\PSoC4/Capsense_MBX.c **** * Version 2.60
   4:Generated_Source\PSoC4/Capsense_MBX.c **** *
   5:Generated_Source\PSoC4/Capsense_MBX.c **** * Description:
   6:Generated_Source\PSoC4/Capsense_MBX.c **** *  This file provides the source code of Tuner communication APIs for the
   7:Generated_Source\PSoC4/Capsense_MBX.c **** *  CapSense CSD component.
   8:Generated_Source\PSoC4/Capsense_MBX.c **** *
   9:Generated_Source\PSoC4/Capsense_MBX.c **** * Note:
  10:Generated_Source\PSoC4/Capsense_MBX.c **** *
  11:Generated_Source\PSoC4/Capsense_MBX.c **** ********************************************************************************
  12:Generated_Source\PSoC4/Capsense_MBX.c **** * Copyright 2013-2016, Cypress Semiconductor Corporation.  All rights reserved.
  13:Generated_Source\PSoC4/Capsense_MBX.c **** * You may use this file only in accordance with the license, terms, conditions,
  14:Generated_Source\PSoC4/Capsense_MBX.c **** * disclaimers, and limitations in the end user license agreement accompanying
  15:Generated_Source\PSoC4/Capsense_MBX.c **** * the software package with which this file was provided.
  16:Generated_Source\PSoC4/Capsense_MBX.c **** *******************************************************************************/
  17:Generated_Source\PSoC4/Capsense_MBX.c **** 
  18:Generated_Source\PSoC4/Capsense_MBX.c **** #include "Capsense_MBX.h"
  19:Generated_Source\PSoC4/Capsense_MBX.c **** #include "cyapicallbacks.h"
  20:Generated_Source\PSoC4/Capsense_MBX.c **** 
  21:Generated_Source\PSoC4/Capsense_MBX.c **** /*******************************************************************************
  22:Generated_Source\PSoC4/Capsense_MBX.c **** *  Place your includes, defines and code here
  23:Generated_Source\PSoC4/Capsense_MBX.c **** ********************************************************************************/
  24:Generated_Source\PSoC4/Capsense_MBX.c **** /* `#START Capsense_MBX` */
  25:Generated_Source\PSoC4/Capsense_MBX.c **** 
  26:Generated_Source\PSoC4/Capsense_MBX.c **** /* `#END` */
  27:Generated_Source\PSoC4/Capsense_MBX.c **** 
  28:Generated_Source\PSoC4/Capsense_MBX.c **** #if (Capsense_TUNING_METHOD == Capsense__TUNING_MANUAL)
  29:Generated_Source\PSoC4/Capsense_MBX.c ****     /*******************************************************************************
  30:Generated_Source\PSoC4/Capsense_MBX.c ****     * Function Name: Capsense_InitCsdParams
  31:Generated_Source\PSoC4/Capsense_MBX.c ****     ********************************************************************************
ARM GAS  C:\Users\ROUSSMA\AppData\Local\Temp\ccTAVq6f.s 			page 2


  32:Generated_Source\PSoC4/Capsense_MBX.c ****     *
  33:Generated_Source\PSoC4/Capsense_MBX.c ****     * Summary:
  34:Generated_Source\PSoC4/Capsense_MBX.c ****     *  Configures the CSD parameters to match the parameters in the inbox.
  35:Generated_Source\PSoC4/Capsense_MBX.c ****     *  Used only in the manual tuning mode to apply new scanning parameters from the Tuner
  36:Generated_Source\PSoC4/Capsense_MBX.c ****     *  GUI.
  37:Generated_Source\PSoC4/Capsense_MBX.c ****     *
  38:Generated_Source\PSoC4/Capsense_MBX.c ****     * Parameters:
  39:Generated_Source\PSoC4/Capsense_MBX.c ****     *  inbox:  Pointer to Inbox structure in RAM.
  40:Generated_Source\PSoC4/Capsense_MBX.c ****     *
  41:Generated_Source\PSoC4/Capsense_MBX.c ****     * Return:
  42:Generated_Source\PSoC4/Capsense_MBX.c ****     *  None. Contents of the structure are not modified.
  43:Generated_Source\PSoC4/Capsense_MBX.c ****     *
  44:Generated_Source\PSoC4/Capsense_MBX.c ****     * Global Variables:
  45:Generated_Source\PSoC4/Capsense_MBX.c ****     *  Capsense_modulationIDAC[]      - stores modulation IDAC values.
  46:Generated_Source\PSoC4/Capsense_MBX.c ****     *  Capsense_compensationIDAC[]    - stores compensation IDAC values.
  47:Generated_Source\PSoC4/Capsense_MBX.c ****     *  Capsense_widgetResolution[]    - used to store the scan resolution values for each widget.
  48:Generated_Source\PSoC4/Capsense_MBX.c ****     *  Capsense_senseClkDividerVal[]  - used to store the sense clock divider values for each widge
  49:Generated_Source\PSoC4/Capsense_MBX.c ****     *  Capsense_sampleClkDividerVal[] - used to store the sample clock divider values for each widg
  50:Generated_Source\PSoC4/Capsense_MBX.c ****     *  Capsense_fingerThreshold[]     - used to store the finger threshold values for each widget.
  51:Generated_Source\PSoC4/Capsense_MBX.c ****     *  Capsense_noiseThreshold[]      - used to store the noise threshold values for each widget.
  52:Generated_Source\PSoC4/Capsense_MBX.c ****     *  Capsense_hysteresis[]          - used to store the hysteresis values for each widget.
  53:Generated_Source\PSoC4/Capsense_MBX.c ****     *  Capsense_debounce[]            - used to store the debounce values for each widget.
  54:Generated_Source\PSoC4/Capsense_MBX.c ****     *
  55:Generated_Source\PSoC4/Capsense_MBX.c ****     *******************************************************************************/
  56:Generated_Source\PSoC4/Capsense_MBX.c ****     static void Capsense_InitCsdParams(volatile const Capsense_INBOX *inbox);
  57:Generated_Source\PSoC4/Capsense_MBX.c ****     static void Capsense_InitCsdParams(volatile const Capsense_INBOX *inbox)
  58:Generated_Source\PSoC4/Capsense_MBX.c ****     {
  27              		.loc 1 58 0
  28              		.cfi_startproc
  29              		@ args = 0, pretend = 0, frame = 16
  30              		@ frame_needed = 1, uses_anonymous_args = 0
  31 0000 80B5     		push	{r7, lr}
  32              		.cfi_def_cfa_offset 8
  33              		.cfi_offset 7, -8
  34              		.cfi_offset 14, -4
  35 0002 84B0     		sub	sp, sp, #16
  36              		.cfi_def_cfa_offset 24
  37 0004 00AF     		add	r7, sp, #0
  38              		.cfi_def_cfa_register 7
  39 0006 7860     		str	r0, [r7, #4]
  59:Generated_Source\PSoC4/Capsense_MBX.c ****         /* Define widget sensor belongs to */
  60:Generated_Source\PSoC4/Capsense_MBX.c ****         uint8 sensor = inbox->sensorIndex;
  40              		.loc 1 60 0
  41 0008 0F23     		movs	r3, #15
  42 000a FB18     		adds	r3, r7, r3
  43 000c 7A68     		ldr	r2, [r7, #4]
  44 000e 1278     		ldrb	r2, [r2]
  45 0010 1A70     		strb	r2, [r3]
  61:Generated_Source\PSoC4/Capsense_MBX.c ****         uint8 widget = Capsense_widgetNumber[sensor];
  46              		.loc 1 61 0
  47 0012 0F23     		movs	r3, #15
  48 0014 FB18     		adds	r3, r7, r3
  49 0016 1A78     		ldrb	r2, [r3]
  50 0018 0E23     		movs	r3, #14
  51 001a FB18     		adds	r3, r7, r3
  52 001c 2C49     		ldr	r1, .L2
  53 001e 8A5C     		ldrb	r2, [r1, r2]
ARM GAS  C:\Users\ROUSSMA\AppData\Local\Temp\ccTAVq6f.s 			page 3


  54 0020 1A70     		strb	r2, [r3]
  62:Generated_Source\PSoC4/Capsense_MBX.c **** 
  63:Generated_Source\PSoC4/Capsense_MBX.c ****         /* Scanning parameters */
  64:Generated_Source\PSoC4/Capsense_MBX.c ****         #if(0u == Capsense_AUTOCALIBRATION_ENABLE)
  65:Generated_Source\PSoC4/Capsense_MBX.c ****             Capsense_modulationIDAC[sensor] = inbox->Capsense_inboxCsdCfg.modulatorIDAC;
  66:Generated_Source\PSoC4/Capsense_MBX.c **** 
  67:Generated_Source\PSoC4/Capsense_MBX.c ****             #if (Capsense_IDAC_CNT == 2u)
  68:Generated_Source\PSoC4/Capsense_MBX.c ****                 Capsense_compensationIDAC[sensor] = inbox->Capsense_inboxCsdCfg.compensationIDAC;
  69:Generated_Source\PSoC4/Capsense_MBX.c ****             #endif /* ( Capsense_IDAC_CNT == 2u ) */
  70:Generated_Source\PSoC4/Capsense_MBX.c ****         #endif /* (0u != Capsense_AUTOCALIBRATION_ENABLE) */
  71:Generated_Source\PSoC4/Capsense_MBX.c **** 
  72:Generated_Source\PSoC4/Capsense_MBX.c ****         Capsense_SetIDACRange((uint32)inbox->Capsense_inboxCsdCfg.idacRange);
  55              		.loc 1 72 0
  56 0022 7B68     		ldr	r3, [r7, #4]
  57 0024 DB7A     		ldrb	r3, [r3, #11]
  58 0026 DBB2     		uxtb	r3, r3
  59 0028 1800     		movs	r0, r3
  60 002a FFF7FEFF 		bl	Capsense_SetIDACRange
  73:Generated_Source\PSoC4/Capsense_MBX.c **** 
  74:Generated_Source\PSoC4/Capsense_MBX.c ****         Capsense_widgetResolution[widget] =
  61              		.loc 1 74 0
  62 002e 0E23     		movs	r3, #14
  63 0030 FB18     		adds	r3, r7, r3
  64 0032 1A78     		ldrb	r2, [r3]
  75:Generated_Source\PSoC4/Capsense_MBX.c ****         (uint32)(~(Capsense_RESOLUTION_16_BITS << inbox->Capsense_inboxCsdCfg.scanResolution));
  65              		.loc 1 75 0
  66 0034 7B68     		ldr	r3, [r7, #4]
  67 0036 1B7B     		ldrb	r3, [r3, #12]
  68 0038 DBB2     		uxtb	r3, r3
  69 003a 1900     		movs	r1, r3
  70 003c 254B     		ldr	r3, .L2+4
  71 003e 8B40     		lsls	r3, r3, r1
  72 0040 D943     		mvns	r1, r3
  74:Generated_Source\PSoC4/Capsense_MBX.c ****         (uint32)(~(Capsense_RESOLUTION_16_BITS << inbox->Capsense_inboxCsdCfg.scanResolution));
  73              		.loc 1 74 0
  74 0042 254B     		ldr	r3, .L2+8
  75 0044 9200     		lsls	r2, r2, #2
  76 0046 D150     		str	r1, [r2, r3]
  76:Generated_Source\PSoC4/Capsense_MBX.c **** 
  77:Generated_Source\PSoC4/Capsense_MBX.c ****         Capsense_widgetResolution[widget] &= Capsense_RESOLUTION_16_BITS;
  77              		.loc 1 77 0
  78 0048 0E23     		movs	r3, #14
  79 004a FB18     		adds	r3, r7, r3
  80 004c 1A78     		ldrb	r2, [r3]
  81 004e 0E23     		movs	r3, #14
  82 0050 FB18     		adds	r3, r7, r3
  83 0052 1978     		ldrb	r1, [r3]
  84 0054 204B     		ldr	r3, .L2+8
  85 0056 8900     		lsls	r1, r1, #2
  86 0058 CB58     		ldr	r3, [r1, r3]
  87 005a 1B0C     		lsrs	r3, r3, #16
  88 005c 1904     		lsls	r1, r3, #16
  89 005e 1E4B     		ldr	r3, .L2+8
  90 0060 9200     		lsls	r2, r2, #2
  91 0062 D150     		str	r1, [r2, r3]
  78:Generated_Source\PSoC4/Capsense_MBX.c **** 
  79:Generated_Source\PSoC4/Capsense_MBX.c ****         #if (0u != Capsense_MULTIPLE_FREQUENCY_SET )
ARM GAS  C:\Users\ROUSSMA\AppData\Local\Temp\ccTAVq6f.s 			page 4


  80:Generated_Source\PSoC4/Capsense_MBX.c ****             Capsense_senseClkDividerVal[sensor] = inbox->Capsense_inboxCsdCfg.analogSwitchDivider;
  92              		.loc 1 80 0
  93 0064 0F23     		movs	r3, #15
  94 0066 FB18     		adds	r3, r7, r3
  95 0068 1B78     		ldrb	r3, [r3]
  96 006a 7A68     		ldr	r2, [r7, #4]
  97 006c 527A     		ldrb	r2, [r2, #9]
  98 006e D1B2     		uxtb	r1, r2
  99 0070 1A4A     		ldr	r2, .L2+12
 100 0072 D154     		strb	r1, [r2, r3]
  81:Generated_Source\PSoC4/Capsense_MBX.c ****             Capsense_sampleClkDividerVal[sensor] = inbox->Capsense_inboxCsdCfg.modulatorDivider;
 101              		.loc 1 81 0
 102 0074 0F23     		movs	r3, #15
 103 0076 FB18     		adds	r3, r7, r3
 104 0078 1B78     		ldrb	r3, [r3]
 105 007a 7A68     		ldr	r2, [r7, #4]
 106 007c 927A     		ldrb	r2, [r2, #10]
 107 007e D1B2     		uxtb	r1, r2
 108 0080 174A     		ldr	r2, .L2+16
 109 0082 D154     		strb	r1, [r2, r3]
  82:Generated_Source\PSoC4/Capsense_MBX.c ****         #else
  83:Generated_Source\PSoC4/Capsense_MBX.c ****             Capsense_senseClkDividerVal = inbox->Capsense_inboxCsdCfg.analogSwitchDivider;
  84:Generated_Source\PSoC4/Capsense_MBX.c ****             Capsense_sampleClkDividerVal = inbox->Capsense_inboxCsdCfg.modulatorDivider;
  85:Generated_Source\PSoC4/Capsense_MBX.c ****         #endif /* (0u != Capsense_MULTIPLE_FREQUENCY_SET ) */
  86:Generated_Source\PSoC4/Capsense_MBX.c **** 
  87:Generated_Source\PSoC4/Capsense_MBX.c ****         #if(0u != Capsense_CSHL_API_GENERATE)
  88:Generated_Source\PSoC4/Capsense_MBX.c ****             #if (0u != Capsense_TOTAL_GENERICS_COUNT)
  89:Generated_Source\PSoC4/Capsense_MBX.c ****                 /* Exclude generic widget */
  90:Generated_Source\PSoC4/Capsense_MBX.c ****                 if(widget < Capsense_END_OF_WIDGETS_INDEX)
  91:Generated_Source\PSoC4/Capsense_MBX.c ****                 {
  92:Generated_Source\PSoC4/Capsense_MBX.c ****             #endif  /* 0u != Capsense_TOTAL_GENERICS_COUNT */
  93:Generated_Source\PSoC4/Capsense_MBX.c **** 
  94:Generated_Source\PSoC4/Capsense_MBX.c ****                 /* High level parameters */
  95:Generated_Source\PSoC4/Capsense_MBX.c ****                 Capsense_fingerThreshold[widget] = inbox->Capsense_inboxCsdCfg.fingerThreshold;
 110              		.loc 1 95 0
 111 0084 0E23     		movs	r3, #14
 112 0086 FB18     		adds	r3, r7, r3
 113 0088 1B78     		ldrb	r3, [r3]
 114 008a 7A68     		ldr	r2, [r7, #4]
 115 008c D278     		ldrb	r2, [r2, #3]
 116 008e D1B2     		uxtb	r1, r2
 117 0090 144A     		ldr	r2, .L2+20
 118 0092 D154     		strb	r1, [r2, r3]
  96:Generated_Source\PSoC4/Capsense_MBX.c ****                 Capsense_noiseThreshold[widget]  = inbox->Capsense_inboxCsdCfg.noiseThreshold;
 119              		.loc 1 96 0
 120 0094 0E23     		movs	r3, #14
 121 0096 FB18     		adds	r3, r7, r3
 122 0098 1B78     		ldrb	r3, [r3]
 123 009a 7A68     		ldr	r2, [r7, #4]
 124 009c 1279     		ldrb	r2, [r2, #4]
 125 009e D1B2     		uxtb	r1, r2
 126 00a0 114A     		ldr	r2, .L2+24
 127 00a2 D154     		strb	r1, [r2, r3]
  97:Generated_Source\PSoC4/Capsense_MBX.c **** 
  98:Generated_Source\PSoC4/Capsense_MBX.c ****                 Capsense_hysteresis[widget] = inbox->Capsense_inboxCsdCfg.hysteresis;
 128              		.loc 1 98 0
 129 00a4 0E23     		movs	r3, #14
ARM GAS  C:\Users\ROUSSMA\AppData\Local\Temp\ccTAVq6f.s 			page 5


 130 00a6 FB18     		adds	r3, r7, r3
 131 00a8 1B78     		ldrb	r3, [r3]
 132 00aa 7A68     		ldr	r2, [r7, #4]
 133 00ac 5279     		ldrb	r2, [r2, #5]
 134 00ae D1B2     		uxtb	r1, r2
 135 00b0 0E4A     		ldr	r2, .L2+28
 136 00b2 D154     		strb	r1, [r2, r3]
  99:Generated_Source\PSoC4/Capsense_MBX.c ****                 Capsense_debounce[widget]   = inbox->Capsense_inboxCsdCfg.debounce;
 137              		.loc 1 99 0
 138 00b4 0E23     		movs	r3, #14
 139 00b6 FB18     		adds	r3, r7, r3
 140 00b8 1B78     		ldrb	r3, [r3]
 141 00ba 7A68     		ldr	r2, [r7, #4]
 142 00bc 9279     		ldrb	r2, [r2, #6]
 143 00be D1B2     		uxtb	r1, r2
 144 00c0 0B4A     		ldr	r2, .L2+32
 145 00c2 D154     		strb	r1, [r2, r3]
 100:Generated_Source\PSoC4/Capsense_MBX.c **** 
 101:Generated_Source\PSoC4/Capsense_MBX.c ****                 #if(Capsense_TOTAL_TRACKPAD_GESTURES_COUNT > 0u)
 102:Generated_Source\PSoC4/Capsense_MBX.c ****                     Capsense_centroidMult[widget] = (uint16)((inbox->Capsense_inboxCsdCfg.apiResolu
 103:Generated_Source\PSoC4/Capsense_MBX.c ****                                                             (uint32)Capsense_RES_MULT) / (uint32)Ca
 104:Generated_Source\PSoC4/Capsense_MBX.c **** 
 105:Generated_Source\PSoC4/Capsense_MBX.c ****                 #endif /* (Capsense_TOTAL_TRACKPAD_GESTURES_COUNT > 0u) */
 106:Generated_Source\PSoC4/Capsense_MBX.c **** 
 107:Generated_Source\PSoC4/Capsense_MBX.c ****             #if (0u != Capsense_TOTAL_GENERICS_COUNT)
 108:Generated_Source\PSoC4/Capsense_MBX.c ****                 /* Exclude generic widget */
 109:Generated_Source\PSoC4/Capsense_MBX.c ****                 }
 110:Generated_Source\PSoC4/Capsense_MBX.c ****             #endif  /* 0u != Capsense_TOTAL_GENERICS_COUNT */
 111:Generated_Source\PSoC4/Capsense_MBX.c **** 
 112:Generated_Source\PSoC4/Capsense_MBX.c ****             /* Re-Init baseline */
 113:Generated_Source\PSoC4/Capsense_MBX.c ****             Capsense_InitializeAllBaselines();
 146              		.loc 1 113 0
 147 00c4 FFF7FEFF 		bl	Capsense_InitializeAllBaselines
 114:Generated_Source\PSoC4/Capsense_MBX.c ****         #endif /* (0u != Capsense_CSHL_API_GENERATE) */
 115:Generated_Source\PSoC4/Capsense_MBX.c ****     }
 148              		.loc 1 115 0
 149 00c8 C046     		nop
 150 00ca BD46     		mov	sp, r7
 151 00cc 04B0     		add	sp, sp, #16
 152              		@ sp needed
 153 00ce 80BD     		pop	{r7, pc}
 154              	.L3:
 155              		.align	2
 156              	.L2:
 157 00d0 00000000 		.word	Capsense_widgetNumber
 158 00d4 0000FFFF 		.word	-65536
 159 00d8 00000000 		.word	Capsense_widgetResolution
 160 00dc 00000000 		.word	Capsense_senseClkDividerVal
 161 00e0 00000000 		.word	Capsense_sampleClkDividerVal
 162 00e4 00000000 		.word	Capsense_fingerThreshold
 163 00e8 00000000 		.word	Capsense_noiseThreshold
 164 00ec 00000000 		.word	Capsense_hysteresis
 165 00f0 00000000 		.word	Capsense_debounce
 166              		.cfi_endproc
 167              	.LFE36:
 168              		.size	Capsense_InitCsdParams, .-Capsense_InitCsdParams
 169              		.section	.text.Capsense_InitMailbox,"ax",%progbits
ARM GAS  C:\Users\ROUSSMA\AppData\Local\Temp\ccTAVq6f.s 			page 6


 170              		.align	2
 171              		.global	Capsense_InitMailbox
 172              		.code	16
 173              		.thumb_func
 174              		.type	Capsense_InitMailbox, %function
 175              	Capsense_InitMailbox:
 176              	.LFB37:
 116:Generated_Source\PSoC4/Capsense_MBX.c **** #endif  /* (Capsense_TUNING_METHOD == Capsense__TUNING_MANUAL) */
 117:Generated_Source\PSoC4/Capsense_MBX.c **** 
 118:Generated_Source\PSoC4/Capsense_MBX.c **** 
 119:Generated_Source\PSoC4/Capsense_MBX.c ****     /*******************************************************************************
 120:Generated_Source\PSoC4/Capsense_MBX.c ****     * Function Name: Capsense_InitGesturesParams
 121:Generated_Source\PSoC4/Capsense_MBX.c ****     ********************************************************************************
 122:Generated_Source\PSoC4/Capsense_MBX.c ****     *
 123:Generated_Source\PSoC4/Capsense_MBX.c ****     * Summary:
 124:Generated_Source\PSoC4/Capsense_MBX.c ****     *  Configures the parameters of gestures to match the parameters in the inbox.
 125:Generated_Source\PSoC4/Capsense_MBX.c ****     *  Used only in the manual and auto tuning mode or if the gestures support is enabled.
 126:Generated_Source\PSoC4/Capsense_MBX.c ****     *  Intended apply new scanning parameters from the Tuner GUI.
 127:Generated_Source\PSoC4/Capsense_MBX.c ****     *
 128:Generated_Source\PSoC4/Capsense_MBX.c ****     * Parameters:
 129:Generated_Source\PSoC4/Capsense_MBX.c ****     *  inbox:  Pointer to Inbox structure in RAM.
 130:Generated_Source\PSoC4/Capsense_MBX.c ****     *
 131:Generated_Source\PSoC4/Capsense_MBX.c ****     * Return:
 132:Generated_Source\PSoC4/Capsense_MBX.c ****     *  None. Contents of the structure are not modified.
 133:Generated_Source\PSoC4/Capsense_MBX.c ****     *
 134:Generated_Source\PSoC4/Capsense_MBX.c ****     *******************************************************************************/
 135:Generated_Source\PSoC4/Capsense_MBX.c **** #if((Capsense_TUNING_METHOD != Capsense__TUNING_NONE) && (0u != Capsense_TOTAL_TRACKPAD_GESTURES_CO
 136:Generated_Source\PSoC4/Capsense_MBX.c ****     static void Capsense_InitGesturesParams(volatile const Capsense_INBOX *inbox);
 137:Generated_Source\PSoC4/Capsense_MBX.c ****     static void Capsense_InitGesturesParams(volatile const Capsense_INBOX *inbox)
 138:Generated_Source\PSoC4/Capsense_MBX.c ****     {
 139:Generated_Source\PSoC4/Capsense_MBX.c ****         #if(0u != Capsense_IS_ANY_GESTURES_EN)
 140:Generated_Source\PSoC4/Capsense_MBX.c ****             #if(0u != Capsense_CLICK_GEST_ENABLED)
 141:Generated_Source\PSoC4/Capsense_MBX.c ****                 Capsense_gesturesConfig.clickRadiusX            = (uint8)inbox->Capsense_inboxTmgCf
 142:Generated_Source\PSoC4/Capsense_MBX.c ****                 Capsense_gesturesConfig.clickRadiusY            = (uint8)inbox->Capsense_inboxTmgCf
 143:Generated_Source\PSoC4/Capsense_MBX.c ****                 Capsense_gesturesConfig.doubleClickRadius       = (uint8)inbox->Capsense_inboxTmgCf
 144:Generated_Source\PSoC4/Capsense_MBX.c ****                 Capsense_gesturesConfig.STDoubleClickTimeoutMax = inbox->Capsense_inboxTmgCfg.stDou
 145:Generated_Source\PSoC4/Capsense_MBX.c ****                 Capsense_gesturesConfig.STDoubleClickTimeoutMin = inbox->Capsense_inboxTmgCfg.stDou
 146:Generated_Source\PSoC4/Capsense_MBX.c ****                 Capsense_gesturesConfig.STClickTimeoutMax       = inbox->Capsense_inboxTmgCfg.stCli
 147:Generated_Source\PSoC4/Capsense_MBX.c ****                 Capsense_gesturesConfig.STClickTimeoutMin       = inbox->Capsense_inboxTmgCfg.stCli
 148:Generated_Source\PSoC4/Capsense_MBX.c ****                 Capsense_gesturesConfig.DTClickTimeoutMax       = inbox->Capsense_inboxTmgCfg.dtCli
 149:Generated_Source\PSoC4/Capsense_MBX.c ****                 Capsense_gesturesConfig.DTClickTimeoutMin       = inbox->Capsense_inboxTmgCfg.dtCli
 150:Generated_Source\PSoC4/Capsense_MBX.c ****             #endif /* (0u != Capsense_CLICK_GEST_ENABLED) */
 151:Generated_Source\PSoC4/Capsense_MBX.c **** 
 152:Generated_Source\PSoC4/Capsense_MBX.c ****             #if(0u != Capsense_ZOOM_GEST_ENABLED)
 153:Generated_Source\PSoC4/Capsense_MBX.c ****                 Capsense_gesturesConfig.dtScrollToZoomDebounce  = inbox->Capsense_inboxTmgCfg.dtPan
 154:Generated_Source\PSoC4/Capsense_MBX.c ****                 Capsense_gesturesConfig.DTZoomDebounce          = inbox->Capsense_inboxTmgCfg.dtZoo
 155:Generated_Source\PSoC4/Capsense_MBX.c ****                 Capsense_gesturesConfig.zoomActiveDistanceX     = inbox->Capsense_inboxTmgCfg.zoomA
 156:Generated_Source\PSoC4/Capsense_MBX.c ****                 Capsense_gesturesConfig.zoomActiveDistanceY     = inbox->Capsense_inboxTmgCfg.zoomA
 157:Generated_Source\PSoC4/Capsense_MBX.c ****             #endif /* (0u != Capsense_ZOOM_GEST_ENABLED) */
 158:Generated_Source\PSoC4/Capsense_MBX.c **** 
 159:Generated_Source\PSoC4/Capsense_MBX.c ****             #if(0u != Capsense_ST_SCROLL_GEST_ENABLED)
 160:Generated_Source\PSoC4/Capsense_MBX.c ****                 Capsense_gesturesConfig.stScrollDebounce        = inbox->Capsense_inboxTmgCfg.stScr
 161:Generated_Source\PSoC4/Capsense_MBX.c **** 
 162:Generated_Source\PSoC4/Capsense_MBX.c ****                 Capsense_gesturesConfig.stScrollThreshold1X     = inbox->Capsense_inboxTmgCfg.stScr
 163:Generated_Source\PSoC4/Capsense_MBX.c ****                 Capsense_gesturesConfig.stScrollThreshold2X     = inbox->Capsense_inboxTmgCfg.stScr
 164:Generated_Source\PSoC4/Capsense_MBX.c ****                 Capsense_gesturesConfig.stScrollThreshold3X     = inbox->Capsense_inboxTmgCfg.stScr
 165:Generated_Source\PSoC4/Capsense_MBX.c ****                 Capsense_gesturesConfig.stScrollThreshold4X     = inbox->Capsense_inboxTmgCfg.stScr
ARM GAS  C:\Users\ROUSSMA\AppData\Local\Temp\ccTAVq6f.s 			page 7


 166:Generated_Source\PSoC4/Capsense_MBX.c ****                 Capsense_gesturesConfig.stScrollThreshold1Y     = inbox->Capsense_inboxTmgCfg.stScr
 167:Generated_Source\PSoC4/Capsense_MBX.c ****                 Capsense_gesturesConfig.stScrollThreshold2Y     = inbox->Capsense_inboxTmgCfg.stScr
 168:Generated_Source\PSoC4/Capsense_MBX.c ****                 Capsense_gesturesConfig.stScrollThreshold3Y     = inbox->Capsense_inboxTmgCfg.stScr
 169:Generated_Source\PSoC4/Capsense_MBX.c ****                 Capsense_gesturesConfig.stScrollThreshold4Y     = inbox->Capsense_inboxTmgCfg.stScr
 170:Generated_Source\PSoC4/Capsense_MBX.c ****                 Capsense_gesturesConfig.stScrollStep1           = inbox->Capsense_inboxTmgCfg.stScr
 171:Generated_Source\PSoC4/Capsense_MBX.c ****                 Capsense_gesturesConfig.stScrollStep2           = inbox->Capsense_inboxTmgCfg.stScr
 172:Generated_Source\PSoC4/Capsense_MBX.c ****                 Capsense_gesturesConfig.stScrollStep3           = inbox->Capsense_inboxTmgCfg.stScr
 173:Generated_Source\PSoC4/Capsense_MBX.c ****                 Capsense_gesturesConfig.stScrollStep4           = inbox->Capsense_inboxTmgCfg.stScr
 174:Generated_Source\PSoC4/Capsense_MBX.c ****                 Capsense_gesturesConfig.stInScrActiveDistanceX  = inbox->Capsense_inboxTmgCfg.stInS
 175:Generated_Source\PSoC4/Capsense_MBX.c ****                 Capsense_gesturesConfig.stInScrActiveDistanceY  = inbox->Capsense_inboxTmgCfg.stInS
 176:Generated_Source\PSoC4/Capsense_MBX.c ****                 Capsense_gesturesConfig.stInScrCountLevel       = inbox->Capsense_inboxTmgCfg.stInS
 177:Generated_Source\PSoC4/Capsense_MBX.c ****             #endif /* (0u != Capsense_ST_SCROLL_GEST_ENABLED) */
 178:Generated_Source\PSoC4/Capsense_MBX.c **** 
 179:Generated_Source\PSoC4/Capsense_MBX.c ****             #if(0u != Capsense_DT_SCROLL_GEST_ENABLED)
 180:Generated_Source\PSoC4/Capsense_MBX.c ****                 Capsense_gesturesConfig.dtScrollDebounce        = inbox->Capsense_inboxTmgCfg.dtScr
 181:Generated_Source\PSoC4/Capsense_MBX.c ****                 Capsense_gesturesConfig.dtScrollThreshold1X     = inbox->Capsense_inboxTmgCfg.dtScr
 182:Generated_Source\PSoC4/Capsense_MBX.c ****                 Capsense_gesturesConfig.dtScrollThreshold2X     = inbox->Capsense_inboxTmgCfg.dtScr
 183:Generated_Source\PSoC4/Capsense_MBX.c ****                 Capsense_gesturesConfig.dtScrollThreshold3X     = inbox->Capsense_inboxTmgCfg.dtScr
 184:Generated_Source\PSoC4/Capsense_MBX.c ****                 Capsense_gesturesConfig.dtScrollThreshold4X     = inbox->Capsense_inboxTmgCfg.dtScr
 185:Generated_Source\PSoC4/Capsense_MBX.c ****                 Capsense_gesturesConfig.dtScrollThreshold1Y     = inbox->Capsense_inboxTmgCfg.dtScr
 186:Generated_Source\PSoC4/Capsense_MBX.c ****                 Capsense_gesturesConfig.dtScrollThreshold2Y     = inbox->Capsense_inboxTmgCfg.dtScr
 187:Generated_Source\PSoC4/Capsense_MBX.c ****                 Capsense_gesturesConfig.dtScrollThreshold3Y     = inbox->Capsense_inboxTmgCfg.dtScr
 188:Generated_Source\PSoC4/Capsense_MBX.c ****                 Capsense_gesturesConfig.dtScrollThreshold4Y     = inbox->Capsense_inboxTmgCfg.dtScr
 189:Generated_Source\PSoC4/Capsense_MBX.c ****                 Capsense_gesturesConfig.dtScrollStep1           = inbox->Capsense_inboxTmgCfg.dtScr
 190:Generated_Source\PSoC4/Capsense_MBX.c ****                 Capsense_gesturesConfig.dtScrollStep2           = inbox->Capsense_inboxTmgCfg.dtScr
 191:Generated_Source\PSoC4/Capsense_MBX.c ****                 Capsense_gesturesConfig.dtScrollStep3           = inbox->Capsense_inboxTmgCfg.dtScr
 192:Generated_Source\PSoC4/Capsense_MBX.c ****                 Capsense_gesturesConfig.dtScrollStep4           = inbox->Capsense_inboxTmgCfg.dtScr
 193:Generated_Source\PSoC4/Capsense_MBX.c ****                 Capsense_gesturesConfig.dtInScrActiveDistanceX  = inbox->Capsense_inboxTmgCfg.dtInS
 194:Generated_Source\PSoC4/Capsense_MBX.c ****                 Capsense_gesturesConfig.dtInScrActiveDistanceY  = inbox->Capsense_inboxTmgCfg.dtInS
 195:Generated_Source\PSoC4/Capsense_MBX.c ****                 Capsense_gesturesConfig.dtInScrCountLevel       = inbox->Capsense_inboxTmgCfg.dtInS
 196:Generated_Source\PSoC4/Capsense_MBX.c ****             #endif /* (0u != Capsense_DT_SCROLL_GEST_ENABLED) */
 197:Generated_Source\PSoC4/Capsense_MBX.c **** 
 198:Generated_Source\PSoC4/Capsense_MBX.c ****             #if(0u != Capsense_FLICK_GEST_ENABLED)
 199:Generated_Source\PSoC4/Capsense_MBX.c ****                 Capsense_gesturesConfig.flickSampleTime         = inbox->Capsense_inboxTmgCfg.flick
 200:Generated_Source\PSoC4/Capsense_MBX.c ****                 Capsense_gesturesConfig.flickActiveDistanceX    = inbox->Capsense_inboxTmgCfg.flick
 201:Generated_Source\PSoC4/Capsense_MBX.c ****                 Capsense_gesturesConfig.flickActiveDistanceY    = inbox->Capsense_inboxTmgCfg.flick
 202:Generated_Source\PSoC4/Capsense_MBX.c ****             #endif /* (0u != Capsense_FLICK_GEST_ENABLED) */
 203:Generated_Source\PSoC4/Capsense_MBX.c **** 
 204:Generated_Source\PSoC4/Capsense_MBX.c ****             #if(0u != Capsense_ROTATE_GEST_ENABLED)
 205:Generated_Source\PSoC4/Capsense_MBX.c ****                 Capsense_gesturesConfig.rotateDebounce          = inbox->Capsense_inboxTmgCfg.rotat
 206:Generated_Source\PSoC4/Capsense_MBX.c ****             #endif /* (0u != Capsense_ROTATE_GEST_ENABLED) */
 207:Generated_Source\PSoC4/Capsense_MBX.c **** 
 208:Generated_Source\PSoC4/Capsense_MBX.c ****             #if(0u != Capsense_EDGE_SWIPE_GEST_ENABLED)
 209:Generated_Source\PSoC4/Capsense_MBX.c ****                 Capsense_gesturesConfig.edgeSwipeActiveDistance = inbox->Capsense_inboxTmgCfg.edgeS
 210:Generated_Source\PSoC4/Capsense_MBX.c ****                 Capsense_gesturesConfig.bottomAngleThreshold    = inbox->Capsense_inboxTmgCfg.botto
 211:Generated_Source\PSoC4/Capsense_MBX.c ****                 Capsense_gesturesConfig.edgeSwipeTimeout        = inbox->Capsense_inboxTmgCfg.edgeS
 212:Generated_Source\PSoC4/Capsense_MBX.c ****                 Capsense_TMG_edgeSwipeCompleteTimeout           = inbox->Capsense_inboxTmgCfg.edgeS
 213:Generated_Source\PSoC4/Capsense_MBX.c ****                 Capsense_gesturesConfig.topAngleThreshold       = inbox->Capsense_inboxTmgCfg.topAn
 214:Generated_Source\PSoC4/Capsense_MBX.c ****                 Capsense_gesturesConfig.widthOfDisambiguation   = inbox->Capsense_inboxTmgCfg.width
 215:Generated_Source\PSoC4/Capsense_MBX.c ****             #endif /* (0u != Capsense_EDGE_SWIPE_GEST_ENABLED) */
 216:Generated_Source\PSoC4/Capsense_MBX.c **** 
 217:Generated_Source\PSoC4/Capsense_MBX.c ****             Capsense_TMG_InitGestures(&Capsense_gesturesConfig);
 218:Generated_Source\PSoC4/Capsense_MBX.c ****         #endif /* (0u != Capsense_IS_ANY_GESTURES_EN) */
 219:Generated_Source\PSoC4/Capsense_MBX.c **** 
 220:Generated_Source\PSoC4/Capsense_MBX.c ****         #if(0u != Capsense_TP_GESTURE_POS_FILTERS_MASK)
 221:Generated_Source\PSoC4/Capsense_MBX.c ****             Capsense_posFiltersMask[Capsense_TRACKPAD__TPG] = inbox->Capsense_inboxTmgCfg.filtersMa
 222:Generated_Source\PSoC4/Capsense_MBX.c ****         #endif /* (0u != Capsense_TP_GESTURE_POS_FILTERS_MASK) */
ARM GAS  C:\Users\ROUSSMA\AppData\Local\Temp\ccTAVq6f.s 			page 8


 223:Generated_Source\PSoC4/Capsense_MBX.c **** 
 224:Generated_Source\PSoC4/Capsense_MBX.c ****         #if(0u != (Capsense_XY_ADAPTIVE_IIR_MASK & Capsense_TP_GESTURE_POS_FILTERS_MASK))
 225:Generated_Source\PSoC4/Capsense_MBX.c ****             Capsense_adpFltOptions.divVal       = inbox->Capsense_inboxTmgCfg.filterDivisor;
 226:Generated_Source\PSoC4/Capsense_MBX.c ****             Capsense_adpFltOptions.largeMovTh   = inbox->Capsense_inboxTmgCfg.largeMovThreshold;
 227:Generated_Source\PSoC4/Capsense_MBX.c ****             Capsense_adpFltOptions.littleMovTh  = inbox->Capsense_inboxTmgCfg.littleMovThreshold;
 228:Generated_Source\PSoC4/Capsense_MBX.c ****             Capsense_adpFltOptions.maxK     = inbox->Capsense_inboxTmgCfg.maxFilterCoef;
 229:Generated_Source\PSoC4/Capsense_MBX.c ****             Capsense_adpFltOptions.minK     = inbox->Capsense_inboxTmgCfg.minFilterCoef;
 230:Generated_Source\PSoC4/Capsense_MBX.c ****             Capsense_adpFltOptions.noMovTh      = inbox->Capsense_inboxTmgCfg.noMovThreshold;
 231:Generated_Source\PSoC4/Capsense_MBX.c ****         #endif /* (0u != (Capsense_XY_ADAPTIVE_IIR_MASK & Capsense_TP_GESTURE_POS_FILTERS_MASK)) */
 232:Generated_Source\PSoC4/Capsense_MBX.c ****     }
 233:Generated_Source\PSoC4/Capsense_MBX.c **** #endif /* ((Capsense_TUNING_METHOD != Capsense__TUNING_NONE) && (0u != Capsense_TOTAL_TRACKPAD_GEST
 234:Generated_Source\PSoC4/Capsense_MBX.c **** 
 235:Generated_Source\PSoC4/Capsense_MBX.c **** 
 236:Generated_Source\PSoC4/Capsense_MBX.c **** /*******************************************************************************
 237:Generated_Source\PSoC4/Capsense_MBX.c **** * Function Name: Capsense_InitMailbox
 238:Generated_Source\PSoC4/Capsense_MBX.c **** ********************************************************************************
 239:Generated_Source\PSoC4/Capsense_MBX.c **** *
 240:Generated_Source\PSoC4/Capsense_MBX.c **** * Summary:
 241:Generated_Source\PSoC4/Capsense_MBX.c **** *  Initializes parameters of the mailbox structure.
 242:Generated_Source\PSoC4/Capsense_MBX.c **** *  Sets the type and size of the mailbox structure.
 243:Generated_Source\PSoC4/Capsense_MBX.c **** *  Sets a check sum to check by the Tuner GUI and noReadMsg flag to indicate that this
 244:Generated_Source\PSoC4/Capsense_MBX.c **** *  is the first communication packet.
 245:Generated_Source\PSoC4/Capsense_MBX.c **** *
 246:Generated_Source\PSoC4/Capsense_MBX.c **** * Parameters:
 247:Generated_Source\PSoC4/Capsense_MBX.c **** *  mbx:  Pointer to Mailbox structure in RAM.
 248:Generated_Source\PSoC4/Capsense_MBX.c **** *
 249:Generated_Source\PSoC4/Capsense_MBX.c **** * Return:
 250:Generated_Source\PSoC4/Capsense_MBX.c **** *  None. Modifies the contents of mbx and mbx->outbox.
 251:Generated_Source\PSoC4/Capsense_MBX.c **** *
 252:Generated_Source\PSoC4/Capsense_MBX.c **** * Global Variables:
 253:Generated_Source\PSoC4/Capsense_MBX.c **** *  None
 254:Generated_Source\PSoC4/Capsense_MBX.c **** *
 255:Generated_Source\PSoC4/Capsense_MBX.c **** *******************************************************************************/
 256:Generated_Source\PSoC4/Capsense_MBX.c **** void Capsense_InitMailbox(volatile Capsense_MAILBOX *mbx)
 257:Generated_Source\PSoC4/Capsense_MBX.c **** {
 177              		.loc 1 257 0
 178              		.cfi_startproc
 179              		@ args = 0, pretend = 0, frame = 8
 180              		@ frame_needed = 1, uses_anonymous_args = 0
 181 0000 80B5     		push	{r7, lr}
 182              		.cfi_def_cfa_offset 8
 183              		.cfi_offset 7, -8
 184              		.cfi_offset 14, -4
 185 0002 82B0     		sub	sp, sp, #8
 186              		.cfi_def_cfa_offset 16
 187 0004 00AF     		add	r7, sp, #0
 188              		.cfi_def_cfa_register 7
 189 0006 7860     		str	r0, [r7, #4]
 258:Generated_Source\PSoC4/Capsense_MBX.c ****     /* Restore TYPE_ID (clear busy flag) to indicate "action complete" */
 259:Generated_Source\PSoC4/Capsense_MBX.c ****     mbx->type = Capsense_TYPE_ID;
 190              		.loc 1 259 0
 191 0008 7B68     		ldr	r3, [r7, #4]
 192 000a 0422     		movs	r2, #4
 193 000c 1A70     		strb	r2, [r3]
 260:Generated_Source\PSoC4/Capsense_MBX.c ****     /* Restore default value - clear "have_msg" */
 261:Generated_Source\PSoC4/Capsense_MBX.c ****     mbx->size = sizeof(Capsense_MAILBOX);
 194              		.loc 1 261 0
ARM GAS  C:\Users\ROUSSMA\AppData\Local\Temp\ccTAVq6f.s 			page 9


 195 000e 7B68     		ldr	r3, [r7, #4]
 196 0010 0133     		adds	r3, r3, #1
 197 0012 1A78     		ldrb	r2, [r3]
 198 0014 0021     		movs	r1, #0
 199 0016 0A40     		ands	r2, r1
 200 0018 111C     		adds	r1, r2, #0
 201 001a 1B22     		movs	r2, #27
 202 001c 0A43     		orrs	r2, r1
 203 001e 1A70     		strb	r2, [r3]
 204 0020 5A78     		ldrb	r2, [r3, #1]
 205 0022 0021     		movs	r1, #0
 206 0024 0A40     		ands	r2, r1
 207 0026 5A70     		strb	r2, [r3, #1]
 262:Generated_Source\PSoC4/Capsense_MBX.c **** 
 263:Generated_Source\PSoC4/Capsense_MBX.c ****     /* Additional fields for async and reset handling */
 264:Generated_Source\PSoC4/Capsense_MBX.c ****     #if((Capsense_TUNING_METHOD != Capsense__TUNING_NONE) && (0u != Capsense_TOTAL_TRACKPAD_GESTURE
 265:Generated_Source\PSoC4/Capsense_MBX.c ****         (Capsense_TUNING_METHOD == Capsense__TUNING_MANUAL))
 266:Generated_Source\PSoC4/Capsense_MBX.c ****         mbx->outbox.noReadMessage = 1u;
 208              		.loc 1 266 0
 209 0028 7B68     		ldr	r3, [r7, #4]
 210 002a 0122     		movs	r2, #1
 211 002c 5A72     		strb	r2, [r3, #9]
 267:Generated_Source\PSoC4/Capsense_MBX.c ****     #endif  /* ((Capsense_TUNING_METHOD != Capsense__TUNING_NONE) && (0u != Capsense_TOTAL_TRACKPAD
 268:Generated_Source\PSoC4/Capsense_MBX.c ****                 (Capsense_TUNING_METHOD == Capsense__TUNING_MANUAL)) */
 269:Generated_Source\PSoC4/Capsense_MBX.c **** 
 270:Generated_Source\PSoC4/Capsense_MBX.c ****     mbx->outbox.checkSum = (uint16)(Capsense_CHECK_SUM);
 212              		.loc 1 270 0
 213 002e 7B68     		ldr	r3, [r7, #4]
 214 0030 1A7B     		ldrb	r2, [r3, #12]
 215 0032 0021     		movs	r1, #0
 216 0034 0A40     		ands	r2, r1
 217 0036 111C     		adds	r1, r2, #0
 218 0038 0B22     		movs	r2, #11
 219 003a 0A43     		orrs	r2, r1
 220 003c 1A73     		strb	r2, [r3, #12]
 221 003e 5A7B     		ldrb	r2, [r3, #13]
 222 0040 0021     		movs	r1, #0
 223 0042 0A40     		ands	r2, r1
 224 0044 5A73     		strb	r2, [r3, #13]
 271:Generated_Source\PSoC4/Capsense_MBX.c **** }
 225              		.loc 1 271 0
 226 0046 C046     		nop
 227 0048 BD46     		mov	sp, r7
 228 004a 02B0     		add	sp, sp, #8
 229              		@ sp needed
 230 004c 80BD     		pop	{r7, pc}
 231              		.cfi_endproc
 232              	.LFE37:
 233              		.size	Capsense_InitMailbox, .-Capsense_InitMailbox
 234 004e C046     		.section	.text.Capsense_PostMessage,"ax",%progbits
 235              		.align	2
 236              		.global	Capsense_PostMessage
 237              		.code	16
 238              		.thumb_func
 239              		.type	Capsense_PostMessage, %function
 240              	Capsense_PostMessage:
 241              	.LFB38:
ARM GAS  C:\Users\ROUSSMA\AppData\Local\Temp\ccTAVq6f.s 			page 10


 272:Generated_Source\PSoC4/Capsense_MBX.c **** 
 273:Generated_Source\PSoC4/Capsense_MBX.c **** 
 274:Generated_Source\PSoC4/Capsense_MBX.c **** /*******************************************************************************
 275:Generated_Source\PSoC4/Capsense_MBX.c **** * Function Name:  Capsense_PostMessage
 276:Generated_Source\PSoC4/Capsense_MBX.c **** ********************************************************************************
 277:Generated_Source\PSoC4/Capsense_MBX.c **** *
 278:Generated_Source\PSoC4/Capsense_MBX.c **** * Summary:
 279:Generated_Source\PSoC4/Capsense_MBX.c **** *  This blocking function waits while the Tuner GUI reports that the mailbox content
 280:Generated_Source\PSoC4/Capsense_MBX.c **** *  could be modified (clears Capsense_BUSY_FLAG). Then loads the report
 281:Generated_Source\PSoC4/Capsense_MBX.c **** *  data to the outbox and sets a busy flag.
 282:Generated_Source\PSoC4/Capsense_MBX.c **** *  In the manual tuning mode the report data is:
 283:Generated_Source\PSoC4/Capsense_MBX.c **** *    - raw data, baseline, signal;
 284:Generated_Source\PSoC4/Capsense_MBX.c **** *  In the auto tuning mode the added data is:
 285:Generated_Source\PSoC4/Capsense_MBX.c **** *    - fingerThreshold;
 286:Generated_Source\PSoC4/Capsense_MBX.c **** *    - noiseThreshold;
 287:Generated_Source\PSoC4/Capsense_MBX.c **** *    - scanResolution;
 288:Generated_Source\PSoC4/Capsense_MBX.c **** *    - idacValue;
 289:Generated_Source\PSoC4/Capsense_MBX.c **** *    - prescaler.
 290:Generated_Source\PSoC4/Capsense_MBX.c **** *
 291:Generated_Source\PSoC4/Capsense_MBX.c **** * Parameters:
 292:Generated_Source\PSoC4/Capsense_MBX.c **** *  mbx:  Pointer to Mailbox structure in RAM.
 293:Generated_Source\PSoC4/Capsense_MBX.c **** *
 294:Generated_Source\PSoC4/Capsense_MBX.c **** * Return:
 295:Generated_Source\PSoC4/Capsense_MBX.c **** *  None. Modifies the contents of mbx->outbox.
 296:Generated_Source\PSoC4/Capsense_MBX.c **** *
 297:Generated_Source\PSoC4/Capsense_MBX.c **** * Global Variables:
 298:Generated_Source\PSoC4/Capsense_MBX.c **** *  None
 299:Generated_Source\PSoC4/Capsense_MBX.c **** *
 300:Generated_Source\PSoC4/Capsense_MBX.c **** *******************************************************************************/
 301:Generated_Source\PSoC4/Capsense_MBX.c **** void Capsense_PostMessage(volatile Capsense_MAILBOX *mbx)
 302:Generated_Source\PSoC4/Capsense_MBX.c **** {
 242              		.loc 1 302 0
 243              		.cfi_startproc
 244              		@ args = 0, pretend = 0, frame = 16
 245              		@ frame_needed = 1, uses_anonymous_args = 0
 246 0000 90B5     		push	{r4, r7, lr}
 247              		.cfi_def_cfa_offset 12
 248              		.cfi_offset 4, -12
 249              		.cfi_offset 7, -8
 250              		.cfi_offset 14, -4
 251 0002 85B0     		sub	sp, sp, #20
 252              		.cfi_def_cfa_offset 32
 253 0004 00AF     		add	r7, sp, #0
 254              		.cfi_def_cfa_register 7
 255 0006 7860     		str	r0, [r7, #4]
 303:Generated_Source\PSoC4/Capsense_MBX.c ****     uint8 i;
 304:Generated_Source\PSoC4/Capsense_MBX.c **** 
 305:Generated_Source\PSoC4/Capsense_MBX.c ****     #if ( Capsense_TUNING_METHOD == Capsense__TUNING_AUTO )
 306:Generated_Source\PSoC4/Capsense_MBX.c ****         uint8 tmpResolutionIndex;
 307:Generated_Source\PSoC4/Capsense_MBX.c ****         uint16 tmpResolutionValue;
 308:Generated_Source\PSoC4/Capsense_MBX.c ****     #endif /* ( Capsense_TUNING_METHOD == Capsense__TUNING_AUTO ) */
 309:Generated_Source\PSoC4/Capsense_MBX.c **** 
 310:Generated_Source\PSoC4/Capsense_MBX.c ****     /* Check busy flag */
 311:Generated_Source\PSoC4/Capsense_MBX.c ****     while (mbx->type != Capsense_TYPE_ID){}
 256              		.loc 1 311 0
 257 0008 C046     		nop
 258              	.L6:
ARM GAS  C:\Users\ROUSSMA\AppData\Local\Temp\ccTAVq6f.s 			page 11


 259              		.loc 1 311 0 is_stmt 0 discriminator 1
 260 000a 7B68     		ldr	r3, [r7, #4]
 261 000c 1B78     		ldrb	r3, [r3]
 262 000e DBB2     		uxtb	r3, r3
 263 0010 042B     		cmp	r3, #4
 264 0012 FAD1     		bne	.L6
 312:Generated_Source\PSoC4/Capsense_MBX.c **** 
 313:Generated_Source\PSoC4/Capsense_MBX.c ****     /* Copy scan parameters */
 314:Generated_Source\PSoC4/Capsense_MBX.c ****     #if((Capsense_TUNING_METHOD == Capsense__TUNING_AUTO) || (0u != Capsense_AUTOCALIBRATION_ENABLE
 315:Generated_Source\PSoC4/Capsense_MBX.c ****         /* Copy tuned idac values */
 316:Generated_Source\PSoC4/Capsense_MBX.c ****         for(i = 0u; i < Capsense_TOTAL_SENSOR_COUNT; i++)
 265              		.loc 1 316 0 is_stmt 1
 266 0014 0F23     		movs	r3, #15
 267 0016 FB18     		adds	r3, r7, r3
 268 0018 0022     		movs	r2, #0
 269 001a 1A70     		strb	r2, [r3]
 270 001c 1EE0     		b	.L7
 271              	.L8:
 317:Generated_Source\PSoC4/Capsense_MBX.c ****         {
 318:Generated_Source\PSoC4/Capsense_MBX.c ****             mbx->outbox.modulationIDAC[i] = Capsense_modulationIDAC[i];
 272              		.loc 1 318 0 discriminator 3
 273 001e 0F23     		movs	r3, #15
 274 0020 FB18     		adds	r3, r7, r3
 275 0022 1B78     		ldrb	r3, [r3]
 276 0024 0F22     		movs	r2, #15
 277 0026 BA18     		adds	r2, r7, r2
 278 0028 1278     		ldrb	r2, [r2]
 279 002a 4149     		ldr	r1, .L11
 280 002c 895C     		ldrb	r1, [r1, r2]
 281 002e 7A68     		ldr	r2, [r7, #4]
 282 0030 D318     		adds	r3, r2, r3
 283 0032 0A1C     		adds	r2, r1, #0
 284 0034 9A72     		strb	r2, [r3, #10]
 319:Generated_Source\PSoC4/Capsense_MBX.c ****             #if (Capsense_IDAC_CNT == 2u)
 320:Generated_Source\PSoC4/Capsense_MBX.c ****                 mbx->outbox.compensationIDAC[i] = Capsense_compensationIDAC[i];
 285              		.loc 1 320 0 discriminator 3
 286 0036 0F23     		movs	r3, #15
 287 0038 FB18     		adds	r3, r7, r3
 288 003a 1B78     		ldrb	r3, [r3]
 289 003c 0F22     		movs	r2, #15
 290 003e BA18     		adds	r2, r7, r2
 291 0040 1278     		ldrb	r2, [r2]
 292 0042 3C49     		ldr	r1, .L11+4
 293 0044 895C     		ldrb	r1, [r1, r2]
 294 0046 7A68     		ldr	r2, [r7, #4]
 295 0048 D318     		adds	r3, r2, r3
 296 004a 0A1C     		adds	r2, r1, #0
 297 004c DA72     		strb	r2, [r3, #11]
 316:Generated_Source\PSoC4/Capsense_MBX.c ****         {
 298              		.loc 1 316 0 discriminator 3
 299 004e 0F23     		movs	r3, #15
 300 0050 FB18     		adds	r3, r7, r3
 301 0052 1A78     		ldrb	r2, [r3]
 302 0054 0F23     		movs	r3, #15
 303 0056 FB18     		adds	r3, r7, r3
 304 0058 0132     		adds	r2, r2, #1
 305 005a 1A70     		strb	r2, [r3]
ARM GAS  C:\Users\ROUSSMA\AppData\Local\Temp\ccTAVq6f.s 			page 12


 306              	.L7:
 316:Generated_Source\PSoC4/Capsense_MBX.c ****         {
 307              		.loc 1 316 0 is_stmt 0 discriminator 1
 308 005c 0F23     		movs	r3, #15
 309 005e FB18     		adds	r3, r7, r3
 310 0060 1B78     		ldrb	r3, [r3]
 311 0062 002B     		cmp	r3, #0
 312 0064 DBD0     		beq	.L8
 321:Generated_Source\PSoC4/Capsense_MBX.c ****             #endif /* (Capsense_IDAC_CNT == 2u) */
 322:Generated_Source\PSoC4/Capsense_MBX.c ****         }
 323:Generated_Source\PSoC4/Capsense_MBX.c ****     #endif /* ((Capsense_TUNING_METHOD == Capsense__TUNING_AUTO) || (0u != Capsense_AUTOCALIBRATION
 324:Generated_Source\PSoC4/Capsense_MBX.c **** 
 325:Generated_Source\PSoC4/Capsense_MBX.c ****     #if ( Capsense_TUNING_METHOD == Capsense__TUNING_AUTO )
 326:Generated_Source\PSoC4/Capsense_MBX.c ****         for(i = 0u; i < Capsense_TOTAL_SCANSLOT_COUNT; i++)
 327:Generated_Source\PSoC4/Capsense_MBX.c ****         {
 328:Generated_Source\PSoC4/Capsense_MBX.c ****             mbx->outbox.analogSwitchDivider[i] = Capsense_senseClkDividerVal[i];
 329:Generated_Source\PSoC4/Capsense_MBX.c ****             mbx->outbox.modulatorDivider[i] = Capsense_sampleClkDividerVal[i];
 330:Generated_Source\PSoC4/Capsense_MBX.c ****         }
 331:Generated_Source\PSoC4/Capsense_MBX.c **** 
 332:Generated_Source\PSoC4/Capsense_MBX.c ****         /* Widget resolution, take to account TP and MB */
 333:Generated_Source\PSoC4/Capsense_MBX.c ****         for(i = 0u; i < Capsense_WIDGET_RESOLUTION_PARAMETERS_COUNT; i++)
 334:Generated_Source\PSoC4/Capsense_MBX.c ****         {
 335:Generated_Source\PSoC4/Capsense_MBX.c ****             tmpResolutionValue = (uint16)(Capsense_widgetResolution[i] >> Capsense_MSB_RESOLUTION_O
 336:Generated_Source\PSoC4/Capsense_MBX.c ****             tmpResolutionIndex = 0u;
 337:Generated_Source\PSoC4/Capsense_MBX.c **** 
 338:Generated_Source\PSoC4/Capsense_MBX.c ****             while(0u != tmpResolutionValue)
 339:Generated_Source\PSoC4/Capsense_MBX.c ****             {
 340:Generated_Source\PSoC4/Capsense_MBX.c ****                 tmpResolutionIndex++;
 341:Generated_Source\PSoC4/Capsense_MBX.c ****                 tmpResolutionValue >>= 1u;
 342:Generated_Source\PSoC4/Capsense_MBX.c ****             }
 343:Generated_Source\PSoC4/Capsense_MBX.c **** 
 344:Generated_Source\PSoC4/Capsense_MBX.c ****             mbx->outbox.scanResolution[i] = tmpResolutionIndex;
 345:Generated_Source\PSoC4/Capsense_MBX.c ****         }
 346:Generated_Source\PSoC4/Capsense_MBX.c **** 
 347:Generated_Source\PSoC4/Capsense_MBX.c ****         #if(0u != Capsense_CSHL_API_GENERATE)
 348:Generated_Source\PSoC4/Capsense_MBX.c ****             /* Parameters are changed in run time */
 349:Generated_Source\PSoC4/Capsense_MBX.c ****             for(i = 0u; i < Capsense_WIDGET_CSHL_PARAMETERS_COUNT; i++)
 350:Generated_Source\PSoC4/Capsense_MBX.c ****             {
 351:Generated_Source\PSoC4/Capsense_MBX.c ****                 mbx->outbox.fingerThreshold[i] = Capsense_fingerThreshold[i];
 352:Generated_Source\PSoC4/Capsense_MBX.c ****                 mbx->outbox.noiseThreshold[i]  = Capsense_noiseThreshold[i];
 353:Generated_Source\PSoC4/Capsense_MBX.c ****                 mbx->outbox.hysteresis[i]      = Capsense_hysteresis[i];
 354:Generated_Source\PSoC4/Capsense_MBX.c ****             }
 355:Generated_Source\PSoC4/Capsense_MBX.c ****         #endif /* (0u != Capsense_CSHL_API_GENERATE) */
 356:Generated_Source\PSoC4/Capsense_MBX.c **** 
 357:Generated_Source\PSoC4/Capsense_MBX.c ****     #endif /* (Capsense_TUNING_METHOD == Capsense__TUNING_AUTO) */
 358:Generated_Source\PSoC4/Capsense_MBX.c **** 
 359:Generated_Source\PSoC4/Capsense_MBX.c **** 
 360:Generated_Source\PSoC4/Capsense_MBX.c ****     /* Copy all data - Raw, Base, Signal, OnMask */
 361:Generated_Source\PSoC4/Capsense_MBX.c ****     for(i = 0u; i < Capsense_TOTAL_SENSOR_COUNT; i++)
 313              		.loc 1 361 0 is_stmt 1
 314 0066 0F23     		movs	r3, #15
 315 0068 FB18     		adds	r3, r7, r3
 316 006a 0022     		movs	r2, #0
 317 006c 1A70     		strb	r2, [r3]
 318 006e 52E0     		b	.L9
 319              	.L10:
 362:Generated_Source\PSoC4/Capsense_MBX.c ****     {
ARM GAS  C:\Users\ROUSSMA\AppData\Local\Temp\ccTAVq6f.s 			page 13


 363:Generated_Source\PSoC4/Capsense_MBX.c ****         mbx->outbox.rawData[i]  = Capsense_sensorRaw[i];
 320              		.loc 1 363 0 discriminator 3
 321 0070 0F23     		movs	r3, #15
 322 0072 FB18     		adds	r3, r7, r3
 323 0074 1B78     		ldrb	r3, [r3]
 324 0076 0F22     		movs	r2, #15
 325 0078 BA18     		adds	r2, r7, r2
 326 007a 1178     		ldrb	r1, [r2]
 327 007c 2E4A     		ldr	r2, .L11+8
 328 007e 4900     		lsls	r1, r1, #1
 329 0080 8A5A     		ldrh	r2, [r1, r2]
 330 0082 7968     		ldr	r1, [r7, #4]
 331 0084 5B00     		lsls	r3, r3, #1
 332 0086 CB18     		adds	r3, r1, r3
 333 0088 0533     		adds	r3, r3, #5
 334 008a FF21     		movs	r1, #255
 335 008c 1140     		ands	r1, r2
 336 008e 0C00     		movs	r4, r1
 337 0090 1978     		ldrb	r1, [r3]
 338 0092 0020     		movs	r0, #0
 339 0094 0140     		ands	r1, r0
 340 0096 081C     		adds	r0, r1, #0
 341 0098 211C     		adds	r1, r4, #0
 342 009a 0143     		orrs	r1, r0
 343 009c 1970     		strb	r1, [r3]
 344 009e 120A     		lsrs	r2, r2, #8
 345 00a0 90B2     		uxth	r0, r2
 346 00a2 5A78     		ldrb	r2, [r3, #1]
 347 00a4 0021     		movs	r1, #0
 348 00a6 0A40     		ands	r2, r1
 349 00a8 111C     		adds	r1, r2, #0
 350 00aa 021C     		adds	r2, r0, #0
 351 00ac 0A43     		orrs	r2, r1
 352 00ae 5A70     		strb	r2, [r3, #1]
 364:Generated_Source\PSoC4/Capsense_MBX.c ****         #if(0u != Capsense_CSHL_API_GENERATE)
 365:Generated_Source\PSoC4/Capsense_MBX.c ****             mbx->outbox.baseLine[i] = Capsense_sensorBaseline[i];
 353              		.loc 1 365 0 discriminator 3
 354 00b0 0F23     		movs	r3, #15
 355 00b2 FB18     		adds	r3, r7, r3
 356 00b4 1B78     		ldrb	r3, [r3]
 357 00b6 0F22     		movs	r2, #15
 358 00b8 BA18     		adds	r2, r7, r2
 359 00ba 1178     		ldrb	r1, [r2]
 360 00bc 1F4A     		ldr	r2, .L11+12
 361 00be 4900     		lsls	r1, r1, #1
 362 00c0 8A5A     		ldrh	r2, [r1, r2]
 363 00c2 7968     		ldr	r1, [r7, #4]
 364 00c4 5B00     		lsls	r3, r3, #1
 365 00c6 CB18     		adds	r3, r1, r3
 366 00c8 0733     		adds	r3, r3, #7
 367 00ca FF21     		movs	r1, #255
 368 00cc 1140     		ands	r1, r2
 369 00ce 0C00     		movs	r4, r1
 370 00d0 1978     		ldrb	r1, [r3]
 371 00d2 0020     		movs	r0, #0
 372 00d4 0140     		ands	r1, r0
 373 00d6 081C     		adds	r0, r1, #0
ARM GAS  C:\Users\ROUSSMA\AppData\Local\Temp\ccTAVq6f.s 			page 14


 374 00d8 211C     		adds	r1, r4, #0
 375 00da 0143     		orrs	r1, r0
 376 00dc 1970     		strb	r1, [r3]
 377 00de 120A     		lsrs	r2, r2, #8
 378 00e0 90B2     		uxth	r0, r2
 379 00e2 5A78     		ldrb	r2, [r3, #1]
 380 00e4 0021     		movs	r1, #0
 381 00e6 0A40     		ands	r2, r1
 382 00e8 111C     		adds	r1, r2, #0
 383 00ea 021C     		adds	r2, r0, #0
 384 00ec 0A43     		orrs	r2, r1
 385 00ee 5A70     		strb	r2, [r3, #1]
 366:Generated_Source\PSoC4/Capsense_MBX.c ****             #if (Capsense_SIGNAL_SIZE == Capsense_SIGNAL_SIZE_UINT8)
 367:Generated_Source\PSoC4/Capsense_MBX.c ****                 mbx->outbox.sensorSignal[i]   = (uint8)Capsense_sensorSignal[i];
 386              		.loc 1 367 0 discriminator 3
 387 00f0 0F23     		movs	r3, #15
 388 00f2 FB18     		adds	r3, r7, r3
 389 00f4 1B78     		ldrb	r3, [r3]
 390 00f6 0F22     		movs	r2, #15
 391 00f8 BA18     		adds	r2, r7, r2
 392 00fa 1278     		ldrb	r2, [r2]
 393 00fc 1049     		ldr	r1, .L11+16
 394 00fe 895C     		ldrb	r1, [r1, r2]
 395 0100 7A68     		ldr	r2, [r7, #4]
 396 0102 D318     		adds	r3, r2, r3
 397 0104 0A1C     		adds	r2, r1, #0
 398 0106 1A71     		strb	r2, [r3, #4]
 361:Generated_Source\PSoC4/Capsense_MBX.c ****     {
 399              		.loc 1 361 0 discriminator 3
 400 0108 0F23     		movs	r3, #15
 401 010a FB18     		adds	r3, r7, r3
 402 010c 1A78     		ldrb	r2, [r3]
 403 010e 0F23     		movs	r3, #15
 404 0110 FB18     		adds	r3, r7, r3
 405 0112 0132     		adds	r2, r2, #1
 406 0114 1A70     		strb	r2, [r3]
 407              	.L9:
 361:Generated_Source\PSoC4/Capsense_MBX.c ****     {
 408              		.loc 1 361 0 is_stmt 0 discriminator 1
 409 0116 0F23     		movs	r3, #15
 410 0118 FB18     		adds	r3, r7, r3
 411 011a 1B78     		ldrb	r3, [r3]
 412 011c 002B     		cmp	r3, #0
 413 011e A7D0     		beq	.L10
 368:Generated_Source\PSoC4/Capsense_MBX.c ****             #else
 369:Generated_Source\PSoC4/Capsense_MBX.c ****                 mbx->outbox.sensorSignal[i]   = (uint16)Capsense_sensorSignal[i];
 370:Generated_Source\PSoC4/Capsense_MBX.c ****             #endif  /* (Capsense_SIGNAL_SIZE == Capsense_SIGNAL_SIZE_UINT8) */
 371:Generated_Source\PSoC4/Capsense_MBX.c ****         #endif /* (0u != Capsense_CSHL_API_GENERATE) */
 372:Generated_Source\PSoC4/Capsense_MBX.c ****     }
 373:Generated_Source\PSoC4/Capsense_MBX.c **** 
 374:Generated_Source\PSoC4/Capsense_MBX.c ****     /* Set busy flag */
 375:Generated_Source\PSoC4/Capsense_MBX.c ****     mbx->type = Capsense_BUSY_FLAG;
 414              		.loc 1 375 0 is_stmt 1
 415 0120 7B68     		ldr	r3, [r7, #4]
 416 0122 8422     		movs	r2, #132
 417 0124 1A70     		strb	r2, [r3]
 376:Generated_Source\PSoC4/Capsense_MBX.c **** }
ARM GAS  C:\Users\ROUSSMA\AppData\Local\Temp\ccTAVq6f.s 			page 15


 418              		.loc 1 376 0
 419 0126 C046     		nop
 420 0128 BD46     		mov	sp, r7
 421 012a 05B0     		add	sp, sp, #20
 422              		@ sp needed
 423 012c 90BD     		pop	{r4, r7, pc}
 424              	.L12:
 425 012e C046     		.align	2
 426              	.L11:
 427 0130 00000000 		.word	Capsense_modulationIDAC
 428 0134 00000000 		.word	Capsense_compensationIDAC
 429 0138 00000000 		.word	Capsense_sensorRaw
 430 013c 00000000 		.word	Capsense_sensorBaseline
 431 0140 00000000 		.word	Capsense_sensorSignal
 432              		.cfi_endproc
 433              	.LFE38:
 434              		.size	Capsense_PostMessage, .-Capsense_PostMessage
 435              		.section	.text.Capsense_ReadMessage,"ax",%progbits
 436              		.align	2
 437              		.global	Capsense_ReadMessage
 438              		.code	16
 439              		.thumb_func
 440              		.type	Capsense_ReadMessage, %function
 441              	Capsense_ReadMessage:
 442              	.LFB39:
 377:Generated_Source\PSoC4/Capsense_MBX.c **** 
 378:Generated_Source\PSoC4/Capsense_MBX.c **** 
 379:Generated_Source\PSoC4/Capsense_MBX.c **** #if ((Capsense_TUNING_METHOD != Capsense__TUNING_NONE) && (0u != Capsense_TOTAL_TRACKPAD_GESTURES_C
 380:Generated_Source\PSoC4/Capsense_MBX.c ****      (Capsense_TUNING_METHOD == Capsense__TUNING_MANUAL))
 381:Generated_Source\PSoC4/Capsense_MBX.c **** 
 382:Generated_Source\PSoC4/Capsense_MBX.c ****     /*******************************************************************************
 383:Generated_Source\PSoC4/Capsense_MBX.c ****     * Function Name: Capsense_ReadMessage
 384:Generated_Source\PSoC4/Capsense_MBX.c ****     ********************************************************************************
 385:Generated_Source\PSoC4/Capsense_MBX.c ****     *
 386:Generated_Source\PSoC4/Capsense_MBX.c ****     * Summary:
 387:Generated_Source\PSoC4/Capsense_MBX.c ****     *  If Capsense_HAVE_MSG is found in the mailbox, the function initializes
 388:Generated_Source\PSoC4/Capsense_MBX.c ****     *   the component with parameters which are found in the inbox.
 389:Generated_Source\PSoC4/Capsense_MBX.c ****     *   Signal is DONE by overwriting the value in the mailbox size field.
 390:Generated_Source\PSoC4/Capsense_MBX.c ****     *  Only available in the manual tuning mode.
 391:Generated_Source\PSoC4/Capsense_MBX.c ****     *
 392:Generated_Source\PSoC4/Capsense_MBX.c ****     * Parameters:
 393:Generated_Source\PSoC4/Capsense_MBX.c ****     *  mbx:  Pointer to Mailbox structure in RAM.
 394:Generated_Source\PSoC4/Capsense_MBX.c ****     *
 395:Generated_Source\PSoC4/Capsense_MBX.c ****     * Return:
 396:Generated_Source\PSoC4/Capsense_MBX.c ****     *  None. Modifies the contents of mbx.
 397:Generated_Source\PSoC4/Capsense_MBX.c ****     *
 398:Generated_Source\PSoC4/Capsense_MBX.c ****     * Global Variables:
 399:Generated_Source\PSoC4/Capsense_MBX.c ****     *  None
 400:Generated_Source\PSoC4/Capsense_MBX.c ****     *
 401:Generated_Source\PSoC4/Capsense_MBX.c ****     *******************************************************************************/
 402:Generated_Source\PSoC4/Capsense_MBX.c ****     void Capsense_ReadMessage(volatile Capsense_MAILBOX *mbx)
 403:Generated_Source\PSoC4/Capsense_MBX.c ****     {
 443              		.loc 1 403 0
 444              		.cfi_startproc
 445              		@ args = 0, pretend = 0, frame = 16
 446              		@ frame_needed = 1, uses_anonymous_args = 0
 447 0000 80B5     		push	{r7, lr}
ARM GAS  C:\Users\ROUSSMA\AppData\Local\Temp\ccTAVq6f.s 			page 16


 448              		.cfi_def_cfa_offset 8
 449              		.cfi_offset 7, -8
 450              		.cfi_offset 14, -4
 451 0002 84B0     		sub	sp, sp, #16
 452              		.cfi_def_cfa_offset 24
 453 0004 00AF     		add	r7, sp, #0
 454              		.cfi_def_cfa_register 7
 455 0006 7860     		str	r0, [r7, #4]
 404:Generated_Source\PSoC4/Capsense_MBX.c ****         volatile Capsense_INBOX *tmpInbox;
 405:Generated_Source\PSoC4/Capsense_MBX.c **** 
 406:Generated_Source\PSoC4/Capsense_MBX.c ****         /* Do we have a message waiting? */
 407:Generated_Source\PSoC4/Capsense_MBX.c ****         if ((mbx->size) == Capsense_HAVE_MSG)
 456              		.loc 1 407 0
 457 0008 7B68     		ldr	r3, [r7, #4]
 458 000a 5A78     		ldrb	r2, [r3, #1]
 459 000c D2B2     		uxtb	r2, r2
 460 000e 9B78     		ldrb	r3, [r3, #2]
 461 0010 DBB2     		uxtb	r3, r3
 462 0012 1B02     		lsls	r3, r3, #8
 463 0014 1343     		orrs	r3, r2
 464 0016 9BB2     		uxth	r3, r3
 465 0018 114A     		ldr	r2, .L17
 466 001a 9342     		cmp	r3, r2
 467 001c 1BD1     		bne	.L16
 408:Generated_Source\PSoC4/Capsense_MBX.c ****         {
 409:Generated_Source\PSoC4/Capsense_MBX.c ****             tmpInbox = &(mbx->inbox);
 468              		.loc 1 409 0
 469 001e 7B68     		ldr	r3, [r7, #4]
 470 0020 0E33     		adds	r3, r3, #14
 471 0022 FB60     		str	r3, [r7, #12]
 410:Generated_Source\PSoC4/Capsense_MBX.c **** 
 411:Generated_Source\PSoC4/Capsense_MBX.c ****             #if(Capsense_TUNING_METHOD == Capsense__TUNING_MANUAL)
 412:Generated_Source\PSoC4/Capsense_MBX.c ****                 if(tmpInbox->sensorIndex != Capsense_MAX_UINT_8)
 472              		.loc 1 412 0
 473 0024 FB68     		ldr	r3, [r7, #12]
 474 0026 1B78     		ldrb	r3, [r3]
 475 0028 DBB2     		uxtb	r3, r3
 476 002a FF2B     		cmp	r3, #255
 477 002c 03D0     		beq	.L15
 413:Generated_Source\PSoC4/Capsense_MBX.c ****                 {
 414:Generated_Source\PSoC4/Capsense_MBX.c ****                     Capsense_InitCsdParams(tmpInbox);
 478              		.loc 1 414 0
 479 002e FB68     		ldr	r3, [r7, #12]
 480 0030 1800     		movs	r0, r3
 481 0032 FFF7FEFF 		bl	Capsense_InitCsdParams
 482              	.L15:
 415:Generated_Source\PSoC4/Capsense_MBX.c ****                 }
 416:Generated_Source\PSoC4/Capsense_MBX.c ****             #endif /* (Capsense_TUNING_METHOD == Capsense__TUNING_MANUAL) */
 417:Generated_Source\PSoC4/Capsense_MBX.c **** 
 418:Generated_Source\PSoC4/Capsense_MBX.c ****             #if(0u != Capsense_TOTAL_TRACKPAD_GESTURES_COUNT)
 419:Generated_Source\PSoC4/Capsense_MBX.c ****                 if(tmpInbox->sensorIndex == Capsense_MAX_UINT_8)
 420:Generated_Source\PSoC4/Capsense_MBX.c ****                 {
 421:Generated_Source\PSoC4/Capsense_MBX.c ****                     Capsense_InitGesturesParams(tmpInbox);
 422:Generated_Source\PSoC4/Capsense_MBX.c ****                 }
 423:Generated_Source\PSoC4/Capsense_MBX.c ****             #endif /* (0u != Capsense_TOTAL_TRACKPAD_GESTURES_COUNT) */
 424:Generated_Source\PSoC4/Capsense_MBX.c **** 
 425:Generated_Source\PSoC4/Capsense_MBX.c ****             /* Notify host/tuner that we have consumed message */
ARM GAS  C:\Users\ROUSSMA\AppData\Local\Temp\ccTAVq6f.s 			page 17


 426:Generated_Source\PSoC4/Capsense_MBX.c ****             mbx->size = sizeof(Capsense_MAILBOX);
 483              		.loc 1 426 0
 484 0036 7B68     		ldr	r3, [r7, #4]
 485 0038 0133     		adds	r3, r3, #1
 486 003a 1A78     		ldrb	r2, [r3]
 487 003c 0021     		movs	r1, #0
 488 003e 0A40     		ands	r2, r1
 489 0040 111C     		adds	r1, r2, #0
 490 0042 1B22     		movs	r2, #27
 491 0044 0A43     		orrs	r2, r1
 492 0046 1A70     		strb	r2, [r3]
 493 0048 5A78     		ldrb	r2, [r3, #1]
 494 004a 0021     		movs	r1, #0
 495 004c 0A40     		ands	r2, r1
 496 004e 5A70     		strb	r2, [r3, #1]
 427:Generated_Source\PSoC4/Capsense_MBX.c **** 
 428:Generated_Source\PSoC4/Capsense_MBX.c ****             /* Default settings were changed */
 429:Generated_Source\PSoC4/Capsense_MBX.c ****             mbx->outbox.noReadMessage = 0u;
 497              		.loc 1 429 0
 498 0050 7B68     		ldr	r3, [r7, #4]
 499 0052 0022     		movs	r2, #0
 500 0054 5A72     		strb	r2, [r3, #9]
 501              	.L16:
 430:Generated_Source\PSoC4/Capsense_MBX.c **** 
 431:Generated_Source\PSoC4/Capsense_MBX.c ****             /* `#START Capsense_MBX_READ_MSG` */
 432:Generated_Source\PSoC4/Capsense_MBX.c **** 
 433:Generated_Source\PSoC4/Capsense_MBX.c ****             /* `#END` */
 434:Generated_Source\PSoC4/Capsense_MBX.c **** 
 435:Generated_Source\PSoC4/Capsense_MBX.c ****             #ifdef Capsense_READ_MESSAGE_MBX_READ_MSG_CALLBACK
 436:Generated_Source\PSoC4/Capsense_MBX.c ****                 Capsense_ReadMessage_MBX_READ_MSG_Callback();
 437:Generated_Source\PSoC4/Capsense_MBX.c ****             #endif /* Capsense_READ_MESSAGE_MBX_READ_MSG_CALLBACK */
 438:Generated_Source\PSoC4/Capsense_MBX.c ****         }
 439:Generated_Source\PSoC4/Capsense_MBX.c ****     }
 502              		.loc 1 439 0
 503 0056 C046     		nop
 504 0058 BD46     		mov	sp, r7
 505 005a 04B0     		add	sp, sp, #16
 506              		@ sp needed
 507 005c 80BD     		pop	{r7, pc}
 508              	.L18:
 509 005e C046     		.align	2
 510              	.L17:
 511 0060 1B800000 		.word	32795
 512              		.cfi_endproc
 513              	.LFE39:
 514              		.size	Capsense_ReadMessage, .-Capsense_ReadMessage
 515              		.text
 516              	.Letext0:
 517              		.file 2 "Generated_Source\\PSoC4\\cytypes.h"
 518              		.file 3 "Generated_Source\\PSoC4\\Capsense_MBX.h"
 519              		.file 4 "Generated_Source\\PSoC4\\Capsense.h"
 520              		.file 5 "Generated_Source\\PSoC4\\Capsense_CSHL.h"