ARM GAS  C:\Users\ROUSSMA\AppData\Local\Temp\ccTx5OE8.s 			page 1


   1              		.syntax unified
   2              		.cpu cortex-m0
   3              		.fpu softvfp
   4              		.eabi_attribute 20, 1
   5              		.eabi_attribute 21, 1
   6              		.eabi_attribute 23, 3
   7              		.eabi_attribute 24, 1
   8              		.eabi_attribute 25, 1
   9              		.eabi_attribute 26, 1
  10              		.eabi_attribute 30, 6
  11              		.eabi_attribute 34, 0
  12              		.eabi_attribute 18, 4
  13              		.thumb
  14              		.syntax unified
  15              		.file	"Capsense.c"
  16              		.text
  17              	.Ltext0:
  18              		.cfi_sections	.debug_frame
  19              		.global	Capsense_csdStatusVar
  20              		.bss
  21              		.type	Capsense_csdStatusVar, %object
  22              		.size	Capsense_csdStatusVar, 1
  23              	Capsense_csdStatusVar:
  24 0000 00       		.space	1
  25              		.global	Capsense_sensorIndex
  26              		.type	Capsense_sensorIndex, %object
  27              		.size	Capsense_sensorIndex, 1
  28              	Capsense_sensorIndex:
  29 0001 00       		.space	1
  30              		.global	Capsense_sensorRaw
  31 0002 0000     		.align	2
  32              		.type	Capsense_sensorRaw, %object
  33              		.size	Capsense_sensorRaw, 2
  34              	Capsense_sensorRaw:
  35 0004 0000     		.space	2
  36              		.comm	Capsense_csdTrim1,1,1
  37              		.comm	Capsense_unscannedSnsDriveMode,1,4
  38              		.comm	Capsense_sensorEnableMaskBackup,1,4
  39              		.global	Capsense_sensorEnableMask
  40              		.data
  41              		.align	2
  42              		.type	Capsense_sensorEnableMask, %object
  43              		.size	Capsense_sensorEnableMask, 1
  44              	Capsense_sensorEnableMask:
  45 0000 01       		.byte	1
  46              		.global	Capsense_pcTable
  47 0001 000000   		.align	2
  48              		.type	Capsense_pcTable, %object
  49              		.size	Capsense_pcTable, 4
  50              	Capsense_pcTable:
  51 0004 08020440 		.word	1074004488
  52              		.global	Capsense_portTable
  53              		.section	.rodata
  54              		.align	2
  55              		.type	Capsense_portTable, %object
  56              		.size	Capsense_portTable, 1
  57              	Capsense_portTable:
ARM GAS  C:\Users\ROUSSMA\AppData\Local\Temp\ccTx5OE8.s 			page 2


  58 0000 02       		.byte	2
  59              		.global	Capsense_maskTable
  60 0001 000000   		.align	2
  61              		.type	Capsense_maskTable, %object
  62              		.size	Capsense_maskTable, 4
  63              	Capsense_maskTable:
  64 0004 02000000 		.word	2
  65              		.global	Capsense_pinShiftTbl
  66              		.align	2
  67              		.type	Capsense_pinShiftTbl, %object
  68              		.size	Capsense_pinShiftTbl, 1
  69              	Capsense_pinShiftTbl:
  70 0008 01       		.byte	1
  71              		.global	Capsense_modulationIDAC
  72              		.data
  73              		.align	2
  74              		.type	Capsense_modulationIDAC, %object
  75              		.size	Capsense_modulationIDAC, 1
  76              	Capsense_modulationIDAC:
  77 0008 33       		.byte	51
  78              		.global	Capsense_compensationIDAC
  79 0009 000000   		.align	2
  80              		.type	Capsense_compensationIDAC, %object
  81              		.size	Capsense_compensationIDAC, 1
  82              	Capsense_compensationIDAC:
  83 000c 33       		.byte	51
  84              		.global	Capsense_widgetResolution
  85 000d 000000   		.align	2
  86              		.type	Capsense_widgetResolution, %object
  87              		.size	Capsense_widgetResolution, 4
  88              	Capsense_widgetResolution:
  89 0010 0000FF03 		.word	67043328
  90              		.global	Capsense_senseClkDividerVal
  91              		.align	2
  92              		.type	Capsense_senseClkDividerVal, %object
  93              		.size	Capsense_senseClkDividerVal, 1
  94              	Capsense_senseClkDividerVal:
  95 0014 02       		.byte	2
  96              		.global	Capsense_sampleClkDividerVal
  97 0015 000000   		.align	2
  98              		.type	Capsense_sampleClkDividerVal, %object
  99              		.size	Capsense_sampleClkDividerVal, 1
 100              	Capsense_sampleClkDividerVal:
 101 0018 02       		.byte	2
 102              		.global	Capsense_widgetNumber
 103              		.section	.rodata
 104 0009 000000   		.align	2
 105              		.type	Capsense_widgetNumber, %object
 106              		.size	Capsense_widgetNumber, 1
 107              	Capsense_widgetNumber:
 108 000c 00       		.space	1
 109              		.global	Capsense_prtSelTbl
 110 000d 000000   		.align	2
 111              		.type	Capsense_prtSelTbl, %object
 112              		.size	Capsense_prtSelTbl, 28
 113              	Capsense_prtSelTbl:
 114 0010 00000240 		.word	1073872896
ARM GAS  C:\Users\ROUSSMA\AppData\Local\Temp\ccTx5OE8.s 			page 3


 115 0014 00010240 		.word	1073873152
 116 0018 00020240 		.word	1073873408
 117 001c 00030240 		.word	1073873664
 118 0020 00040240 		.word	1073873920
 119 0024 00050240 		.word	1073874176
 120 0028 00060240 		.word	1073874432
 121              		.global	Capsense_prtCfgTbl
 122              		.align	2
 123              		.type	Capsense_prtCfgTbl, %object
 124              		.size	Capsense_prtCfgTbl, 28
 125              	Capsense_prtCfgTbl:
 126 002c 08000440 		.word	1074003976
 127 0030 08010440 		.word	1074004232
 128 0034 08020440 		.word	1074004488
 129 0038 08030440 		.word	1074004744
 130 003c 08040440 		.word	1074005000
 131 0040 08050440 		.word	1074005256
 132 0044 08060440 		.word	1074005512
 133              		.global	Capsense_prtDRTbl
 134              		.align	2
 135              		.type	Capsense_prtDRTbl, %object
 136              		.size	Capsense_prtDRTbl, 28
 137              	Capsense_prtDRTbl:
 138 0048 00000440 		.word	1074003968
 139 004c 00010440 		.word	1074004224
 140 0050 00020440 		.word	1074004480
 141 0054 00030440 		.word	1074004736
 142 0058 00040440 		.word	1074004992
 143 005c 00050440 		.word	1074005248
 144 0060 00060440 		.word	1074005504
 145              		.section	.text.Capsense_Init,"ax",%progbits
 146              		.align	2
 147              		.global	Capsense_Init
 148              		.code	16
 149              		.thumb_func
 150              		.type	Capsense_Init, %function
 151              	Capsense_Init:
 152              	.LFB36:
 153              		.file 1 "Generated_Source\\PSoC4\\Capsense.c"
   1:Generated_Source\PSoC4/Capsense.c **** /*******************************************************************************
   2:Generated_Source\PSoC4/Capsense.c **** * File Name: Capsense.c
   3:Generated_Source\PSoC4/Capsense.c **** * Version 2.60
   4:Generated_Source\PSoC4/Capsense.c **** *
   5:Generated_Source\PSoC4/Capsense.c **** * Description:
   6:Generated_Source\PSoC4/Capsense.c **** *  This file provides the source code for scanning APIs for the CapSense CSD
   7:Generated_Source\PSoC4/Capsense.c **** *  component.
   8:Generated_Source\PSoC4/Capsense.c **** *
   9:Generated_Source\PSoC4/Capsense.c **** * Note:
  10:Generated_Source\PSoC4/Capsense.c **** *
  11:Generated_Source\PSoC4/Capsense.c **** ********************************************************************************
  12:Generated_Source\PSoC4/Capsense.c **** * Copyright 2013-2016, Cypress Semiconductor Corporation.  All rights reserved.
  13:Generated_Source\PSoC4/Capsense.c **** * You may use this file only in accordance with the license, terms, conditions,
  14:Generated_Source\PSoC4/Capsense.c **** * disclaimers, and limitations in the end user license agreement accompanying
  15:Generated_Source\PSoC4/Capsense.c **** * the software package with which this file was provided.
  16:Generated_Source\PSoC4/Capsense.c **** *******************************************************************************/
  17:Generated_Source\PSoC4/Capsense.c **** 
  18:Generated_Source\PSoC4/Capsense.c **** #include "Capsense.h"
ARM GAS  C:\Users\ROUSSMA\AppData\Local\Temp\ccTx5OE8.s 			page 4


  19:Generated_Source\PSoC4/Capsense.c **** #include "Capsense_PVT.h"
  20:Generated_Source\PSoC4/Capsense.c **** #include "cypins.h"
  21:Generated_Source\PSoC4/Capsense.c **** #include "cyapicallbacks.h"
  22:Generated_Source\PSoC4/Capsense.c **** 
  23:Generated_Source\PSoC4/Capsense.c **** #if(0u != Capsense_CSHL_API_GENERATE)
  24:Generated_Source\PSoC4/Capsense.c ****     #include "Capsense_CSHL.h"
  25:Generated_Source\PSoC4/Capsense.c **** #endif /* (0u != Capsense_CSHL_API_GENERATE) */
  26:Generated_Source\PSoC4/Capsense.c **** 
  27:Generated_Source\PSoC4/Capsense.c **** /* This definition is intended to prevent unexpected linker error.
  28:Generated_Source\PSoC4/Capsense.c ****    For more details please see the IAR Technical Note 49981 */
  29:Generated_Source\PSoC4/Capsense.c **** #if defined(__ICCARM__)
  30:Generated_Source\PSoC4/Capsense.c ****     extern void Capsense_EnableSensor(uint32 sensor);
  31:Generated_Source\PSoC4/Capsense.c ****     extern void Capsense_DisableSensor(uint32 sensor);
  32:Generated_Source\PSoC4/Capsense.c **** #endif /* (__ICCARM__) */
  33:Generated_Source\PSoC4/Capsense.c **** 
  34:Generated_Source\PSoC4/Capsense.c **** /* SmartSense functions */
  35:Generated_Source\PSoC4/Capsense.c **** #if (Capsense_TUNING_METHOD == Capsense__TUNING_AUTO)
  36:Generated_Source\PSoC4/Capsense.c ****     uint8 Capsense_lowLevelTuningDone = 0u;
  37:Generated_Source\PSoC4/Capsense.c ****     uint8 Capsense_scanSpeedTbl[((Capsense_TOTAL_SENSOR_COUNT - 1u) / 8u) + 1u];
  38:Generated_Source\PSoC4/Capsense.c **** #endif /* (Capsense_TUNING_METHOD == Capsense__TUNING_AUTO) */
  39:Generated_Source\PSoC4/Capsense.c **** 
  40:Generated_Source\PSoC4/Capsense.c **** #if(Capsense_PRS_OPTIONS != Capsense__PRS_NONE)
  41:Generated_Source\PSoC4/Capsense.c ****     uint8 Capsense_prescalersTuningDone = 0u;
  42:Generated_Source\PSoC4/Capsense.c **** #endif /* (Capsense_PRS_OPTIONS == Capsense__PRS_NONE) */
  43:Generated_Source\PSoC4/Capsense.c **** 
  44:Generated_Source\PSoC4/Capsense.c **** /* Global software variables */
  45:Generated_Source\PSoC4/Capsense.c **** volatile uint8 Capsense_csdStatusVar = 0u;   /* CapSense CSD status, variable */
  46:Generated_Source\PSoC4/Capsense.c **** volatile uint8 Capsense_sensorIndex = 0u;    /* Index of scannig sensor */
  47:Generated_Source\PSoC4/Capsense.c **** 
  48:Generated_Source\PSoC4/Capsense.c **** /* Global array of Raw Counts */
  49:Generated_Source\PSoC4/Capsense.c **** uint16 Capsense_sensorRaw[Capsense_TOTAL_SENSOR_COUNT] = {0u};
  50:Generated_Source\PSoC4/Capsense.c **** 
  51:Generated_Source\PSoC4/Capsense.c **** /* Backup variables for trim registers*/
  52:Generated_Source\PSoC4/Capsense.c **** #if (Capsense_IDAC1_POLARITY == Capsense__IDAC_SINK)
  53:Generated_Source\PSoC4/Capsense.c ****     uint8 Capsense_csdTrim2;
  54:Generated_Source\PSoC4/Capsense.c **** #else
  55:Generated_Source\PSoC4/Capsense.c ****     uint8 Capsense_csdTrim1;
  56:Generated_Source\PSoC4/Capsense.c **** #endif /* (Capsense_IDAC1_POLARITY == Capsense__IDAC_SINK) */
  57:Generated_Source\PSoC4/Capsense.c **** 
  58:Generated_Source\PSoC4/Capsense.c **** /* Global array of un-scanned sensors state */
  59:Generated_Source\PSoC4/Capsense.c **** uint8 Capsense_unscannedSnsDriveMode[Capsense_PORT_PIN_CONFIG_TBL_ZISE];
  60:Generated_Source\PSoC4/Capsense.c **** 
  61:Generated_Source\PSoC4/Capsense.c **** /* Backup array for Capsense_sensorEnableMask */
  62:Generated_Source\PSoC4/Capsense.c **** uint8 Capsense_sensorEnableMaskBackup[(((Capsense_TOTAL_SENSOR_COUNT - 1u) / 8u) + 1u)];
  63:Generated_Source\PSoC4/Capsense.c **** 
  64:Generated_Source\PSoC4/Capsense.c **** /* Configured constants and arrays by Customizer */
  65:Generated_Source\PSoC4/Capsense.c **** uint8 Capsense_sensorEnableMask[(((Capsense_TOTAL_SENSOR_COUNT - 1u) / 8u) + 1u)] = {
  66:Generated_Source\PSoC4/Capsense.c **** 0x1u, };
  67:Generated_Source\PSoC4/Capsense.c **** 
  68:Generated_Source\PSoC4/Capsense.c **** reg32 * Capsense_pcTable[] = {
  69:Generated_Source\PSoC4/Capsense.c ****     (reg32 *)Capsense_Sns__Button0__BTN__PC, 
  70:Generated_Source\PSoC4/Capsense.c **** };
  71:Generated_Source\PSoC4/Capsense.c **** 
  72:Generated_Source\PSoC4/Capsense.c **** const uint8 Capsense_portTable[] = {
  73:Generated_Source\PSoC4/Capsense.c ****     Capsense_Sns__Button0__BTN__PORT, 
  74:Generated_Source\PSoC4/Capsense.c **** };
  75:Generated_Source\PSoC4/Capsense.c **** 
ARM GAS  C:\Users\ROUSSMA\AppData\Local\Temp\ccTx5OE8.s 			page 5


  76:Generated_Source\PSoC4/Capsense.c **** const uint32 Capsense_maskTable[] = {
  77:Generated_Source\PSoC4/Capsense.c ****     Capsense_Sns__Button0__BTN__MASK, 
  78:Generated_Source\PSoC4/Capsense.c **** };
  79:Generated_Source\PSoC4/Capsense.c **** 
  80:Generated_Source\PSoC4/Capsense.c **** const uint8 Capsense_pinShiftTbl[] = {
  81:Generated_Source\PSoC4/Capsense.c ****     (uint8) Capsense_Sns__Button0__BTN__SHIFT, 
  82:Generated_Source\PSoC4/Capsense.c **** };
  83:Generated_Source\PSoC4/Capsense.c **** 
  84:Generated_Source\PSoC4/Capsense.c **** uint8 Capsense_modulationIDAC[Capsense_TOTAL_SENSOR_COUNT] = {
  85:Generated_Source\PSoC4/Capsense.c ****     51u, 
  86:Generated_Source\PSoC4/Capsense.c **** };
  87:Generated_Source\PSoC4/Capsense.c **** uint8 Capsense_compensationIDAC[Capsense_TOTAL_SENSOR_COUNT] = {
  88:Generated_Source\PSoC4/Capsense.c ****     51u, 
  89:Generated_Source\PSoC4/Capsense.c **** };
  90:Generated_Source\PSoC4/Capsense.c **** 
  91:Generated_Source\PSoC4/Capsense.c **** uint32 Capsense_widgetResolution[Capsense_RESOLUTIONS_TBL_SIZE] = {
  92:Generated_Source\PSoC4/Capsense.c ****     Capsense_RESOLUTION_10_BITS,
  93:Generated_Source\PSoC4/Capsense.c **** };
  94:Generated_Source\PSoC4/Capsense.c **** 
  95:Generated_Source\PSoC4/Capsense.c **** uint8 Capsense_senseClkDividerVal[Capsense_TOTAL_SCANSLOT_COUNT] = {
  96:Generated_Source\PSoC4/Capsense.c ****     2u, 
  97:Generated_Source\PSoC4/Capsense.c **** };
  98:Generated_Source\PSoC4/Capsense.c **** uint8 Capsense_sampleClkDividerVal[Capsense_TOTAL_SCANSLOT_COUNT] = {
  99:Generated_Source\PSoC4/Capsense.c ****     2u, 
 100:Generated_Source\PSoC4/Capsense.c **** };
 101:Generated_Source\PSoC4/Capsense.c **** 
 102:Generated_Source\PSoC4/Capsense.c **** 
 103:Generated_Source\PSoC4/Capsense.c **** const uint8 Capsense_widgetNumber[Capsense_TOTAL_SENSOR_COUNT] = {
 104:Generated_Source\PSoC4/Capsense.c ****     0u, /* Button0__BTN */
 105:Generated_Source\PSoC4/Capsense.c **** };
 106:Generated_Source\PSoC4/Capsense.c **** 
 107:Generated_Source\PSoC4/Capsense.c **** reg32* const Capsense_prtSelTbl[Capsense_CFG_REG_TBL_SIZE] = {
 108:Generated_Source\PSoC4/Capsense.c ****     ((reg32 *) CYREG_HSIOM_PORT_SEL0),
 109:Generated_Source\PSoC4/Capsense.c ****     ((reg32 *) CYREG_HSIOM_PORT_SEL1),
 110:Generated_Source\PSoC4/Capsense.c ****     ((reg32 *) CYREG_HSIOM_PORT_SEL2),
 111:Generated_Source\PSoC4/Capsense.c ****     ((reg32 *) CYREG_HSIOM_PORT_SEL3),
 112:Generated_Source\PSoC4/Capsense.c ****     ((reg32 *) CYREG_HSIOM_PORT_SEL4),
 113:Generated_Source\PSoC4/Capsense.c ****     ((reg32 *) CYREG_HSIOM_PORT_SEL5),
 114:Generated_Source\PSoC4/Capsense.c ****     ((reg32 *) CYREG_HSIOM_PORT_SEL6),
 115:Generated_Source\PSoC4/Capsense.c **** };
 116:Generated_Source\PSoC4/Capsense.c **** 
 117:Generated_Source\PSoC4/Capsense.c **** reg32* const Capsense_prtCfgTbl[Capsense_CFG_REG_TBL_SIZE] = {
 118:Generated_Source\PSoC4/Capsense.c ****     ((reg32 *) CYREG_GPIO_PRT0_PC),
 119:Generated_Source\PSoC4/Capsense.c ****     ((reg32 *) CYREG_GPIO_PRT1_PC),
 120:Generated_Source\PSoC4/Capsense.c ****     ((reg32 *) CYREG_GPIO_PRT2_PC),
 121:Generated_Source\PSoC4/Capsense.c ****     ((reg32 *) CYREG_GPIO_PRT3_PC),
 122:Generated_Source\PSoC4/Capsense.c ****     ((reg32 *) CYREG_GPIO_PRT4_PC),
 123:Generated_Source\PSoC4/Capsense.c ****     ((reg32 *) CYREG_GPIO_PRT5_PC),
 124:Generated_Source\PSoC4/Capsense.c ****     ((reg32 *) CYREG_GPIO_PRT6_PC),
 125:Generated_Source\PSoC4/Capsense.c **** };
 126:Generated_Source\PSoC4/Capsense.c **** 
 127:Generated_Source\PSoC4/Capsense.c **** reg32* const Capsense_prtDRTbl[Capsense_CFG_REG_TBL_SIZE] = {
 128:Generated_Source\PSoC4/Capsense.c ****     ((reg32 *) CYREG_GPIO_PRT0_DR),
 129:Generated_Source\PSoC4/Capsense.c ****     ((reg32 *) CYREG_GPIO_PRT1_DR),
 130:Generated_Source\PSoC4/Capsense.c ****     ((reg32 *) CYREG_GPIO_PRT2_DR),
 131:Generated_Source\PSoC4/Capsense.c ****     ((reg32 *) CYREG_GPIO_PRT3_DR),
 132:Generated_Source\PSoC4/Capsense.c ****     ((reg32 *) CYREG_GPIO_PRT4_DR),
ARM GAS  C:\Users\ROUSSMA\AppData\Local\Temp\ccTx5OE8.s 			page 6


 133:Generated_Source\PSoC4/Capsense.c ****     ((reg32 *) CYREG_GPIO_PRT5_DR),
 134:Generated_Source\PSoC4/Capsense.c ****     ((reg32 *) CYREG_GPIO_PRT6_DR),
 135:Generated_Source\PSoC4/Capsense.c **** };
 136:Generated_Source\PSoC4/Capsense.c **** 
 137:Generated_Source\PSoC4/Capsense.c **** 
 138:Generated_Source\PSoC4/Capsense.c **** 
 139:Generated_Source\PSoC4/Capsense.c **** /*******************************************************************************
 140:Generated_Source\PSoC4/Capsense.c **** * Function Name: Capsense_Init
 141:Generated_Source\PSoC4/Capsense.c **** ********************************************************************************
 142:Generated_Source\PSoC4/Capsense.c **** *
 143:Generated_Source\PSoC4/Capsense.c **** * Summary:
 144:Generated_Source\PSoC4/Capsense.c **** *  API initializes default CapSense configuration provided by the customizer that defines
 145:Generated_Source\PSoC4/Capsense.c **** *  the mode of component operations and resets all the sensors to an inactive state.
 146:Generated_Source\PSoC4/Capsense.c **** *
 147:Generated_Source\PSoC4/Capsense.c **** * Parameters:
 148:Generated_Source\PSoC4/Capsense.c **** *  None
 149:Generated_Source\PSoC4/Capsense.c **** *
 150:Generated_Source\PSoC4/Capsense.c **** * Return:
 151:Generated_Source\PSoC4/Capsense.c **** *  None
 152:Generated_Source\PSoC4/Capsense.c **** *
 153:Generated_Source\PSoC4/Capsense.c **** * Global Variables:
 154:Generated_Source\PSoC4/Capsense.c **** *  Capsense_immunityIndex - defines immunity level.
 155:Generated_Source\PSoC4/Capsense.c **** *
 156:Generated_Source\PSoC4/Capsense.c **** * Side Effects:
 157:Generated_Source\PSoC4/Capsense.c **** *  None
 158:Generated_Source\PSoC4/Capsense.c **** *
 159:Generated_Source\PSoC4/Capsense.c **** *******************************************************************************/
 160:Generated_Source\PSoC4/Capsense.c **** void Capsense_Init(void)
 161:Generated_Source\PSoC4/Capsense.c **** {
 154              		.loc 1 161 0
 155              		.cfi_startproc
 156              		@ args = 0, pretend = 0, frame = 8
 157              		@ frame_needed = 1, uses_anonymous_args = 0
 158 0000 80B5     		push	{r7, lr}
 159              		.cfi_def_cfa_offset 8
 160              		.cfi_offset 7, -8
 161              		.cfi_offset 14, -4
 162 0002 82B0     		sub	sp, sp, #8
 163              		.cfi_def_cfa_offset 16
 164 0004 00AF     		add	r7, sp, #0
 165              		.cfi_def_cfa_register 7
 162:Generated_Source\PSoC4/Capsense.c ****     uint32 curSensor;
 163:Generated_Source\PSoC4/Capsense.c **** 
 164:Generated_Source\PSoC4/Capsense.c ****     #if(Capsense_IS_SHIELD_ENABLE)
 165:Generated_Source\PSoC4/Capsense.c **** 
 166:Generated_Source\PSoC4/Capsense.c ****         #if((Capsense_CSH_TANK_PREGARGE_OPTION == Capsense__CAPPRIOBUF) || (0u != Capsense_CSH_TANK
 167:Generated_Source\PSoC4/Capsense.c ****             uint32 newRegValue;
 168:Generated_Source\PSoC4/Capsense.c **** 
 169:Generated_Source\PSoC4/Capsense.c ****             newRegValue = Capsense_CTANK_CONNECTION_REG;
 170:Generated_Source\PSoC4/Capsense.c ****             newRegValue &= ~(Capsense_CSD_CTANK_CONNECTION_MASK);
 171:Generated_Source\PSoC4/Capsense.c ****             newRegValue |= Capsense_CSD_CTANK_TO_AMUXBUS_B;
 172:Generated_Source\PSoC4/Capsense.c ****             Capsense_CTANK_CONNECTION_REG = newRegValue;
 173:Generated_Source\PSoC4/Capsense.c **** 
 174:Generated_Source\PSoC4/Capsense.c ****             #if(Capsense_CSH_TANK_PREGARGE_OPTION == Capsense__CAPPRIOBUF)
 175:Generated_Source\PSoC4/Capsense.c ****                 newRegValue = Capsense_CTANK_PORT_PC_REG;
 176:Generated_Source\PSoC4/Capsense.c ****                 newRegValue &= ~(Capsense_CSD_CTANK_PC_MASK);
 177:Generated_Source\PSoC4/Capsense.c ****                 newRegValue |= Capsense_CTANK_PC_STRONG_MODE;
ARM GAS  C:\Users\ROUSSMA\AppData\Local\Temp\ccTx5OE8.s 			page 7


 178:Generated_Source\PSoC4/Capsense.c ****                 Capsense_CTANK_PORT_PC_REG = newRegValue;
 179:Generated_Source\PSoC4/Capsense.c **** 
 180:Generated_Source\PSoC4/Capsense.c ****                 newRegValue = Capsense_CTANK_PORT_DR_REG;
 181:Generated_Source\PSoC4/Capsense.c ****                 newRegValue &= ~(Capsense_CTANK_DR_MASK);
 182:Generated_Source\PSoC4/Capsense.c ****                 newRegValue |= Capsense_CTANK_DR_CONFIG;
 183:Generated_Source\PSoC4/Capsense.c ****                 Capsense_CTANK_PORT_DR_REG = newRegValue;
 184:Generated_Source\PSoC4/Capsense.c ****             #endif /* (Capsense_CSH_TANK_PREGARGE_OPTION == Capsense__CAPPRIOBUF) */
 185:Generated_Source\PSoC4/Capsense.c **** 
 186:Generated_Source\PSoC4/Capsense.c ****         #endif /* ((Capsense_CSH_TANK_PREGARGE_OPTION == Capsense__CAPPRIOBUF) || (Capsense_CSH_TAN
 187:Generated_Source\PSoC4/Capsense.c **** 
 188:Generated_Source\PSoC4/Capsense.c ****         Capsense_EnableShieldElectrode((uint32)Capsense_SHIELD_PIN_NUMBER, (uint32)Capsense_SHIELD_
 189:Generated_Source\PSoC4/Capsense.c **** 
 190:Generated_Source\PSoC4/Capsense.c ****     #endif /* (Capsense_IS_SHIELD_ENABLE) */
 191:Generated_Source\PSoC4/Capsense.c **** 
 192:Generated_Source\PSoC4/Capsense.c ****     for(curSensor = 0u; curSensor < Capsense_TOTAL_SENSOR_COUNT; curSensor++)
 166              		.loc 1 192 0
 167 0006 0023     		movs	r3, #0
 168 0008 7B60     		str	r3, [r7, #4]
 169 000a 07E0     		b	.L2
 170              	.L3:
 193:Generated_Source\PSoC4/Capsense.c ****     {
 194:Generated_Source\PSoC4/Capsense.c ****         Capsense_SetUnscannedSensorState(curSensor, Capsense_CONNECT_INACTIVE_SNS);
 171              		.loc 1 194 0 discriminator 3
 172 000c 7B68     		ldr	r3, [r7, #4]
 173 000e 0021     		movs	r1, #0
 174 0010 1800     		movs	r0, r3
 175 0012 FFF7FEFF 		bl	Capsense_SetUnscannedSensorState
 192:Generated_Source\PSoC4/Capsense.c ****     {
 176              		.loc 1 192 0 discriminator 3
 177 0016 7B68     		ldr	r3, [r7, #4]
 178 0018 0133     		adds	r3, r3, #1
 179 001a 7B60     		str	r3, [r7, #4]
 180              	.L2:
 192:Generated_Source\PSoC4/Capsense.c ****     {
 181              		.loc 1 192 0 is_stmt 0 discriminator 1
 182 001c 7B68     		ldr	r3, [r7, #4]
 183 001e 002B     		cmp	r3, #0
 184 0020 F4D0     		beq	.L3
 195:Generated_Source\PSoC4/Capsense.c ****     }
 196:Generated_Source\PSoC4/Capsense.c **** 
 197:Generated_Source\PSoC4/Capsense.c ****     Capsense_CsdHwBlockInit();
 185              		.loc 1 197 0 is_stmt 1
 186 0022 FFF7FEFF 		bl	Capsense_CsdHwBlockInit
 198:Generated_Source\PSoC4/Capsense.c ****     Capsense_SetShieldDelay(Capsense_SHIELD_DELAY );
 187              		.loc 1 198 0
 188 0026 0020     		movs	r0, #0
 189 0028 FFF7FEFF 		bl	Capsense_SetShieldDelay
 199:Generated_Source\PSoC4/Capsense.c **** 
 200:Generated_Source\PSoC4/Capsense.c ****     /* Clear all sensors */
 201:Generated_Source\PSoC4/Capsense.c ****     Capsense_ClearSensors();
 190              		.loc 1 201 0
 191 002c FFF7FEFF 		bl	Capsense_ClearSensors
 202:Generated_Source\PSoC4/Capsense.c **** }
 192              		.loc 1 202 0
 193 0030 C046     		nop
 194 0032 BD46     		mov	sp, r7
 195 0034 02B0     		add	sp, sp, #8
ARM GAS  C:\Users\ROUSSMA\AppData\Local\Temp\ccTx5OE8.s 			page 8


 196              		@ sp needed
 197 0036 80BD     		pop	{r7, pc}
 198              		.cfi_endproc
 199              	.LFE36:
 200              		.size	Capsense_Init, .-Capsense_Init
 201              		.section	.text.Capsense_CsdHwBlockInit,"ax",%progbits
 202              		.align	2
 203              		.global	Capsense_CsdHwBlockInit
 204              		.code	16
 205              		.thumb_func
 206              		.type	Capsense_CsdHwBlockInit, %function
 207              	Capsense_CsdHwBlockInit:
 208              	.LFB37:
 203:Generated_Source\PSoC4/Capsense.c **** 
 204:Generated_Source\PSoC4/Capsense.c **** /*******************************************************************************
 205:Generated_Source\PSoC4/Capsense.c **** * Function Name: Capsense_CsdHwBlockInit
 206:Generated_Source\PSoC4/Capsense.c **** ********************************************************************************
 207:Generated_Source\PSoC4/Capsense.c **** *
 208:Generated_Source\PSoC4/Capsense.c **** * Summary:
 209:Generated_Source\PSoC4/Capsense.c **** *  Initialises the hardware parameters of the CSD block
 210:Generated_Source\PSoC4/Capsense.c **** *
 211:Generated_Source\PSoC4/Capsense.c **** * Parameters:
 212:Generated_Source\PSoC4/Capsense.c **** *  None
 213:Generated_Source\PSoC4/Capsense.c **** *
 214:Generated_Source\PSoC4/Capsense.c **** * Return:
 215:Generated_Source\PSoC4/Capsense.c **** *  None
 216:Generated_Source\PSoC4/Capsense.c **** *
 217:Generated_Source\PSoC4/Capsense.c **** * Global Variables:
 218:Generated_Source\PSoC4/Capsense.c **** *  Capsense_csdTrim1 - Contains IDAC trim register value for Sourcing Mode.
 219:Generated_Source\PSoC4/Capsense.c **** *  Capsense_csdTrim2 - Contains IDAC trim register value for Sinking Mode.
 220:Generated_Source\PSoC4/Capsense.c **** *
 221:Generated_Source\PSoC4/Capsense.c **** * Side Effects:
 222:Generated_Source\PSoC4/Capsense.c **** *  None
 223:Generated_Source\PSoC4/Capsense.c **** *
 224:Generated_Source\PSoC4/Capsense.c **** *******************************************************************************/
 225:Generated_Source\PSoC4/Capsense.c **** void Capsense_CsdHwBlockInit(void)
 226:Generated_Source\PSoC4/Capsense.c **** {
 209              		.loc 1 226 0
 210              		.cfi_startproc
 211              		@ args = 0, pretend = 0, frame = 8
 212              		@ frame_needed = 1, uses_anonymous_args = 0
 213 0000 80B5     		push	{r7, lr}
 214              		.cfi_def_cfa_offset 8
 215              		.cfi_offset 7, -8
 216              		.cfi_offset 14, -4
 217 0002 82B0     		sub	sp, sp, #8
 218              		.cfi_def_cfa_offset 16
 219 0004 00AF     		add	r7, sp, #0
 220              		.cfi_def_cfa_register 7
 227:Generated_Source\PSoC4/Capsense.c ****     uint32 newRegValue;
 228:Generated_Source\PSoC4/Capsense.c **** 
 229:Generated_Source\PSoC4/Capsense.c ****         /* Set trim registers for CSD Mode */
 230:Generated_Source\PSoC4/Capsense.c ****     #if (Capsense_IDAC1_POLARITY == Capsense__IDAC_SINK)
 231:Generated_Source\PSoC4/Capsense.c ****         /* iDAC1 Sinking Mode */
 232:Generated_Source\PSoC4/Capsense.c ****         Capsense_csdTrim2 = (uint8)Capsense_CSD_TRIM2_REG;
 233:Generated_Source\PSoC4/Capsense.c ****         newRegValue = Capsense_csdTrim2;
 234:Generated_Source\PSoC4/Capsense.c ****         newRegValue &= Capsense_CSD_IDAC1_TRIM_MASK;
ARM GAS  C:\Users\ROUSSMA\AppData\Local\Temp\ccTx5OE8.s 			page 9


 235:Generated_Source\PSoC4/Capsense.c ****         newRegValue |= (uint32)((uint32)Capsense_SFLASH_CSD_TRIM2_REG & (uint32)Capsense_CSFLASH_TR
 236:Generated_Source\PSoC4/Capsense.c **** 
 237:Generated_Source\PSoC4/Capsense.c ****         #if (Capsense_IDAC_CNT == 2u)
 238:Generated_Source\PSoC4/Capsense.c ****             /* iDAC2 Sinking Mode */
 239:Generated_Source\PSoC4/Capsense.c ****             newRegValue &= Capsense_CSD_IDAC2_TRIM_MASK;
 240:Generated_Source\PSoC4/Capsense.c ****             newRegValue |= (uint32)((uint32)Capsense_SFLASH_CSD_TRIM2_REG & (uint32)Capsense_CSFLAS
 241:Generated_Source\PSoC4/Capsense.c ****         #endif /* (Capsense_IDAC_CNT == 2u) */
 242:Generated_Source\PSoC4/Capsense.c ****         Capsense_CSD_TRIM2_REG = newRegValue;
 243:Generated_Source\PSoC4/Capsense.c ****     #else
 244:Generated_Source\PSoC4/Capsense.c ****         /* iDAC1 Sourcing Mode */
 245:Generated_Source\PSoC4/Capsense.c ****         Capsense_csdTrim1 = (uint8)Capsense_CSD_TRIM1_REG;
 221              		.loc 1 245 0
 222 0006 244B     		ldr	r3, .L5
 223 0008 1B68     		ldr	r3, [r3]
 224 000a DAB2     		uxtb	r2, r3
 225 000c 234B     		ldr	r3, .L5+4
 226 000e 1A70     		strb	r2, [r3]
 246:Generated_Source\PSoC4/Capsense.c ****         newRegValue = Capsense_csdTrim1;
 227              		.loc 1 246 0
 228 0010 224B     		ldr	r3, .L5+4
 229 0012 1B78     		ldrb	r3, [r3]
 230 0014 7B60     		str	r3, [r7, #4]
 247:Generated_Source\PSoC4/Capsense.c ****         newRegValue &= Capsense_CSD_IDAC1_TRIM_MASK;
 231              		.loc 1 247 0
 232 0016 7B68     		ldr	r3, [r7, #4]
 233 0018 0F22     		movs	r2, #15
 234 001a 9343     		bics	r3, r2
 235 001c 7B60     		str	r3, [r7, #4]
 248:Generated_Source\PSoC4/Capsense.c ****         newRegValue |= (uint32)((uint32)Capsense_SFLASH_CSD_TRIM1_REG & (uint32)Capsense_CSFLASH_TR
 236              		.loc 1 248 0
 237 001e 204B     		ldr	r3, .L5+8
 238 0020 1B78     		ldrb	r3, [r3]
 239 0022 DBB2     		uxtb	r3, r3
 240 0024 1A00     		movs	r2, r3
 241 0026 0F23     		movs	r3, #15
 242 0028 1340     		ands	r3, r2
 243 002a 7A68     		ldr	r2, [r7, #4]
 244 002c 1343     		orrs	r3, r2
 245 002e 7B60     		str	r3, [r7, #4]
 249:Generated_Source\PSoC4/Capsense.c ****         #if (Capsense_IDAC_CNT == 2u)
 250:Generated_Source\PSoC4/Capsense.c ****              /* iDAC2 Sourcing Mode */
 251:Generated_Source\PSoC4/Capsense.c ****             newRegValue &= Capsense_CSD_IDAC2_TRIM_MASK;
 246              		.loc 1 251 0
 247 0030 7B68     		ldr	r3, [r7, #4]
 248 0032 F022     		movs	r2, #240
 249 0034 9343     		bics	r3, r2
 250 0036 7B60     		str	r3, [r7, #4]
 252:Generated_Source\PSoC4/Capsense.c ****             newRegValue |= (uint32)((uint32)Capsense_SFLASH_CSD_TRIM1_REG & (uint32)Capsense_CSFLAS
 251              		.loc 1 252 0
 252 0038 194B     		ldr	r3, .L5+8
 253 003a 1B78     		ldrb	r3, [r3]
 254 003c DBB2     		uxtb	r3, r3
 255 003e 1A00     		movs	r2, r3
 256 0040 F023     		movs	r3, #240
 257 0042 1340     		ands	r3, r2
 258 0044 7A68     		ldr	r2, [r7, #4]
 259 0046 1343     		orrs	r3, r2
ARM GAS  C:\Users\ROUSSMA\AppData\Local\Temp\ccTx5OE8.s 			page 10


 260 0048 7B60     		str	r3, [r7, #4]
 253:Generated_Source\PSoC4/Capsense.c ****         #endif
 254:Generated_Source\PSoC4/Capsense.c ****         Capsense_CSD_TRIM1_REG = newRegValue;
 261              		.loc 1 254 0
 262 004a 134B     		ldr	r3, .L5
 263 004c 7A68     		ldr	r2, [r7, #4]
 264 004e 1A60     		str	r2, [r3]
 255:Generated_Source\PSoC4/Capsense.c ****     #endif /* (Capsense_IDAC1_POLARITY == Capsense__IDAC_SINK) */
 256:Generated_Source\PSoC4/Capsense.c **** 
 257:Generated_Source\PSoC4/Capsense.c ****     /* Configure CSD and IDAC */
 258:Generated_Source\PSoC4/Capsense.c ****     #if (Capsense_IDAC_CNT > 1u)
 259:Generated_Source\PSoC4/Capsense.c ****         Capsense_CSD_IDAC_REG = Capsense_DEFAULT_CSD_IDAC_CONFIG;
 265              		.loc 1 259 0
 266 0050 144B     		ldr	r3, .L5+12
 267 0052 154A     		ldr	r2, .L5+16
 268 0054 1A60     		str	r2, [r3]
 260:Generated_Source\PSoC4/Capsense.c ****         Capsense_CSD_CFG_REG = Capsense_DEFAULT_CSD_CONFIG;
 269              		.loc 1 260 0
 270 0056 154B     		ldr	r3, .L5+20
 271 0058 154A     		ldr	r2, .L5+24
 272 005a 1A60     		str	r2, [r3]
 261:Generated_Source\PSoC4/Capsense.c ****     #else
 262:Generated_Source\PSoC4/Capsense.c ****         Capsense_CSD_IDAC_REG &= ~(Capsense_CSD_IDAC1_MODE_MASK  | Capsense_CSD_IDAC1_DATA_MASK);
 263:Generated_Source\PSoC4/Capsense.c ****         Capsense_CSD_IDAC_REG |= Capsense_DEFAULT_CSD_IDAC_CONFIG;
 264:Generated_Source\PSoC4/Capsense.c **** 
 265:Generated_Source\PSoC4/Capsense.c ****         Capsense_CSD_CFG_REG &= ~(Capsense_CSD_CONFIG_MASK);
 266:Generated_Source\PSoC4/Capsense.c ****         Capsense_CSD_CFG_REG |= (Capsense_DEFAULT_CSD_CONFIG);
 267:Generated_Source\PSoC4/Capsense.c ****     #endif /* (Capsense_IDAC_CNT > 1u) */
 268:Generated_Source\PSoC4/Capsense.c **** 
 269:Generated_Source\PSoC4/Capsense.c **** 
 270:Generated_Source\PSoC4/Capsense.c ****     /* Connect Cmod to AMUX bus */
 271:Generated_Source\PSoC4/Capsense.c ****     newRegValue = Capsense_CMOD_CONNECTION_REG;
 273              		.loc 1 271 0
 274 005c 154B     		ldr	r3, .L5+28
 275 005e 1B68     		ldr	r3, [r3]
 276 0060 7B60     		str	r3, [r7, #4]
 272:Generated_Source\PSoC4/Capsense.c ****     newRegValue &= ~(Capsense_CSD_CMOD_CONNECTION_MASK);
 277              		.loc 1 272 0
 278 0062 7B68     		ldr	r3, [r7, #4]
 279 0064 0F22     		movs	r2, #15
 280 0066 9343     		bics	r3, r2
 281 0068 7B60     		str	r3, [r7, #4]
 273:Generated_Source\PSoC4/Capsense.c ****     newRegValue |= Capsense_CSD_CMOD_TO_AMUXBUS_A;
 282              		.loc 1 273 0
 283 006a 7B68     		ldr	r3, [r7, #4]
 284 006c 0622     		movs	r2, #6
 285 006e 1343     		orrs	r3, r2
 286 0070 7B60     		str	r3, [r7, #4]
 274:Generated_Source\PSoC4/Capsense.c ****     Capsense_CMOD_CONNECTION_REG = newRegValue;
 287              		.loc 1 274 0
 288 0072 104B     		ldr	r3, .L5+28
 289 0074 7A68     		ldr	r2, [r7, #4]
 290 0076 1A60     		str	r2, [r3]
 275:Generated_Source\PSoC4/Capsense.c **** 
 276:Generated_Source\PSoC4/Capsense.c ****     /* Configure Dead Band PWM if it is enabled */
 277:Generated_Source\PSoC4/Capsense.c ****     #if(Capsense_CSD_4B_PWM_MODE != Capsense__PWM_OFF)
 278:Generated_Source\PSoC4/Capsense.c ****         Capsense_CSD_4B_PWM_REG = Capsense_DEFAULT_CSD_4B_PWM_CONFIG;
ARM GAS  C:\Users\ROUSSMA\AppData\Local\Temp\ccTx5OE8.s 			page 11


 279:Generated_Source\PSoC4/Capsense.c ****     #endif /* (Capsense_CSD_4B_PWM_MODE != Capsense__PWM_OFF) */
 280:Generated_Source\PSoC4/Capsense.c **** 
 281:Generated_Source\PSoC4/Capsense.c ****     /* Setup ISR */
 282:Generated_Source\PSoC4/Capsense.c ****     CyIntDisable(Capsense_ISR_NUMBER);
 291              		.loc 1 282 0
 292 0078 1020     		movs	r0, #16
 293 007a FFF7FEFF 		bl	CyIntDisable
 283:Generated_Source\PSoC4/Capsense.c ****     #if !defined(CY_EXTERNAL_INTERRUPT_CONFIG)
 284:Generated_Source\PSoC4/Capsense.c ****         (void)CyIntSetVector(Capsense_ISR_NUMBER, &Capsense_ISR);
 294              		.loc 1 284 0
 295 007e 0E4B     		ldr	r3, .L5+32
 296 0080 1900     		movs	r1, r3
 297 0082 1020     		movs	r0, #16
 298 0084 FFF7FEFF 		bl	CyIntSetVector
 285:Generated_Source\PSoC4/Capsense.c ****         CyIntSetPriority(Capsense_ISR_NUMBER, Capsense_ISR_PRIORITY);
 299              		.loc 1 285 0
 300 0088 0321     		movs	r1, #3
 301 008a 1020     		movs	r0, #16
 302 008c FFF7FEFF 		bl	CyIntSetPriority
 286:Generated_Source\PSoC4/Capsense.c ****     #endif /* (CY_EXTERNAL_INTERRUPT_CONFIG) */
 287:Generated_Source\PSoC4/Capsense.c **** }
 303              		.loc 1 287 0
 304 0090 C046     		nop
 305 0092 BD46     		mov	sp, r7
 306 0094 02B0     		add	sp, sp, #8
 307              		@ sp needed
 308 0096 80BD     		pop	{r7, pc}
 309              	.L6:
 310              		.align	2
 311              	.L5:
 312 0098 00FF2840 		.word	1076428544
 313 009c 00000000 		.word	Capsense_csdTrim1
 314 00a0 62F2FF0F 		.word	268431970
 315 00a4 08002840 		.word	1076363272
 316 00a8 00020001 		.word	16777728
 317 00ac 04002840 		.word	1076363268
 318 00b0 0008A001 		.word	27265024
 319 00b4 00040240 		.word	1073873920
 320 00b8 00000000 		.word	Capsense_ISR
 321              		.cfi_endproc
 322              	.LFE37:
 323              		.size	Capsense_CsdHwBlockInit, .-Capsense_CsdHwBlockInit
 324              		.section	.text.Capsense_Enable,"ax",%progbits
 325              		.align	2
 326              		.global	Capsense_Enable
 327              		.code	16
 328              		.thumb_func
 329              		.type	Capsense_Enable, %function
 330              	Capsense_Enable:
 331              	.LFB38:
 288:Generated_Source\PSoC4/Capsense.c **** 
 289:Generated_Source\PSoC4/Capsense.c **** 
 290:Generated_Source\PSoC4/Capsense.c **** /*******************************************************************************
 291:Generated_Source\PSoC4/Capsense.c **** * Function Name: Capsense_Enable
 292:Generated_Source\PSoC4/Capsense.c **** ********************************************************************************
 293:Generated_Source\PSoC4/Capsense.c **** *
 294:Generated_Source\PSoC4/Capsense.c **** * Summary:
ARM GAS  C:\Users\ROUSSMA\AppData\Local\Temp\ccTx5OE8.s 			page 12


 295:Generated_Source\PSoC4/Capsense.c **** *  Enables the CSD block and related resources to an active mode.
 296:Generated_Source\PSoC4/Capsense.c **** *
 297:Generated_Source\PSoC4/Capsense.c **** * Parameters:
 298:Generated_Source\PSoC4/Capsense.c **** *  None
 299:Generated_Source\PSoC4/Capsense.c **** *
 300:Generated_Source\PSoC4/Capsense.c **** * Return:
 301:Generated_Source\PSoC4/Capsense.c **** *  None
 302:Generated_Source\PSoC4/Capsense.c **** *
 303:Generated_Source\PSoC4/Capsense.c **** * Global Variables:
 304:Generated_Source\PSoC4/Capsense.c **** *  None.
 305:Generated_Source\PSoC4/Capsense.c **** *
 306:Generated_Source\PSoC4/Capsense.c **** * Side Effects:
 307:Generated_Source\PSoC4/Capsense.c **** *  None
 308:Generated_Source\PSoC4/Capsense.c **** *
 309:Generated_Source\PSoC4/Capsense.c **** *******************************************************************************/
 310:Generated_Source\PSoC4/Capsense.c **** void Capsense_Enable(void)
 311:Generated_Source\PSoC4/Capsense.c **** {
 332              		.loc 1 311 0
 333              		.cfi_startproc
 334              		@ args = 0, pretend = 0, frame = 8
 335              		@ frame_needed = 1, uses_anonymous_args = 0
 336 0000 80B5     		push	{r7, lr}
 337              		.cfi_def_cfa_offset 8
 338              		.cfi_offset 7, -8
 339              		.cfi_offset 14, -4
 340 0002 82B0     		sub	sp, sp, #8
 341              		.cfi_def_cfa_offset 16
 342 0004 00AF     		add	r7, sp, #0
 343              		.cfi_def_cfa_register 7
 312:Generated_Source\PSoC4/Capsense.c ****     uint32 newRegValue;
 313:Generated_Source\PSoC4/Capsense.c **** 
 314:Generated_Source\PSoC4/Capsense.c ****     /* Enable Clocks */
 315:Generated_Source\PSoC4/Capsense.c ****     Capsense_SenseClk_Stop();
 344              		.loc 1 315 0
 345 0006 FFF7FEFF 		bl	Capsense_SenseClk_Stop
 316:Generated_Source\PSoC4/Capsense.c ****     Capsense_SampleClk_Stop();
 346              		.loc 1 316 0
 347 000a FFF7FEFF 		bl	Capsense_SampleClk_Stop
 317:Generated_Source\PSoC4/Capsense.c **** 
 318:Generated_Source\PSoC4/Capsense.c ****     Capsense_SampleClk_SetDividerValue((uint16)Capsense_INITIAL_CLK_DIVIDER);
 348              		.loc 1 318 0
 349 000e 0021     		movs	r1, #0
 350 0010 0020     		movs	r0, #0
 351 0012 FFF7FEFF 		bl	Capsense_SampleClk_SetFractionalDividerRegister
 319:Generated_Source\PSoC4/Capsense.c ****     Capsense_SenseClk_SetDividerValue((uint16)Capsense_INITIAL_CLK_DIVIDER);
 352              		.loc 1 319 0
 353 0016 0021     		movs	r1, #0
 354 0018 0020     		movs	r0, #0
 355 001a FFF7FEFF 		bl	Capsense_SenseClk_SetFractionalDividerRegister
 320:Generated_Source\PSoC4/Capsense.c **** 
 321:Generated_Source\PSoC4/Capsense.c ****     #if (0u == Capsense_IS_M0S8PERI_BLOCK)
 322:Generated_Source\PSoC4/Capsense.c ****         Capsense_SenseClk_Start();
 323:Generated_Source\PSoC4/Capsense.c ****         Capsense_SampleClk_Start();
 324:Generated_Source\PSoC4/Capsense.c ****     #else
 325:Generated_Source\PSoC4/Capsense.c ****         Capsense_SampleClk_Start();
 356              		.loc 1 325 0
 357 001e FF20     		movs	r0, #255
ARM GAS  C:\Users\ROUSSMA\AppData\Local\Temp\ccTx5OE8.s 			page 13


 358 0020 FFF7FEFF 		bl	Capsense_SampleClk_StartEx
 326:Generated_Source\PSoC4/Capsense.c ****         Capsense_SenseClk_StartEx(Capsense_SampleClk__DIV_ID);
 359              		.loc 1 326 0
 360 0024 4020     		movs	r0, #64
 361 0026 FFF7FEFF 		bl	Capsense_SenseClk_StartEx
 327:Generated_Source\PSoC4/Capsense.c ****     #endif /* (0u == Capsense_IS_M0S8PERI_BLOCK) */
 328:Generated_Source\PSoC4/Capsense.c **** 
 329:Generated_Source\PSoC4/Capsense.c ****     /* Enable the CSD block */
 330:Generated_Source\PSoC4/Capsense.c ****     newRegValue = Capsense_CSD_CFG_REG;
 362              		.loc 1 330 0
 363 002a 084B     		ldr	r3, .L8
 364 002c 1B68     		ldr	r3, [r3]
 365 002e 7B60     		str	r3, [r7, #4]
 331:Generated_Source\PSoC4/Capsense.c ****     newRegValue |= (Capsense_CSD_CFG_ENABLE | Capsense_CSD_CFG_SENSE_COMP_EN
 366              		.loc 1 331 0
 367 0030 7B68     		ldr	r3, [r7, #4]
 368 0032 074A     		ldr	r2, .L8+4
 369 0034 1343     		orrs	r3, r2
 370 0036 7B60     		str	r3, [r7, #4]
 332:Generated_Source\PSoC4/Capsense.c ****                                                    | Capsense_CSD_CFG_SENSE_EN);
 333:Generated_Source\PSoC4/Capsense.c ****     Capsense_CSD_CFG_REG = newRegValue;
 371              		.loc 1 333 0
 372 0038 044B     		ldr	r3, .L8
 373 003a 7A68     		ldr	r2, [r7, #4]
 374 003c 1A60     		str	r2, [r3]
 334:Generated_Source\PSoC4/Capsense.c **** 
 335:Generated_Source\PSoC4/Capsense.c ****     /* Enable interrupt */
 336:Generated_Source\PSoC4/Capsense.c ****     CyIntEnable(Capsense_ISR_NUMBER);
 375              		.loc 1 336 0
 376 003e 1020     		movs	r0, #16
 377 0040 FFF7FEFF 		bl	CyIntEnable
 337:Generated_Source\PSoC4/Capsense.c **** }
 378              		.loc 1 337 0
 379 0044 C046     		nop
 380 0046 BD46     		mov	sp, r7
 381 0048 02B0     		add	sp, sp, #8
 382              		@ sp needed
 383 004a 80BD     		pop	{r7, pc}
 384              	.L9:
 385              		.align	2
 386              	.L8:
 387 004c 04002840 		.word	1076363268
 388 0050 00100880 		.word	-2146955264
 389              		.cfi_endproc
 390              	.LFE38:
 391              		.size	Capsense_Enable, .-Capsense_Enable
 392              		.global	__aeabi_uidiv
 393              		.section	.text.Capsense_Start,"ax",%progbits
 394              		.align	2
 395              		.global	Capsense_Start
 396              		.code	16
 397              		.thumb_func
 398              		.type	Capsense_Start, %function
 399              	Capsense_Start:
 400              	.LFB39:
 338:Generated_Source\PSoC4/Capsense.c **** 
 339:Generated_Source\PSoC4/Capsense.c **** 
ARM GAS  C:\Users\ROUSSMA\AppData\Local\Temp\ccTx5OE8.s 			page 14


 340:Generated_Source\PSoC4/Capsense.c **** /*******************************************************************************
 341:Generated_Source\PSoC4/Capsense.c **** * Function Name: Capsense_Start
 342:Generated_Source\PSoC4/Capsense.c **** ********************************************************************************
 343:Generated_Source\PSoC4/Capsense.c **** *
 344:Generated_Source\PSoC4/Capsense.c **** * Summary:
 345:Generated_Source\PSoC4/Capsense.c **** *  This is the preferred method to begin the component operation. CapSense_Start()
 346:Generated_Source\PSoC4/Capsense.c **** *  calls the CapSense_Init() function, and then calls the CapSense_Enable()
 347:Generated_Source\PSoC4/Capsense.c **** *  function. Initializes the registers and starts the CSD method of the CapSense
 348:Generated_Source\PSoC4/Capsense.c **** *  component. Resets all the sensors to an inactive state. Enables interrupts for
 349:Generated_Source\PSoC4/Capsense.c **** *  sensors scanning. When the SmartSense tuning mode is selected, the tuning procedure
 350:Generated_Source\PSoC4/Capsense.c **** *  is applied for all the sensors. The CapSense_Start() routine must be called before
 351:Generated_Source\PSoC4/Capsense.c **** *  any other API routines.
 352:Generated_Source\PSoC4/Capsense.c **** *
 353:Generated_Source\PSoC4/Capsense.c **** * Parameters:
 354:Generated_Source\PSoC4/Capsense.c **** *  None
 355:Generated_Source\PSoC4/Capsense.c **** *
 356:Generated_Source\PSoC4/Capsense.c **** * Return:
 357:Generated_Source\PSoC4/Capsense.c **** *  None
 358:Generated_Source\PSoC4/Capsense.c **** *
 359:Generated_Source\PSoC4/Capsense.c **** * Global Variables:
 360:Generated_Source\PSoC4/Capsense.c **** *   Capsense_initVar - used to check the initial configuration,
 361:Generated_Source\PSoC4/Capsense.c **** *   modified on the first function call.
 362:Generated_Source\PSoC4/Capsense.c **** *  Capsense_lowLevelTuningDone - Used to notify the Tuner GUI that
 363:Generated_Source\PSoC4/Capsense.c **** *   tuning of the scanning parameters is done.
 364:Generated_Source\PSoC4/Capsense.c **** *
 365:Generated_Source\PSoC4/Capsense.c **** * Side Effects:
 366:Generated_Source\PSoC4/Capsense.c **** *  None
 367:Generated_Source\PSoC4/Capsense.c **** *
 368:Generated_Source\PSoC4/Capsense.c **** *******************************************************************************/
 369:Generated_Source\PSoC4/Capsense.c **** void Capsense_Start(void)
 370:Generated_Source\PSoC4/Capsense.c **** {
 401              		.loc 1 370 0
 402              		.cfi_startproc
 403              		@ args = 0, pretend = 0, frame = 16
 404              		@ frame_needed = 1, uses_anonymous_args = 0
 405 0000 80B5     		push	{r7, lr}
 406              		.cfi_def_cfa_offset 8
 407              		.cfi_offset 7, -8
 408              		.cfi_offset 14, -4
 409 0002 84B0     		sub	sp, sp, #16
 410              		.cfi_def_cfa_offset 24
 411 0004 00AF     		add	r7, sp, #0
 412              		.cfi_def_cfa_register 7
 371:Generated_Source\PSoC4/Capsense.c **** 
 372:Generated_Source\PSoC4/Capsense.c ****     static uint8 Capsense_initVar = 0u;
 373:Generated_Source\PSoC4/Capsense.c **** 
 374:Generated_Source\PSoC4/Capsense.c ****     #if((0u != Capsense_AUTOCALIBRATION_ENABLE) && (Capsense_TUNING_METHOD != Capsense__TUNING_AUTO
 375:Generated_Source\PSoC4/Capsense.c ****         uint32 curSensor;
 376:Generated_Source\PSoC4/Capsense.c ****         uint32 rawLevel;
 377:Generated_Source\PSoC4/Capsense.c ****         uint32 widget;
 378:Generated_Source\PSoC4/Capsense.c ****     #endif /* ((0u != Capsense_AUTOCALIBRATION_ENABLE) && (Capsense_TUNING_METHOD != Capsense__TUNI
 379:Generated_Source\PSoC4/Capsense.c **** 
 380:Generated_Source\PSoC4/Capsense.c ****     if (Capsense_initVar == 0u)
 413              		.loc 1 380 0
 414 0006 334B     		ldr	r3, .L16
 415 0008 1B78     		ldrb	r3, [r3]
 416 000a 002B     		cmp	r3, #0
ARM GAS  C:\Users\ROUSSMA\AppData\Local\Temp\ccTx5OE8.s 			page 15


 417 000c 04D1     		bne	.L11
 381:Generated_Source\PSoC4/Capsense.c ****     {
 382:Generated_Source\PSoC4/Capsense.c ****         Capsense_Init();
 418              		.loc 1 382 0
 419 000e FFF7FEFF 		bl	Capsense_Init
 383:Generated_Source\PSoC4/Capsense.c ****         Capsense_initVar = 1u;
 420              		.loc 1 383 0
 421 0012 304B     		ldr	r3, .L16
 422 0014 0122     		movs	r2, #1
 423 0016 1A70     		strb	r2, [r3]
 424              	.L11:
 384:Generated_Source\PSoC4/Capsense.c ****     }
 385:Generated_Source\PSoC4/Capsense.c ****     Capsense_Enable();
 425              		.loc 1 385 0
 426 0018 FFF7FEFF 		bl	Capsense_Enable
 386:Generated_Source\PSoC4/Capsense.c **** 
 387:Generated_Source\PSoC4/Capsense.c ****     /* AutoTunning start */
 388:Generated_Source\PSoC4/Capsense.c ****     #if(Capsense_TUNING_METHOD == Capsense__TUNING_AUTO)
 389:Generated_Source\PSoC4/Capsense.c ****         #if(0u != Capsense_CSHL_API_GENERATE)
 390:Generated_Source\PSoC4/Capsense.c ****             Capsense_AutoTune();
 391:Generated_Source\PSoC4/Capsense.c ****             Capsense_lowLevelTuningDone = 1u;
 392:Generated_Source\PSoC4/Capsense.c ****         #endif /* (0u != Capsense_CSHL_API_GENERATE) */
 393:Generated_Source\PSoC4/Capsense.c ****     #else
 394:Generated_Source\PSoC4/Capsense.c ****         #if(0u != Capsense_AUTOCALIBRATION_ENABLE)
 395:Generated_Source\PSoC4/Capsense.c **** 
 396:Generated_Source\PSoC4/Capsense.c ****             #if(Capsense_IDAC_CNT > 1u)
 397:Generated_Source\PSoC4/Capsense.c ****                 Capsense_CSD_IDAC_REG &= ~(Capsense_CSD_IDAC2_MODE_MASK);
 427              		.loc 1 397 0
 428 001c 2E4B     		ldr	r3, .L16+4
 429 001e 2E4A     		ldr	r2, .L16+4
 430 0020 1268     		ldr	r2, [r2]
 431 0022 2E49     		ldr	r1, .L16+8
 432 0024 0A40     		ands	r2, r1
 433 0026 1A60     		str	r2, [r3]
 398:Generated_Source\PSoC4/Capsense.c ****             #endif /* (Capsense_IDAC_CNT > 1u) */
 399:Generated_Source\PSoC4/Capsense.c **** 
 400:Generated_Source\PSoC4/Capsense.c ****             for(curSensor = 0u; curSensor < Capsense_TOTAL_SCANSLOT_COUNT; curSensor++)
 434              		.loc 1 400 0
 435 0028 0023     		movs	r3, #0
 436 002a FB60     		str	r3, [r7, #12]
 437 002c 1CE0     		b	.L12
 438              	.L13:
 401:Generated_Source\PSoC4/Capsense.c ****             {
 402:Generated_Source\PSoC4/Capsense.c ****                 widget = Capsense_widgetNumber[curSensor];
 439              		.loc 1 402 0 discriminator 3
 440 002e 0023     		movs	r3, #0
 441 0030 BB60     		str	r3, [r7, #8]
 403:Generated_Source\PSoC4/Capsense.c ****                 rawLevel = Capsense_widgetResolution[widget] >> Capsense_RESOLUTION_OFFSET;
 442              		.loc 1 403 0 discriminator 3
 443 0032 2B4B     		ldr	r3, .L16+12
 444 0034 BA68     		ldr	r2, [r7, #8]
 445 0036 9200     		lsls	r2, r2, #2
 446 0038 D358     		ldr	r3, [r2, r3]
 447 003a 1B0C     		lsrs	r3, r3, #16
 448 003c 7B60     		str	r3, [r7, #4]
 404:Generated_Source\PSoC4/Capsense.c **** 
 405:Generated_Source\PSoC4/Capsense.c ****                 /* Calibration level should be equal to 85% from scanning resolution */
ARM GAS  C:\Users\ROUSSMA\AppData\Local\Temp\ccTx5OE8.s 			page 16


 406:Generated_Source\PSoC4/Capsense.c ****                 rawLevel = (rawLevel * 85u) / 100u;
 449              		.loc 1 406 0 discriminator 3
 450 003e 7A68     		ldr	r2, [r7, #4]
 451 0040 1300     		movs	r3, r2
 452 0042 9B00     		lsls	r3, r3, #2
 453 0044 9B18     		adds	r3, r3, r2
 454 0046 1A01     		lsls	r2, r3, #4
 455 0048 9B18     		adds	r3, r3, r2
 456 004a 6421     		movs	r1, #100
 457 004c 1800     		movs	r0, r3
 458 004e FFF7FEFF 		bl	__aeabi_uidiv
 459 0052 0300     		movs	r3, r0
 460 0054 7B60     		str	r3, [r7, #4]
 407:Generated_Source\PSoC4/Capsense.c **** 
 408:Generated_Source\PSoC4/Capsense.c ****                 Capsense_CalibrateSensor(curSensor, rawLevel, Capsense_modulationIDAC);
 461              		.loc 1 408 0 discriminator 3
 462 0056 234A     		ldr	r2, .L16+16
 463 0058 7968     		ldr	r1, [r7, #4]
 464 005a FB68     		ldr	r3, [r7, #12]
 465 005c 1800     		movs	r0, r3
 466 005e FFF7FEFF 		bl	Capsense_CalibrateSensor
 400:Generated_Source\PSoC4/Capsense.c ****             {
 467              		.loc 1 400 0 discriminator 3
 468 0062 FB68     		ldr	r3, [r7, #12]
 469 0064 0133     		adds	r3, r3, #1
 470 0066 FB60     		str	r3, [r7, #12]
 471              	.L12:
 400:Generated_Source\PSoC4/Capsense.c ****             {
 472              		.loc 1 400 0 is_stmt 0 discriminator 1
 473 0068 FB68     		ldr	r3, [r7, #12]
 474 006a 002B     		cmp	r3, #0
 475 006c DFD0     		beq	.L13
 409:Generated_Source\PSoC4/Capsense.c ****             }
 410:Generated_Source\PSoC4/Capsense.c **** 
 411:Generated_Source\PSoC4/Capsense.c ****             #if(0u != Capsense_TOTAL_CENTROIDS_COUNT)
 412:Generated_Source\PSoC4/Capsense.c ****                 Capsense_NormalizeWidgets(Capsense_END_OF_WIDGETS_INDEX, Capsense_modulationIDAC);
 413:Generated_Source\PSoC4/Capsense.c ****             #endif /* (0u != Capsense_TOTAL_CENTROIDS_COUNT)  */
 414:Generated_Source\PSoC4/Capsense.c **** 
 415:Generated_Source\PSoC4/Capsense.c ****             #if(Capsense_IDAC_CNT > 1u)
 416:Generated_Source\PSoC4/Capsense.c ****                 for(curSensor = 0u; curSensor < Capsense_TOTAL_SCANSLOT_COUNT; curSensor++)
 476              		.loc 1 416 0 is_stmt 1
 477 006e 0023     		movs	r3, #0
 478 0070 FB60     		str	r3, [r7, #12]
 479 0072 19E0     		b	.L14
 480              	.L15:
 417:Generated_Source\PSoC4/Capsense.c ****                 {
 418:Generated_Source\PSoC4/Capsense.c ****                     Capsense_compensationIDAC[curSensor] = Capsense_modulationIDAC[curSensor] / 2u;
 481              		.loc 1 418 0 discriminator 3
 482 0074 1B4A     		ldr	r2, .L16+16
 483 0076 FB68     		ldr	r3, [r7, #12]
 484 0078 D318     		adds	r3, r2, r3
 485 007a 1B78     		ldrb	r3, [r3]
 486 007c 5B08     		lsrs	r3, r3, #1
 487 007e D9B2     		uxtb	r1, r3
 488 0080 194A     		ldr	r2, .L16+20
 489 0082 FB68     		ldr	r3, [r7, #12]
 490 0084 D318     		adds	r3, r2, r3
ARM GAS  C:\Users\ROUSSMA\AppData\Local\Temp\ccTx5OE8.s 			page 17


 491 0086 0A1C     		adds	r2, r1, #0
 492 0088 1A70     		strb	r2, [r3]
 419:Generated_Source\PSoC4/Capsense.c ****                     Capsense_modulationIDAC[curSensor] = (Capsense_modulationIDAC[curSensor] + 1u) 
 493              		.loc 1 419 0 discriminator 3
 494 008a 164A     		ldr	r2, .L16+16
 495 008c FB68     		ldr	r3, [r7, #12]
 496 008e D318     		adds	r3, r2, r3
 497 0090 1B78     		ldrb	r3, [r3]
 498 0092 0133     		adds	r3, r3, #1
 499 0094 5B08     		lsrs	r3, r3, #1
 500 0096 D9B2     		uxtb	r1, r3
 501 0098 124A     		ldr	r2, .L16+16
 502 009a FB68     		ldr	r3, [r7, #12]
 503 009c D318     		adds	r3, r2, r3
 504 009e 0A1C     		adds	r2, r1, #0
 505 00a0 1A70     		strb	r2, [r3]
 416:Generated_Source\PSoC4/Capsense.c ****                 {
 506              		.loc 1 416 0 discriminator 3
 507 00a2 FB68     		ldr	r3, [r7, #12]
 508 00a4 0133     		adds	r3, r3, #1
 509 00a6 FB60     		str	r3, [r7, #12]
 510              	.L14:
 416:Generated_Source\PSoC4/Capsense.c ****                 {
 511              		.loc 1 416 0 is_stmt 0 discriminator 1
 512 00a8 FB68     		ldr	r3, [r7, #12]
 513 00aa 002B     		cmp	r3, #0
 514 00ac E2D0     		beq	.L15
 420:Generated_Source\PSoC4/Capsense.c ****                 }
 421:Generated_Source\PSoC4/Capsense.c ****                 Capsense_CSD_IDAC_REG |= Capsense_CSD_IDAC2_MODE_FIXED;
 515              		.loc 1 421 0 is_stmt 1
 516 00ae 0A4B     		ldr	r3, .L16+4
 517 00b0 094A     		ldr	r2, .L16+4
 518 00b2 1268     		ldr	r2, [r2]
 519 00b4 8021     		movs	r1, #128
 520 00b6 4904     		lsls	r1, r1, #17
 521 00b8 0A43     		orrs	r2, r1
 522 00ba 1A60     		str	r2, [r3]
 422:Generated_Source\PSoC4/Capsense.c ****             #endif /* (Capsense_IDAC_CNT > 1u) */
 423:Generated_Source\PSoC4/Capsense.c **** 
 424:Generated_Source\PSoC4/Capsense.c ****         #endif /* (0u != Capsense_AUTOCALIBRATION_ENABLE) */
 425:Generated_Source\PSoC4/Capsense.c **** 
 426:Generated_Source\PSoC4/Capsense.c ****     #endif /* ((Capsense_TUNING_METHOD == Capsense__TUNING_AUTO) */
 427:Generated_Source\PSoC4/Capsense.c **** 
 428:Generated_Source\PSoC4/Capsense.c ****     /* Initialize Advanced Centroid */
 429:Generated_Source\PSoC4/Capsense.c ****     #if(Capsense_TOTAL_TRACKPAD_GESTURES_COUNT > 0u)
 430:Generated_Source\PSoC4/Capsense.c ****         Capsense_AdvancedCentroidInit();
 431:Generated_Source\PSoC4/Capsense.c ****     #endif /* (Capsense_TOTAL_TRACKPAD_GESTURES_COUNT > 0u) */
 432:Generated_Source\PSoC4/Capsense.c **** 
 433:Generated_Source\PSoC4/Capsense.c ****     /* Connect sense comparator input to AMUXA */
 434:Generated_Source\PSoC4/Capsense.c ****     Capsense_CSD_CFG_REG |= Capsense_CSD_CFG_SENSE_INSEL;
 523              		.loc 1 434 0
 524 00bc 0B4B     		ldr	r3, .L16+24
 525 00be 0B4A     		ldr	r2, .L16+24
 526 00c0 1268     		ldr	r2, [r2]
 527 00c2 8021     		movs	r1, #128
 528 00c4 C903     		lsls	r1, r1, #15
 529 00c6 0A43     		orrs	r2, r1
ARM GAS  C:\Users\ROUSSMA\AppData\Local\Temp\ccTx5OE8.s 			page 18


 530 00c8 1A60     		str	r2, [r3]
 435:Generated_Source\PSoC4/Capsense.c **** }
 531              		.loc 1 435 0
 532 00ca C046     		nop
 533 00cc BD46     		mov	sp, r7
 534 00ce 04B0     		add	sp, sp, #16
 535              		@ sp needed
 536 00d0 80BD     		pop	{r7, pc}
 537              	.L17:
 538 00d2 C046     		.align	2
 539              	.L16:
 540 00d4 06000000 		.word	Capsense_initVar.5424
 541 00d8 08002840 		.word	1076363272
 542 00dc FFFFFFFC 		.word	-50331649
 543 00e0 00000000 		.word	Capsense_widgetResolution
 544 00e4 00000000 		.word	Capsense_modulationIDAC
 545 00e8 00000000 		.word	Capsense_compensationIDAC
 546 00ec 04002840 		.word	1076363268
 547              		.cfi_endproc
 548              	.LFE39:
 549              		.size	Capsense_Start, .-Capsense_Start
 550              		.section	.text.Capsense_Stop,"ax",%progbits
 551              		.align	2
 552              		.global	Capsense_Stop
 553              		.code	16
 554              		.thumb_func
 555              		.type	Capsense_Stop, %function
 556              	Capsense_Stop:
 557              	.LFB40:
 436:Generated_Source\PSoC4/Capsense.c **** 
 437:Generated_Source\PSoC4/Capsense.c **** 
 438:Generated_Source\PSoC4/Capsense.c **** /*******************************************************************************
 439:Generated_Source\PSoC4/Capsense.c **** * Function Name: Capsense_Stop
 440:Generated_Source\PSoC4/Capsense.c **** ********************************************************************************
 441:Generated_Source\PSoC4/Capsense.c **** *
 442:Generated_Source\PSoC4/Capsense.c **** * Summary:
 443:Generated_Source\PSoC4/Capsense.c **** *  Stops the sensor scanning, disables component interrupts, and resets all the
 444:Generated_Source\PSoC4/Capsense.c **** *  sensors to an inactive state. Disables the Active mode power template bits for
 445:Generated_Source\PSoC4/Capsense.c **** *  the subcomponents used within CapSense.
 446:Generated_Source\PSoC4/Capsense.c **** *
 447:Generated_Source\PSoC4/Capsense.c **** * Parameters:
 448:Generated_Source\PSoC4/Capsense.c **** *  None
 449:Generated_Source\PSoC4/Capsense.c **** *
 450:Generated_Source\PSoC4/Capsense.c **** * Return:
 451:Generated_Source\PSoC4/Capsense.c **** *  None
 452:Generated_Source\PSoC4/Capsense.c **** *
 453:Generated_Source\PSoC4/Capsense.c **** * Global Variables:
 454:Generated_Source\PSoC4/Capsense.c **** *  Capsense_csdTrim1 - Contains the IDAC trim register value for the Sourcing Mode.
 455:Generated_Source\PSoC4/Capsense.c **** *  Capsense_csdTrim2 - Contains the IDAC trim register value for vSinking Mode.
 456:Generated_Source\PSoC4/Capsense.c **** *
 457:Generated_Source\PSoC4/Capsense.c **** * Side Effects:
 458:Generated_Source\PSoC4/Capsense.c **** *  This function should be called after scans are completed.
 459:Generated_Source\PSoC4/Capsense.c **** *
 460:Generated_Source\PSoC4/Capsense.c **** *******************************************************************************/
 461:Generated_Source\PSoC4/Capsense.c **** void Capsense_Stop(void)
 462:Generated_Source\PSoC4/Capsense.c **** {
 558              		.loc 1 462 0
ARM GAS  C:\Users\ROUSSMA\AppData\Local\Temp\ccTx5OE8.s 			page 19


 559              		.cfi_startproc
 560              		@ args = 0, pretend = 0, frame = 0
 561              		@ frame_needed = 1, uses_anonymous_args = 0
 562 0000 80B5     		push	{r7, lr}
 563              		.cfi_def_cfa_offset 8
 564              		.cfi_offset 7, -8
 565              		.cfi_offset 14, -4
 566 0002 00AF     		add	r7, sp, #0
 567              		.cfi_def_cfa_register 7
 463:Generated_Source\PSoC4/Capsense.c ****     /* Disable interrupt */
 464:Generated_Source\PSoC4/Capsense.c ****     CyIntDisable(Capsense_ISR_NUMBER);
 568              		.loc 1 464 0
 569 0004 1020     		movs	r0, #16
 570 0006 FFF7FEFF 		bl	CyIntDisable
 465:Generated_Source\PSoC4/Capsense.c **** 
 466:Generated_Source\PSoC4/Capsense.c ****     Capsense_CSD_CFG_REG &= ~(Capsense_CSD_CFG_SENSE_COMP_EN | Capsense_CSD_CFG_SENSE_EN);
 571              		.loc 1 466 0
 572 000a 094B     		ldr	r3, .L19
 573 000c 084A     		ldr	r2, .L19
 574 000e 1268     		ldr	r2, [r2]
 575 0010 0849     		ldr	r1, .L19+4
 576 0012 0A40     		ands	r2, r1
 577 0014 1A60     		str	r2, [r3]
 467:Generated_Source\PSoC4/Capsense.c **** 
 468:Generated_Source\PSoC4/Capsense.c ****     #if(Capsense_IDAC_CNT == 2u)
 469:Generated_Source\PSoC4/Capsense.c ****         Capsense_CSD_CFG_REG &= ~(Capsense_CSD_CFG_ENABLE);
 578              		.loc 1 469 0
 579 0016 064B     		ldr	r3, .L19
 580 0018 054A     		ldr	r2, .L19
 581 001a 1268     		ldr	r2, [r2]
 582 001c 5200     		lsls	r2, r2, #1
 583 001e 5208     		lsrs	r2, r2, #1
 584 0020 1A60     		str	r2, [r3]
 470:Generated_Source\PSoC4/Capsense.c ****     #endif /* (Capsense_IDAC_CNT == 2u) */
 471:Generated_Source\PSoC4/Capsense.c **** 
 472:Generated_Source\PSoC4/Capsense.c ****     /* Disable the Clocks */
 473:Generated_Source\PSoC4/Capsense.c ****     Capsense_SenseClk_Stop();
 585              		.loc 1 473 0
 586 0022 FFF7FEFF 		bl	Capsense_SenseClk_Stop
 474:Generated_Source\PSoC4/Capsense.c ****     Capsense_SampleClk_Stop();
 587              		.loc 1 474 0
 588 0026 FFF7FEFF 		bl	Capsense_SampleClk_Stop
 475:Generated_Source\PSoC4/Capsense.c **** }
 589              		.loc 1 475 0
 590 002a C046     		nop
 591 002c BD46     		mov	sp, r7
 592              		@ sp needed
 593 002e 80BD     		pop	{r7, pc}
 594              	.L20:
 595              		.align	2
 596              	.L19:
 597 0030 04002840 		.word	1076363268
 598 0034 FFEFF7FF 		.word	-528385
 599              		.cfi_endproc
 600              	.LFE40:
 601              		.size	Capsense_Stop, .-Capsense_Stop
 602              		.section	.text.Capsense_FindNextSensor,"ax",%progbits
ARM GAS  C:\Users\ROUSSMA\AppData\Local\Temp\ccTx5OE8.s 			page 20


 603              		.align	2
 604              		.global	Capsense_FindNextSensor
 605              		.code	16
 606              		.thumb_func
 607              		.type	Capsense_FindNextSensor, %function
 608              	Capsense_FindNextSensor:
 609              	.LFB41:
 476:Generated_Source\PSoC4/Capsense.c **** 
 477:Generated_Source\PSoC4/Capsense.c **** 
 478:Generated_Source\PSoC4/Capsense.c **** /*******************************************************************************
 479:Generated_Source\PSoC4/Capsense.c **** * Function Name: Capsense_FindNextSensor
 480:Generated_Source\PSoC4/Capsense.c **** ********************************************************************************
 481:Generated_Source\PSoC4/Capsense.c **** *
 482:Generated_Source\PSoC4/Capsense.c **** * Summary:
 483:Generated_Source\PSoC4/Capsense.c **** *  Finds the next sensor to scan.
 484:Generated_Source\PSoC4/Capsense.c **** *
 485:Generated_Source\PSoC4/Capsense.c **** * Parameters:
 486:Generated_Source\PSoC4/Capsense.c **** *  snsIndex:  Current index of sensor.
 487:Generated_Source\PSoC4/Capsense.c **** *
 488:Generated_Source\PSoC4/Capsense.c **** * Return:
 489:Generated_Source\PSoC4/Capsense.c **** *  Returns the next sensor index to scan.
 490:Generated_Source\PSoC4/Capsense.c **** *
 491:Generated_Source\PSoC4/Capsense.c **** * Global Variables:
 492:Generated_Source\PSoC4/Capsense.c **** *  Capsense_sensorEnableMask[] - used to store bit masks of the enabled sensors.
 493:Generated_Source\PSoC4/Capsense.c **** *
 494:Generated_Source\PSoC4/Capsense.c **** * Side Effects:
 495:Generated_Source\PSoC4/Capsense.c **** *  This function affects the  current scanning and should not
 496:Generated_Source\PSoC4/Capsense.c **** *  be used outside the component.
 497:Generated_Source\PSoC4/Capsense.c **** *
 498:Generated_Source\PSoC4/Capsense.c **** *******************************************************************************/
 499:Generated_Source\PSoC4/Capsense.c **** uint8 Capsense_FindNextSensor(uint8 snsIndex)
 500:Generated_Source\PSoC4/Capsense.c **** {
 610              		.loc 1 500 0
 611              		.cfi_startproc
 612              		@ args = 0, pretend = 0, frame = 16
 613              		@ frame_needed = 1, uses_anonymous_args = 0
 614 0000 80B5     		push	{r7, lr}
 615              		.cfi_def_cfa_offset 8
 616              		.cfi_offset 7, -8
 617              		.cfi_offset 14, -4
 618 0002 84B0     		sub	sp, sp, #16
 619              		.cfi_def_cfa_offset 24
 620 0004 00AF     		add	r7, sp, #0
 621              		.cfi_def_cfa_register 7
 622 0006 0200     		movs	r2, r0
 623 0008 FB1D     		adds	r3, r7, #7
 624 000a 1A70     		strb	r2, [r3]
 625              	.L24:
 501:Generated_Source\PSoC4/Capsense.c ****     uint32 enableFlag;
 502:Generated_Source\PSoC4/Capsense.c **** 
 503:Generated_Source\PSoC4/Capsense.c ****     /* Check if sensor enabled */
 504:Generated_Source\PSoC4/Capsense.c ****     do
 505:Generated_Source\PSoC4/Capsense.c ****     {
 506:Generated_Source\PSoC4/Capsense.c ****         /* Proceed with next sensor */
 507:Generated_Source\PSoC4/Capsense.c ****         snsIndex++;
 626              		.loc 1 507 0
 627 000c FB1D     		adds	r3, r7, #7
ARM GAS  C:\Users\ROUSSMA\AppData\Local\Temp\ccTx5OE8.s 			page 21


 628 000e 1A78     		ldrb	r2, [r3]
 629 0010 FB1D     		adds	r3, r7, #7
 630 0012 0132     		adds	r2, r2, #1
 631 0014 1A70     		strb	r2, [r3]
 508:Generated_Source\PSoC4/Capsense.c ****         if(snsIndex == Capsense_TOTAL_SENSOR_COUNT)
 632              		.loc 1 508 0
 633 0016 FB1D     		adds	r3, r7, #7
 634 0018 1B78     		ldrb	r3, [r3]
 635 001a 012B     		cmp	r3, #1
 636 001c 0CD0     		beq	.L26
 509:Generated_Source\PSoC4/Capsense.c ****         {
 510:Generated_Source\PSoC4/Capsense.c ****             break;
 511:Generated_Source\PSoC4/Capsense.c ****         }
 512:Generated_Source\PSoC4/Capsense.c ****         enableFlag = Capsense_GetBitValue(Capsense_sensorEnableMask, (uint32)snsIndex);
 637              		.loc 1 512 0
 638 001e FB1D     		adds	r3, r7, #7
 639 0020 1A78     		ldrb	r2, [r3]
 640 0022 094B     		ldr	r3, .L27
 641 0024 1100     		movs	r1, r2
 642 0026 1800     		movs	r0, r3
 643 0028 FFF7FEFF 		bl	Capsense_GetBitValue
 644 002c 0300     		movs	r3, r0
 645 002e FB60     		str	r3, [r7, #12]
 513:Generated_Source\PSoC4/Capsense.c ****     }
 514:Generated_Source\PSoC4/Capsense.c ****     while(enableFlag == 0u);
 646              		.loc 1 514 0
 647 0030 FB68     		ldr	r3, [r7, #12]
 648 0032 002B     		cmp	r3, #0
 649 0034 EAD0     		beq	.L24
 650 0036 00E0     		b	.L23
 651              	.L26:
 510:Generated_Source\PSoC4/Capsense.c ****         }
 652              		.loc 1 510 0
 653 0038 C046     		nop
 654              	.L23:
 515:Generated_Source\PSoC4/Capsense.c **** 
 516:Generated_Source\PSoC4/Capsense.c ****     return ((uint8)snsIndex);
 655              		.loc 1 516 0
 656 003a FB1D     		adds	r3, r7, #7
 657 003c 1B78     		ldrb	r3, [r3]
 517:Generated_Source\PSoC4/Capsense.c **** }
 658              		.loc 1 517 0
 659 003e 1800     		movs	r0, r3
 660 0040 BD46     		mov	sp, r7
 661 0042 04B0     		add	sp, sp, #16
 662              		@ sp needed
 663 0044 80BD     		pop	{r7, pc}
 664              	.L28:
 665 0046 C046     		.align	2
 666              	.L27:
 667 0048 00000000 		.word	Capsense_sensorEnableMask
 668              		.cfi_endproc
 669              	.LFE41:
 670              		.size	Capsense_FindNextSensor, .-Capsense_FindNextSensor
 671              		.section	.text.Capsense_ScanSensor,"ax",%progbits
 672              		.align	2
 673              		.global	Capsense_ScanSensor
ARM GAS  C:\Users\ROUSSMA\AppData\Local\Temp\ccTx5OE8.s 			page 22


 674              		.code	16
 675              		.thumb_func
 676              		.type	Capsense_ScanSensor, %function
 677              	Capsense_ScanSensor:
 678              	.LFB42:
 518:Generated_Source\PSoC4/Capsense.c **** 
 519:Generated_Source\PSoC4/Capsense.c **** 
 520:Generated_Source\PSoC4/Capsense.c **** /*******************************************************************************
 521:Generated_Source\PSoC4/Capsense.c **** * Function Name: Capsense_ScanSensor
 522:Generated_Source\PSoC4/Capsense.c **** ********************************************************************************
 523:Generated_Source\PSoC4/Capsense.c **** *
 524:Generated_Source\PSoC4/Capsense.c **** * Summary:
 525:Generated_Source\PSoC4/Capsense.c **** *  Sets the scan settings and starts scanning a sensor. After scanning is complete,
 526:Generated_Source\PSoC4/Capsense.c **** *  the ISR copies the measured sensor raw data to the global raw sensor array.
 527:Generated_Source\PSoC4/Capsense.c **** *  Use of the ISR ensures this function is non-blocking.
 528:Generated_Source\PSoC4/Capsense.c **** *  Each sensor has a unique number within the sensor array.
 529:Generated_Source\PSoC4/Capsense.c **** *  This number is assigned by the CapSense customizer in sequence.
 530:Generated_Source\PSoC4/Capsense.c **** *
 531:Generated_Source\PSoC4/Capsense.c **** * Parameters:
 532:Generated_Source\PSoC4/Capsense.c **** *  sensor:  Sensor number.
 533:Generated_Source\PSoC4/Capsense.c **** *
 534:Generated_Source\PSoC4/Capsense.c **** * Return:
 535:Generated_Source\PSoC4/Capsense.c **** *  None
 536:Generated_Source\PSoC4/Capsense.c **** *
 537:Generated_Source\PSoC4/Capsense.c **** * Global Variables:
 538:Generated_Source\PSoC4/Capsense.c **** *  Capsense_csdStatusVar - used to provide the status and mode of the scanning process.
 539:Generated_Source\PSoC4/Capsense.c **** *  Sets the busy status(scan in progress) and mode of scan as single scan.
 540:Generated_Source\PSoC4/Capsense.c **** *  Capsense_sensorIndex - used to store a sensor scanning sensor number.
 541:Generated_Source\PSoC4/Capsense.c **** *  Sets to the provided sensor argument.
 542:Generated_Source\PSoC4/Capsense.c **** *
 543:Generated_Source\PSoC4/Capsense.c **** * Side Effects:
 544:Generated_Source\PSoC4/Capsense.c **** *  None
 545:Generated_Source\PSoC4/Capsense.c **** *
 546:Generated_Source\PSoC4/Capsense.c **** *******************************************************************************/
 547:Generated_Source\PSoC4/Capsense.c **** void Capsense_ScanSensor(uint32 sensor)
 548:Generated_Source\PSoC4/Capsense.c **** {
 679              		.loc 1 548 0
 680              		.cfi_startproc
 681              		@ args = 0, pretend = 0, frame = 8
 682              		@ frame_needed = 1, uses_anonymous_args = 0
 683 0000 80B5     		push	{r7, lr}
 684              		.cfi_def_cfa_offset 8
 685              		.cfi_offset 7, -8
 686              		.cfi_offset 14, -4
 687 0002 82B0     		sub	sp, sp, #8
 688              		.cfi_def_cfa_offset 16
 689 0004 00AF     		add	r7, sp, #0
 690              		.cfi_def_cfa_register 7
 691 0006 7860     		str	r0, [r7, #4]
 549:Generated_Source\PSoC4/Capsense.c ****     /* Clears status/control variable and set sensorIndex */
 550:Generated_Source\PSoC4/Capsense.c ****     Capsense_csdStatusVar = 0u;
 692              		.loc 1 550 0
 693 0008 084B     		ldr	r3, .L30
 694 000a 0022     		movs	r2, #0
 695 000c 1A70     		strb	r2, [r3]
 551:Generated_Source\PSoC4/Capsense.c ****     Capsense_sensorIndex = (uint8)sensor;
 696              		.loc 1 551 0
ARM GAS  C:\Users\ROUSSMA\AppData\Local\Temp\ccTx5OE8.s 			page 23


 697 000e 7B68     		ldr	r3, [r7, #4]
 698 0010 DAB2     		uxtb	r2, r3
 699 0012 074B     		ldr	r3, .L30+4
 700 0014 1A70     		strb	r2, [r3]
 552:Generated_Source\PSoC4/Capsense.c **** 
 553:Generated_Source\PSoC4/Capsense.c ****     /* Start of sensor scan */
 554:Generated_Source\PSoC4/Capsense.c ****     Capsense_csdStatusVar = (Capsense_SW_STS_BUSY | Capsense_SW_CTRL_SINGLE_SCAN);
 701              		.loc 1 554 0
 702 0016 054B     		ldr	r3, .L30
 703 0018 8122     		movs	r2, #129
 704 001a 1A70     		strb	r2, [r3]
 555:Generated_Source\PSoC4/Capsense.c ****     Capsense_PreScan(sensor);
 705              		.loc 1 555 0
 706 001c 7B68     		ldr	r3, [r7, #4]
 707 001e 1800     		movs	r0, r3
 708 0020 FFF7FEFF 		bl	Capsense_PreScan
 556:Generated_Source\PSoC4/Capsense.c **** }
 709              		.loc 1 556 0
 710 0024 C046     		nop
 711 0026 BD46     		mov	sp, r7
 712 0028 02B0     		add	sp, sp, #8
 713              		@ sp needed
 714 002a 80BD     		pop	{r7, pc}
 715              	.L31:
 716              		.align	2
 717              	.L30:
 718 002c 00000000 		.word	Capsense_csdStatusVar
 719 0030 00000000 		.word	Capsense_sensorIndex
 720              		.cfi_endproc
 721              	.LFE42:
 722              		.size	Capsense_ScanSensor, .-Capsense_ScanSensor
 723              		.section	.text.Capsense_ScanWidget,"ax",%progbits
 724              		.align	2
 725              		.global	Capsense_ScanWidget
 726              		.code	16
 727              		.thumb_func
 728              		.type	Capsense_ScanWidget, %function
 729              	Capsense_ScanWidget:
 730              	.LFB43:
 557:Generated_Source\PSoC4/Capsense.c **** 
 558:Generated_Source\PSoC4/Capsense.c **** 
 559:Generated_Source\PSoC4/Capsense.c **** #if(0u != Capsense_CSHL_API_GENERATE)
 560:Generated_Source\PSoC4/Capsense.c **** /*******************************************************************************
 561:Generated_Source\PSoC4/Capsense.c **** * Function Name: Capsense_ScanWidget
 562:Generated_Source\PSoC4/Capsense.c **** ********************************************************************************
 563:Generated_Source\PSoC4/Capsense.c **** *
 564:Generated_Source\PSoC4/Capsense.c **** * Summary:
 565:Generated_Source\PSoC4/Capsense.c **** *  Sets the scan settings and starts scanning a widget.
 566:Generated_Source\PSoC4/Capsense.c **** *
 567:Generated_Source\PSoC4/Capsense.c **** * Parameters:
 568:Generated_Source\PSoC4/Capsense.c **** *  uint32 widget: Widget number.
 569:Generated_Source\PSoC4/Capsense.c **** *
 570:Generated_Source\PSoC4/Capsense.c **** * Return:
 571:Generated_Source\PSoC4/Capsense.c **** *  None
 572:Generated_Source\PSoC4/Capsense.c **** *
 573:Generated_Source\PSoC4/Capsense.c **** * Global Variables:
 574:Generated_Source\PSoC4/Capsense.c **** *  Capsense_csdStatusVar - used to provide the status and mode of the scanning process.
ARM GAS  C:\Users\ROUSSMA\AppData\Local\Temp\ccTx5OE8.s 			page 24


 575:Generated_Source\PSoC4/Capsense.c **** *  Sets the busy status(scan in progress) and clears the single scan mode.
 576:Generated_Source\PSoC4/Capsense.c **** *  Capsense_sensorIndex - used to store a sensor scanning sensor number.
 577:Generated_Source\PSoC4/Capsense.c **** *  Sets to 0xFF and provided to function Capsense_FindNextSensor or
 578:Generated_Source\PSoC4/Capsense.c **** *  Capsense_sensorEnableMask[] - used to store bit masks of the enabled sensors.
 579:Generated_Source\PSoC4/Capsense.c **** *  Capsense_sensorEnableMaskBackup[] - used to backup bit masks of the enabled
 580:Generated_Source\PSoC4/Capsense.c **** *   sensors.
 581:Generated_Source\PSoC4/Capsense.c **** *
 582:Generated_Source\PSoC4/Capsense.c **** * Side Effects:
 583:Generated_Source\PSoC4/Capsense.c **** *  None
 584:Generated_Source\PSoC4/Capsense.c **** *
 585:Generated_Source\PSoC4/Capsense.c **** *******************************************************************************/
 586:Generated_Source\PSoC4/Capsense.c **** void Capsense_ScanWidget(uint32 widget)
 587:Generated_Source\PSoC4/Capsense.c **** {
 731              		.loc 1 587 0
 732              		.cfi_startproc
 733              		@ args = 0, pretend = 0, frame = 24
 734              		@ frame_needed = 1, uses_anonymous_args = 0
 735 0000 80B5     		push	{r7, lr}
 736              		.cfi_def_cfa_offset 8
 737              		.cfi_offset 7, -8
 738              		.cfi_offset 14, -4
 739 0002 86B0     		sub	sp, sp, #24
 740              		.cfi_def_cfa_offset 32
 741 0004 00AF     		add	r7, sp, #0
 742              		.cfi_def_cfa_register 7
 743 0006 7860     		str	r0, [r7, #4]
 588:Generated_Source\PSoC4/Capsense.c ****     uint32 sensorsPerWidget;
 589:Generated_Source\PSoC4/Capsense.c ****     uint32 lastSensor;
 590:Generated_Source\PSoC4/Capsense.c ****     uint32 snsIndex;
 591:Generated_Source\PSoC4/Capsense.c **** 
 592:Generated_Source\PSoC4/Capsense.c ****     /* Get first sensor in widget */
 593:Generated_Source\PSoC4/Capsense.c ****     Capsense_sensorIndex = Capsense_rawDataIndex[widget];
 744              		.loc 1 593 0
 745 0008 2E4A     		ldr	r2, .L42
 746 000a 7B68     		ldr	r3, [r7, #4]
 747 000c D318     		adds	r3, r2, r3
 748 000e 1A78     		ldrb	r2, [r3]
 749 0010 2D4B     		ldr	r3, .L42+4
 750 0012 1A70     		strb	r2, [r3]
 594:Generated_Source\PSoC4/Capsense.c **** 
 595:Generated_Source\PSoC4/Capsense.c ****     /* Get number of sensors in widget */
 596:Generated_Source\PSoC4/Capsense.c ****     sensorsPerWidget = Capsense_numberOfSensors[widget];
 751              		.loc 1 596 0
 752 0014 2D4A     		ldr	r2, .L42+8
 753 0016 7B68     		ldr	r3, [r7, #4]
 754 0018 D318     		adds	r3, r2, r3
 755 001a 1B78     		ldrb	r3, [r3]
 756 001c 7B61     		str	r3, [r7, #20]
 597:Generated_Source\PSoC4/Capsense.c **** 
 598:Generated_Source\PSoC4/Capsense.c ****     /* Check if generic Sensor */
 599:Generated_Source\PSoC4/Capsense.c ****     if(sensorsPerWidget == 0u)
 757              		.loc 1 599 0
 758 001e 7B69     		ldr	r3, [r7, #20]
 759 0020 002B     		cmp	r3, #0
 760 0022 01D1     		bne	.L33
 600:Generated_Source\PSoC4/Capsense.c ****     {
 601:Generated_Source\PSoC4/Capsense.c ****         sensorsPerWidget = 1u;
ARM GAS  C:\Users\ROUSSMA\AppData\Local\Temp\ccTx5OE8.s 			page 25


 761              		.loc 1 601 0
 762 0024 0123     		movs	r3, #1
 763 0026 7B61     		str	r3, [r7, #20]
 764              	.L33:
 602:Generated_Source\PSoC4/Capsense.c ****     }
 603:Generated_Source\PSoC4/Capsense.c **** 
 604:Generated_Source\PSoC4/Capsense.c ****     /* Get last sensor in widget */
 605:Generated_Source\PSoC4/Capsense.c ****     lastSensor = (Capsense_rawDataIndex[widget] + sensorsPerWidget) - 1u;
 765              		.loc 1 605 0
 766 0028 264A     		ldr	r2, .L42
 767 002a 7B68     		ldr	r3, [r7, #4]
 768 002c D318     		adds	r3, r2, r3
 769 002e 1B78     		ldrb	r3, [r3]
 770 0030 1A00     		movs	r2, r3
 771 0032 7B69     		ldr	r3, [r7, #20]
 772 0034 D318     		adds	r3, r2, r3
 773 0036 013B     		subs	r3, r3, #1
 774 0038 FB60     		str	r3, [r7, #12]
 606:Generated_Source\PSoC4/Capsense.c **** 
 607:Generated_Source\PSoC4/Capsense.c ****     /* Backup sensorEnableMask array */
 608:Generated_Source\PSoC4/Capsense.c ****     for(snsIndex = 0u; snsIndex < Capsense_TOTAL_SENSOR_MASK; snsIndex++)
 775              		.loc 1 608 0
 776 003a 0023     		movs	r3, #0
 777 003c 3B61     		str	r3, [r7, #16]
 778 003e 0BE0     		b	.L34
 779              	.L35:
 609:Generated_Source\PSoC4/Capsense.c ****     {
 610:Generated_Source\PSoC4/Capsense.c ****         /* Backup sensorEnableMask array */
 611:Generated_Source\PSoC4/Capsense.c ****         Capsense_sensorEnableMaskBackup[snsIndex] = Capsense_sensorEnableMask[snsIndex];
 780              		.loc 1 611 0 discriminator 3
 781 0040 234A     		ldr	r2, .L42+12
 782 0042 3B69     		ldr	r3, [r7, #16]
 783 0044 D318     		adds	r3, r2, r3
 784 0046 1978     		ldrb	r1, [r3]
 785 0048 224A     		ldr	r2, .L42+16
 786 004a 3B69     		ldr	r3, [r7, #16]
 787 004c D318     		adds	r3, r2, r3
 788 004e 0A1C     		adds	r2, r1, #0
 789 0050 1A70     		strb	r2, [r3]
 608:Generated_Source\PSoC4/Capsense.c ****     {
 790              		.loc 1 608 0 discriminator 3
 791 0052 3B69     		ldr	r3, [r7, #16]
 792 0054 0133     		adds	r3, r3, #1
 793 0056 3B61     		str	r3, [r7, #16]
 794              	.L34:
 608:Generated_Source\PSoC4/Capsense.c ****     {
 795              		.loc 1 608 0 is_stmt 0 discriminator 1
 796 0058 3B69     		ldr	r3, [r7, #16]
 797 005a 002B     		cmp	r3, #0
 798 005c F0D0     		beq	.L35
 612:Generated_Source\PSoC4/Capsense.c ****     }
 613:Generated_Source\PSoC4/Capsense.c **** 
 614:Generated_Source\PSoC4/Capsense.c ****     /* Update sensorEnableMask to scan the sensors that belong to widget */
 615:Generated_Source\PSoC4/Capsense.c ****     for(snsIndex = 0u; snsIndex < Capsense_TOTAL_SENSOR_COUNT; snsIndex++)
 799              		.loc 1 615 0 is_stmt 1
 800 005e 0023     		movs	r3, #0
 801 0060 3B61     		str	r3, [r7, #16]
ARM GAS  C:\Users\ROUSSMA\AppData\Local\Temp\ccTx5OE8.s 			page 26


 802 0062 1AE0     		b	.L36
 803              	.L39:
 616:Generated_Source\PSoC4/Capsense.c ****     {
 617:Generated_Source\PSoC4/Capsense.c ****         /* Update sensorEnableMask array bits to scan the widget only */
 618:Generated_Source\PSoC4/Capsense.c ****         if((snsIndex >= Capsense_sensorIndex) && (snsIndex <= lastSensor))
 804              		.loc 1 618 0
 805 0064 184B     		ldr	r3, .L42+4
 806 0066 1B78     		ldrb	r3, [r3]
 807 0068 DBB2     		uxtb	r3, r3
 808 006a 1A00     		movs	r2, r3
 809 006c 3B69     		ldr	r3, [r7, #16]
 810 006e 9A42     		cmp	r2, r3
 811 0070 0AD8     		bhi	.L37
 812              		.loc 1 618 0 is_stmt 0 discriminator 1
 813 0072 3A69     		ldr	r2, [r7, #16]
 814 0074 FB68     		ldr	r3, [r7, #12]
 815 0076 9A42     		cmp	r2, r3
 816 0078 06D8     		bhi	.L37
 619:Generated_Source\PSoC4/Capsense.c ****         {
 620:Generated_Source\PSoC4/Capsense.c ****             /* Set sensor bit to scan */
 621:Generated_Source\PSoC4/Capsense.c ****             Capsense_SetBitValue(Capsense_sensorEnableMask, snsIndex, 1u);
 817              		.loc 1 621 0 is_stmt 1
 818 007a 3969     		ldr	r1, [r7, #16]
 819 007c 144B     		ldr	r3, .L42+12
 820 007e 0122     		movs	r2, #1
 821 0080 1800     		movs	r0, r3
 822 0082 FFF7FEFF 		bl	Capsense_SetBitValue
 823 0086 05E0     		b	.L38
 824              	.L37:
 622:Generated_Source\PSoC4/Capsense.c ****         }
 623:Generated_Source\PSoC4/Capsense.c ****         else
 624:Generated_Source\PSoC4/Capsense.c ****         {
 625:Generated_Source\PSoC4/Capsense.c ****             /* Reset sensor bit to do not scan */
 626:Generated_Source\PSoC4/Capsense.c ****             Capsense_SetBitValue(Capsense_sensorEnableMask, snsIndex, 0u);
 825              		.loc 1 626 0
 826 0088 3969     		ldr	r1, [r7, #16]
 827 008a 114B     		ldr	r3, .L42+12
 828 008c 0022     		movs	r2, #0
 829 008e 1800     		movs	r0, r3
 830 0090 FFF7FEFF 		bl	Capsense_SetBitValue
 831              	.L38:
 615:Generated_Source\PSoC4/Capsense.c ****     {
 832              		.loc 1 615 0 discriminator 2
 833 0094 3B69     		ldr	r3, [r7, #16]
 834 0096 0133     		adds	r3, r3, #1
 835 0098 3B61     		str	r3, [r7, #16]
 836              	.L36:
 615:Generated_Source\PSoC4/Capsense.c ****     {
 837              		.loc 1 615 0 is_stmt 0 discriminator 1
 838 009a 3B69     		ldr	r3, [r7, #16]
 839 009c 002B     		cmp	r3, #0
 840 009e E1D0     		beq	.L39
 627:Generated_Source\PSoC4/Capsense.c ****         }
 628:Generated_Source\PSoC4/Capsense.c ****     }
 629:Generated_Source\PSoC4/Capsense.c **** 
 630:Generated_Source\PSoC4/Capsense.c ****     /* Check end of scan condition */
 631:Generated_Source\PSoC4/Capsense.c ****     if(Capsense_sensorIndex < Capsense_TOTAL_SENSOR_COUNT)
ARM GAS  C:\Users\ROUSSMA\AppData\Local\Temp\ccTx5OE8.s 			page 27


 841              		.loc 1 631 0 is_stmt 1
 842 00a0 094B     		ldr	r3, .L42+4
 843 00a2 1B78     		ldrb	r3, [r3]
 844 00a4 DBB2     		uxtb	r3, r3
 845 00a6 002B     		cmp	r3, #0
 846 00a8 08D1     		bne	.L41
 632:Generated_Source\PSoC4/Capsense.c ****     {
 633:Generated_Source\PSoC4/Capsense.c ****         /* Set widget busy bit in status/control variable*/
 634:Generated_Source\PSoC4/Capsense.c ****         Capsense_csdStatusVar = (Capsense_SW_STS_BUSY | Capsense_SW_CTRL_WIDGET_SCAN);
 847              		.loc 1 634 0
 848 00aa 0B4B     		ldr	r3, .L42+20
 849 00ac 4122     		movs	r2, #65
 850 00ae 1A70     		strb	r2, [r3]
 635:Generated_Source\PSoC4/Capsense.c ****         /* Scan first sensor of widget*/
 636:Generated_Source\PSoC4/Capsense.c ****         Capsense_PreScan((uint32)Capsense_sensorIndex);
 851              		.loc 1 636 0
 852 00b0 054B     		ldr	r3, .L42+4
 853 00b2 1B78     		ldrb	r3, [r3]
 854 00b4 DBB2     		uxtb	r3, r3
 855 00b6 1800     		movs	r0, r3
 856 00b8 FFF7FEFF 		bl	Capsense_PreScan
 857              	.L41:
 637:Generated_Source\PSoC4/Capsense.c ****     }
 638:Generated_Source\PSoC4/Capsense.c **** }
 858              		.loc 1 638 0
 859 00bc C046     		nop
 860 00be BD46     		mov	sp, r7
 861 00c0 06B0     		add	sp, sp, #24
 862              		@ sp needed
 863 00c2 80BD     		pop	{r7, pc}
 864              	.L43:
 865              		.align	2
 866              	.L42:
 867 00c4 00000000 		.word	Capsense_rawDataIndex
 868 00c8 00000000 		.word	Capsense_sensorIndex
 869 00cc 00000000 		.word	Capsense_numberOfSensors
 870 00d0 00000000 		.word	Capsense_sensorEnableMask
 871 00d4 00000000 		.word	Capsense_sensorEnableMaskBackup
 872 00d8 00000000 		.word	Capsense_csdStatusVar
 873              		.cfi_endproc
 874              	.LFE43:
 875              		.size	Capsense_ScanWidget, .-Capsense_ScanWidget
 876              		.section	.text.Capsense_ScanEnabledWidgets,"ax",%progbits
 877              		.align	2
 878              		.global	Capsense_ScanEnabledWidgets
 879              		.code	16
 880              		.thumb_func
 881              		.type	Capsense_ScanEnabledWidgets, %function
 882              	Capsense_ScanEnabledWidgets:
 883              	.LFB44:
 639:Generated_Source\PSoC4/Capsense.c **** #endif /* (0u != Capsense_CSHL_API_GENERATE) */
 640:Generated_Source\PSoC4/Capsense.c **** 
 641:Generated_Source\PSoC4/Capsense.c **** 
 642:Generated_Source\PSoC4/Capsense.c **** /*******************************************************************************
 643:Generated_Source\PSoC4/Capsense.c **** * Function Name: Capsense_ScanEnableWidgets
 644:Generated_Source\PSoC4/Capsense.c **** ********************************************************************************
 645:Generated_Source\PSoC4/Capsense.c **** *
ARM GAS  C:\Users\ROUSSMA\AppData\Local\Temp\ccTx5OE8.s 			page 28


 646:Generated_Source\PSoC4/Capsense.c **** * Summary:
 647:Generated_Source\PSoC4/Capsense.c **** *  This is the preferred method to scan all of the enabled widgets.
 648:Generated_Source\PSoC4/Capsense.c **** *  The API starts scanning a sensor within the enabled widgets.
 649:Generated_Source\PSoC4/Capsense.c **** *  The ISR continues scanning the sensors until all the enabled widgets are scanned.
 650:Generated_Source\PSoC4/Capsense.c **** *  Use of the ISR ensures this function is non-blocking.
 651:Generated_Source\PSoC4/Capsense.c **** *  All the widgets are enabled by default except proximity widgets.
 652:Generated_Source\PSoC4/Capsense.c **** *  The proximity widgets must be manually enabled as their long scan time
 653:Generated_Source\PSoC4/Capsense.c **** *  is incompatible with a fast response required of other widget types.
 654:Generated_Source\PSoC4/Capsense.c **** *
 655:Generated_Source\PSoC4/Capsense.c **** * Parameters:
 656:Generated_Source\PSoC4/Capsense.c **** *  None
 657:Generated_Source\PSoC4/Capsense.c **** *
 658:Generated_Source\PSoC4/Capsense.c **** * Return:
 659:Generated_Source\PSoC4/Capsense.c **** *  None
 660:Generated_Source\PSoC4/Capsense.c **** *
 661:Generated_Source\PSoC4/Capsense.c **** * Global Variables:
 662:Generated_Source\PSoC4/Capsense.c **** *  Capsense_csdStatusVar - used to provide the status and mode of the scanning process.
 663:Generated_Source\PSoC4/Capsense.c **** *  Sets the busy status(scan in progress) and clears the single scan mode.
 664:Generated_Source\PSoC4/Capsense.c **** *  Capsense_sensorIndex - used to store a sensor scanning sensor number.
 665:Generated_Source\PSoC4/Capsense.c **** *  Sets to 0xFF and provided to function Capsense_FindNextSensor or
 666:Generated_Source\PSoC4/Capsense.c **** *
 667:Generated_Source\PSoC4/Capsense.c **** * Side Effects:
 668:Generated_Source\PSoC4/Capsense.c **** *  None
 669:Generated_Source\PSoC4/Capsense.c **** *
 670:Generated_Source\PSoC4/Capsense.c **** *******************************************************************************/
 671:Generated_Source\PSoC4/Capsense.c **** void Capsense_ScanEnabledWidgets(void)
 672:Generated_Source\PSoC4/Capsense.c **** {
 884              		.loc 1 672 0
 885              		.cfi_startproc
 886              		@ args = 0, pretend = 0, frame = 0
 887              		@ frame_needed = 1, uses_anonymous_args = 0
 888 0000 80B5     		push	{r7, lr}
 889              		.cfi_def_cfa_offset 8
 890              		.cfi_offset 7, -8
 891              		.cfi_offset 14, -4
 892 0002 00AF     		add	r7, sp, #0
 893              		.cfi_def_cfa_register 7
 673:Generated_Source\PSoC4/Capsense.c ****     /* Clears status/control variable and set sensorIndex */
 674:Generated_Source\PSoC4/Capsense.c ****     Capsense_csdStatusVar = 0u;
 894              		.loc 1 674 0
 895 0004 124B     		ldr	r3, .L47
 896 0006 0022     		movs	r2, #0
 897 0008 1A70     		strb	r2, [r3]
 675:Generated_Source\PSoC4/Capsense.c ****     Capsense_sensorIndex = 0xFFu;
 898              		.loc 1 675 0
 899 000a 124B     		ldr	r3, .L47+4
 900 000c FF22     		movs	r2, #255
 901 000e 1A70     		strb	r2, [r3]
 676:Generated_Source\PSoC4/Capsense.c **** 
 677:Generated_Source\PSoC4/Capsense.c ****     /* Find next sensor */
 678:Generated_Source\PSoC4/Capsense.c ****     Capsense_sensorIndex = (uint8)Capsense_FindNextSensor(Capsense_sensorIndex);
 902              		.loc 1 678 0
 903 0010 104B     		ldr	r3, .L47+4
 904 0012 1B78     		ldrb	r3, [r3]
 905 0014 DBB2     		uxtb	r3, r3
 906 0016 1800     		movs	r0, r3
 907 0018 FFF7FEFF 		bl	Capsense_FindNextSensor
ARM GAS  C:\Users\ROUSSMA\AppData\Local\Temp\ccTx5OE8.s 			page 29


 908 001c 0300     		movs	r3, r0
 909 001e 1A00     		movs	r2, r3
 910 0020 0C4B     		ldr	r3, .L47+4
 911 0022 1A70     		strb	r2, [r3]
 679:Generated_Source\PSoC4/Capsense.c **** 
 680:Generated_Source\PSoC4/Capsense.c ****     /* Check end of scan condition */
 681:Generated_Source\PSoC4/Capsense.c ****     if(Capsense_sensorIndex < Capsense_TOTAL_SENSOR_COUNT)
 912              		.loc 1 681 0
 913 0024 0B4B     		ldr	r3, .L47+4
 914 0026 1B78     		ldrb	r3, [r3]
 915 0028 DBB2     		uxtb	r3, r3
 916 002a 002B     		cmp	r3, #0
 917 002c 0DD1     		bne	.L46
 682:Generated_Source\PSoC4/Capsense.c ****     {
 683:Generated_Source\PSoC4/Capsense.c ****         Capsense_csdStatusVar |= Capsense_SW_STS_BUSY;
 918              		.loc 1 683 0
 919 002e 084B     		ldr	r3, .L47
 920 0030 1B78     		ldrb	r3, [r3]
 921 0032 DBB2     		uxtb	r3, r3
 922 0034 0122     		movs	r2, #1
 923 0036 1343     		orrs	r3, r2
 924 0038 DAB2     		uxtb	r2, r3
 925 003a 054B     		ldr	r3, .L47
 926 003c 1A70     		strb	r2, [r3]
 684:Generated_Source\PSoC4/Capsense.c ****         Capsense_PreScan((uint32)Capsense_sensorIndex);
 927              		.loc 1 684 0
 928 003e 054B     		ldr	r3, .L47+4
 929 0040 1B78     		ldrb	r3, [r3]
 930 0042 DBB2     		uxtb	r3, r3
 931 0044 1800     		movs	r0, r3
 932 0046 FFF7FEFF 		bl	Capsense_PreScan
 933              	.L46:
 685:Generated_Source\PSoC4/Capsense.c ****     }
 686:Generated_Source\PSoC4/Capsense.c **** }
 934              		.loc 1 686 0
 935 004a C046     		nop
 936 004c BD46     		mov	sp, r7
 937              		@ sp needed
 938 004e 80BD     		pop	{r7, pc}
 939              	.L48:
 940              		.align	2
 941              	.L47:
 942 0050 00000000 		.word	Capsense_csdStatusVar
 943 0054 00000000 		.word	Capsense_sensorIndex
 944              		.cfi_endproc
 945              	.LFE44:
 946              		.size	Capsense_ScanEnabledWidgets, .-Capsense_ScanEnabledWidgets
 947              		.section	.text.Capsense_IsBusy,"ax",%progbits
 948              		.align	2
 949              		.global	Capsense_IsBusy
 950              		.code	16
 951              		.thumb_func
 952              		.type	Capsense_IsBusy, %function
 953              	Capsense_IsBusy:
 954              	.LFB45:
 687:Generated_Source\PSoC4/Capsense.c **** 
 688:Generated_Source\PSoC4/Capsense.c **** 
ARM GAS  C:\Users\ROUSSMA\AppData\Local\Temp\ccTx5OE8.s 			page 30


 689:Generated_Source\PSoC4/Capsense.c **** /*******************************************************************************
 690:Generated_Source\PSoC4/Capsense.c **** * Function Name: Capsense_IsBusy
 691:Generated_Source\PSoC4/Capsense.c **** ********************************************************************************
 692:Generated_Source\PSoC4/Capsense.c **** *
 693:Generated_Source\PSoC4/Capsense.c **** * Summary:
 694:Generated_Source\PSoC4/Capsense.c **** *  Returns the state of the CapSense component. 1 means that scanning in
 695:Generated_Source\PSoC4/Capsense.c **** *  progress and 0 means that scanning is complete.
 696:Generated_Source\PSoC4/Capsense.c **** *
 697:Generated_Source\PSoC4/Capsense.c **** * Parameters:
 698:Generated_Source\PSoC4/Capsense.c **** *  None
 699:Generated_Source\PSoC4/Capsense.c **** *
 700:Generated_Source\PSoC4/Capsense.c **** * Return:
 701:Generated_Source\PSoC4/Capsense.c **** *  Returns the state of scanning. 1 - scanning in progress, 0 - scanning
 702:Generated_Source\PSoC4/Capsense.c **** *  completed.
 703:Generated_Source\PSoC4/Capsense.c **** *
 704:Generated_Source\PSoC4/Capsense.c **** * Global Variables:
 705:Generated_Source\PSoC4/Capsense.c **** *  Capsense_csdStatusVar - used to provide the status and mode of the scanning process.
 706:Generated_Source\PSoC4/Capsense.c **** *  Checks the busy status.
 707:Generated_Source\PSoC4/Capsense.c **** *
 708:Generated_Source\PSoC4/Capsense.c **** * Side Effects:
 709:Generated_Source\PSoC4/Capsense.c **** *  None
 710:Generated_Source\PSoC4/Capsense.c **** *
 711:Generated_Source\PSoC4/Capsense.c **** *******************************************************************************/
 712:Generated_Source\PSoC4/Capsense.c **** uint32 Capsense_IsBusy(void)
 713:Generated_Source\PSoC4/Capsense.c **** {
 955              		.loc 1 713 0
 956              		.cfi_startproc
 957              		@ args = 0, pretend = 0, frame = 0
 958              		@ frame_needed = 1, uses_anonymous_args = 0
 959 0000 80B5     		push	{r7, lr}
 960              		.cfi_def_cfa_offset 8
 961              		.cfi_offset 7, -8
 962              		.cfi_offset 14, -4
 963 0002 00AF     		add	r7, sp, #0
 964              		.cfi_def_cfa_register 7
 714:Generated_Source\PSoC4/Capsense.c ****     return ((uint32)((0u != (Capsense_csdStatusVar & Capsense_SW_STS_BUSY)) ? 1u : 0u));
 965              		.loc 1 714 0
 966 0004 044B     		ldr	r3, .L51
 967 0006 1B78     		ldrb	r3, [r3]
 968 0008 DBB2     		uxtb	r3, r3
 969 000a 1A00     		movs	r2, r3
 970 000c 0123     		movs	r3, #1
 971 000e 1340     		ands	r3, r2
 715:Generated_Source\PSoC4/Capsense.c **** }
 972              		.loc 1 715 0
 973 0010 1800     		movs	r0, r3
 974 0012 BD46     		mov	sp, r7
 975              		@ sp needed
 976 0014 80BD     		pop	{r7, pc}
 977              	.L52:
 978 0016 C046     		.align	2
 979              	.L51:
 980 0018 00000000 		.word	Capsense_csdStatusVar
 981              		.cfi_endproc
 982              	.LFE45:
 983              		.size	Capsense_IsBusy, .-Capsense_IsBusy
 984              		.section	.text.Capsense_ReadSensorRaw,"ax",%progbits
ARM GAS  C:\Users\ROUSSMA\AppData\Local\Temp\ccTx5OE8.s 			page 31


 985              		.align	2
 986              		.global	Capsense_ReadSensorRaw
 987              		.code	16
 988              		.thumb_func
 989              		.type	Capsense_ReadSensorRaw, %function
 990              	Capsense_ReadSensorRaw:
 991              	.LFB46:
 716:Generated_Source\PSoC4/Capsense.c **** 
 717:Generated_Source\PSoC4/Capsense.c **** 
 718:Generated_Source\PSoC4/Capsense.c **** /*******************************************************************************
 719:Generated_Source\PSoC4/Capsense.c **** * Function Name: Capsense_ReadSensorRaw
 720:Generated_Source\PSoC4/Capsense.c **** ********************************************************************************
 721:Generated_Source\PSoC4/Capsense.c **** *
 722:Generated_Source\PSoC4/Capsense.c **** * Summary:
 723:Generated_Source\PSoC4/Capsense.c **** *  Returns sensor raw data from the global CapSense_sensorRaw[ ] array.
 724:Generated_Source\PSoC4/Capsense.c **** *  Each scan sensor has a unique number within the sensor array.
 725:Generated_Source\PSoC4/Capsense.c **** *  This number is assigned by the CapSense customizer in sequence.
 726:Generated_Source\PSoC4/Capsense.c **** *  Raw data can be used to perform calculations outside of the CapSense
 727:Generated_Source\PSoC4/Capsense.c **** *  provided framework.
 728:Generated_Source\PSoC4/Capsense.c **** *
 729:Generated_Source\PSoC4/Capsense.c **** * Parameters:
 730:Generated_Source\PSoC4/Capsense.c **** *  sensor:  Sensor number.
 731:Generated_Source\PSoC4/Capsense.c **** *
 732:Generated_Source\PSoC4/Capsense.c **** * Return:
 733:Generated_Source\PSoC4/Capsense.c **** *  Returns the current raw data value for a defined sensor number.
 734:Generated_Source\PSoC4/Capsense.c **** *
 735:Generated_Source\PSoC4/Capsense.c **** * Global Variables:
 736:Generated_Source\PSoC4/Capsense.c **** *  Capsense_sensorRaw[] - used to store sensors raw data.
 737:Generated_Source\PSoC4/Capsense.c **** *
 738:Generated_Source\PSoC4/Capsense.c **** * Side Effects:
 739:Generated_Source\PSoC4/Capsense.c **** *  None
 740:Generated_Source\PSoC4/Capsense.c **** *
 741:Generated_Source\PSoC4/Capsense.c **** *******************************************************************************/
 742:Generated_Source\PSoC4/Capsense.c **** uint16 Capsense_ReadSensorRaw(uint32 sensor)
 743:Generated_Source\PSoC4/Capsense.c **** {
 992              		.loc 1 743 0
 993              		.cfi_startproc
 994              		@ args = 0, pretend = 0, frame = 8
 995              		@ frame_needed = 1, uses_anonymous_args = 0
 996 0000 80B5     		push	{r7, lr}
 997              		.cfi_def_cfa_offset 8
 998              		.cfi_offset 7, -8
 999              		.cfi_offset 14, -4
 1000 0002 82B0     		sub	sp, sp, #8
 1001              		.cfi_def_cfa_offset 16
 1002 0004 00AF     		add	r7, sp, #0
 1003              		.cfi_def_cfa_register 7
 1004 0006 7860     		str	r0, [r7, #4]
 744:Generated_Source\PSoC4/Capsense.c ****     return Capsense_sensorRaw[sensor];
 1005              		.loc 1 744 0
 1006 0008 034B     		ldr	r3, .L55
 1007 000a 7A68     		ldr	r2, [r7, #4]
 1008 000c 5200     		lsls	r2, r2, #1
 1009 000e D35A     		ldrh	r3, [r2, r3]
 745:Generated_Source\PSoC4/Capsense.c **** }
 1010              		.loc 1 745 0
 1011 0010 1800     		movs	r0, r3
ARM GAS  C:\Users\ROUSSMA\AppData\Local\Temp\ccTx5OE8.s 			page 32


 1012 0012 BD46     		mov	sp, r7
 1013 0014 02B0     		add	sp, sp, #8
 1014              		@ sp needed
 1015 0016 80BD     		pop	{r7, pc}
 1016              	.L56:
 1017              		.align	2
 1018              	.L55:
 1019 0018 00000000 		.word	Capsense_sensorRaw
 1020              		.cfi_endproc
 1021              	.LFE46:
 1022              		.size	Capsense_ReadSensorRaw, .-Capsense_ReadSensorRaw
 1023              		.section	.text.Capsense_WriteSensorRaw,"ax",%progbits
 1024              		.align	2
 1025              		.global	Capsense_WriteSensorRaw
 1026              		.code	16
 1027              		.thumb_func
 1028              		.type	Capsense_WriteSensorRaw, %function
 1029              	Capsense_WriteSensorRaw:
 1030              	.LFB47:
 746:Generated_Source\PSoC4/Capsense.c **** 
 747:Generated_Source\PSoC4/Capsense.c **** 
 748:Generated_Source\PSoC4/Capsense.c **** /*******************************************************************************
 749:Generated_Source\PSoC4/Capsense.c **** * Function Name: Capsense_WriteSensorRaw
 750:Generated_Source\PSoC4/Capsense.c **** ********************************************************************************
 751:Generated_Source\PSoC4/Capsense.c **** *
 752:Generated_Source\PSoC4/Capsense.c **** * Summary:
 753:Generated_Source\PSoC4/Capsense.c **** *  This API writes the raw count value passed as an argument to the sensor Raw count array.
 754:Generated_Source\PSoC4/Capsense.c **** *
 755:Generated_Source\PSoC4/Capsense.c **** * Parameters:
 756:Generated_Source\PSoC4/Capsense.c **** *  sensor:  Sensor number.
 757:Generated_Source\PSoC4/Capsense.c **** *  value: Raw count value.
 758:Generated_Source\PSoC4/Capsense.c **** *
 759:Generated_Source\PSoC4/Capsense.c **** * Global Variables:
 760:Generated_Source\PSoC4/Capsense.c **** *  Capsense_sensorRaw[] - used to store sensors raw data.
 761:Generated_Source\PSoC4/Capsense.c **** *
 762:Generated_Source\PSoC4/Capsense.c **** * Return:
 763:Generated_Source\PSoC4/Capsense.c **** *  None
 764:Generated_Source\PSoC4/Capsense.c **** *
 765:Generated_Source\PSoC4/Capsense.c **** * Side Effects:
 766:Generated_Source\PSoC4/Capsense.c **** *  None
 767:Generated_Source\PSoC4/Capsense.c **** *
 768:Generated_Source\PSoC4/Capsense.c **** *******************************************************************************/
 769:Generated_Source\PSoC4/Capsense.c **** void Capsense_WriteSensorRaw(uint32 sensor, uint16 value)
 770:Generated_Source\PSoC4/Capsense.c **** {
 1031              		.loc 1 770 0
 1032              		.cfi_startproc
 1033              		@ args = 0, pretend = 0, frame = 8
 1034              		@ frame_needed = 1, uses_anonymous_args = 0
 1035 0000 80B5     		push	{r7, lr}
 1036              		.cfi_def_cfa_offset 8
 1037              		.cfi_offset 7, -8
 1038              		.cfi_offset 14, -4
 1039 0002 82B0     		sub	sp, sp, #8
 1040              		.cfi_def_cfa_offset 16
 1041 0004 00AF     		add	r7, sp, #0
 1042              		.cfi_def_cfa_register 7
 1043 0006 7860     		str	r0, [r7, #4]
ARM GAS  C:\Users\ROUSSMA\AppData\Local\Temp\ccTx5OE8.s 			page 33


 1044 0008 0A00     		movs	r2, r1
 1045 000a BB1C     		adds	r3, r7, #2
 1046 000c 1A80     		strh	r2, [r3]
 771:Generated_Source\PSoC4/Capsense.c ****     Capsense_sensorRaw[sensor] = value;
 1047              		.loc 1 771 0
 1048 000e 054B     		ldr	r3, .L58
 1049 0010 7A68     		ldr	r2, [r7, #4]
 1050 0012 5200     		lsls	r2, r2, #1
 1051 0014 B91C     		adds	r1, r7, #2
 1052 0016 0988     		ldrh	r1, [r1]
 1053 0018 D152     		strh	r1, [r2, r3]
 772:Generated_Source\PSoC4/Capsense.c **** }
 1054              		.loc 1 772 0
 1055 001a C046     		nop
 1056 001c BD46     		mov	sp, r7
 1057 001e 02B0     		add	sp, sp, #8
 1058              		@ sp needed
 1059 0020 80BD     		pop	{r7, pc}
 1060              	.L59:
 1061 0022 C046     		.align	2
 1062              	.L58:
 1063 0024 00000000 		.word	Capsense_sensorRaw
 1064              		.cfi_endproc
 1065              	.LFE47:
 1066              		.size	Capsense_WriteSensorRaw, .-Capsense_WriteSensorRaw
 1067              		.section	.text.Capsense_SetScanResolution,"ax",%progbits
 1068              		.align	2
 1069              		.global	Capsense_SetScanResolution
 1070              		.code	16
 1071              		.thumb_func
 1072              		.type	Capsense_SetScanResolution, %function
 1073              	Capsense_SetScanResolution:
 1074              	.LFB48:
 773:Generated_Source\PSoC4/Capsense.c **** 
 774:Generated_Source\PSoC4/Capsense.c **** 
 775:Generated_Source\PSoC4/Capsense.c **** #if (Capsense_TUNING_METHOD != Capsense__TUNING_NONE)
 776:Generated_Source\PSoC4/Capsense.c ****     /*******************************************************************************
 777:Generated_Source\PSoC4/Capsense.c ****     * Function Name: Capsense_SetScanResolution
 778:Generated_Source\PSoC4/Capsense.c ****     ********************************************************************************
 779:Generated_Source\PSoC4/Capsense.c ****     *
 780:Generated_Source\PSoC4/Capsense.c ****     * Summary:
 781:Generated_Source\PSoC4/Capsense.c ****     *  Sets a value of the sensor scan resolution for a widget.
 782:Generated_Source\PSoC4/Capsense.c ****     *  The MIN resolution can be set 8-bit. The MAX Resolution can be set 16 bit.
 783:Generated_Source\PSoC4/Capsense.c ****     *  This function is not available for the tuning mode "None".
 784:Generated_Source\PSoC4/Capsense.c ****     *
 785:Generated_Source\PSoC4/Capsense.c ****     * Parameters:
 786:Generated_Source\PSoC4/Capsense.c ****     *  widget:     Widget index.
 787:Generated_Source\PSoC4/Capsense.c ****     *  resolution: Represents the resolution value. The following defines which are available in th
 788:Generated_Source\PSoC4/Capsense.c ****     *              Capsense.h file should be used:
 789:Generated_Source\PSoC4/Capsense.c ****     *              Capsense_RESOLUTION_6_BITS
 790:Generated_Source\PSoC4/Capsense.c ****     *              Capsense_RESOLUTION_7_BITS
 791:Generated_Source\PSoC4/Capsense.c ****     *              Capsense_RESOLUTION_8_BITS
 792:Generated_Source\PSoC4/Capsense.c ****     *              Capsense_RESOLUTION_9_BITS
 793:Generated_Source\PSoC4/Capsense.c ****     *              Capsense_RESOLUTION_10_BITS
 794:Generated_Source\PSoC4/Capsense.c ****     *              Capsense_RESOLUTION_11_BITS
 795:Generated_Source\PSoC4/Capsense.c ****     *              Capsense_RESOLUTION_12_BITS
 796:Generated_Source\PSoC4/Capsense.c ****     *              Capsense_RESOLUTION_13_BITS
ARM GAS  C:\Users\ROUSSMA\AppData\Local\Temp\ccTx5OE8.s 			page 34


 797:Generated_Source\PSoC4/Capsense.c ****     *              Capsense_RESOLUTION_14_BITS
 798:Generated_Source\PSoC4/Capsense.c ****     *              Capsense_RESOLUTION_15_BITS
 799:Generated_Source\PSoC4/Capsense.c ****     *              Capsense_RESOLUTION_16_BITS
 800:Generated_Source\PSoC4/Capsense.c ****     *
 801:Generated_Source\PSoC4/Capsense.c ****     * Return:
 802:Generated_Source\PSoC4/Capsense.c ****     *  None
 803:Generated_Source\PSoC4/Capsense.c ****     *
 804:Generated_Source\PSoC4/Capsense.c ****     * Global Variables:
 805:Generated_Source\PSoC4/Capsense.c ****     *  Capsense_widgetResolution[] - used to store scan resolution of each widget.
 806:Generated_Source\PSoC4/Capsense.c ****     *
 807:Generated_Source\PSoC4/Capsense.c ****     * Side Effects:
 808:Generated_Source\PSoC4/Capsense.c ****     *  None
 809:Generated_Source\PSoC4/Capsense.c ****     *
 810:Generated_Source\PSoC4/Capsense.c ****     *******************************************************************************/
 811:Generated_Source\PSoC4/Capsense.c ****     void Capsense_SetScanResolution(uint32 widget, uint32 resolution)
 812:Generated_Source\PSoC4/Capsense.c ****     {
 1075              		.loc 1 812 0
 1076              		.cfi_startproc
 1077              		@ args = 0, pretend = 0, frame = 8
 1078              		@ frame_needed = 1, uses_anonymous_args = 0
 1079 0000 80B5     		push	{r7, lr}
 1080              		.cfi_def_cfa_offset 8
 1081              		.cfi_offset 7, -8
 1082              		.cfi_offset 14, -4
 1083 0002 82B0     		sub	sp, sp, #8
 1084              		.cfi_def_cfa_offset 16
 1085 0004 00AF     		add	r7, sp, #0
 1086              		.cfi_def_cfa_register 7
 1087 0006 7860     		str	r0, [r7, #4]
 1088 0008 3960     		str	r1, [r7]
 813:Generated_Source\PSoC4/Capsense.c ****         Capsense_widgetResolution[widget] = resolution;
 1089              		.loc 1 813 0
 1090 000a 044B     		ldr	r3, .L61
 1091 000c 7A68     		ldr	r2, [r7, #4]
 1092 000e 9200     		lsls	r2, r2, #2
 1093 0010 3968     		ldr	r1, [r7]
 1094 0012 D150     		str	r1, [r2, r3]
 814:Generated_Source\PSoC4/Capsense.c ****     }
 1095              		.loc 1 814 0
 1096 0014 C046     		nop
 1097 0016 BD46     		mov	sp, r7
 1098 0018 02B0     		add	sp, sp, #8
 1099              		@ sp needed
 1100 001a 80BD     		pop	{r7, pc}
 1101              	.L62:
 1102              		.align	2
 1103              	.L61:
 1104 001c 00000000 		.word	Capsense_widgetResolution
 1105              		.cfi_endproc
 1106              	.LFE48:
 1107              		.size	Capsense_SetScanResolution, .-Capsense_SetScanResolution
 1108              		.section	.text.Capsense_GetScanResolution,"ax",%progbits
 1109              		.align	2
 1110              		.global	Capsense_GetScanResolution
 1111              		.code	16
 1112              		.thumb_func
 1113              		.type	Capsense_GetScanResolution, %function
ARM GAS  C:\Users\ROUSSMA\AppData\Local\Temp\ccTx5OE8.s 			page 35


 1114              	Capsense_GetScanResolution:
 1115              	.LFB49:
 815:Generated_Source\PSoC4/Capsense.c **** #endif /* (Capsense_TUNING_METHOD != Capsense__TUNING_NONE) */
 816:Generated_Source\PSoC4/Capsense.c **** 
 817:Generated_Source\PSoC4/Capsense.c **** 
 818:Generated_Source\PSoC4/Capsense.c **** /*******************************************************************************
 819:Generated_Source\PSoC4/Capsense.c **** * Function Name: Capsense_GetScanResolution
 820:Generated_Source\PSoC4/Capsense.c **** ********************************************************************************
 821:Generated_Source\PSoC4/Capsense.c **** *
 822:Generated_Source\PSoC4/Capsense.c **** * Summary:
 823:Generated_Source\PSoC4/Capsense.c **** *  Returns the resolution value for the appropriate sensor.
 824:Generated_Source\PSoC4/Capsense.c **** *  This function is not available for tuning mode "None".
 825:Generated_Source\PSoC4/Capsense.c **** *
 826:Generated_Source\PSoC4/Capsense.c **** * Parameters:
 827:Generated_Source\PSoC4/Capsense.c **** *  widget:     Widget index.
 828:Generated_Source\PSoC4/Capsense.c **** *
 829:Generated_Source\PSoC4/Capsense.c **** * Return:
 830:Generated_Source\PSoC4/Capsense.c **** *  resolution: Returns the resolution value for the appropriate sensor.
 831:Generated_Source\PSoC4/Capsense.c **** *              The resolution values are defined in the Capsense.h file
 832:Generated_Source\PSoC4/Capsense.c **** *              The defines are encountered below:
 833:Generated_Source\PSoC4/Capsense.c **** *              Capsense_RESOLUTION_6_BITS
 834:Generated_Source\PSoC4/Capsense.c **** *              Capsense_RESOLUTION_7_BITS
 835:Generated_Source\PSoC4/Capsense.c **** *              Capsense_RESOLUTION_8_BITS
 836:Generated_Source\PSoC4/Capsense.c **** *              Capsense_RESOLUTION_9_BITS
 837:Generated_Source\PSoC4/Capsense.c **** *              Capsense_RESOLUTION_10_BITS
 838:Generated_Source\PSoC4/Capsense.c **** *              Capsense_RESOLUTION_11_BITS
 839:Generated_Source\PSoC4/Capsense.c **** *              Capsense_RESOLUTION_12_BITS
 840:Generated_Source\PSoC4/Capsense.c **** *              Capsense_RESOLUTION_13_BITS
 841:Generated_Source\PSoC4/Capsense.c **** *              Capsense_RESOLUTION_14_BITS
 842:Generated_Source\PSoC4/Capsense.c **** *              Capsense_RESOLUTION_15_BITS
 843:Generated_Source\PSoC4/Capsense.c **** *              Capsense_RESOLUTION_16_BITS
 844:Generated_Source\PSoC4/Capsense.c **** *
 845:Generated_Source\PSoC4/Capsense.c **** * Global Variables:
 846:Generated_Source\PSoC4/Capsense.c **** *  Capsense_widgetResolution[] - used to store scan resolution of every widget.
 847:Generated_Source\PSoC4/Capsense.c **** *
 848:Generated_Source\PSoC4/Capsense.c **** * Side Effects:
 849:Generated_Source\PSoC4/Capsense.c **** *  None
 850:Generated_Source\PSoC4/Capsense.c **** *
 851:Generated_Source\PSoC4/Capsense.c **** *******************************************************************************/
 852:Generated_Source\PSoC4/Capsense.c **** uint32 Capsense_GetScanResolution(uint32 widget)
 853:Generated_Source\PSoC4/Capsense.c **** {
 1116              		.loc 1 853 0
 1117              		.cfi_startproc
 1118              		@ args = 0, pretend = 0, frame = 8
 1119              		@ frame_needed = 1, uses_anonymous_args = 0
 1120 0000 80B5     		push	{r7, lr}
 1121              		.cfi_def_cfa_offset 8
 1122              		.cfi_offset 7, -8
 1123              		.cfi_offset 14, -4
 1124 0002 82B0     		sub	sp, sp, #8
 1125              		.cfi_def_cfa_offset 16
 1126 0004 00AF     		add	r7, sp, #0
 1127              		.cfi_def_cfa_register 7
 1128 0006 7860     		str	r0, [r7, #4]
 854:Generated_Source\PSoC4/Capsense.c ****     return(Capsense_widgetResolution[widget]);
 1129              		.loc 1 854 0
 1130 0008 034B     		ldr	r3, .L65
ARM GAS  C:\Users\ROUSSMA\AppData\Local\Temp\ccTx5OE8.s 			page 36


 1131 000a 7A68     		ldr	r2, [r7, #4]
 1132 000c 9200     		lsls	r2, r2, #2
 1133 000e D358     		ldr	r3, [r2, r3]
 855:Generated_Source\PSoC4/Capsense.c **** }
 1134              		.loc 1 855 0
 1135 0010 1800     		movs	r0, r3
 1136 0012 BD46     		mov	sp, r7
 1137 0014 02B0     		add	sp, sp, #8
 1138              		@ sp needed
 1139 0016 80BD     		pop	{r7, pc}
 1140              	.L66:
 1141              		.align	2
 1142              	.L65:
 1143 0018 00000000 		.word	Capsense_widgetResolution
 1144              		.cfi_endproc
 1145              	.LFE49:
 1146              		.size	Capsense_GetScanResolution, .-Capsense_GetScanResolution
 1147              		.section	.text.Capsense_ClearSensors,"ax",%progbits
 1148              		.align	2
 1149              		.global	Capsense_ClearSensors
 1150              		.code	16
 1151              		.thumb_func
 1152              		.type	Capsense_ClearSensors, %function
 1153              	Capsense_ClearSensors:
 1154              	.LFB50:
 856:Generated_Source\PSoC4/Capsense.c **** 
 857:Generated_Source\PSoC4/Capsense.c **** 
 858:Generated_Source\PSoC4/Capsense.c **** /*******************************************************************************
 859:Generated_Source\PSoC4/Capsense.c **** * Function Name: Capsense_ClearSensors
 860:Generated_Source\PSoC4/Capsense.c **** ********************************************************************************
 861:Generated_Source\PSoC4/Capsense.c **** *
 862:Generated_Source\PSoC4/Capsense.c **** * Summary:
 863:Generated_Source\PSoC4/Capsense.c **** *  Resets all the sensors to the non-sampling state by sequentially disconnecting
 864:Generated_Source\PSoC4/Capsense.c **** *  all the sensors from Analog MUX Bus and putting them to an inactive state.
 865:Generated_Source\PSoC4/Capsense.c **** *
 866:Generated_Source\PSoC4/Capsense.c **** * Parameters:
 867:Generated_Source\PSoC4/Capsense.c **** *  None
 868:Generated_Source\PSoC4/Capsense.c **** *
 869:Generated_Source\PSoC4/Capsense.c **** * Return:
 870:Generated_Source\PSoC4/Capsense.c **** *  None
 871:Generated_Source\PSoC4/Capsense.c **** *
 872:Generated_Source\PSoC4/Capsense.c **** * Global Variables:
 873:Generated_Source\PSoC4/Capsense.c **** *  None
 874:Generated_Source\PSoC4/Capsense.c **** *
 875:Generated_Source\PSoC4/Capsense.c **** * Side Effects:
 876:Generated_Source\PSoC4/Capsense.c **** *  None
 877:Generated_Source\PSoC4/Capsense.c **** *
 878:Generated_Source\PSoC4/Capsense.c **** *******************************************************************************/
 879:Generated_Source\PSoC4/Capsense.c **** void Capsense_ClearSensors(void)
 880:Generated_Source\PSoC4/Capsense.c **** {
 1155              		.loc 1 880 0
 1156              		.cfi_startproc
 1157              		@ args = 0, pretend = 0, frame = 8
 1158              		@ frame_needed = 1, uses_anonymous_args = 0
 1159 0000 80B5     		push	{r7, lr}
 1160              		.cfi_def_cfa_offset 8
 1161              		.cfi_offset 7, -8
ARM GAS  C:\Users\ROUSSMA\AppData\Local\Temp\ccTx5OE8.s 			page 37


 1162              		.cfi_offset 14, -4
 1163 0002 82B0     		sub	sp, sp, #8
 1164              		.cfi_def_cfa_offset 16
 1165 0004 00AF     		add	r7, sp, #0
 1166              		.cfi_def_cfa_register 7
 881:Generated_Source\PSoC4/Capsense.c ****     uint32 snsIndex;
 882:Generated_Source\PSoC4/Capsense.c **** 
 883:Generated_Source\PSoC4/Capsense.c ****     for (snsIndex = 0u; snsIndex < Capsense_TOTAL_SENSOR_COUNT; snsIndex++)
 1167              		.loc 1 883 0
 1168 0006 0023     		movs	r3, #0
 1169 0008 7B60     		str	r3, [r7, #4]
 1170 000a 06E0     		b	.L68
 1171              	.L69:
 884:Generated_Source\PSoC4/Capsense.c ****     {
 885:Generated_Source\PSoC4/Capsense.c ****         Capsense_DisableScanSlot(snsIndex);
 1172              		.loc 1 885 0 discriminator 3
 1173 000c 7B68     		ldr	r3, [r7, #4]
 1174 000e 1800     		movs	r0, r3
 1175 0010 FFF7FEFF 		bl	Capsense_DisableSensor
 883:Generated_Source\PSoC4/Capsense.c ****     {
 1176              		.loc 1 883 0 discriminator 3
 1177 0014 7B68     		ldr	r3, [r7, #4]
 1178 0016 0133     		adds	r3, r3, #1
 1179 0018 7B60     		str	r3, [r7, #4]
 1180              	.L68:
 883:Generated_Source\PSoC4/Capsense.c ****     {
 1181              		.loc 1 883 0 is_stmt 0 discriminator 1
 1182 001a 7B68     		ldr	r3, [r7, #4]
 1183 001c 002B     		cmp	r3, #0
 1184 001e F5D0     		beq	.L69
 886:Generated_Source\PSoC4/Capsense.c ****     }
 887:Generated_Source\PSoC4/Capsense.c **** }
 1185              		.loc 1 887 0 is_stmt 1
 1186 0020 C046     		nop
 1187 0022 BD46     		mov	sp, r7
 1188 0024 02B0     		add	sp, sp, #8
 1189              		@ sp needed
 1190 0026 80BD     		pop	{r7, pc}
 1191              		.cfi_endproc
 1192              	.LFE50:
 1193              		.size	Capsense_ClearSensors, .-Capsense_ClearSensors
 1194              		.section	.text.Capsense_EnableSensor,"ax",%progbits
 1195              		.align	2
 1196              		.global	Capsense_EnableSensor
 1197              		.code	16
 1198              		.thumb_func
 1199              		.type	Capsense_EnableSensor, %function
 1200              	Capsense_EnableSensor:
 1201              	.LFB51:
 888:Generated_Source\PSoC4/Capsense.c **** 
 889:Generated_Source\PSoC4/Capsense.c **** 
 890:Generated_Source\PSoC4/Capsense.c **** #if (Capsense_IS_COMPLEX_SCANSLOTS)
 891:Generated_Source\PSoC4/Capsense.c ****     /*******************************************************************************
 892:Generated_Source\PSoC4/Capsense.c ****     * Function Name: Capsense_EnableScanSlot
 893:Generated_Source\PSoC4/Capsense.c ****     ********************************************************************************
 894:Generated_Source\PSoC4/Capsense.c ****     *
 895:Generated_Source\PSoC4/Capsense.c ****     * Summary:
ARM GAS  C:\Users\ROUSSMA\AppData\Local\Temp\ccTx5OE8.s 			page 38


 896:Generated_Source\PSoC4/Capsense.c ****     *  Configures the selected slot to measure during the next measurement
 897:Generated_Source\PSoC4/Capsense.c ****     *  cycle. The corresponding pin/pins are set to Analog High-Z mode and
 898:Generated_Source\PSoC4/Capsense.c ****     *  connected to the Analog Mux Bus. This also enables the comparator function.
 899:Generated_Source\PSoC4/Capsense.c ****     *
 900:Generated_Source\PSoC4/Capsense.c ****     * Parameters:
 901:Generated_Source\PSoC4/Capsense.c ****     *  slot:  Slot number.
 902:Generated_Source\PSoC4/Capsense.c ****     *
 903:Generated_Source\PSoC4/Capsense.c ****     * Return:
 904:Generated_Source\PSoC4/Capsense.c ****     *  None
 905:Generated_Source\PSoC4/Capsense.c ****     *
 906:Generated_Source\PSoC4/Capsense.c ****     * Global Constants:
 907:Generated_Source\PSoC4/Capsense.c ****     *  Capsense_portTable[]  - used to store the port number that pin
 908:Generated_Source\PSoC4/Capsense.c ****     *  belongs to for each sensor.
 909:Generated_Source\PSoC4/Capsense.c ****     *  Capsense_maskTable[]  - used to store the pin within the port for
 910:Generated_Source\PSoC4/Capsense.c ****     *  each sensor.
 911:Generated_Source\PSoC4/Capsense.c ****     *  Capsense_indexTable[] - used to store indexes of complex sensors.
 912:Generated_Source\PSoC4/Capsense.c ****     *  The offset and position in this array are stored in a port and mask table for
 913:Generated_Source\PSoC4/Capsense.c ****     *  complex sensors.
 914:Generated_Source\PSoC4/Capsense.c ****     *  Bit 7 (msb) is used to define the sensor type: single or complex.
 915:Generated_Source\PSoC4/Capsense.c ****     *
 916:Generated_Source\PSoC4/Capsense.c ****     * Side Effects:
 917:Generated_Source\PSoC4/Capsense.c ****     *  None
 918:Generated_Source\PSoC4/Capsense.c ****     *
 919:Generated_Source\PSoC4/Capsense.c ****     *******************************************************************************/
 920:Generated_Source\PSoC4/Capsense.c ****     void Capsense_EnableScanSlot(uint32 slot)
 921:Generated_Source\PSoC4/Capsense.c ****     {
 922:Generated_Source\PSoC4/Capsense.c ****         uint8 j;
 923:Generated_Source\PSoC4/Capsense.c ****         uint8 snsNumber;
 924:Generated_Source\PSoC4/Capsense.c ****         const uint8 *index;
 925:Generated_Source\PSoC4/Capsense.c ****         /* Read sensor type: single or complex */
 926:Generated_Source\PSoC4/Capsense.c ****         uint8 snsType = Capsense_portTable[slot];
 927:Generated_Source\PSoC4/Capsense.c **** 
 928:Generated_Source\PSoC4/Capsense.c ****         /* Check if sensor is complex */
 929:Generated_Source\PSoC4/Capsense.c ****         if ((snsType & Capsense_COMPLEX_SS_FLAG) == 0u)
 930:Generated_Source\PSoC4/Capsense.c ****         {
 931:Generated_Source\PSoC4/Capsense.c ****             /* Enable sensor (single) */
 932:Generated_Source\PSoC4/Capsense.c ****             Capsense_EnableSensor(slot);
 933:Generated_Source\PSoC4/Capsense.c ****         }
 934:Generated_Source\PSoC4/Capsense.c ****         else
 935:Generated_Source\PSoC4/Capsense.c ****         {
 936:Generated_Source\PSoC4/Capsense.c ****             /* Enable complex sensor */
 937:Generated_Source\PSoC4/Capsense.c ****             snsType &= ~Capsense_COMPLEX_SS_FLAG;
 938:Generated_Source\PSoC4/Capsense.c ****             index = &Capsense_indexTable[snsType];
 939:Generated_Source\PSoC4/Capsense.c ****             snsNumber = Capsense_maskTable[slot];
 940:Generated_Source\PSoC4/Capsense.c **** 
 941:Generated_Source\PSoC4/Capsense.c ****             for (j = 0u; j < snsNumber; j++)
 942:Generated_Source\PSoC4/Capsense.c ****             {
 943:Generated_Source\PSoC4/Capsense.c ****                 Capsense_EnableSensor(index[j]);
 944:Generated_Source\PSoC4/Capsense.c ****             }
 945:Generated_Source\PSoC4/Capsense.c ****         }
 946:Generated_Source\PSoC4/Capsense.c ****     }
 947:Generated_Source\PSoC4/Capsense.c **** 
 948:Generated_Source\PSoC4/Capsense.c **** 
 949:Generated_Source\PSoC4/Capsense.c ****     /*******************************************************************************
 950:Generated_Source\PSoC4/Capsense.c ****     * Function Name: Capsense_DisableScanSlot
 951:Generated_Source\PSoC4/Capsense.c ****     ********************************************************************************
 952:Generated_Source\PSoC4/Capsense.c ****     *
ARM GAS  C:\Users\ROUSSMA\AppData\Local\Temp\ccTx5OE8.s 			page 39


 953:Generated_Source\PSoC4/Capsense.c ****     * Summary:
 954:Generated_Source\PSoC4/Capsense.c ****     *  Disables the selected slot. The corresponding pin/pins is/are disconnected
 955:Generated_Source\PSoC4/Capsense.c ****     *  from the Analog Mux Bus and connected to GND, High_Z or Shield electrode.
 956:Generated_Source\PSoC4/Capsense.c ****     *
 957:Generated_Source\PSoC4/Capsense.c ****     * Parameters:
 958:Generated_Source\PSoC4/Capsense.c ****     *  slot:  Slot number.
 959:Generated_Source\PSoC4/Capsense.c ****     *
 960:Generated_Source\PSoC4/Capsense.c ****     * Return:
 961:Generated_Source\PSoC4/Capsense.c ****     *  None
 962:Generated_Source\PSoC4/Capsense.c ****     *
 963:Generated_Source\PSoC4/Capsense.c ****     * Global Variables:
 964:Generated_Source\PSoC4/Capsense.c ****     *  Capsense_portTable[]  - used to store the port number that pin
 965:Generated_Source\PSoC4/Capsense.c ****     *  belongs to for each sensor.
 966:Generated_Source\PSoC4/Capsense.c ****     *  Capsense_maskTable[]  - used to store the pin within the port for
 967:Generated_Source\PSoC4/Capsense.c ****     *  each sensor.
 968:Generated_Source\PSoC4/Capsense.c ****     *  Capsense_indexTable[] - used to store indexes of complex sensors.
 969:Generated_Source\PSoC4/Capsense.c ****     *  The offset and position in this array are stored in a port and mask table for
 970:Generated_Source\PSoC4/Capsense.c ****     *  complex sensors.
 971:Generated_Source\PSoC4/Capsense.c ****     *  7bit(msb) is used to define the sensor type: single or complex.
 972:Generated_Source\PSoC4/Capsense.c ****     *
 973:Generated_Source\PSoC4/Capsense.c ****     * Side Effects:
 974:Generated_Source\PSoC4/Capsense.c ****     *  None
 975:Generated_Source\PSoC4/Capsense.c ****     *
 976:Generated_Source\PSoC4/Capsense.c ****     *******************************************************************************/
 977:Generated_Source\PSoC4/Capsense.c ****     void Capsense_DisableScanSlot(uint32 slot)
 978:Generated_Source\PSoC4/Capsense.c ****     {
 979:Generated_Source\PSoC4/Capsense.c ****         uint8 j;
 980:Generated_Source\PSoC4/Capsense.c ****         uint8 snsNumber;
 981:Generated_Source\PSoC4/Capsense.c ****         const uint8 *index;
 982:Generated_Source\PSoC4/Capsense.c **** 
 983:Generated_Source\PSoC4/Capsense.c ****         /* Read sensor type: single or complex */
 984:Generated_Source\PSoC4/Capsense.c ****         uint8 snsType = Capsense_portTable[slot];
 985:Generated_Source\PSoC4/Capsense.c **** 
 986:Generated_Source\PSoC4/Capsense.c ****         /* Check if sensor is complex */
 987:Generated_Source\PSoC4/Capsense.c ****         if ((snsType & Capsense_COMPLEX_SS_FLAG) == 0u)
 988:Generated_Source\PSoC4/Capsense.c ****         {
 989:Generated_Source\PSoC4/Capsense.c ****             /* Disable sensor (single) */
 990:Generated_Source\PSoC4/Capsense.c ****             Capsense_DisableSensor(slot);
 991:Generated_Source\PSoC4/Capsense.c ****         }
 992:Generated_Source\PSoC4/Capsense.c ****         else
 993:Generated_Source\PSoC4/Capsense.c ****         {
 994:Generated_Source\PSoC4/Capsense.c ****             /* Disable complex sensor */
 995:Generated_Source\PSoC4/Capsense.c ****             snsType &= ~Capsense_COMPLEX_SS_FLAG;
 996:Generated_Source\PSoC4/Capsense.c ****             index = &Capsense_indexTable[snsType];
 997:Generated_Source\PSoC4/Capsense.c ****             snsNumber = Capsense_maskTable[slot];
 998:Generated_Source\PSoC4/Capsense.c **** 
 999:Generated_Source\PSoC4/Capsense.c ****             for (j=0; j < snsNumber; j++)
1000:Generated_Source\PSoC4/Capsense.c ****             {
1001:Generated_Source\PSoC4/Capsense.c ****                 Capsense_DisableSensor(index[j]);
1002:Generated_Source\PSoC4/Capsense.c ****             }
1003:Generated_Source\PSoC4/Capsense.c ****         }
1004:Generated_Source\PSoC4/Capsense.c ****     }
1005:Generated_Source\PSoC4/Capsense.c **** #endif  /* Capsense_IS_COMPLEX_SCANSLOTS */
1006:Generated_Source\PSoC4/Capsense.c **** 
1007:Generated_Source\PSoC4/Capsense.c **** 
1008:Generated_Source\PSoC4/Capsense.c **** /*******************************************************************************
1009:Generated_Source\PSoC4/Capsense.c **** * Function Name: Capsense_EnableSensor
ARM GAS  C:\Users\ROUSSMA\AppData\Local\Temp\ccTx5OE8.s 			page 40


1010:Generated_Source\PSoC4/Capsense.c **** ********************************************************************************
1011:Generated_Source\PSoC4/Capsense.c **** *
1012:Generated_Source\PSoC4/Capsense.c **** * Summary:
1013:Generated_Source\PSoC4/Capsense.c **** *  Configures the selected sensor to measure during the next measurement cycle.
1014:Generated_Source\PSoC4/Capsense.c **** *  The corresponding pins are set to Analog High-Z mode and connected to the
1015:Generated_Source\PSoC4/Capsense.c **** *  Analog Mux Bus. This also enables the comparator function.
1016:Generated_Source\PSoC4/Capsense.c **** *
1017:Generated_Source\PSoC4/Capsense.c **** * Parameters:
1018:Generated_Source\PSoC4/Capsense.c **** *  sensor:  Sensor number.
1019:Generated_Source\PSoC4/Capsense.c **** *
1020:Generated_Source\PSoC4/Capsense.c **** * Return:
1021:Generated_Source\PSoC4/Capsense.c **** *  None
1022:Generated_Source\PSoC4/Capsense.c **** *
1023:Generated_Source\PSoC4/Capsense.c **** * Global Variables:
1024:Generated_Source\PSoC4/Capsense.c **** *  Capsense_portTable[] - used to store the port number that pin
1025:Generated_Source\PSoC4/Capsense.c **** *  belongs to for each sensor.
1026:Generated_Source\PSoC4/Capsense.c **** *  Capsense_pinShiftTbl[] - used to store position of pin that
1027:Generated_Source\PSoC4/Capsense.c **** *  configured as sensor in port.
1028:Generated_Source\PSoC4/Capsense.c **** *  Capsense_prtSelTbl[] - Contains pointers to the HSIOM
1029:Generated_Source\PSoC4/Capsense.c **** *  registers for each port.
1030:Generated_Source\PSoC4/Capsense.c **** *  Capsense_PrtCfgTb[] - Contains pointers to the port config
1031:Generated_Source\PSoC4/Capsense.c **** *  registers for each port.
1032:Generated_Source\PSoC4/Capsense.c **** *
1033:Generated_Source\PSoC4/Capsense.c **** * Side Effects:
1034:Generated_Source\PSoC4/Capsense.c **** *  None
1035:Generated_Source\PSoC4/Capsense.c **** *
1036:Generated_Source\PSoC4/Capsense.c **** *******************************************************************************/
1037:Generated_Source\PSoC4/Capsense.c **** void Capsense_EnableSensor(uint32 sensor)
1038:Generated_Source\PSoC4/Capsense.c **** {
 1202              		.loc 1 1038 0
 1203              		.cfi_startproc
 1204              		@ args = 0, pretend = 0, frame = 24
 1205              		@ frame_needed = 1, uses_anonymous_args = 0
 1206 0000 90B5     		push	{r4, r7, lr}
 1207              		.cfi_def_cfa_offset 12
 1208              		.cfi_offset 4, -12
 1209              		.cfi_offset 7, -8
 1210              		.cfi_offset 14, -4
 1211 0002 87B0     		sub	sp, sp, #28
 1212              		.cfi_def_cfa_offset 40
 1213 0004 00AF     		add	r7, sp, #0
 1214              		.cfi_def_cfa_register 7
 1215 0006 7860     		str	r0, [r7, #4]
1039:Generated_Source\PSoC4/Capsense.c ****     uint8  pinModeShift;
1040:Generated_Source\PSoC4/Capsense.c ****     uint8  pinHSIOMShift;
1041:Generated_Source\PSoC4/Capsense.c ****     uint8 interruptState;
1042:Generated_Source\PSoC4/Capsense.c ****     uint32 newRegisterValue;
1043:Generated_Source\PSoC4/Capsense.c ****     uint32 port;
1044:Generated_Source\PSoC4/Capsense.c **** 
1045:Generated_Source\PSoC4/Capsense.c ****     port = (uint32) Capsense_portTable[sensor];
 1216              		.loc 1 1045 0
 1217 0008 0223     		movs	r3, #2
 1218 000a 7B61     		str	r3, [r7, #20]
1046:Generated_Source\PSoC4/Capsense.c ****     pinModeShift = Capsense_pinShiftTbl[sensor]  * Capsense_PC_PIN_CFG_SIZE;
 1219              		.loc 1 1046 0
 1220 000c 0123     		movs	r3, #1
 1221 000e 1322     		movs	r2, #19
ARM GAS  C:\Users\ROUSSMA\AppData\Local\Temp\ccTx5OE8.s 			page 41


 1222 0010 BA18     		adds	r2, r7, r2
 1223 0012 191C     		adds	r1, r3, #0
 1224 0014 0B1C     		adds	r3, r1, #0
 1225 0016 DB18     		adds	r3, r3, r3
 1226 0018 5B18     		adds	r3, r3, r1
 1227 001a 1370     		strb	r3, [r2]
1047:Generated_Source\PSoC4/Capsense.c ****     pinHSIOMShift = Capsense_pinShiftTbl[sensor] * Capsense_HSIOM_PIN_CFG_SIZE;
 1228              		.loc 1 1047 0
 1229 001c 0122     		movs	r2, #1
 1230 001e 1223     		movs	r3, #18
 1231 0020 FB18     		adds	r3, r7, r3
 1232 0022 9200     		lsls	r2, r2, #2
 1233 0024 1A70     		strb	r2, [r3]
1048:Generated_Source\PSoC4/Capsense.c **** 
1049:Generated_Source\PSoC4/Capsense.c ****     interruptState = CyEnterCriticalSection();
 1234              		.loc 1 1049 0
 1235 0026 1123     		movs	r3, #17
 1236 0028 FC18     		adds	r4, r7, r3
 1237 002a FFF7FEFF 		bl	CyEnterCriticalSection
 1238 002e 0300     		movs	r3, r0
 1239 0030 2370     		strb	r3, [r4]
1050:Generated_Source\PSoC4/Capsense.c **** 
1051:Generated_Source\PSoC4/Capsense.c ****     newRegisterValue = *Capsense_prtSelTbl[port];
 1240              		.loc 1 1051 0
 1241 0032 1D4B     		ldr	r3, .L71
 1242 0034 7A69     		ldr	r2, [r7, #20]
 1243 0036 9200     		lsls	r2, r2, #2
 1244 0038 D358     		ldr	r3, [r2, r3]
 1245 003a 1B68     		ldr	r3, [r3]
 1246 003c FB60     		str	r3, [r7, #12]
1052:Generated_Source\PSoC4/Capsense.c ****     newRegisterValue &= ~(Capsense_CSD_HSIOM_MASK << pinHSIOMShift);
 1247              		.loc 1 1052 0
 1248 003e 1223     		movs	r3, #18
 1249 0040 FB18     		adds	r3, r7, r3
 1250 0042 1B78     		ldrb	r3, [r3]
 1251 0044 0F22     		movs	r2, #15
 1252 0046 9A40     		lsls	r2, r2, r3
 1253 0048 1300     		movs	r3, r2
 1254 004a DA43     		mvns	r2, r3
 1255 004c FB68     		ldr	r3, [r7, #12]
 1256 004e 1340     		ands	r3, r2
 1257 0050 FB60     		str	r3, [r7, #12]
1053:Generated_Source\PSoC4/Capsense.c ****     newRegisterValue |= (uint32)((uint32)Capsense_CSD_SENSE_PORT_MODE << pinHSIOMShift);
 1258              		.loc 1 1053 0
 1259 0052 1223     		movs	r3, #18
 1260 0054 FB18     		adds	r3, r7, r3
 1261 0056 1B78     		ldrb	r3, [r3]
 1262 0058 0422     		movs	r2, #4
 1263 005a 9A40     		lsls	r2, r2, r3
 1264 005c 1300     		movs	r3, r2
 1265 005e FA68     		ldr	r2, [r7, #12]
 1266 0060 1343     		orrs	r3, r2
 1267 0062 FB60     		str	r3, [r7, #12]
1054:Generated_Source\PSoC4/Capsense.c **** 
1055:Generated_Source\PSoC4/Capsense.c ****     *Capsense_prtCfgTbl[port] &= (uint32)~((uint32)Capsense_CSD_PIN_MODE_MASK << pinModeShift);
 1268              		.loc 1 1055 0
 1269 0064 114B     		ldr	r3, .L71+4
ARM GAS  C:\Users\ROUSSMA\AppData\Local\Temp\ccTx5OE8.s 			page 42


 1270 0066 7A69     		ldr	r2, [r7, #20]
 1271 0068 9200     		lsls	r2, r2, #2
 1272 006a D358     		ldr	r3, [r2, r3]
 1273 006c 0F4A     		ldr	r2, .L71+4
 1274 006e 7969     		ldr	r1, [r7, #20]
 1275 0070 8900     		lsls	r1, r1, #2
 1276 0072 8A58     		ldr	r2, [r1, r2]
 1277 0074 1268     		ldr	r2, [r2]
 1278 0076 1321     		movs	r1, #19
 1279 0078 7918     		adds	r1, r7, r1
 1280 007a 0978     		ldrb	r1, [r1]
 1281 007c 0720     		movs	r0, #7
 1282 007e 8840     		lsls	r0, r0, r1
 1283 0080 0100     		movs	r1, r0
 1284 0082 C943     		mvns	r1, r1
 1285 0084 0A40     		ands	r2, r1
 1286 0086 1A60     		str	r2, [r3]
1056:Generated_Source\PSoC4/Capsense.c ****     *Capsense_prtSelTbl[port] = newRegisterValue;
 1287              		.loc 1 1056 0
 1288 0088 074B     		ldr	r3, .L71
 1289 008a 7A69     		ldr	r2, [r7, #20]
 1290 008c 9200     		lsls	r2, r2, #2
 1291 008e D358     		ldr	r3, [r2, r3]
 1292 0090 FA68     		ldr	r2, [r7, #12]
 1293 0092 1A60     		str	r2, [r3]
1057:Generated_Source\PSoC4/Capsense.c **** 
1058:Generated_Source\PSoC4/Capsense.c ****     CyExitCriticalSection(interruptState);
 1294              		.loc 1 1058 0
 1295 0094 1123     		movs	r3, #17
 1296 0096 FB18     		adds	r3, r7, r3
 1297 0098 1B78     		ldrb	r3, [r3]
 1298 009a 1800     		movs	r0, r3
 1299 009c FFF7FEFF 		bl	CyExitCriticalSection
1059:Generated_Source\PSoC4/Capsense.c **** }
 1300              		.loc 1 1059 0
 1301 00a0 C046     		nop
 1302 00a2 BD46     		mov	sp, r7
 1303 00a4 07B0     		add	sp, sp, #28
 1304              		@ sp needed
 1305 00a6 90BD     		pop	{r4, r7, pc}
 1306              	.L72:
 1307              		.align	2
 1308              	.L71:
 1309 00a8 00000000 		.word	Capsense_prtSelTbl
 1310 00ac 00000000 		.word	Capsense_prtCfgTbl
 1311              		.cfi_endproc
 1312              	.LFE51:
 1313              		.size	Capsense_EnableSensor, .-Capsense_EnableSensor
 1314              		.section	.text.Capsense_DisableSensor,"ax",%progbits
 1315              		.align	2
 1316              		.global	Capsense_DisableSensor
 1317              		.code	16
 1318              		.thumb_func
 1319              		.type	Capsense_DisableSensor, %function
 1320              	Capsense_DisableSensor:
 1321              	.LFB52:
1060:Generated_Source\PSoC4/Capsense.c **** 
ARM GAS  C:\Users\ROUSSMA\AppData\Local\Temp\ccTx5OE8.s 			page 43


1061:Generated_Source\PSoC4/Capsense.c **** 
1062:Generated_Source\PSoC4/Capsense.c **** /*******************************************************************************
1063:Generated_Source\PSoC4/Capsense.c **** * Function Name: Capsense_DisableSensor
1064:Generated_Source\PSoC4/Capsense.c **** ********************************************************************************
1065:Generated_Source\PSoC4/Capsense.c **** *
1066:Generated_Source\PSoC4/Capsense.c **** * Summary:
1067:Generated_Source\PSoC4/Capsense.c **** *  Disables the selected sensor. The corresponding pin is disconnected from the
1068:Generated_Source\PSoC4/Capsense.c **** *  Analog Mux Bus and connected to GND, High_Z or Shield electrode.
1069:Generated_Source\PSoC4/Capsense.c **** *
1070:Generated_Source\PSoC4/Capsense.c **** * Parameters:
1071:Generated_Source\PSoC4/Capsense.c **** *  sensor:  Sensor number
1072:Generated_Source\PSoC4/Capsense.c **** *
1073:Generated_Source\PSoC4/Capsense.c **** * Return:
1074:Generated_Source\PSoC4/Capsense.c **** *  None
1075:Generated_Source\PSoC4/Capsense.c **** *
1076:Generated_Source\PSoC4/Capsense.c **** * Global Variables:
1077:Generated_Source\PSoC4/Capsense.c **** *  Capsense_portTable[] - used to store the port number that pin
1078:Generated_Source\PSoC4/Capsense.c **** *  belongs to for each sensor.
1079:Generated_Source\PSoC4/Capsense.c **** *  Capsense_pinShiftTbl[] - used to store position of pin that
1080:Generated_Source\PSoC4/Capsense.c **** *  configured as a sensor in the port.
1081:Generated_Source\PSoC4/Capsense.c **** *  Capsense_prtSelTbl[] - Contains pointers to the HSIOM
1082:Generated_Source\PSoC4/Capsense.c **** *  registers for each port.
1083:Generated_Source\PSoC4/Capsense.c **** *  Capsense_PrtCfgTb[] - Contains pointers to the port config
1084:Generated_Source\PSoC4/Capsense.c **** *  registers for each port.
1085:Generated_Source\PSoC4/Capsense.c **** *
1086:Generated_Source\PSoC4/Capsense.c **** * Side Effects:
1087:Generated_Source\PSoC4/Capsense.c **** *  None
1088:Generated_Source\PSoC4/Capsense.c **** *
1089:Generated_Source\PSoC4/Capsense.c **** *******************************************************************************/
1090:Generated_Source\PSoC4/Capsense.c **** void Capsense_DisableSensor(uint32 sensor)
1091:Generated_Source\PSoC4/Capsense.c **** {
 1322              		.loc 1 1091 0
 1323              		.cfi_startproc
 1324              		@ args = 0, pretend = 0, frame = 32
 1325              		@ frame_needed = 1, uses_anonymous_args = 0
 1326 0000 90B5     		push	{r4, r7, lr}
 1327              		.cfi_def_cfa_offset 12
 1328              		.cfi_offset 4, -12
 1329              		.cfi_offset 7, -8
 1330              		.cfi_offset 14, -4
 1331 0002 89B0     		sub	sp, sp, #36
 1332              		.cfi_def_cfa_offset 48
 1333 0004 00AF     		add	r7, sp, #0
 1334              		.cfi_def_cfa_register 7
 1335 0006 7860     		str	r0, [r7, #4]
1092:Generated_Source\PSoC4/Capsense.c ****     uint8 interruptState;
1093:Generated_Source\PSoC4/Capsense.c ****     uint32 newRegisterValue;
1094:Generated_Source\PSoC4/Capsense.c **** 
1095:Generated_Source\PSoC4/Capsense.c ****     uint32 port = (uint32) Capsense_portTable[sensor];
 1336              		.loc 1 1095 0
 1337 0008 0223     		movs	r3, #2
 1338 000a 7B61     		str	r3, [r7, #20]
1096:Generated_Source\PSoC4/Capsense.c ****     uint8  pinHSIOMShift = Capsense_pinShiftTbl[sensor] * Capsense_HSIOM_PIN_CFG_SIZE;
 1339              		.loc 1 1096 0
 1340 000c 0122     		movs	r2, #1
 1341 000e 1323     		movs	r3, #19
 1342 0010 FB18     		adds	r3, r7, r3
ARM GAS  C:\Users\ROUSSMA\AppData\Local\Temp\ccTx5OE8.s 			page 44


 1343 0012 9200     		lsls	r2, r2, #2
 1344 0014 1A70     		strb	r2, [r3]
1097:Generated_Source\PSoC4/Capsense.c ****     uint8  pinModeShift = Capsense_pinShiftTbl[sensor]  * Capsense_PC_PIN_CFG_SIZE;
 1345              		.loc 1 1097 0
 1346 0016 0123     		movs	r3, #1
 1347 0018 1222     		movs	r2, #18
 1348 001a BA18     		adds	r2, r7, r2
 1349 001c 191C     		adds	r1, r3, #0
 1350 001e 0B1C     		adds	r3, r1, #0
 1351 0020 DB18     		adds	r3, r3, r3
 1352 0022 5B18     		adds	r3, r3, r1
 1353 0024 1370     		strb	r3, [r2]
1098:Generated_Source\PSoC4/Capsense.c **** 
1099:Generated_Source\PSoC4/Capsense.c ****     uint32 inactiveConnect = Capsense_SNS_HIZANALOG_CONNECT;
 1354              		.loc 1 1099 0
 1355 0026 0023     		movs	r3, #0
 1356 0028 FB61     		str	r3, [r7, #28]
1100:Generated_Source\PSoC4/Capsense.c ****     uint32 sensorState = Capsense_unscannedSnsDriveMode[sensor];
 1357              		.loc 1 1100 0
 1358 002a 304A     		ldr	r2, .L76
 1359 002c 7B68     		ldr	r3, [r7, #4]
 1360 002e D318     		adds	r3, r2, r3
 1361 0030 1B78     		ldrb	r3, [r3]
 1362 0032 BB61     		str	r3, [r7, #24]
1101:Generated_Source\PSoC4/Capsense.c **** 
1102:Generated_Source\PSoC4/Capsense.c ****     *Capsense_prtSelTbl[port] &= ~(Capsense_CSD_HSIOM_MASK << pinHSIOMShift);
 1363              		.loc 1 1102 0
 1364 0034 2E4B     		ldr	r3, .L76+4
 1365 0036 7A69     		ldr	r2, [r7, #20]
 1366 0038 9200     		lsls	r2, r2, #2
 1367 003a D358     		ldr	r3, [r2, r3]
 1368 003c 2C4A     		ldr	r2, .L76+4
 1369 003e 7969     		ldr	r1, [r7, #20]
 1370 0040 8900     		lsls	r1, r1, #2
 1371 0042 8A58     		ldr	r2, [r1, r2]
 1372 0044 1268     		ldr	r2, [r2]
 1373 0046 1321     		movs	r1, #19
 1374 0048 7918     		adds	r1, r7, r1
 1375 004a 0978     		ldrb	r1, [r1]
 1376 004c 0F20     		movs	r0, #15
 1377 004e 8840     		lsls	r0, r0, r1
 1378 0050 0100     		movs	r1, r0
 1379 0052 C943     		mvns	r1, r1
 1380 0054 0A40     		ands	r2, r1
 1381 0056 1A60     		str	r2, [r3]
1103:Generated_Source\PSoC4/Capsense.c **** 
1104:Generated_Source\PSoC4/Capsense.c ****     #if(Capsense_IS_SHIELD_ENABLE != 0)
1105:Generated_Source\PSoC4/Capsense.c ****     if(sensorState != (uint32)Capsense__SHIELD)
1106:Generated_Source\PSoC4/Capsense.c ****     {
1107:Generated_Source\PSoC4/Capsense.c ****     #else
1108:Generated_Source\PSoC4/Capsense.c ****         /* Connected to Ground if shield is disabled */
1109:Generated_Source\PSoC4/Capsense.c ****         if(sensorState == (uint32)Capsense__SHIELD)
 1382              		.loc 1 1109 0
 1383 0058 BB69     		ldr	r3, [r7, #24]
 1384 005a 022B     		cmp	r3, #2
 1385 005c 01D1     		bne	.L74
1110:Generated_Source\PSoC4/Capsense.c ****         {
ARM GAS  C:\Users\ROUSSMA\AppData\Local\Temp\ccTx5OE8.s 			page 45


1111:Generated_Source\PSoC4/Capsense.c ****             sensorState = (uint32)Capsense__GROUND;
 1386              		.loc 1 1111 0
 1387 005e 0023     		movs	r3, #0
 1388 0060 BB61     		str	r3, [r7, #24]
 1389              	.L74:
1112:Generated_Source\PSoC4/Capsense.c ****         }
1113:Generated_Source\PSoC4/Capsense.c ****     #endif /* (Capsense_IS_SHIELD_ENABLE) */
1114:Generated_Source\PSoC4/Capsense.c ****         if(sensorState != (uint32)Capsense__HIZ_ANALOG)
 1390              		.loc 1 1114 0
 1391 0062 BB69     		ldr	r3, [r7, #24]
 1392 0064 012B     		cmp	r3, #1
 1393 0066 01D0     		beq	.L75
1115:Generated_Source\PSoC4/Capsense.c ****         {
1116:Generated_Source\PSoC4/Capsense.c ****             /* Connected to Ground */
1117:Generated_Source\PSoC4/Capsense.c ****             inactiveConnect = (uint32)Capsense_SNS_GROUND_CONNECT;
 1394              		.loc 1 1117 0
 1395 0068 0623     		movs	r3, #6
 1396 006a FB61     		str	r3, [r7, #28]
 1397              	.L75:
1118:Generated_Source\PSoC4/Capsense.c ****         }
1119:Generated_Source\PSoC4/Capsense.c **** 
1120:Generated_Source\PSoC4/Capsense.c ****         interruptState = CyEnterCriticalSection();
 1398              		.loc 1 1120 0
 1399 006c 1123     		movs	r3, #17
 1400 006e FC18     		adds	r4, r7, r3
 1401 0070 FFF7FEFF 		bl	CyEnterCriticalSection
 1402 0074 0300     		movs	r3, r0
 1403 0076 2370     		strb	r3, [r4]
1121:Generated_Source\PSoC4/Capsense.c **** 
1122:Generated_Source\PSoC4/Capsense.c ****         /* Set drive mode */
1123:Generated_Source\PSoC4/Capsense.c ****         newRegisterValue = *Capsense_prtCfgTbl[port];
 1404              		.loc 1 1123 0
 1405 0078 1E4B     		ldr	r3, .L76+8
 1406 007a 7A69     		ldr	r2, [r7, #20]
 1407 007c 9200     		lsls	r2, r2, #2
 1408 007e D358     		ldr	r3, [r2, r3]
 1409 0080 1B68     		ldr	r3, [r3]
 1410 0082 FB60     		str	r3, [r7, #12]
1124:Generated_Source\PSoC4/Capsense.c ****         newRegisterValue &= ~(Capsense_CSD_PIN_MODE_MASK << pinModeShift);
 1411              		.loc 1 1124 0
 1412 0084 1223     		movs	r3, #18
 1413 0086 FB18     		adds	r3, r7, r3
 1414 0088 1B78     		ldrb	r3, [r3]
 1415 008a 0722     		movs	r2, #7
 1416 008c 9A40     		lsls	r2, r2, r3
 1417 008e 1300     		movs	r3, r2
 1418 0090 DA43     		mvns	r2, r3
 1419 0092 FB68     		ldr	r3, [r7, #12]
 1420 0094 1340     		ands	r3, r2
 1421 0096 FB60     		str	r3, [r7, #12]
1125:Generated_Source\PSoC4/Capsense.c ****         newRegisterValue |=  (uint32)(inactiveConnect << pinModeShift);
 1422              		.loc 1 1125 0
 1423 0098 1223     		movs	r3, #18
 1424 009a FB18     		adds	r3, r7, r3
 1425 009c 1B78     		ldrb	r3, [r3]
 1426 009e FA69     		ldr	r2, [r7, #28]
 1427 00a0 9A40     		lsls	r2, r2, r3
ARM GAS  C:\Users\ROUSSMA\AppData\Local\Temp\ccTx5OE8.s 			page 46


 1428 00a2 1300     		movs	r3, r2
 1429 00a4 FA68     		ldr	r2, [r7, #12]
 1430 00a6 1343     		orrs	r3, r2
 1431 00a8 FB60     		str	r3, [r7, #12]
1126:Generated_Source\PSoC4/Capsense.c ****         *Capsense_prtCfgTbl[port] =  newRegisterValue;
 1432              		.loc 1 1126 0
 1433 00aa 124B     		ldr	r3, .L76+8
 1434 00ac 7A69     		ldr	r2, [r7, #20]
 1435 00ae 9200     		lsls	r2, r2, #2
 1436 00b0 D358     		ldr	r3, [r2, r3]
 1437 00b2 FA68     		ldr	r2, [r7, #12]
 1438 00b4 1A60     		str	r2, [r3]
1127:Generated_Source\PSoC4/Capsense.c **** 
1128:Generated_Source\PSoC4/Capsense.c ****         CyExitCriticalSection(interruptState);
 1439              		.loc 1 1128 0
 1440 00b6 1123     		movs	r3, #17
 1441 00b8 FB18     		adds	r3, r7, r3
 1442 00ba 1B78     		ldrb	r3, [r3]
 1443 00bc 1800     		movs	r0, r3
 1444 00be FFF7FEFF 		bl	CyExitCriticalSection
1129:Generated_Source\PSoC4/Capsense.c **** 
1130:Generated_Source\PSoC4/Capsense.c ****         *Capsense_prtDRTbl[port]  &=  (uint32)~(uint32)((uint32)1u << Capsense_pinShiftTbl[sensor])
 1445              		.loc 1 1130 0
 1446 00c2 0D4B     		ldr	r3, .L76+12
 1447 00c4 7A69     		ldr	r2, [r7, #20]
 1448 00c6 9200     		lsls	r2, r2, #2
 1449 00c8 D358     		ldr	r3, [r2, r3]
 1450 00ca 0B4A     		ldr	r2, .L76+12
 1451 00cc 7969     		ldr	r1, [r7, #20]
 1452 00ce 8900     		lsls	r1, r1, #2
 1453 00d0 8A58     		ldr	r2, [r1, r2]
 1454 00d2 1268     		ldr	r2, [r2]
 1455 00d4 0121     		movs	r1, #1
 1456 00d6 0800     		movs	r0, r1
 1457 00d8 0121     		movs	r1, #1
 1458 00da 8140     		lsls	r1, r1, r0
 1459 00dc C943     		mvns	r1, r1
 1460 00de 0A40     		ands	r2, r1
 1461 00e0 1A60     		str	r2, [r3]
1131:Generated_Source\PSoC4/Capsense.c ****     #if(Capsense_IS_SHIELD_ENABLE != 0)
1132:Generated_Source\PSoC4/Capsense.c ****     }
1133:Generated_Source\PSoC4/Capsense.c ****     else
1134:Generated_Source\PSoC4/Capsense.c ****     {
1135:Generated_Source\PSoC4/Capsense.c ****         /* Connect to Shield */
1136:Generated_Source\PSoC4/Capsense.c ****         *Capsense_prtSelTbl[port] |= (Capsense_CSD_SHIELD_PORT_MODE << pinHSIOMShift);
1137:Generated_Source\PSoC4/Capsense.c ****     }
1138:Generated_Source\PSoC4/Capsense.c ****     #endif /* (Capsense_IS_SHIELD_ENABLE) */
1139:Generated_Source\PSoC4/Capsense.c **** }
 1462              		.loc 1 1139 0
 1463 00e2 C046     		nop
 1464 00e4 BD46     		mov	sp, r7
 1465 00e6 09B0     		add	sp, sp, #36
 1466              		@ sp needed
 1467 00e8 90BD     		pop	{r4, r7, pc}
 1468              	.L77:
 1469 00ea C046     		.align	2
 1470              	.L76:
ARM GAS  C:\Users\ROUSSMA\AppData\Local\Temp\ccTx5OE8.s 			page 47


 1471 00ec 00000000 		.word	Capsense_unscannedSnsDriveMode
 1472 00f0 00000000 		.word	Capsense_prtSelTbl
 1473 00f4 00000000 		.word	Capsense_prtCfgTbl
 1474 00f8 00000000 		.word	Capsense_prtDRTbl
 1475              		.cfi_endproc
 1476              	.LFE52:
 1477              		.size	Capsense_DisableSensor, .-Capsense_DisableSensor
 1478              		.section	.text.Capsense_SetDriveModeAllPins,"ax",%progbits
 1479              		.align	2
 1480              		.global	Capsense_SetDriveModeAllPins
 1481              		.code	16
 1482              		.thumb_func
 1483              		.type	Capsense_SetDriveModeAllPins, %function
 1484              	Capsense_SetDriveModeAllPins:
 1485              	.LFB53:
1140:Generated_Source\PSoC4/Capsense.c **** 
1141:Generated_Source\PSoC4/Capsense.c **** 
1142:Generated_Source\PSoC4/Capsense.c **** /*******************************************************************************
1143:Generated_Source\PSoC4/Capsense.c **** * Function Name: Capsense_SetDriveModeAllPins
1144:Generated_Source\PSoC4/Capsense.c **** ********************************************************************************
1145:Generated_Source\PSoC4/Capsense.c **** *
1146:Generated_Source\PSoC4/Capsense.c **** * Summary:
1147:Generated_Source\PSoC4/Capsense.c **** * This API sets the drive mode of port pins used by the CapSense
1148:Generated_Source\PSoC4/Capsense.c **** * component (sensors, guard, shield, shield tank and Cmod) to drive the
1149:Generated_Source\PSoC4/Capsense.c **** * mode specified by the argument.
1150:Generated_Source\PSoC4/Capsense.c **** *
1151:Generated_Source\PSoC4/Capsense.c **** * Parameters:
1152:Generated_Source\PSoC4/Capsense.c **** *  driveMode:  Drive mode definition.
1153:Generated_Source\PSoC4/Capsense.c **** *
1154:Generated_Source\PSoC4/Capsense.c **** * Return:
1155:Generated_Source\PSoC4/Capsense.c **** *  None
1156:Generated_Source\PSoC4/Capsense.c **** *
1157:Generated_Source\PSoC4/Capsense.c **** * Global Variables:
1158:Generated_Source\PSoC4/Capsense.c **** *  Capsense_portTable[] - used to store the port number that pin
1159:Generated_Source\PSoC4/Capsense.c **** *  belongs to for each sensor.
1160:Generated_Source\PSoC4/Capsense.c **** *  Capsense_pinShiftTbl[] - used to store position of pin that
1161:Generated_Source\PSoC4/Capsense.c **** *  configured as a sensor in the port.
1162:Generated_Source\PSoC4/Capsense.c **** *
1163:Generated_Source\PSoC4/Capsense.c **** * Side Effects:
1164:Generated_Source\PSoC4/Capsense.c **** *  This API shall be called only after CapSense component is stopped.
1165:Generated_Source\PSoC4/Capsense.c **** *
1166:Generated_Source\PSoC4/Capsense.c **** *******************************************************************************/
1167:Generated_Source\PSoC4/Capsense.c **** void Capsense_SetDriveModeAllPins(uint32 driveMode)
1168:Generated_Source\PSoC4/Capsense.c **** {
 1486              		.loc 1 1168 0
 1487              		.cfi_startproc
 1488              		@ args = 0, pretend = 0, frame = 24
 1489              		@ frame_needed = 1, uses_anonymous_args = 0
 1490 0000 80B5     		push	{r7, lr}
 1491              		.cfi_def_cfa_offset 8
 1492              		.cfi_offset 7, -8
 1493              		.cfi_offset 14, -4
 1494 0002 86B0     		sub	sp, sp, #24
 1495              		.cfi_def_cfa_offset 32
 1496 0004 00AF     		add	r7, sp, #0
 1497              		.cfi_def_cfa_register 7
 1498 0006 7860     		str	r0, [r7, #4]
ARM GAS  C:\Users\ROUSSMA\AppData\Local\Temp\ccTx5OE8.s 			page 48


1169:Generated_Source\PSoC4/Capsense.c ****     uint8 curSensor;
1170:Generated_Source\PSoC4/Capsense.c ****     #if (Capsense_IS_COMPLEX_SCANSLOTS)
1171:Generated_Source\PSoC4/Capsense.c ****         uint8 snsNumber;
1172:Generated_Source\PSoC4/Capsense.c ****         uint8 snsType;
1173:Generated_Source\PSoC4/Capsense.c ****     #endif  /* Capsense_IS_COMPLEX_SCANSLOTS */
1174:Generated_Source\PSoC4/Capsense.c ****     uint32 prtNumberTmp;
1175:Generated_Source\PSoC4/Capsense.c ****     uint32 pinNumberTmp;
1176:Generated_Source\PSoC4/Capsense.c **** 
1177:Generated_Source\PSoC4/Capsense.c ****     for(curSensor = 0u; curSensor < Capsense_TOTAL_SENSOR_COUNT; curSensor++)
 1499              		.loc 1 1177 0
 1500 0008 1723     		movs	r3, #23
 1501 000a FB18     		adds	r3, r7, r3
 1502 000c 0022     		movs	r2, #0
 1503 000e 1A70     		strb	r2, [r3]
 1504 0010 10E0     		b	.L79
 1505              	.L80:
1178:Generated_Source\PSoC4/Capsense.c ****     {
1179:Generated_Source\PSoC4/Capsense.c ****         #if (Capsense_IS_COMPLEX_SCANSLOTS)
1180:Generated_Source\PSoC4/Capsense.c ****             /* Read sensor type: single or complex */
1181:Generated_Source\PSoC4/Capsense.c ****             snsType = Capsense_portTable[curSensor];
1182:Generated_Source\PSoC4/Capsense.c **** 
1183:Generated_Source\PSoC4/Capsense.c ****             /* Check if sensor is complex */
1184:Generated_Source\PSoC4/Capsense.c ****             if ((snsType & Capsense_COMPLEX_SS_FLAG) == 0u)
1185:Generated_Source\PSoC4/Capsense.c ****             {
1186:Generated_Source\PSoC4/Capsense.c ****                 /* The sensor is not complex */
1187:Generated_Source\PSoC4/Capsense.c ****                 snsNumber = curSensor;
1188:Generated_Source\PSoC4/Capsense.c ****             }
1189:Generated_Source\PSoC4/Capsense.c ****             else
1190:Generated_Source\PSoC4/Capsense.c ****             {
1191:Generated_Source\PSoC4/Capsense.c ****                 /* Get dedicated sensor ID of the complex sensor */
1192:Generated_Source\PSoC4/Capsense.c ****                 snsType &= ~Capsense_COMPLEX_SS_FLAG;
1193:Generated_Source\PSoC4/Capsense.c ****                 snsNumber = Capsense_indexTable[snsType];
1194:Generated_Source\PSoC4/Capsense.c ****             }
1195:Generated_Source\PSoC4/Capsense.c **** 
1196:Generated_Source\PSoC4/Capsense.c ****             prtNumberTmp = Capsense_portTable[snsNumber];
1197:Generated_Source\PSoC4/Capsense.c ****             pinNumberTmp = Capsense_pinShiftTbl[snsNumber];
1198:Generated_Source\PSoC4/Capsense.c ****         #else
1199:Generated_Source\PSoC4/Capsense.c ****             prtNumberTmp = Capsense_portTable[curSensor];
 1506              		.loc 1 1199 0 discriminator 3
 1507 0012 0223     		movs	r3, #2
 1508 0014 3B61     		str	r3, [r7, #16]
1200:Generated_Source\PSoC4/Capsense.c ****             pinNumberTmp = Capsense_pinShiftTbl[curSensor];
 1509              		.loc 1 1200 0 discriminator 3
 1510 0016 0123     		movs	r3, #1
 1511 0018 FB60     		str	r3, [r7, #12]
1201:Generated_Source\PSoC4/Capsense.c ****         #endif  /* Capsense_IS_COMPLEX_SCANSLOTS */
1202:Generated_Source\PSoC4/Capsense.c **** 
1203:Generated_Source\PSoC4/Capsense.c ****         Capsense_SetPinDriveMode(driveMode, pinNumberTmp, prtNumberTmp);
 1512              		.loc 1 1203 0 discriminator 3
 1513 001a 3A69     		ldr	r2, [r7, #16]
 1514 001c F968     		ldr	r1, [r7, #12]
 1515 001e 7B68     		ldr	r3, [r7, #4]
 1516 0020 1800     		movs	r0, r3
 1517 0022 FFF7FEFF 		bl	Capsense_SetPinDriveMode
1177:Generated_Source\PSoC4/Capsense.c ****     {
 1518              		.loc 1 1177 0 discriminator 3
 1519 0026 1723     		movs	r3, #23
ARM GAS  C:\Users\ROUSSMA\AppData\Local\Temp\ccTx5OE8.s 			page 49


 1520 0028 FB18     		adds	r3, r7, r3
 1521 002a 1A78     		ldrb	r2, [r3]
 1522 002c 1723     		movs	r3, #23
 1523 002e FB18     		adds	r3, r7, r3
 1524 0030 0132     		adds	r2, r2, #1
 1525 0032 1A70     		strb	r2, [r3]
 1526              	.L79:
1177:Generated_Source\PSoC4/Capsense.c ****     {
 1527              		.loc 1 1177 0 is_stmt 0 discriminator 1
 1528 0034 1723     		movs	r3, #23
 1529 0036 FB18     		adds	r3, r7, r3
 1530 0038 1B78     		ldrb	r3, [r3]
 1531 003a 002B     		cmp	r3, #0
 1532 003c E9D0     		beq	.L80
1204:Generated_Source\PSoC4/Capsense.c ****     }
1205:Generated_Source\PSoC4/Capsense.c **** 
1206:Generated_Source\PSoC4/Capsense.c ****     Capsense_SetPinDriveMode(driveMode, (uint32)Capsense_CMOD_PIN_NUMBER, (uint32)Capsense_CMOD_PRT
 1533              		.loc 1 1206 0 is_stmt 1
 1534 003e 7B68     		ldr	r3, [r7, #4]
 1535 0040 0422     		movs	r2, #4
 1536 0042 0021     		movs	r1, #0
 1537 0044 1800     		movs	r0, r3
 1538 0046 FFF7FEFF 		bl	Capsense_SetPinDriveMode
1207:Generated_Source\PSoC4/Capsense.c **** 
1208:Generated_Source\PSoC4/Capsense.c ****     #if(0u != Capsense_CSH_TANK_ENABLE)
1209:Generated_Source\PSoC4/Capsense.c ****         Capsense_SetPinDriveMode(driveMode, (uint32)Capsense_CTANK_PIN_NUMBER, (uint32)Capsense_CTA
1210:Generated_Source\PSoC4/Capsense.c ****     #endif /* (0u != Capsense_CSH_TANK_ENABLE) */
1211:Generated_Source\PSoC4/Capsense.c **** 
1212:Generated_Source\PSoC4/Capsense.c ****     #if(0u != Capsense_IS_SHIELD_ENABLE)
1213:Generated_Source\PSoC4/Capsense.c ****         Capsense_SetPinDriveMode(driveMode, (uint32)Capsense_SHIELD_PIN_NUMBER, (uint32)Capsense_SH
1214:Generated_Source\PSoC4/Capsense.c ****     #endif /* (0u != Capsense_IS_SHIELD_ENABLE) */
1215:Generated_Source\PSoC4/Capsense.c **** }
 1539              		.loc 1 1215 0
 1540 004a C046     		nop
 1541 004c BD46     		mov	sp, r7
 1542 004e 06B0     		add	sp, sp, #24
 1543              		@ sp needed
 1544 0050 80BD     		pop	{r7, pc}
 1545              		.cfi_endproc
 1546              	.LFE53:
 1547              		.size	Capsense_SetDriveModeAllPins, .-Capsense_SetDriveModeAllPins
 1548 0052 C046     		.section	.text.Capsense_RestoreDriveModeAllPins,"ax",%progbits
 1549              		.align	2
 1550              		.global	Capsense_RestoreDriveModeAllPins
 1551              		.code	16
 1552              		.thumb_func
 1553              		.type	Capsense_RestoreDriveModeAllPins, %function
 1554              	Capsense_RestoreDriveModeAllPins:
 1555              	.LFB54:
1216:Generated_Source\PSoC4/Capsense.c **** 
1217:Generated_Source\PSoC4/Capsense.c **** 
1218:Generated_Source\PSoC4/Capsense.c **** /*******************************************************************************
1219:Generated_Source\PSoC4/Capsense.c **** * Function Name: Capsense_RestoreDriveModeAllPins
1220:Generated_Source\PSoC4/Capsense.c **** ********************************************************************************
1221:Generated_Source\PSoC4/Capsense.c **** *
1222:Generated_Source\PSoC4/Capsense.c **** * Summary:
1223:Generated_Source\PSoC4/Capsense.c **** *  This API restores the drive for all the CapSense port pins to the original
ARM GAS  C:\Users\ROUSSMA\AppData\Local\Temp\ccTx5OE8.s 			page 50


1224:Generated_Source\PSoC4/Capsense.c **** *  state.
1225:Generated_Source\PSoC4/Capsense.c **** *
1226:Generated_Source\PSoC4/Capsense.c **** * Parameters:
1227:Generated_Source\PSoC4/Capsense.c **** *  None
1228:Generated_Source\PSoC4/Capsense.c **** *
1229:Generated_Source\PSoC4/Capsense.c **** * Return:
1230:Generated_Source\PSoC4/Capsense.c **** *  None
1231:Generated_Source\PSoC4/Capsense.c **** *
1232:Generated_Source\PSoC4/Capsense.c **** * Global Variables:
1233:Generated_Source\PSoC4/Capsense.c **** *  Capsense_prtSelTbl[] - Contains pointers to the HSIOM
1234:Generated_Source\PSoC4/Capsense.c **** *  registers for each port.
1235:Generated_Source\PSoC4/Capsense.c **** *
1236:Generated_Source\PSoC4/Capsense.c **** * Side Effects:
1237:Generated_Source\PSoC4/Capsense.c **** *  This API is called only after the CapSense component is stopped.
1238:Generated_Source\PSoC4/Capsense.c **** *
1239:Generated_Source\PSoC4/Capsense.c **** *******************************************************************************/
1240:Generated_Source\PSoC4/Capsense.c **** void Capsense_RestoreDriveModeAllPins(void)
1241:Generated_Source\PSoC4/Capsense.c **** {
 1556              		.loc 1 1241 0
 1557              		.cfi_startproc
 1558              		@ args = 0, pretend = 0, frame = 8
 1559              		@ frame_needed = 1, uses_anonymous_args = 0
 1560 0000 80B5     		push	{r7, lr}
 1561              		.cfi_def_cfa_offset 8
 1562              		.cfi_offset 7, -8
 1563              		.cfi_offset 14, -4
 1564 0002 82B0     		sub	sp, sp, #8
 1565              		.cfi_def_cfa_offset 16
 1566 0004 00AF     		add	r7, sp, #0
 1567              		.cfi_def_cfa_register 7
1242:Generated_Source\PSoC4/Capsense.c ****     uint32 newRegisterValue;
1243:Generated_Source\PSoC4/Capsense.c **** 
1244:Generated_Source\PSoC4/Capsense.c ****     Capsense_SetDriveModeAllPins(CY_SYS_PINS_DM_ALG_HIZ);
 1568              		.loc 1 1244 0
 1569 0006 0020     		movs	r0, #0
 1570 0008 FFF7FEFF 		bl	Capsense_SetDriveModeAllPins
1245:Generated_Source\PSoC4/Capsense.c **** 
1246:Generated_Source\PSoC4/Capsense.c ****     newRegisterValue = Capsense_CMOD_CONNECTION_REG;
 1571              		.loc 1 1246 0
 1572 000c 084B     		ldr	r3, .L82
 1573 000e 1B68     		ldr	r3, [r3]
 1574 0010 7B60     		str	r3, [r7, #4]
1247:Generated_Source\PSoC4/Capsense.c ****     newRegisterValue &= ~(Capsense_CSD_CMOD_CONNECTION_MASK);
 1575              		.loc 1 1247 0
 1576 0012 7B68     		ldr	r3, [r7, #4]
 1577 0014 0F22     		movs	r2, #15
 1578 0016 9343     		bics	r3, r2
 1579 0018 7B60     		str	r3, [r7, #4]
1248:Generated_Source\PSoC4/Capsense.c ****     newRegisterValue |= Capsense_CSD_CMOD_TO_AMUXBUS_A;
 1580              		.loc 1 1248 0
 1581 001a 7B68     		ldr	r3, [r7, #4]
 1582 001c 0622     		movs	r2, #6
 1583 001e 1343     		orrs	r3, r2
 1584 0020 7B60     		str	r3, [r7, #4]
1249:Generated_Source\PSoC4/Capsense.c ****     Capsense_CMOD_CONNECTION_REG = newRegisterValue;
 1585              		.loc 1 1249 0
 1586 0022 034B     		ldr	r3, .L82
ARM GAS  C:\Users\ROUSSMA\AppData\Local\Temp\ccTx5OE8.s 			page 51


 1587 0024 7A68     		ldr	r2, [r7, #4]
 1588 0026 1A60     		str	r2, [r3]
1250:Generated_Source\PSoC4/Capsense.c **** 
1251:Generated_Source\PSoC4/Capsense.c ****     #if(0u != Capsense_CSH_TANK_ENABLE)
1252:Generated_Source\PSoC4/Capsense.c ****         newRegisterValue = Capsense_CTANK_CONNECTION_REG;
1253:Generated_Source\PSoC4/Capsense.c ****         newRegisterValue &= ~(Capsense_CSD_CTANK_CONNECTION_MASK);
1254:Generated_Source\PSoC4/Capsense.c ****         newRegisterValue |= Capsense_CSD_CTANK_TO_AMUXBUS_B;
1255:Generated_Source\PSoC4/Capsense.c ****         Capsense_CTANK_CONNECTION_REG = newRegisterValue;
1256:Generated_Source\PSoC4/Capsense.c ****     #endif/* (0u != Capsense_CSH_TANK_ENABLE) */
1257:Generated_Source\PSoC4/Capsense.c **** 
1258:Generated_Source\PSoC4/Capsense.c ****     #if(0u != Capsense_IS_SHIELD_ENABLE)
1259:Generated_Source\PSoC4/Capsense.c ****         newRegisterValue = *Capsense_prtSelTbl[Capsense_SHIELD_PORT_NUMBER];
1260:Generated_Source\PSoC4/Capsense.c ****         newRegisterValue &= ~(Capsense_CSD_HSIOM_MASK << ((uint32)Capsense_SHIELD_PIN_NUMBER * Caps
1261:Generated_Source\PSoC4/Capsense.c ****         newRegisterValue |= (Capsense_CSD_SHIELD_PORT_MODE << ((uint32)Capsense_SHIELD_PIN_NUMBER *
1262:Generated_Source\PSoC4/Capsense.c ****         *Capsense_prtSelTbl[Capsense_SHIELD_PORT_NUMBER] = newRegisterValue;
1263:Generated_Source\PSoC4/Capsense.c ****     #endif /* (0u != Capsense_IS_SHIELD_ENABLE) */
1264:Generated_Source\PSoC4/Capsense.c **** }
 1589              		.loc 1 1264 0
 1590 0028 C046     		nop
 1591 002a BD46     		mov	sp, r7
 1592 002c 02B0     		add	sp, sp, #8
 1593              		@ sp needed
 1594 002e 80BD     		pop	{r7, pc}
 1595              	.L83:
 1596              		.align	2
 1597              	.L82:
 1598 0030 00040240 		.word	1073873920
 1599              		.cfi_endproc
 1600              	.LFE54:
 1601              		.size	Capsense_RestoreDriveModeAllPins, .-Capsense_RestoreDriveModeAllPins
 1602              		.section	.text.Capsense_SetPinDriveMode,"ax",%progbits
 1603              		.align	2
 1604              		.global	Capsense_SetPinDriveMode
 1605              		.code	16
 1606              		.thumb_func
 1607              		.type	Capsense_SetPinDriveMode, %function
 1608              	Capsense_SetPinDriveMode:
 1609              	.LFB55:
1265:Generated_Source\PSoC4/Capsense.c **** 
1266:Generated_Source\PSoC4/Capsense.c **** 
1267:Generated_Source\PSoC4/Capsense.c **** /*******************************************************************************
1268:Generated_Source\PSoC4/Capsense.c **** * Function Name: Capsense_SetPinDriveMode
1269:Generated_Source\PSoC4/Capsense.c **** ********************************************************************************
1270:Generated_Source\PSoC4/Capsense.c **** *
1271:Generated_Source\PSoC4/Capsense.c **** * Summary:
1272:Generated_Source\PSoC4/Capsense.c **** * This API sets the drive mode for the appropriate port/pin.
1273:Generated_Source\PSoC4/Capsense.c **** *
1274:Generated_Source\PSoC4/Capsense.c **** * Parameters:
1275:Generated_Source\PSoC4/Capsense.c **** *  driveMode:  Drive mode definition.
1276:Generated_Source\PSoC4/Capsense.c **** *  portNumber: contains port number (0, 1, 2).
1277:Generated_Source\PSoC4/Capsense.c **** *  pinNumber: contains pin number (0, 1, 2, ... , 7).
1278:Generated_Source\PSoC4/Capsense.c **** *
1279:Generated_Source\PSoC4/Capsense.c **** * Return:
1280:Generated_Source\PSoC4/Capsense.c **** *  None
1281:Generated_Source\PSoC4/Capsense.c **** *
1282:Generated_Source\PSoC4/Capsense.c **** * Global Variables:
1283:Generated_Source\PSoC4/Capsense.c **** *  Capsense_prtSelTbl[] - Contains pointers to the HSIOM
ARM GAS  C:\Users\ROUSSMA\AppData\Local\Temp\ccTx5OE8.s 			page 52


1284:Generated_Source\PSoC4/Capsense.c **** *  registers for each port.
1285:Generated_Source\PSoC4/Capsense.c **** *  Capsense_prtCfgTb[] - Contains pointers to the port config
1286:Generated_Source\PSoC4/Capsense.c **** *  registers for each port.
1287:Generated_Source\PSoC4/Capsense.c **** *
1288:Generated_Source\PSoC4/Capsense.c **** * Side Effects:
1289:Generated_Source\PSoC4/Capsense.c **** *  This API is called only after CapSense component is stopped.
1290:Generated_Source\PSoC4/Capsense.c **** *
1291:Generated_Source\PSoC4/Capsense.c **** *******************************************************************************/
1292:Generated_Source\PSoC4/Capsense.c **** void Capsense_SetPinDriveMode(uint32 driveMode, uint32 pinNumber, uint32 portNumber)
1293:Generated_Source\PSoC4/Capsense.c **** {
 1610              		.loc 1 1293 0
 1611              		.cfi_startproc
 1612              		@ args = 0, pretend = 0, frame = 24
 1613              		@ frame_needed = 1, uses_anonymous_args = 0
 1614 0000 80B5     		push	{r7, lr}
 1615              		.cfi_def_cfa_offset 8
 1616              		.cfi_offset 7, -8
 1617              		.cfi_offset 14, -4
 1618 0002 86B0     		sub	sp, sp, #24
 1619              		.cfi_def_cfa_offset 32
 1620 0004 00AF     		add	r7, sp, #0
 1621              		.cfi_def_cfa_register 7
 1622 0006 F860     		str	r0, [r7, #12]
 1623 0008 B960     		str	r1, [r7, #8]
 1624 000a 7A60     		str	r2, [r7, #4]
1294:Generated_Source\PSoC4/Capsense.c ****     uint32  pinModeShift;
1295:Generated_Source\PSoC4/Capsense.c ****     uint32 newRegisterValue;
1296:Generated_Source\PSoC4/Capsense.c **** 
1297:Generated_Source\PSoC4/Capsense.c ****     pinModeShift  = pinNumber * Capsense_PC_PIN_CFG_SIZE;
 1625              		.loc 1 1297 0
 1626 000c BA68     		ldr	r2, [r7, #8]
 1627 000e 1300     		movs	r3, r2
 1628 0010 5B00     		lsls	r3, r3, #1
 1629 0012 9B18     		adds	r3, r3, r2
 1630 0014 7B61     		str	r3, [r7, #20]
1298:Generated_Source\PSoC4/Capsense.c **** 
1299:Generated_Source\PSoC4/Capsense.c ****     newRegisterValue = *Capsense_prtCfgTbl[portNumber];
 1631              		.loc 1 1299 0
 1632 0016 0F4B     		ldr	r3, .L85
 1633 0018 7A68     		ldr	r2, [r7, #4]
 1634 001a 9200     		lsls	r2, r2, #2
 1635 001c D358     		ldr	r3, [r2, r3]
 1636 001e 1B68     		ldr	r3, [r3]
 1637 0020 3B61     		str	r3, [r7, #16]
1300:Generated_Source\PSoC4/Capsense.c ****     newRegisterValue &= ~(Capsense_CSD_PIN_MODE_MASK << pinModeShift);
 1638              		.loc 1 1300 0
 1639 0022 0722     		movs	r2, #7
 1640 0024 7B69     		ldr	r3, [r7, #20]
 1641 0026 9A40     		lsls	r2, r2, r3
 1642 0028 1300     		movs	r3, r2
 1643 002a DA43     		mvns	r2, r3
 1644 002c 3B69     		ldr	r3, [r7, #16]
 1645 002e 1340     		ands	r3, r2
 1646 0030 3B61     		str	r3, [r7, #16]
1301:Generated_Source\PSoC4/Capsense.c ****     newRegisterValue |=  (uint32)((uint32)driveMode << pinModeShift);
 1647              		.loc 1 1301 0
 1648 0032 FA68     		ldr	r2, [r7, #12]
ARM GAS  C:\Users\ROUSSMA\AppData\Local\Temp\ccTx5OE8.s 			page 53


 1649 0034 7B69     		ldr	r3, [r7, #20]
 1650 0036 9A40     		lsls	r2, r2, r3
 1651 0038 1300     		movs	r3, r2
 1652 003a 3A69     		ldr	r2, [r7, #16]
 1653 003c 1343     		orrs	r3, r2
 1654 003e 3B61     		str	r3, [r7, #16]
1302:Generated_Source\PSoC4/Capsense.c ****     *Capsense_prtCfgTbl[portNumber] =  newRegisterValue;
 1655              		.loc 1 1302 0
 1656 0040 044B     		ldr	r3, .L85
 1657 0042 7A68     		ldr	r2, [r7, #4]
 1658 0044 9200     		lsls	r2, r2, #2
 1659 0046 D358     		ldr	r3, [r2, r3]
 1660 0048 3A69     		ldr	r2, [r7, #16]
 1661 004a 1A60     		str	r2, [r3]
1303:Generated_Source\PSoC4/Capsense.c **** }
 1662              		.loc 1 1303 0
 1663 004c C046     		nop
 1664 004e BD46     		mov	sp, r7
 1665 0050 06B0     		add	sp, sp, #24
 1666              		@ sp needed
 1667 0052 80BD     		pop	{r7, pc}
 1668              	.L86:
 1669              		.align	2
 1670              	.L85:
 1671 0054 00000000 		.word	Capsense_prtCfgTbl
 1672              		.cfi_endproc
 1673              	.LFE55:
 1674              		.size	Capsense_SetPinDriveMode, .-Capsense_SetPinDriveMode
 1675              		.section	.text.Capsense_PreScan,"ax",%progbits
 1676              		.align	2
 1677              		.global	Capsense_PreScan
 1678              		.code	16
 1679              		.thumb_func
 1680              		.type	Capsense_PreScan, %function
 1681              	Capsense_PreScan:
 1682              	.LFB56:
1304:Generated_Source\PSoC4/Capsense.c **** 
1305:Generated_Source\PSoC4/Capsense.c **** 
1306:Generated_Source\PSoC4/Capsense.c **** /*******************************************************************************
1307:Generated_Source\PSoC4/Capsense.c **** * Function Name: Capsense_PreScan
1308:Generated_Source\PSoC4/Capsense.c **** ********************************************************************************
1309:Generated_Source\PSoC4/Capsense.c **** *
1310:Generated_Source\PSoC4/Capsense.c **** * Summary:
1311:Generated_Source\PSoC4/Capsense.c **** *  Sets required settings, enables a sensor, removes Vref from AMUX and starts the
1312:Generated_Source\PSoC4/Capsense.c **** *  scanning process of the sensor.
1313:Generated_Source\PSoC4/Capsense.c **** *
1314:Generated_Source\PSoC4/Capsense.c **** * Parameters:
1315:Generated_Source\PSoC4/Capsense.c **** *  sensor:  Sensor number.
1316:Generated_Source\PSoC4/Capsense.c **** *
1317:Generated_Source\PSoC4/Capsense.c **** * Return:
1318:Generated_Source\PSoC4/Capsense.c **** *  None
1319:Generated_Source\PSoC4/Capsense.c **** *
1320:Generated_Source\PSoC4/Capsense.c **** * Global Variables:
1321:Generated_Source\PSoC4/Capsense.c **** * Capsense_widgetNumber[] - This array contains numbers of widgets for each sensor.
1322:Generated_Source\PSoC4/Capsense.c **** * Capsense_widgetResolution[] - Contains the widget resolution.
1323:Generated_Source\PSoC4/Capsense.c **** *
1324:Generated_Source\PSoC4/Capsense.c **** * Side Effects:
ARM GAS  C:\Users\ROUSSMA\AppData\Local\Temp\ccTx5OE8.s 			page 54


1325:Generated_Source\PSoC4/Capsense.c **** *  None
1326:Generated_Source\PSoC4/Capsense.c **** *
1327:Generated_Source\PSoC4/Capsense.c **** *******************************************************************************/
1328:Generated_Source\PSoC4/Capsense.c **** void Capsense_PreScan(uint32 sensor)
1329:Generated_Source\PSoC4/Capsense.c **** {
 1683              		.loc 1 1329 0
 1684              		.cfi_startproc
 1685              		@ args = 0, pretend = 0, frame = 24
 1686              		@ frame_needed = 1, uses_anonymous_args = 0
 1687 0000 90B5     		push	{r4, r7, lr}
 1688              		.cfi_def_cfa_offset 12
 1689              		.cfi_offset 4, -12
 1690              		.cfi_offset 7, -8
 1691              		.cfi_offset 14, -4
 1692 0002 87B0     		sub	sp, sp, #28
 1693              		.cfi_def_cfa_offset 40
 1694 0004 00AF     		add	r7, sp, #0
 1695              		.cfi_def_cfa_register 7
 1696 0006 7860     		str	r0, [r7, #4]
1330:Generated_Source\PSoC4/Capsense.c ****     uint8 widget;
1331:Generated_Source\PSoC4/Capsense.c ****     uint8 interruptState;
1332:Generated_Source\PSoC4/Capsense.c ****     uint32 newRegValue;
1333:Generated_Source\PSoC4/Capsense.c ****     uint32 counterResolution;
1334:Generated_Source\PSoC4/Capsense.c **** 
1335:Generated_Source\PSoC4/Capsense.c ****     #if(Capsense_PRS_OPTIONS == Capsense__PRS_AUTO)
1336:Generated_Source\PSoC4/Capsense.c ****         uint8 senseClkDivMath;
1337:Generated_Source\PSoC4/Capsense.c ****         uint8 sampleClkDivMath;
1338:Generated_Source\PSoC4/Capsense.c ****     #endif /* (Capsense_PRS_OPTIONS == Capsense__PRS_AUTO) */
1339:Generated_Source\PSoC4/Capsense.c **** 
1340:Generated_Source\PSoC4/Capsense.c ****     #if ((Capsense_TUNING_METHOD == Capsense__TUNING_AUTO) &&\
1341:Generated_Source\PSoC4/Capsense.c ****          (0 != Capsense_IS_OVERSAMPLING_EN))
1342:Generated_Source\PSoC4/Capsense.c ****         uint32 oversamplingFactor;
1343:Generated_Source\PSoC4/Capsense.c ****     #endif /* ((Capsense_TUNING_METHOD == Capsense__TUNING_AUTO) &&\
1344:Generated_Source\PSoC4/Capsense.c ****                (0 != Capsense_IS_OVERSAMPLING_EN)) */
1345:Generated_Source\PSoC4/Capsense.c **** 
1346:Generated_Source\PSoC4/Capsense.c ****     /* Define widget sensor belongs to */
1347:Generated_Source\PSoC4/Capsense.c ****     widget = Capsense_widgetNumber[sensor];
 1697              		.loc 1 1347 0
 1698 0008 1723     		movs	r3, #23
 1699 000a FB18     		adds	r3, r7, r3
 1700 000c 0022     		movs	r2, #0
 1701 000e 1A70     		strb	r2, [r3]
1348:Generated_Source\PSoC4/Capsense.c **** 
1349:Generated_Source\PSoC4/Capsense.c ****     /* Recalculate Counter Resolution to MSB 16 bits */
1350:Generated_Source\PSoC4/Capsense.c ****     counterResolution = Capsense_widgetResolution[widget];
 1702              		.loc 1 1350 0
 1703 0010 1723     		movs	r3, #23
 1704 0012 FB18     		adds	r3, r7, r3
 1705 0014 1A78     		ldrb	r2, [r3]
 1706 0016 404B     		ldr	r3, .L89
 1707 0018 9200     		lsls	r2, r2, #2
 1708 001a D358     		ldr	r3, [r2, r3]
 1709 001c 3B61     		str	r3, [r7, #16]
1351:Generated_Source\PSoC4/Capsense.c **** 
1352:Generated_Source\PSoC4/Capsense.c ****     #if ((Capsense_TUNING_METHOD == Capsense__TUNING_AUTO) &&\
1353:Generated_Source\PSoC4/Capsense.c ****          (0 != Capsense_IS_OVERSAMPLING_EN))
1354:Generated_Source\PSoC4/Capsense.c ****         oversamplingFactor = Capsense_GetBitValue(Capsense_scanSpeedTbl, sensor);
ARM GAS  C:\Users\ROUSSMA\AppData\Local\Temp\ccTx5OE8.s 			page 55


1355:Generated_Source\PSoC4/Capsense.c **** 
1356:Generated_Source\PSoC4/Capsense.c ****         if(counterResolution < Capsense_RESOLUTION_16_BITS)
1357:Generated_Source\PSoC4/Capsense.c ****         {
1358:Generated_Source\PSoC4/Capsense.c ****             counterResolution <<= oversamplingFactor;
1359:Generated_Source\PSoC4/Capsense.c ****             counterResolution |= (uint32)(Capsense_RESOLUTION_8_BITS);
1360:Generated_Source\PSoC4/Capsense.c ****         }
1361:Generated_Source\PSoC4/Capsense.c ****     #endif /* ((Capsense_TUNING_METHOD == Capsense__TUNING_AUTO) &&\
1362:Generated_Source\PSoC4/Capsense.c ****                (0 != Capsense_IS_OVERSAMPLING_EN)) */
1363:Generated_Source\PSoC4/Capsense.c **** 
1364:Generated_Source\PSoC4/Capsense.c ****     #if (0u != Capsense_IS_M0S8PERI_BLOCK)
1365:Generated_Source\PSoC4/Capsense.c ****         Capsense_SenseClk_Stop();
 1710              		.loc 1 1365 0
 1711 001e FFF7FEFF 		bl	Capsense_SenseClk_Stop
1366:Generated_Source\PSoC4/Capsense.c ****         Capsense_SampleClk_Stop();
 1712              		.loc 1 1366 0
 1713 0022 FFF7FEFF 		bl	Capsense_SampleClk_Stop
1367:Generated_Source\PSoC4/Capsense.c ****     #endif /* (0u != Capsense_IS_M0S8PERI_BLOCK) */
1368:Generated_Source\PSoC4/Capsense.c **** 
1369:Generated_Source\PSoC4/Capsense.c ****     #if (0u != Capsense_MULTIPLE_FREQUENCY_SET)
1370:Generated_Source\PSoC4/Capsense.c ****         Capsense_SampleClk_SetDividerValue((uint16)Capsense_sampleClkDividerVal[sensor]);
 1714              		.loc 1 1370 0
 1715 0026 3D4A     		ldr	r2, .L89+4
 1716 0028 7B68     		ldr	r3, [r7, #4]
 1717 002a D318     		adds	r3, r2, r3
 1718 002c 1B78     		ldrb	r3, [r3]
 1719 002e 9BB2     		uxth	r3, r3
 1720 0030 013B     		subs	r3, r3, #1
 1721 0032 9BB2     		uxth	r3, r3
 1722 0034 0021     		movs	r1, #0
 1723 0036 1800     		movs	r0, r3
 1724 0038 FFF7FEFF 		bl	Capsense_SampleClk_SetFractionalDividerRegister
1371:Generated_Source\PSoC4/Capsense.c ****         Capsense_SenseClk_SetDividerValue((uint16)Capsense_senseClkDividerVal[sensor]);
 1725              		.loc 1 1371 0
 1726 003c 384A     		ldr	r2, .L89+8
 1727 003e 7B68     		ldr	r3, [r7, #4]
 1728 0040 D318     		adds	r3, r2, r3
 1729 0042 1B78     		ldrb	r3, [r3]
 1730 0044 9BB2     		uxth	r3, r3
 1731 0046 013B     		subs	r3, r3, #1
 1732 0048 9BB2     		uxth	r3, r3
 1733 004a 0021     		movs	r1, #0
 1734 004c 1800     		movs	r0, r3
 1735 004e FFF7FEFF 		bl	Capsense_SenseClk_SetFractionalDividerRegister
1372:Generated_Source\PSoC4/Capsense.c ****     #else
1373:Generated_Source\PSoC4/Capsense.c ****         Capsense_SampleClk_SetDividerValue((uint16)Capsense_sampleClkDividerVal);
1374:Generated_Source\PSoC4/Capsense.c ****         Capsense_SenseClk_SetDividerValue((uint16)Capsense_senseClkDividerVal);
1375:Generated_Source\PSoC4/Capsense.c ****     #endif /* (0u != Capsense_MULTIPLE_FREQUENCY_SET) */
1376:Generated_Source\PSoC4/Capsense.c **** 
1377:Generated_Source\PSoC4/Capsense.c ****     #if (0u != Capsense_IS_M0S8PERI_BLOCK)
1378:Generated_Source\PSoC4/Capsense.c ****         Capsense_SampleClk_Start();
 1736              		.loc 1 1378 0
 1737 0052 FF20     		movs	r0, #255
 1738 0054 FFF7FEFF 		bl	Capsense_SampleClk_StartEx
1379:Generated_Source\PSoC4/Capsense.c ****         Capsense_SenseClk_StartEx(Capsense_SampleClk__DIV_ID);
 1739              		.loc 1 1379 0
 1740 0058 4020     		movs	r0, #64
 1741 005a FFF7FEFF 		bl	Capsense_SenseClk_StartEx
ARM GAS  C:\Users\ROUSSMA\AppData\Local\Temp\ccTx5OE8.s 			page 56


1380:Generated_Source\PSoC4/Capsense.c **** 
1381:Generated_Source\PSoC4/Capsense.c ****         #if(Capsense_PRS_OPTIONS == Capsense__PRS_NONE)
1382:Generated_Source\PSoC4/Capsense.c ****             CyIntDisable(Capsense_ISR_NUMBER);
 1742              		.loc 1 1382 0
 1743 005e 1020     		movs	r0, #16
 1744 0060 FFF7FEFF 		bl	CyIntDisable
1383:Generated_Source\PSoC4/Capsense.c ****             Capsense_CSD_CNT_REG = Capsense_ONE_CYCLE;
 1745              		.loc 1 1383 0
 1746 0064 2F4B     		ldr	r3, .L89+12
 1747 0066 8022     		movs	r2, #128
 1748 0068 5202     		lsls	r2, r2, #9
 1749 006a 1A60     		str	r2, [r3]
1384:Generated_Source\PSoC4/Capsense.c ****             while(0u != (Capsense_CSD_CNT_REG & Capsense_RESOLUTION_16_BITS))
 1750              		.loc 1 1384 0
 1751 006c C046     		nop
 1752              	.L88:
 1753              		.loc 1 1384 0 is_stmt 0 discriminator 1
 1754 006e 2D4B     		ldr	r3, .L89+12
 1755 0070 1B68     		ldr	r3, [r3]
 1756 0072 1B0C     		lsrs	r3, r3, #16
 1757 0074 1B04     		lsls	r3, r3, #16
 1758 0076 FAD1     		bne	.L88
1385:Generated_Source\PSoC4/Capsense.c ****             {
1386:Generated_Source\PSoC4/Capsense.c ****             /* Wait until scanning is complete */
1387:Generated_Source\PSoC4/Capsense.c ****             }
1388:Generated_Source\PSoC4/Capsense.c ****             Capsense_CSD_INTR_REG = 1u;
 1759              		.loc 1 1388 0 is_stmt 1
 1760 0078 2B4B     		ldr	r3, .L89+16
 1761 007a 0122     		movs	r2, #1
 1762 007c 1A60     		str	r2, [r3]
1389:Generated_Source\PSoC4/Capsense.c ****             CyIntClearPending(Capsense_ISR_NUMBER);
 1763              		.loc 1 1389 0
 1764 007e 1020     		movs	r0, #16
 1765 0080 FFF7FEFF 		bl	CyIntClearPending
1390:Generated_Source\PSoC4/Capsense.c ****             CyIntEnable(Capsense_ISR_NUMBER);
 1766              		.loc 1 1390 0
 1767 0084 1020     		movs	r0, #16
 1768 0086 FFF7FEFF 		bl	CyIntEnable
1391:Generated_Source\PSoC4/Capsense.c ****         #endif /* Capsense_PRS_OPTIONS == Capsense__PRS_NONE */
1392:Generated_Source\PSoC4/Capsense.c ****     #endif /* (0u != Capsense_IS_M0S8PERI_BLOCK) */
1393:Generated_Source\PSoC4/Capsense.c **** 
1394:Generated_Source\PSoC4/Capsense.c **** #if(Capsense_PRS_OPTIONS != Capsense__PRS_NONE)
1395:Generated_Source\PSoC4/Capsense.c **** 
1396:Generated_Source\PSoC4/Capsense.c ****     #if(Capsense_TUNING_METHOD == Capsense__TUNING_AUTO)
1397:Generated_Source\PSoC4/Capsense.c ****         if(Capsense_prescalersTuningDone != 0u)
1398:Generated_Source\PSoC4/Capsense.c ****         {
1399:Generated_Source\PSoC4/Capsense.c ****     #endif /* (Capsense_TUNING_METHOD == Capsense__TUNING_AUTO) */
1400:Generated_Source\PSoC4/Capsense.c **** 
1401:Generated_Source\PSoC4/Capsense.c ****             CyIntDisable(Capsense_ISR_NUMBER);
1402:Generated_Source\PSoC4/Capsense.c **** 
1403:Generated_Source\PSoC4/Capsense.c ****             newRegValue = Capsense_CSD_CFG_REG;
1404:Generated_Source\PSoC4/Capsense.c ****             newRegValue |= Capsense_CSD_CFG_PRS_SELECT;
1405:Generated_Source\PSoC4/Capsense.c **** 
1406:Generated_Source\PSoC4/Capsense.c ****             #if(Capsense_PRS_OPTIONS == Capsense__PRS_AUTO)
1407:Generated_Source\PSoC4/Capsense.c **** 
1408:Generated_Source\PSoC4/Capsense.c ****                 newRegValue &= ~(Capsense_PRS_MODE_MASK);
1409:Generated_Source\PSoC4/Capsense.c **** 
ARM GAS  C:\Users\ROUSSMA\AppData\Local\Temp\ccTx5OE8.s 			page 57


1410:Generated_Source\PSoC4/Capsense.c ****                 #if (0u != Capsense_MULTIPLE_FREQUENCY_SET)
1411:Generated_Source\PSoC4/Capsense.c ****                     senseClkDivMath = Capsense_senseClkDividerVal[sensor];
1412:Generated_Source\PSoC4/Capsense.c ****                     sampleClkDivMath = Capsense_sampleClkDividerVal[sensor];
1413:Generated_Source\PSoC4/Capsense.c ****                 #else
1414:Generated_Source\PSoC4/Capsense.c ****                     senseClkDivMath = Capsense_senseClkDividerVal;
1415:Generated_Source\PSoC4/Capsense.c ****                     sampleClkDivMath = Capsense_sampleClkDividerVal;
1416:Generated_Source\PSoC4/Capsense.c ****                 #endif /* ( Capsense_MULTIPLE_FREQUENCY_SET) */
1417:Generated_Source\PSoC4/Capsense.c **** 
1418:Generated_Source\PSoC4/Capsense.c ****                 #if(0u == Capsense_IS_M0S8PERI_BLOCK)
1419:Generated_Source\PSoC4/Capsense.c ****                     senseClkDivMath *= sampleClkDivMath;
1420:Generated_Source\PSoC4/Capsense.c ****                 #endif /* (0u == Capsense_IS_M0S8PERI_BLOCK) */
1421:Generated_Source\PSoC4/Capsense.c **** 
1422:Generated_Source\PSoC4/Capsense.c ****                 if((senseClkDivMath * Capsense_RESOLUTION_12_BITS) <
1423:Generated_Source\PSoC4/Capsense.c ****                    (sampleClkDivMath * Capsense_widgetResolution[widget]))
1424:Generated_Source\PSoC4/Capsense.c ****                 {
1425:Generated_Source\PSoC4/Capsense.c ****                     newRegValue |= Capsense_CSD_PRS_12_BIT;
1426:Generated_Source\PSoC4/Capsense.c ****                 }
1427:Generated_Source\PSoC4/Capsense.c ****             #endif /* (Capsense_PRS_OPTIONS == Capsense__PRS_AUTO) */
1428:Generated_Source\PSoC4/Capsense.c **** 
1429:Generated_Source\PSoC4/Capsense.c ****             Capsense_CSD_CFG_REG = newRegValue;
1430:Generated_Source\PSoC4/Capsense.c **** 
1431:Generated_Source\PSoC4/Capsense.c ****             CyIntEnable(Capsense_ISR_NUMBER);
1432:Generated_Source\PSoC4/Capsense.c **** 
1433:Generated_Source\PSoC4/Capsense.c ****     #if(Capsense_TUNING_METHOD == Capsense__TUNING_AUTO)
1434:Generated_Source\PSoC4/Capsense.c ****         }
1435:Generated_Source\PSoC4/Capsense.c ****     #endif /* (Capsense_PRS_OPTIONS != Capsense__PRS_NONE) */
1436:Generated_Source\PSoC4/Capsense.c **** 
1437:Generated_Source\PSoC4/Capsense.c **** #endif /* (Capsense_PRS_OPTIONS == Capsense__PRS_NONE) */
1438:Generated_Source\PSoC4/Capsense.c **** 
1439:Generated_Source\PSoC4/Capsense.c ****     /* Set Idac Value */
1440:Generated_Source\PSoC4/Capsense.c ****     CyIntDisable(Capsense_ISR_NUMBER);
 1769              		.loc 1 1440 0
 1770 008a 1020     		movs	r0, #16
 1771 008c FFF7FEFF 		bl	CyIntDisable
1441:Generated_Source\PSoC4/Capsense.c ****     newRegValue = Capsense_CSD_IDAC_REG;
 1772              		.loc 1 1441 0
 1773 0090 264B     		ldr	r3, .L89+20
 1774 0092 1B68     		ldr	r3, [r3]
 1775 0094 FB60     		str	r3, [r7, #12]
1442:Generated_Source\PSoC4/Capsense.c **** 
1443:Generated_Source\PSoC4/Capsense.c **** #if (Capsense_IDAC_CNT == 1u)
1444:Generated_Source\PSoC4/Capsense.c ****     newRegValue &= ~(Capsense_CSD_IDAC1_DATA_MASK);
1445:Generated_Source\PSoC4/Capsense.c ****     newRegValue |= Capsense_modulationIDAC[sensor];
1446:Generated_Source\PSoC4/Capsense.c **** #else
1447:Generated_Source\PSoC4/Capsense.c ****     newRegValue &= ~(Capsense_CSD_IDAC1_DATA_MASK | Capsense_CSD_IDAC2_DATA_MASK);
 1776              		.loc 1 1447 0
 1777 0096 FB68     		ldr	r3, [r7, #12]
 1778 0098 254A     		ldr	r2, .L89+24
 1779 009a 1340     		ands	r3, r2
 1780 009c FB60     		str	r3, [r7, #12]
1448:Generated_Source\PSoC4/Capsense.c ****     newRegValue |= (Capsense_modulationIDAC[sensor] |
 1781              		.loc 1 1448 0
 1782 009e 254A     		ldr	r2, .L89+28
 1783 00a0 7B68     		ldr	r3, [r7, #4]
 1784 00a2 D318     		adds	r3, r2, r3
 1785 00a4 1B78     		ldrb	r3, [r3]
 1786 00a6 1900     		movs	r1, r3
ARM GAS  C:\Users\ROUSSMA\AppData\Local\Temp\ccTx5OE8.s 			page 58


1449:Generated_Source\PSoC4/Capsense.c ****                             (uint32)((uint32)Capsense_compensationIDAC[sensor] <<
 1787              		.loc 1 1449 0
 1788 00a8 234A     		ldr	r2, .L89+32
 1789 00aa 7B68     		ldr	r3, [r7, #4]
 1790 00ac D318     		adds	r3, r2, r3
 1791 00ae 1B78     		ldrb	r3, [r3]
 1792 00b0 1B04     		lsls	r3, r3, #16
1448:Generated_Source\PSoC4/Capsense.c ****     newRegValue |= (Capsense_modulationIDAC[sensor] |
 1793              		.loc 1 1448 0
 1794 00b2 0B43     		orrs	r3, r1
 1795 00b4 FA68     		ldr	r2, [r7, #12]
 1796 00b6 1343     		orrs	r3, r2
 1797 00b8 FB60     		str	r3, [r7, #12]
1450:Generated_Source\PSoC4/Capsense.c ****                             Capsense_CSD_IDAC2_DATA_OFFSET));
1451:Generated_Source\PSoC4/Capsense.c **** #endif /* (Capsense_IDAC_CNT == 1u) */
1452:Generated_Source\PSoC4/Capsense.c **** 
1453:Generated_Source\PSoC4/Capsense.c ****     Capsense_CSD_IDAC_REG = newRegValue;
 1798              		.loc 1 1453 0
 1799 00ba 1C4B     		ldr	r3, .L89+20
 1800 00bc FA68     		ldr	r2, [r7, #12]
 1801 00be 1A60     		str	r2, [r3]
1454:Generated_Source\PSoC4/Capsense.c **** 
1455:Generated_Source\PSoC4/Capsense.c **** #if(Capsense_CMOD_PREGARGE_OPTION == Capsense__CAPPRIOBUF)
1456:Generated_Source\PSoC4/Capsense.c ****     newRegValue = Capsense_CMOD_CONNECTION_REG;
1457:Generated_Source\PSoC4/Capsense.c ****     newRegValue &= ~(Capsense_CSD_CMOD_CONNECTION_MASK);
1458:Generated_Source\PSoC4/Capsense.c ****     newRegValue |= Capsense_CSD_CMOD_TO_AMUXBUS_A;
1459:Generated_Source\PSoC4/Capsense.c ****     Capsense_CMOD_CONNECTION_REG = newRegValue;
1460:Generated_Source\PSoC4/Capsense.c **** 
1461:Generated_Source\PSoC4/Capsense.c ****     newRegValue = Capsense_CMOD_PORT_PC_REG;
1462:Generated_Source\PSoC4/Capsense.c ****     newRegValue &= ~(Capsense_CSD_CMOD_PC_MASK);
1463:Generated_Source\PSoC4/Capsense.c ****     newRegValue |= Capsense_CMOD_PC_HIGH_Z_MODE;
1464:Generated_Source\PSoC4/Capsense.c ****     Capsense_CMOD_PORT_PC_REG = newRegValue;
1465:Generated_Source\PSoC4/Capsense.c **** #endif /* (Capsense_CMOD_PREGARGE_OPTION == Capsense__CAPPRIOBUF) */
1466:Generated_Source\PSoC4/Capsense.c **** 
1467:Generated_Source\PSoC4/Capsense.c ****     /* Disconnect Vref Buffer from AMUX */
1468:Generated_Source\PSoC4/Capsense.c ****     newRegValue = Capsense_CSD_CFG_REG;
 1802              		.loc 1 1468 0
 1803 00c0 1E4B     		ldr	r3, .L89+36
 1804 00c2 1B68     		ldr	r3, [r3]
 1805 00c4 FB60     		str	r3, [r7, #12]
1469:Generated_Source\PSoC4/Capsense.c ****     newRegValue &= ~(Capsense_PRECHARGE_CONFIG_MASK);
 1806              		.loc 1 1469 0
 1807 00c6 FB68     		ldr	r3, [r7, #12]
 1808 00c8 1D4A     		ldr	r2, .L89+40
 1809 00ca 1340     		ands	r3, r2
 1810 00cc FB60     		str	r3, [r7, #12]
1470:Generated_Source\PSoC4/Capsense.c ****     newRegValue |= Capsense_CTANK_PRECHARGE_CONFIG;
 1811              		.loc 1 1470 0
 1812 00ce FB68     		ldr	r3, [r7, #12]
 1813 00d0 1C4A     		ldr	r2, .L89+44
 1814 00d2 1343     		orrs	r3, r2
 1815 00d4 FB60     		str	r3, [r7, #12]
1471:Generated_Source\PSoC4/Capsense.c **** 
1472:Generated_Source\PSoC4/Capsense.c ****     CyIntEnable(Capsense_ISR_NUMBER);
 1816              		.loc 1 1472 0
 1817 00d6 1020     		movs	r0, #16
 1818 00d8 FFF7FEFF 		bl	CyIntEnable
ARM GAS  C:\Users\ROUSSMA\AppData\Local\Temp\ccTx5OE8.s 			page 59


1473:Generated_Source\PSoC4/Capsense.c **** 
1474:Generated_Source\PSoC4/Capsense.c ****     /* Enable Sensor */
1475:Generated_Source\PSoC4/Capsense.c ****     Capsense_EnableScanSlot(sensor);
 1819              		.loc 1 1475 0
 1820 00dc 7B68     		ldr	r3, [r7, #4]
 1821 00de 1800     		movs	r0, r3
 1822 00e0 FFF7FEFF 		bl	Capsense_EnableSensor
1476:Generated_Source\PSoC4/Capsense.c **** 
1477:Generated_Source\PSoC4/Capsense.c ****     interruptState = CyEnterCriticalSection();
 1823              		.loc 1 1477 0
 1824 00e4 0B23     		movs	r3, #11
 1825 00e6 FC18     		adds	r4, r7, r3
 1826 00e8 FFF7FEFF 		bl	CyEnterCriticalSection
 1827 00ec 0300     		movs	r3, r0
 1828 00ee 2370     		strb	r3, [r4]
1478:Generated_Source\PSoC4/Capsense.c ****     Capsense_CSD_CFG_REG = newRegValue;
 1829              		.loc 1 1478 0
 1830 00f0 124B     		ldr	r3, .L89+36
 1831 00f2 FA68     		ldr	r2, [r7, #12]
 1832 00f4 1A60     		str	r2, [r3]
1479:Generated_Source\PSoC4/Capsense.c **** 
1480:Generated_Source\PSoC4/Capsense.c ****     /* `#START Capsense_PreSettlingDelay_Debug` */
1481:Generated_Source\PSoC4/Capsense.c **** 
1482:Generated_Source\PSoC4/Capsense.c ****     /* `#END` */
1483:Generated_Source\PSoC4/Capsense.c **** 
1484:Generated_Source\PSoC4/Capsense.c **** #ifdef Capsense_PRE_SCAN_PRE_SETTLING_DELAY_DEBUG_CALLBACK
1485:Generated_Source\PSoC4/Capsense.c ****     Capsense_PreScan_Pre_SettlingDelay_Debug_Callback();
1486:Generated_Source\PSoC4/Capsense.c **** #endif /* Capsense_PRE_SCAN_PRE_SETTLING_DELAY_DEBUG_CALLBACK */
1487:Generated_Source\PSoC4/Capsense.c **** 
1488:Generated_Source\PSoC4/Capsense.c ****     CyDelayCycles(Capsense_GLITCH_ELIMINATION_CYCLES);
 1833              		.loc 1 1488 0
 1834 00f6 0020     		movs	r0, #0
 1835 00f8 FFF7FEFF 		bl	CyDelayCycles
1489:Generated_Source\PSoC4/Capsense.c **** 
1490:Generated_Source\PSoC4/Capsense.c ****     /* `#START Capsense_PreScan_Debug` */
1491:Generated_Source\PSoC4/Capsense.c **** 
1492:Generated_Source\PSoC4/Capsense.c ****     /* `#END` */
1493:Generated_Source\PSoC4/Capsense.c **** 
1494:Generated_Source\PSoC4/Capsense.c **** #ifdef Capsense_PRE_SCAN_DEBUG_CALLBACK
1495:Generated_Source\PSoC4/Capsense.c ****     Capsense_PreScan_Debug_Callback();
1496:Generated_Source\PSoC4/Capsense.c **** #endif /* Capsense_PRE_SCAN_DEBUG_CALLBACK */
1497:Generated_Source\PSoC4/Capsense.c **** 
1498:Generated_Source\PSoC4/Capsense.c ****     Capsense_CSD_CNT_REG = counterResolution;
 1836              		.loc 1 1498 0
 1837 00fc 094B     		ldr	r3, .L89+12
 1838 00fe 3A69     		ldr	r2, [r7, #16]
 1839 0100 1A60     		str	r2, [r3]
1499:Generated_Source\PSoC4/Capsense.c ****     CyExitCriticalSection(interruptState);
 1840              		.loc 1 1499 0
 1841 0102 0B23     		movs	r3, #11
 1842 0104 FB18     		adds	r3, r7, r3
 1843 0106 1B78     		ldrb	r3, [r3]
 1844 0108 1800     		movs	r0, r3
 1845 010a FFF7FEFF 		bl	CyExitCriticalSection
1500:Generated_Source\PSoC4/Capsense.c **** }
 1846              		.loc 1 1500 0
 1847 010e C046     		nop
ARM GAS  C:\Users\ROUSSMA\AppData\Local\Temp\ccTx5OE8.s 			page 60


 1848 0110 BD46     		mov	sp, r7
 1849 0112 07B0     		add	sp, sp, #28
 1850              		@ sp needed
 1851 0114 90BD     		pop	{r4, r7, pc}
 1852              	.L90:
 1853 0116 C046     		.align	2
 1854              	.L89:
 1855 0118 00000000 		.word	Capsense_widgetResolution
 1856 011c 00000000 		.word	Capsense_sampleClkDividerVal
 1857 0120 00000000 		.word	Capsense_senseClkDividerVal
 1858 0124 0C002840 		.word	1076363276
 1859 0128 14002840 		.word	1076363284
 1860 012c 08002840 		.word	1076363272
 1861 0130 00FF80FF 		.word	-8323328
 1862 0134 00000000 		.word	Capsense_modulationIDAC
 1863 0138 00000000 		.word	Capsense_compensationIDAC
 1864 013c 04002840 		.word	1076363268
 1865 0140 FF1FDFFF 		.word	-2154497
 1866 0144 20002000 		.word	2097184
 1867              		.cfi_endproc
 1868              	.LFE56:
 1869              		.size	Capsense_PreScan, .-Capsense_PreScan
 1870              		.section	.text.Capsense_PostScan,"ax",%progbits
 1871              		.align	2
 1872              		.global	Capsense_PostScan
 1873              		.code	16
 1874              		.thumb_func
 1875              		.type	Capsense_PostScan, %function
 1876              	Capsense_PostScan:
 1877              	.LFB57:
1501:Generated_Source\PSoC4/Capsense.c **** 
1502:Generated_Source\PSoC4/Capsense.c **** 
1503:Generated_Source\PSoC4/Capsense.c **** /*******************************************************************************
1504:Generated_Source\PSoC4/Capsense.c **** * Function Name: Capsense_PostScan
1505:Generated_Source\PSoC4/Capsense.c **** ********************************************************************************
1506:Generated_Source\PSoC4/Capsense.c **** *
1507:Generated_Source\PSoC4/Capsense.c **** * Summary:
1508:Generated_Source\PSoC4/Capsense.c **** *  Stores the results of measurement in the Capsense_sensorRaw[] array,
1509:Generated_Source\PSoC4/Capsense.c **** *  sets the scanning sensor in the non-sampling state, turns off Idac(Current Source IDAC),
1510:Generated_Source\PSoC4/Capsense.c **** *  disconnects the IDAC(Sink mode), and applies Vref on AMUX.
1511:Generated_Source\PSoC4/Capsense.c **** *
1512:Generated_Source\PSoC4/Capsense.c **** * Parameters:
1513:Generated_Source\PSoC4/Capsense.c **** *  sensor:  Sensor number.
1514:Generated_Source\PSoC4/Capsense.c **** *
1515:Generated_Source\PSoC4/Capsense.c **** * Return:
1516:Generated_Source\PSoC4/Capsense.c **** *  None
1517:Generated_Source\PSoC4/Capsense.c **** *
1518:Generated_Source\PSoC4/Capsense.c **** * Global Variables:
1519:Generated_Source\PSoC4/Capsense.c **** *  Capsense_sensorRaw[] - used to store sensors raw data.
1520:Generated_Source\PSoC4/Capsense.c **** *
1521:Generated_Source\PSoC4/Capsense.c **** * Side Effects:
1522:Generated_Source\PSoC4/Capsense.c **** *  None
1523:Generated_Source\PSoC4/Capsense.c **** *
1524:Generated_Source\PSoC4/Capsense.c **** *******************************************************************************/
1525:Generated_Source\PSoC4/Capsense.c **** void Capsense_PostScan(uint32 sensor)
1526:Generated_Source\PSoC4/Capsense.c **** {
 1878              		.loc 1 1526 0
ARM GAS  C:\Users\ROUSSMA\AppData\Local\Temp\ccTx5OE8.s 			page 61


 1879              		.cfi_startproc
 1880              		@ args = 0, pretend = 0, frame = 16
 1881              		@ frame_needed = 1, uses_anonymous_args = 0
 1882 0000 80B5     		push	{r7, lr}
 1883              		.cfi_def_cfa_offset 8
 1884              		.cfi_offset 7, -8
 1885              		.cfi_offset 14, -4
 1886 0002 84B0     		sub	sp, sp, #16
 1887              		.cfi_def_cfa_offset 24
 1888 0004 00AF     		add	r7, sp, #0
 1889              		.cfi_def_cfa_register 7
 1890 0006 7860     		str	r0, [r7, #4]
1527:Generated_Source\PSoC4/Capsense.c ****     uint32 newRegValue;
1528:Generated_Source\PSoC4/Capsense.c **** #if ((Capsense_TUNING_METHOD == Capsense__TUNING_AUTO) &&\
1529:Generated_Source\PSoC4/Capsense.c ****      (0 != Capsense_IS_OVERSAMPLING_EN))
1530:Generated_Source\PSoC4/Capsense.c ****     uint32 oversamplingFactor;
1531:Generated_Source\PSoC4/Capsense.c ****     uint32 widget;
1532:Generated_Source\PSoC4/Capsense.c **** #endif /* ((Capsense_TUNING_METHOD == Capsense__TUNING_AUTO) &&\
1533:Generated_Source\PSoC4/Capsense.c ****            (0 != Capsense_IS_OVERSAMPLING_EN)) */
1534:Generated_Source\PSoC4/Capsense.c **** 
1535:Generated_Source\PSoC4/Capsense.c ****     /* `#START Capsense_PostScan_Debug` */
1536:Generated_Source\PSoC4/Capsense.c **** 
1537:Generated_Source\PSoC4/Capsense.c ****     /* `#END` */
1538:Generated_Source\PSoC4/Capsense.c **** 
1539:Generated_Source\PSoC4/Capsense.c **** #ifdef Capsense_POST_SCAN_DEBUG_CALLBACK
1540:Generated_Source\PSoC4/Capsense.c ****     Capsense_PostScan_Debug_Callback();
1541:Generated_Source\PSoC4/Capsense.c **** #endif /* Capsense_POST_SCAN_DEBUG_Callback */
1542:Generated_Source\PSoC4/Capsense.c **** 
1543:Generated_Source\PSoC4/Capsense.c ****     /* Read SlotResult from Raw Counter */
1544:Generated_Source\PSoC4/Capsense.c ****     Capsense_sensorRaw[sensor]  = (uint16)Capsense_CSD_CNT_REG;
 1891              		.loc 1 1544 0
 1892 0008 144B     		ldr	r3, .L92
 1893 000a 1B68     		ldr	r3, [r3]
 1894 000c 99B2     		uxth	r1, r3
 1895 000e 144B     		ldr	r3, .L92+4
 1896 0010 7A68     		ldr	r2, [r7, #4]
 1897 0012 5200     		lsls	r2, r2, #1
 1898 0014 D152     		strh	r1, [r2, r3]
1545:Generated_Source\PSoC4/Capsense.c **** 
1546:Generated_Source\PSoC4/Capsense.c **** #if ((Capsense_TUNING_METHOD == Capsense__TUNING_AUTO) &&\
1547:Generated_Source\PSoC4/Capsense.c ****      (0 != Capsense_IS_OVERSAMPLING_EN))
1548:Generated_Source\PSoC4/Capsense.c ****     widget = Capsense_widgetNumber[sensor];
1549:Generated_Source\PSoC4/Capsense.c ****     if(Capsense_widgetResolution[widget] < Capsense_RESOLUTION_16_BITS)
1550:Generated_Source\PSoC4/Capsense.c ****     {
1551:Generated_Source\PSoC4/Capsense.c ****         oversamplingFactor = Capsense_GetBitValue(Capsense_scanSpeedTbl, sensor);
1552:Generated_Source\PSoC4/Capsense.c ****         Capsense_sensorRaw[sensor] >>= oversamplingFactor;
1553:Generated_Source\PSoC4/Capsense.c ****     }
1554:Generated_Source\PSoC4/Capsense.c **** #endif /* ((Capsense_TUNING_METHOD == Capsense__TUNING_AUTO) &&\
1555:Generated_Source\PSoC4/Capsense.c ****            (0 != Capsense_IS_OVERSAMPLING_EN)) */
1556:Generated_Source\PSoC4/Capsense.c **** 
1557:Generated_Source\PSoC4/Capsense.c ****     /* Disable Sensor */
1558:Generated_Source\PSoC4/Capsense.c ****     Capsense_DisableScanSlot(sensor);
 1899              		.loc 1 1558 0
 1900 0016 7B68     		ldr	r3, [r7, #4]
 1901 0018 1800     		movs	r0, r3
 1902 001a FFF7FEFF 		bl	Capsense_DisableSensor
1559:Generated_Source\PSoC4/Capsense.c **** 
ARM GAS  C:\Users\ROUSSMA\AppData\Local\Temp\ccTx5OE8.s 			page 62


1560:Generated_Source\PSoC4/Capsense.c ****     CyIntDisable(Capsense_ISR_NUMBER);
 1903              		.loc 1 1560 0
 1904 001e 1020     		movs	r0, #16
 1905 0020 FFF7FEFF 		bl	CyIntDisable
1561:Generated_Source\PSoC4/Capsense.c **** 
1562:Generated_Source\PSoC4/Capsense.c **** #if(Capsense_CMOD_PREGARGE_OPTION == Capsense__CAPPRIOBUF)
1563:Generated_Source\PSoC4/Capsense.c ****     newRegValue = Capsense_CMOD_CONNECTION_REG;
1564:Generated_Source\PSoC4/Capsense.c ****     newRegValue &= ~(Capsense_CSD_CMOD_CONNECTION_MASK);
1565:Generated_Source\PSoC4/Capsense.c ****     newRegValue |= Capsense_CSD_CMOD_TO_AMUXBUS_B;
1566:Generated_Source\PSoC4/Capsense.c ****     Capsense_CMOD_CONNECTION_REG = newRegValue;
1567:Generated_Source\PSoC4/Capsense.c **** 
1568:Generated_Source\PSoC4/Capsense.c ****     newRegValue = Capsense_CMOD_PORT_PC_REG;
1569:Generated_Source\PSoC4/Capsense.c ****     newRegValue &= ~(Capsense_CSD_CMOD_PC_MASK);
1570:Generated_Source\PSoC4/Capsense.c ****     newRegValue |= Capsense_CMOD_PC_STRONG_MODE;
1571:Generated_Source\PSoC4/Capsense.c ****     Capsense_CMOD_PORT_PC_REG = newRegValue;
1572:Generated_Source\PSoC4/Capsense.c **** 
1573:Generated_Source\PSoC4/Capsense.c ****     newRegValue = Capsense_CMOD_PORT_DR_REG;
1574:Generated_Source\PSoC4/Capsense.c ****     newRegValue &= ~(Capsense_CMOD_DR_MASK);
1575:Generated_Source\PSoC4/Capsense.c ****     newRegValue |= Capsense_CMOD_DR_CONFIG;
1576:Generated_Source\PSoC4/Capsense.c ****     Capsense_CMOD_PORT_DR_REG = newRegValue;
1577:Generated_Source\PSoC4/Capsense.c **** #endif /* (Capsense_CMOD_PREGARGE_OPTION == Capsense__CAPPRIOBUF) */
1578:Generated_Source\PSoC4/Capsense.c **** 
1579:Generated_Source\PSoC4/Capsense.c ****     /* Connect Vref Buffer to AMUX bus  */
1580:Generated_Source\PSoC4/Capsense.c ****     newRegValue = Capsense_CSD_CFG_REG;
 1906              		.loc 1 1580 0
 1907 0024 0F4B     		ldr	r3, .L92+8
 1908 0026 1B68     		ldr	r3, [r3]
 1909 0028 FB60     		str	r3, [r7, #12]
1581:Generated_Source\PSoC4/Capsense.c ****     newRegValue &= ~(Capsense_PRECHARGE_CONFIG_MASK);
 1910              		.loc 1 1581 0
 1911 002a FB68     		ldr	r3, [r7, #12]
 1912 002c 0E4A     		ldr	r2, .L92+12
 1913 002e 1340     		ands	r3, r2
 1914 0030 FB60     		str	r3, [r7, #12]
1582:Generated_Source\PSoC4/Capsense.c ****     newRegValue |= Capsense_CMOD_PRECHARGE_CONFIG;
 1915              		.loc 1 1582 0
 1916 0032 FB68     		ldr	r3, [r7, #12]
 1917 0034 A022     		movs	r2, #160
 1918 0036 1202     		lsls	r2, r2, #8
 1919 0038 1343     		orrs	r3, r2
 1920 003a FB60     		str	r3, [r7, #12]
1583:Generated_Source\PSoC4/Capsense.c ****     Capsense_CSD_CFG_REG = newRegValue;
 1921              		.loc 1 1583 0
 1922 003c 094B     		ldr	r3, .L92+8
 1923 003e FA68     		ldr	r2, [r7, #12]
 1924 0040 1A60     		str	r2, [r3]
1584:Generated_Source\PSoC4/Capsense.c **** 
1585:Generated_Source\PSoC4/Capsense.c ****     /* Set Idac Value = 0 */
1586:Generated_Source\PSoC4/Capsense.c **** #if (Capsense_IDAC_CNT == 1u)
1587:Generated_Source\PSoC4/Capsense.c ****     Capsense_CSD_IDAC_REG &= ~(Capsense_CSD_IDAC1_DATA_MASK);
1588:Generated_Source\PSoC4/Capsense.c **** #else
1589:Generated_Source\PSoC4/Capsense.c ****     Capsense_CSD_IDAC_REG &= ~(Capsense_CSD_IDAC1_DATA_MASK | Capsense_CSD_IDAC2_DATA_MASK);
 1925              		.loc 1 1589 0
 1926 0042 0A4B     		ldr	r3, .L92+16
 1927 0044 094A     		ldr	r2, .L92+16
 1928 0046 1268     		ldr	r2, [r2]
 1929 0048 0949     		ldr	r1, .L92+20
ARM GAS  C:\Users\ROUSSMA\AppData\Local\Temp\ccTx5OE8.s 			page 63


 1930 004a 0A40     		ands	r2, r1
 1931 004c 1A60     		str	r2, [r3]
1590:Generated_Source\PSoC4/Capsense.c **** #endif /* (Capsense_IDAC_CNT == 1u) */
1591:Generated_Source\PSoC4/Capsense.c **** 
1592:Generated_Source\PSoC4/Capsense.c ****     CyIntEnable(Capsense_ISR_NUMBER);
 1932              		.loc 1 1592 0
 1933 004e 1020     		movs	r0, #16
 1934 0050 FFF7FEFF 		bl	CyIntEnable
1593:Generated_Source\PSoC4/Capsense.c **** }
 1935              		.loc 1 1593 0
 1936 0054 C046     		nop
 1937 0056 BD46     		mov	sp, r7
 1938 0058 04B0     		add	sp, sp, #16
 1939              		@ sp needed
 1940 005a 80BD     		pop	{r7, pc}
 1941              	.L93:
 1942              		.align	2
 1943              	.L92:
 1944 005c 0C002840 		.word	1076363276
 1945 0060 00000000 		.word	Capsense_sensorRaw
 1946 0064 04002840 		.word	1076363268
 1947 0068 FF1FDFFF 		.word	-2154497
 1948 006c 08002840 		.word	1076363272
 1949 0070 00FF80FF 		.word	-8323328
 1950              		.cfi_endproc
 1951              	.LFE57:
 1952              		.size	Capsense_PostScan, .-Capsense_PostScan
 1953              		.section	.text.Capsense_EnableShieldElectrode,"ax",%progbits
 1954              		.align	2
 1955              		.global	Capsense_EnableShieldElectrode
 1956              		.code	16
 1957              		.thumb_func
 1958              		.type	Capsense_EnableShieldElectrode, %function
 1959              	Capsense_EnableShieldElectrode:
 1960              	.LFB58:
1594:Generated_Source\PSoC4/Capsense.c **** 
1595:Generated_Source\PSoC4/Capsense.c **** 
1596:Generated_Source\PSoC4/Capsense.c **** /*******************************************************************************
1597:Generated_Source\PSoC4/Capsense.c **** * Function Name: Capsense_EnableShieldElectrode
1598:Generated_Source\PSoC4/Capsense.c **** ********************************************************************************
1599:Generated_Source\PSoC4/Capsense.c **** *
1600:Generated_Source\PSoC4/Capsense.c **** * Summary:
1601:Generated_Source\PSoC4/Capsense.c **** *  This API enables or disables the shield electrode on a specified port pin.
1602:Generated_Source\PSoC4/Capsense.c **** *
1603:Generated_Source\PSoC4/Capsense.c **** * Parameters:
1604:Generated_Source\PSoC4/Capsense.c **** *  portNumber: contains the shield electrode port number (0, 1, 2).
1605:Generated_Source\PSoC4/Capsense.c **** *  pinNumber: contains the shield electrode pin number (0, 1, 2, ... , 7).
1606:Generated_Source\PSoC4/Capsense.c **** *
1607:Generated_Source\PSoC4/Capsense.c **** * Return:
1608:Generated_Source\PSoC4/Capsense.c **** *  None
1609:Generated_Source\PSoC4/Capsense.c **** *
1610:Generated_Source\PSoC4/Capsense.c **** * Global Variables:
1611:Generated_Source\PSoC4/Capsense.c **** *  Capsense_prtCfgTbl[] - Contains pointers to the port config registers for each port.
1612:Generated_Source\PSoC4/Capsense.c **** *  Capsense_prtSelTbl[] - Contains pointers to the HSIOM registers for each port.
1613:Generated_Source\PSoC4/Capsense.c **** *
1614:Generated_Source\PSoC4/Capsense.c **** * Side Effects:
1615:Generated_Source\PSoC4/Capsense.c **** *  None
ARM GAS  C:\Users\ROUSSMA\AppData\Local\Temp\ccTx5OE8.s 			page 64


1616:Generated_Source\PSoC4/Capsense.c **** *
1617:Generated_Source\PSoC4/Capsense.c **** *******************************************************************************/
1618:Generated_Source\PSoC4/Capsense.c **** void Capsense_EnableShieldElectrode(uint32 pinNumber, uint32 portNumber)
1619:Generated_Source\PSoC4/Capsense.c **** {
 1961              		.loc 1 1619 0
 1962              		.cfi_startproc
 1963              		@ args = 0, pretend = 0, frame = 16
 1964              		@ frame_needed = 1, uses_anonymous_args = 0
 1965 0000 80B5     		push	{r7, lr}
 1966              		.cfi_def_cfa_offset 8
 1967              		.cfi_offset 7, -8
 1968              		.cfi_offset 14, -4
 1969 0002 84B0     		sub	sp, sp, #16
 1970              		.cfi_def_cfa_offset 24
 1971 0004 00AF     		add	r7, sp, #0
 1972              		.cfi_def_cfa_register 7
 1973 0006 7860     		str	r0, [r7, #4]
 1974 0008 3960     		str	r1, [r7]
1620:Generated_Source\PSoC4/Capsense.c ****     uint32 newRegValue;
1621:Generated_Source\PSoC4/Capsense.c **** 
1622:Generated_Source\PSoC4/Capsense.c ****     *Capsense_prtCfgTbl[portNumber] &= ~(Capsense_CSD_PIN_MODE_MASK << (pinNumber * Capsense_PC_PIN
 1975              		.loc 1 1622 0
 1976 000a 1A4B     		ldr	r3, .L95
 1977 000c 3A68     		ldr	r2, [r7]
 1978 000e 9200     		lsls	r2, r2, #2
 1979 0010 D258     		ldr	r2, [r2, r3]
 1980 0012 184B     		ldr	r3, .L95
 1981 0014 3968     		ldr	r1, [r7]
 1982 0016 8900     		lsls	r1, r1, #2
 1983 0018 CB58     		ldr	r3, [r1, r3]
 1984 001a 1868     		ldr	r0, [r3]
 1985 001c 7968     		ldr	r1, [r7, #4]
 1986 001e 0B00     		movs	r3, r1
 1987 0020 5B00     		lsls	r3, r3, #1
 1988 0022 5B18     		adds	r3, r3, r1
 1989 0024 0721     		movs	r1, #7
 1990 0026 9940     		lsls	r1, r1, r3
 1991 0028 0B00     		movs	r3, r1
 1992 002a DB43     		mvns	r3, r3
 1993 002c 0340     		ands	r3, r0
 1994 002e 1360     		str	r3, [r2]
1623:Generated_Source\PSoC4/Capsense.c ****     newRegValue = *Capsense_prtSelTbl[portNumber];
 1995              		.loc 1 1623 0
 1996 0030 114B     		ldr	r3, .L95+4
 1997 0032 3A68     		ldr	r2, [r7]
 1998 0034 9200     		lsls	r2, r2, #2
 1999 0036 D358     		ldr	r3, [r2, r3]
 2000 0038 1B68     		ldr	r3, [r3]
 2001 003a FB60     		str	r3, [r7, #12]
1624:Generated_Source\PSoC4/Capsense.c ****     newRegValue &= ~(Capsense_CSD_HSIOM_MASK << (pinNumber * Capsense_HSIOM_PIN_CFG_SIZE));
 2002              		.loc 1 1624 0
 2003 003c 7B68     		ldr	r3, [r7, #4]
 2004 003e 9B00     		lsls	r3, r3, #2
 2005 0040 0F22     		movs	r2, #15
 2006 0042 9A40     		lsls	r2, r2, r3
 2007 0044 1300     		movs	r3, r2
 2008 0046 DA43     		mvns	r2, r3
ARM GAS  C:\Users\ROUSSMA\AppData\Local\Temp\ccTx5OE8.s 			page 65


 2009 0048 FB68     		ldr	r3, [r7, #12]
 2010 004a 1340     		ands	r3, r2
 2011 004c FB60     		str	r3, [r7, #12]
1625:Generated_Source\PSoC4/Capsense.c ****     newRegValue |= (Capsense_CSD_SHIELD_PORT_MODE << (pinNumber * Capsense_HSIOM_PIN_CFG_SIZE));
 2012              		.loc 1 1625 0
 2013 004e 7B68     		ldr	r3, [r7, #4]
 2014 0050 9B00     		lsls	r3, r3, #2
 2015 0052 0522     		movs	r2, #5
 2016 0054 9A40     		lsls	r2, r2, r3
 2017 0056 1300     		movs	r3, r2
 2018 0058 FA68     		ldr	r2, [r7, #12]
 2019 005a 1343     		orrs	r3, r2
 2020 005c FB60     		str	r3, [r7, #12]
1626:Generated_Source\PSoC4/Capsense.c ****     *Capsense_prtSelTbl[portNumber] = newRegValue;
 2021              		.loc 1 1626 0
 2022 005e 064B     		ldr	r3, .L95+4
 2023 0060 3A68     		ldr	r2, [r7]
 2024 0062 9200     		lsls	r2, r2, #2
 2025 0064 D358     		ldr	r3, [r2, r3]
 2026 0066 FA68     		ldr	r2, [r7, #12]
 2027 0068 1A60     		str	r2, [r3]
1627:Generated_Source\PSoC4/Capsense.c **** }
 2028              		.loc 1 1627 0
 2029 006a C046     		nop
 2030 006c BD46     		mov	sp, r7
 2031 006e 04B0     		add	sp, sp, #16
 2032              		@ sp needed
 2033 0070 80BD     		pop	{r7, pc}
 2034              	.L96:
 2035 0072 C046     		.align	2
 2036              	.L95:
 2037 0074 00000000 		.word	Capsense_prtCfgTbl
 2038 0078 00000000 		.word	Capsense_prtSelTbl
 2039              		.cfi_endproc
 2040              	.LFE58:
 2041              		.size	Capsense_EnableShieldElectrode, .-Capsense_EnableShieldElectrode
 2042              		.section	.text.Capsense_SetShieldDelay,"ax",%progbits
 2043              		.align	2
 2044              		.global	Capsense_SetShieldDelay
 2045              		.code	16
 2046              		.thumb_func
 2047              		.type	Capsense_SetShieldDelay, %function
 2048              	Capsense_SetShieldDelay:
 2049              	.LFB59:
1628:Generated_Source\PSoC4/Capsense.c **** 
1629:Generated_Source\PSoC4/Capsense.c **** 
1630:Generated_Source\PSoC4/Capsense.c **** /*******************************************************************************
1631:Generated_Source\PSoC4/Capsense.c **** * Function Name: Capsense_SetShieldDelay
1632:Generated_Source\PSoC4/Capsense.c **** ********************************************************************************
1633:Generated_Source\PSoC4/Capsense.c **** *
1634:Generated_Source\PSoC4/Capsense.c **** * Summary:
1635:Generated_Source\PSoC4/Capsense.c **** *  This API sets a shield delay.
1636:Generated_Source\PSoC4/Capsense.c **** *
1637:Generated_Source\PSoC4/Capsense.c **** * Parameters:
1638:Generated_Source\PSoC4/Capsense.c **** *  delay:  shield delay value:
1639:Generated_Source\PSoC4/Capsense.c **** *                               0 - no delay
1640:Generated_Source\PSoC4/Capsense.c **** *                               1 - 1 cycle delay
ARM GAS  C:\Users\ROUSSMA\AppData\Local\Temp\ccTx5OE8.s 			page 66


1641:Generated_Source\PSoC4/Capsense.c **** *                               2 - 2 cycles delay
1642:Generated_Source\PSoC4/Capsense.c **** *
1643:Generated_Source\PSoC4/Capsense.c **** * Return:
1644:Generated_Source\PSoC4/Capsense.c **** *  None
1645:Generated_Source\PSoC4/Capsense.c **** *
1646:Generated_Source\PSoC4/Capsense.c **** * Global Variables:
1647:Generated_Source\PSoC4/Capsense.c **** *  None
1648:Generated_Source\PSoC4/Capsense.c **** *
1649:Generated_Source\PSoC4/Capsense.c **** * Side Effects:
1650:Generated_Source\PSoC4/Capsense.c **** *  None
1651:Generated_Source\PSoC4/Capsense.c **** *
1652:Generated_Source\PSoC4/Capsense.c **** *******************************************************************************/
1653:Generated_Source\PSoC4/Capsense.c **** void Capsense_SetShieldDelay(uint32 delay)
1654:Generated_Source\PSoC4/Capsense.c **** {
 2050              		.loc 1 1654 0
 2051              		.cfi_startproc
 2052              		@ args = 0, pretend = 0, frame = 16
 2053              		@ frame_needed = 1, uses_anonymous_args = 0
 2054 0000 80B5     		push	{r7, lr}
 2055              		.cfi_def_cfa_offset 8
 2056              		.cfi_offset 7, -8
 2057              		.cfi_offset 14, -4
 2058 0002 84B0     		sub	sp, sp, #16
 2059              		.cfi_def_cfa_offset 24
 2060 0004 00AF     		add	r7, sp, #0
 2061              		.cfi_def_cfa_register 7
 2062 0006 7860     		str	r0, [r7, #4]
1655:Generated_Source\PSoC4/Capsense.c ****     uint32 newRegValue;
1656:Generated_Source\PSoC4/Capsense.c **** 
1657:Generated_Source\PSoC4/Capsense.c ****     delay &= 0x03u;
 2063              		.loc 1 1657 0
 2064 0008 7B68     		ldr	r3, [r7, #4]
 2065 000a 0322     		movs	r2, #3
 2066 000c 1340     		ands	r3, r2
 2067 000e 7B60     		str	r3, [r7, #4]
1658:Generated_Source\PSoC4/Capsense.c **** 
1659:Generated_Source\PSoC4/Capsense.c ****     newRegValue = Capsense_CSD_CFG_REG;
 2068              		.loc 1 1659 0
 2069 0010 074B     		ldr	r3, .L98
 2070 0012 1B68     		ldr	r3, [r3]
 2071 0014 FB60     		str	r3, [r7, #12]
1660:Generated_Source\PSoC4/Capsense.c ****     newRegValue &= (uint32)(~(uint32)Capsense_SHIELD_DELAY);
1661:Generated_Source\PSoC4/Capsense.c ****     newRegValue |= (delay << Capsense_CSD_CFG_SHIELD_DELAY_POS);
 2072              		.loc 1 1661 0
 2073 0016 7B68     		ldr	r3, [r7, #4]
 2074 0018 5B02     		lsls	r3, r3, #9
 2075 001a FA68     		ldr	r2, [r7, #12]
 2076 001c 1343     		orrs	r3, r2
 2077 001e FB60     		str	r3, [r7, #12]
1662:Generated_Source\PSoC4/Capsense.c ****     Capsense_CSD_CFG_REG = newRegValue;
 2078              		.loc 1 1662 0
 2079 0020 034B     		ldr	r3, .L98
 2080 0022 FA68     		ldr	r2, [r7, #12]
 2081 0024 1A60     		str	r2, [r3]
1663:Generated_Source\PSoC4/Capsense.c **** }
 2082              		.loc 1 1663 0
 2083 0026 C046     		nop
ARM GAS  C:\Users\ROUSSMA\AppData\Local\Temp\ccTx5OE8.s 			page 67


 2084 0028 BD46     		mov	sp, r7
 2085 002a 04B0     		add	sp, sp, #16
 2086              		@ sp needed
 2087 002c 80BD     		pop	{r7, pc}
 2088              	.L99:
 2089 002e C046     		.align	2
 2090              	.L98:
 2091 0030 04002840 		.word	1076363268
 2092              		.cfi_endproc
 2093              	.LFE59:
 2094              		.size	Capsense_SetShieldDelay, .-Capsense_SetShieldDelay
 2095              		.section	.text.Capsense_ReadCurrentScanningSensor,"ax",%progbits
 2096              		.align	2
 2097              		.global	Capsense_ReadCurrentScanningSensor
 2098              		.code	16
 2099              		.thumb_func
 2100              		.type	Capsense_ReadCurrentScanningSensor, %function
 2101              	Capsense_ReadCurrentScanningSensor:
 2102              	.LFB60:
1664:Generated_Source\PSoC4/Capsense.c **** 
1665:Generated_Source\PSoC4/Capsense.c **** 
1666:Generated_Source\PSoC4/Capsense.c **** /*******************************************************************************
1667:Generated_Source\PSoC4/Capsense.c **** * Function Name: Capsense_ReadCurrentScanningSensor
1668:Generated_Source\PSoC4/Capsense.c **** ********************************************************************************
1669:Generated_Source\PSoC4/Capsense.c **** *
1670:Generated_Source\PSoC4/Capsense.c **** * Summary:
1671:Generated_Source\PSoC4/Capsense.c **** *  This API returns scanning sensor number when sensor scan is in progress.
1672:Generated_Source\PSoC4/Capsense.c **** *  When sensor scan is completed the API returns
1673:Generated_Source\PSoC4/Capsense.c **** *  $INSTANCE_NAME`_NOT_SENSOR (0xFFFFFFFF) (when no sensor is scanned).
1674:Generated_Source\PSoC4/Capsense.c **** *
1675:Generated_Source\PSoC4/Capsense.c **** * Parameters:
1676:Generated_Source\PSoC4/Capsense.c **** *   None.
1677:Generated_Source\PSoC4/Capsense.c **** *
1678:Generated_Source\PSoC4/Capsense.c **** * Return:
1679:Generated_Source\PSoC4/Capsense.c **** *  Returns Sensor number if sensor is being scanned and
1680:Generated_Source\PSoC4/Capsense.c **** *  $INSTANCE_NAME`_NOT_SENSOR (0xFFFFFFFF) if scanning is complete.
1681:Generated_Source\PSoC4/Capsense.c **** *
1682:Generated_Source\PSoC4/Capsense.c **** * Global Variables:
1683:Generated_Source\PSoC4/Capsense.c **** *  Capsense_sensorIndex - the sensor number is being scanned.
1684:Generated_Source\PSoC4/Capsense.c **** *
1685:Generated_Source\PSoC4/Capsense.c **** * Side Effects:
1686:Generated_Source\PSoC4/Capsense.c **** *  None
1687:Generated_Source\PSoC4/Capsense.c **** *
1688:Generated_Source\PSoC4/Capsense.c **** *******************************************************************************/
1689:Generated_Source\PSoC4/Capsense.c **** uint32 Capsense_ReadCurrentScanningSensor(void)
1690:Generated_Source\PSoC4/Capsense.c **** {
 2103              		.loc 1 1690 0
 2104              		.cfi_startproc
 2105              		@ args = 0, pretend = 0, frame = 0
 2106              		@ frame_needed = 1, uses_anonymous_args = 0
 2107 0000 80B5     		push	{r7, lr}
 2108              		.cfi_def_cfa_offset 8
 2109              		.cfi_offset 7, -8
 2110              		.cfi_offset 14, -4
 2111 0002 00AF     		add	r7, sp, #0
 2112              		.cfi_def_cfa_register 7
1691:Generated_Source\PSoC4/Capsense.c ****     return ((uint32)(( 0u != (Capsense_csdStatusVar & Capsense_SW_STS_BUSY)) ?
ARM GAS  C:\Users\ROUSSMA\AppData\Local\Temp\ccTx5OE8.s 			page 68


 2113              		.loc 1 1691 0
 2114 0004 074B     		ldr	r3, .L104
 2115 0006 1B78     		ldrb	r3, [r3]
 2116 0008 DBB2     		uxtb	r3, r3
 2117 000a 1A00     		movs	r2, r3
 2118 000c 0123     		movs	r3, #1
 2119 000e 1340     		ands	r3, r2
 2120 0010 03D0     		beq	.L101
 2121              		.loc 1 1691 0 is_stmt 0 discriminator 1
 2122 0012 054B     		ldr	r3, .L104+4
 2123 0014 1B78     		ldrb	r3, [r3]
 2124 0016 DBB2     		uxtb	r3, r3
 2125 0018 01E0     		b	.L103
 2126              	.L101:
 2127              		.loc 1 1691 0 discriminator 2
 2128 001a 0123     		movs	r3, #1
 2129 001c 5B42     		rsbs	r3, r3, #0
 2130              	.L103:
1692:Generated_Source\PSoC4/Capsense.c ****                      Capsense_sensorIndex : Capsense_NOT_SENSOR));
1693:Generated_Source\PSoC4/Capsense.c **** }
 2131              		.loc 1 1693 0 is_stmt 1 discriminator 5
 2132 001e 1800     		movs	r0, r3
 2133 0020 BD46     		mov	sp, r7
 2134              		@ sp needed
 2135 0022 80BD     		pop	{r7, pc}
 2136              	.L105:
 2137              		.align	2
 2138              	.L104:
 2139 0024 00000000 		.word	Capsense_csdStatusVar
 2140 0028 00000000 		.word	Capsense_sensorIndex
 2141              		.cfi_endproc
 2142              	.LFE60:
 2143              		.size	Capsense_ReadCurrentScanningSensor, .-Capsense_ReadCurrentScanningSensor
 2144              		.section	.text.Capsense_GetBitValue,"ax",%progbits
 2145              		.align	2
 2146              		.global	Capsense_GetBitValue
 2147              		.code	16
 2148              		.thumb_func
 2149              		.type	Capsense_GetBitValue, %function
 2150              	Capsense_GetBitValue:
 2151              	.LFB61:
1694:Generated_Source\PSoC4/Capsense.c **** 
1695:Generated_Source\PSoC4/Capsense.c **** 
1696:Generated_Source\PSoC4/Capsense.c **** /*******************************************************************************
1697:Generated_Source\PSoC4/Capsense.c **** * Function Name: Capsense_GetBitValue
1698:Generated_Source\PSoC4/Capsense.c **** ********************************************************************************
1699:Generated_Source\PSoC4/Capsense.c **** *
1700:Generated_Source\PSoC4/Capsense.c **** * Summary:
1701:Generated_Source\PSoC4/Capsense.c **** *  The API returns a bit status of the bit in the table array which contains the masks.
1702:Generated_Source\PSoC4/Capsense.c **** *
1703:Generated_Source\PSoC4/Capsense.c **** * Parameters:
1704:Generated_Source\PSoC4/Capsense.c **** *  table[] - array with bit masks.
1705:Generated_Source\PSoC4/Capsense.c **** *  position - position of bit in the table[] array.
1706:Generated_Source\PSoC4/Capsense.c **** *
1707:Generated_Source\PSoC4/Capsense.c **** * Return:
1708:Generated_Source\PSoC4/Capsense.c **** *  0 - bit is not set; 1 - bit is set.
1709:Generated_Source\PSoC4/Capsense.c **** *
ARM GAS  C:\Users\ROUSSMA\AppData\Local\Temp\ccTx5OE8.s 			page 69


1710:Generated_Source\PSoC4/Capsense.c **** * Global Variables:
1711:Generated_Source\PSoC4/Capsense.c **** *  None
1712:Generated_Source\PSoC4/Capsense.c **** *
1713:Generated_Source\PSoC4/Capsense.c **** * Side Effects:
1714:Generated_Source\PSoC4/Capsense.c **** *  None
1715:Generated_Source\PSoC4/Capsense.c **** *
1716:Generated_Source\PSoC4/Capsense.c **** *******************************************************************************/
1717:Generated_Source\PSoC4/Capsense.c **** uint32 Capsense_GetBitValue(const uint8 table[], uint32 position)
1718:Generated_Source\PSoC4/Capsense.c **** {
 2152              		.loc 1 1718 0
 2153              		.cfi_startproc
 2154              		@ args = 0, pretend = 0, frame = 16
 2155              		@ frame_needed = 1, uses_anonymous_args = 0
 2156 0000 80B5     		push	{r7, lr}
 2157              		.cfi_def_cfa_offset 8
 2158              		.cfi_offset 7, -8
 2159              		.cfi_offset 14, -4
 2160 0002 84B0     		sub	sp, sp, #16
 2161              		.cfi_def_cfa_offset 24
 2162 0004 00AF     		add	r7, sp, #0
 2163              		.cfi_def_cfa_register 7
 2164 0006 7860     		str	r0, [r7, #4]
 2165 0008 3960     		str	r1, [r7]
1719:Generated_Source\PSoC4/Capsense.c ****     uint32 offset;
1720:Generated_Source\PSoC4/Capsense.c ****     uint8 enMask;
1721:Generated_Source\PSoC4/Capsense.c **** 
1722:Generated_Source\PSoC4/Capsense.c ****     /* position is divided by 8 to calculate the element of the
1723:Generated_Source\PSoC4/Capsense.c ****        table[] array that contains the enable bit
1724:Generated_Source\PSoC4/Capsense.c ****        for an appropriate sensor.
1725:Generated_Source\PSoC4/Capsense.c ****     */
1726:Generated_Source\PSoC4/Capsense.c ****     offset = (position >> 3u);
 2166              		.loc 1 1726 0
 2167 000a 3B68     		ldr	r3, [r7]
 2168 000c DB08     		lsrs	r3, r3, #3
 2169 000e FB60     		str	r3, [r7, #12]
1727:Generated_Source\PSoC4/Capsense.c **** 
1728:Generated_Source\PSoC4/Capsense.c ****     /* The enMask calculation for the appropriate sensor. Operation (position & 0x07u)
1729:Generated_Source\PSoC4/Capsense.c ****        intends to calculate the enable bit offset for the 8-bit element of the
1730:Generated_Source\PSoC4/Capsense.c ****        table[] array.
1731:Generated_Source\PSoC4/Capsense.c ****     */
1732:Generated_Source\PSoC4/Capsense.c ****     enMask = 0x01u << (position & 0x07u);
 2170              		.loc 1 1732 0
 2171 0010 3B68     		ldr	r3, [r7]
 2172 0012 0722     		movs	r2, #7
 2173 0014 1340     		ands	r3, r2
 2174 0016 0122     		movs	r2, #1
 2175 0018 9A40     		lsls	r2, r2, r3
 2176 001a 0B23     		movs	r3, #11
 2177 001c FB18     		adds	r3, r7, r3
 2178 001e 1A70     		strb	r2, [r3]
1733:Generated_Source\PSoC4/Capsense.c **** 
1734:Generated_Source\PSoC4/Capsense.c ****     return ((0u !=(table[offset] & enMask)) ? 1Lu : 0Lu);
 2179              		.loc 1 1734 0
 2180 0020 7A68     		ldr	r2, [r7, #4]
 2181 0022 FB68     		ldr	r3, [r7, #12]
 2182 0024 D318     		adds	r3, r2, r3
 2183 0026 1B78     		ldrb	r3, [r3]
ARM GAS  C:\Users\ROUSSMA\AppData\Local\Temp\ccTx5OE8.s 			page 70


 2184 0028 0B22     		movs	r2, #11
 2185 002a BA18     		adds	r2, r7, r2
 2186 002c 1278     		ldrb	r2, [r2]
 2187 002e 1340     		ands	r3, r2
 2188 0030 DBB2     		uxtb	r3, r3
 2189 0032 002B     		cmp	r3, #0
 2190 0034 01D0     		beq	.L107
 2191              		.loc 1 1734 0 is_stmt 0 discriminator 1
 2192 0036 0123     		movs	r3, #1
 2193 0038 00E0     		b	.L109
 2194              	.L107:
 2195              		.loc 1 1734 0 discriminator 2
 2196 003a 0023     		movs	r3, #0
 2197              	.L109:
1735:Generated_Source\PSoC4/Capsense.c **** }
 2198              		.loc 1 1735 0 is_stmt 1 discriminator 5
 2199 003c 1800     		movs	r0, r3
 2200 003e BD46     		mov	sp, r7
 2201 0040 04B0     		add	sp, sp, #16
 2202              		@ sp needed
 2203 0042 80BD     		pop	{r7, pc}
 2204              		.cfi_endproc
 2205              	.LFE61:
 2206              		.size	Capsense_GetBitValue, .-Capsense_GetBitValue
 2207              		.section	.text.Capsense_SetBitValue,"ax",%progbits
 2208              		.align	2
 2209              		.global	Capsense_SetBitValue
 2210              		.code	16
 2211              		.thumb_func
 2212              		.type	Capsense_SetBitValue, %function
 2213              	Capsense_SetBitValue:
 2214              	.LFB62:
1736:Generated_Source\PSoC4/Capsense.c **** 
1737:Generated_Source\PSoC4/Capsense.c **** 
1738:Generated_Source\PSoC4/Capsense.c **** /*******************************************************************************
1739:Generated_Source\PSoC4/Capsense.c **** * Function Name: Capsense_SetBitValue
1740:Generated_Source\PSoC4/Capsense.c **** ********************************************************************************
1741:Generated_Source\PSoC4/Capsense.c **** *
1742:Generated_Source\PSoC4/Capsense.c **** * Summary:
1743:Generated_Source\PSoC4/Capsense.c **** *  The API sets a bit status of the bit in the table array which contains masks.
1744:Generated_Source\PSoC4/Capsense.c **** *
1745:Generated_Source\PSoC4/Capsense.c **** * Parameters:
1746:Generated_Source\PSoC4/Capsense.c **** *  table[] - array with bit masks.
1747:Generated_Source\PSoC4/Capsense.c **** *  position - position of bit in the table[] array.
1748:Generated_Source\PSoC4/Capsense.c **** *  value: 0 - bit is not set; 1 - bit is set.
1749:Generated_Source\PSoC4/Capsense.c **** *
1750:Generated_Source\PSoC4/Capsense.c **** * Return:
1751:Generated_Source\PSoC4/Capsense.c **** *  None
1752:Generated_Source\PSoC4/Capsense.c **** *
1753:Generated_Source\PSoC4/Capsense.c **** * Global Variables:
1754:Generated_Source\PSoC4/Capsense.c **** *  None
1755:Generated_Source\PSoC4/Capsense.c **** *
1756:Generated_Source\PSoC4/Capsense.c **** * Side Effects:
1757:Generated_Source\PSoC4/Capsense.c **** *  None
1758:Generated_Source\PSoC4/Capsense.c **** *
1759:Generated_Source\PSoC4/Capsense.c **** *******************************************************************************/
1760:Generated_Source\PSoC4/Capsense.c **** void Capsense_SetBitValue(uint8 table[], uint32 position, uint32 value)
ARM GAS  C:\Users\ROUSSMA\AppData\Local\Temp\ccTx5OE8.s 			page 71


1761:Generated_Source\PSoC4/Capsense.c **** {
 2215              		.loc 1 1761 0
 2216              		.cfi_startproc
 2217              		@ args = 0, pretend = 0, frame = 24
 2218              		@ frame_needed = 1, uses_anonymous_args = 0
 2219 0000 80B5     		push	{r7, lr}
 2220              		.cfi_def_cfa_offset 8
 2221              		.cfi_offset 7, -8
 2222              		.cfi_offset 14, -4
 2223 0002 86B0     		sub	sp, sp, #24
 2224              		.cfi_def_cfa_offset 32
 2225 0004 00AF     		add	r7, sp, #0
 2226              		.cfi_def_cfa_register 7
 2227 0006 F860     		str	r0, [r7, #12]
 2228 0008 B960     		str	r1, [r7, #8]
 2229 000a 7A60     		str	r2, [r7, #4]
1762:Generated_Source\PSoC4/Capsense.c ****     uint32 offset;
1763:Generated_Source\PSoC4/Capsense.c ****     uint8 enMask;
1764:Generated_Source\PSoC4/Capsense.c **** 
1765:Generated_Source\PSoC4/Capsense.c ****     /* position is divided by 8 to calculate the element of the
1766:Generated_Source\PSoC4/Capsense.c ****        table[] array that contains the enable bit
1767:Generated_Source\PSoC4/Capsense.c ****        for an appropriate sensor.
1768:Generated_Source\PSoC4/Capsense.c ****     */
1769:Generated_Source\PSoC4/Capsense.c ****     offset = (position >> 3u);
 2230              		.loc 1 1769 0
 2231 000c BB68     		ldr	r3, [r7, #8]
 2232 000e DB08     		lsrs	r3, r3, #3
 2233 0010 7B61     		str	r3, [r7, #20]
1770:Generated_Source\PSoC4/Capsense.c **** 
1771:Generated_Source\PSoC4/Capsense.c ****     /* The enMask calculation for the appropriate sensor. Operation (position & 0x07u)
1772:Generated_Source\PSoC4/Capsense.c ****        intends to calculate the enable bit offset for the 8-bit element of the
1773:Generated_Source\PSoC4/Capsense.c ****        table[] array.
1774:Generated_Source\PSoC4/Capsense.c ****     */
1775:Generated_Source\PSoC4/Capsense.c ****     enMask = 0x01u << (position & 0x07u);
 2234              		.loc 1 1775 0
 2235 0012 BB68     		ldr	r3, [r7, #8]
 2236 0014 0722     		movs	r2, #7
 2237 0016 1340     		ands	r3, r2
 2238 0018 0122     		movs	r2, #1
 2239 001a 9A40     		lsls	r2, r2, r3
 2240 001c 1323     		movs	r3, #19
 2241 001e FB18     		adds	r3, r7, r3
 2242 0020 1A70     		strb	r2, [r3]
1776:Generated_Source\PSoC4/Capsense.c **** 
1777:Generated_Source\PSoC4/Capsense.c ****     if(0u != value)
 2243              		.loc 1 1777 0
 2244 0022 7B68     		ldr	r3, [r7, #4]
 2245 0024 002B     		cmp	r3, #0
 2246 0026 0DD0     		beq	.L111
1778:Generated_Source\PSoC4/Capsense.c ****     {
1779:Generated_Source\PSoC4/Capsense.c ****         table[offset] |= enMask;
 2247              		.loc 1 1779 0
 2248 0028 FA68     		ldr	r2, [r7, #12]
 2249 002a 7B69     		ldr	r3, [r7, #20]
 2250 002c D318     		adds	r3, r2, r3
 2251 002e F968     		ldr	r1, [r7, #12]
 2252 0030 7A69     		ldr	r2, [r7, #20]
ARM GAS  C:\Users\ROUSSMA\AppData\Local\Temp\ccTx5OE8.s 			page 72


 2253 0032 8A18     		adds	r2, r1, r2
 2254 0034 1178     		ldrb	r1, [r2]
 2255 0036 1322     		movs	r2, #19
 2256 0038 BA18     		adds	r2, r7, r2
 2257 003a 1278     		ldrb	r2, [r2]
 2258 003c 0A43     		orrs	r2, r1
 2259 003e D2B2     		uxtb	r2, r2
 2260 0040 1A70     		strb	r2, [r3]
1780:Generated_Source\PSoC4/Capsense.c ****     }
1781:Generated_Source\PSoC4/Capsense.c ****     else
1782:Generated_Source\PSoC4/Capsense.c ****     {
1783:Generated_Source\PSoC4/Capsense.c ****         table[offset] &= (uint8)~(enMask);
1784:Generated_Source\PSoC4/Capsense.c ****     }
1785:Generated_Source\PSoC4/Capsense.c **** }
 2261              		.loc 1 1785 0
 2262 0042 0EE0     		b	.L113
 2263              	.L111:
1783:Generated_Source\PSoC4/Capsense.c ****     }
 2264              		.loc 1 1783 0
 2265 0044 FA68     		ldr	r2, [r7, #12]
 2266 0046 7B69     		ldr	r3, [r7, #20]
 2267 0048 D318     		adds	r3, r2, r3
 2268 004a F968     		ldr	r1, [r7, #12]
 2269 004c 7A69     		ldr	r2, [r7, #20]
 2270 004e 8A18     		adds	r2, r1, r2
 2271 0050 1278     		ldrb	r2, [r2]
 2272 0052 1321     		movs	r1, #19
 2273 0054 7918     		adds	r1, r7, r1
 2274 0056 0978     		ldrb	r1, [r1]
 2275 0058 C943     		mvns	r1, r1
 2276 005a C9B2     		uxtb	r1, r1
 2277 005c 0A40     		ands	r2, r1
 2278 005e D2B2     		uxtb	r2, r2
 2279 0060 1A70     		strb	r2, [r3]
 2280              	.L113:
 2281              		.loc 1 1785 0
 2282 0062 C046     		nop
 2283 0064 BD46     		mov	sp, r7
 2284 0066 06B0     		add	sp, sp, #24
 2285              		@ sp needed
 2286 0068 80BD     		pop	{r7, pc}
 2287              		.cfi_endproc
 2288              	.LFE62:
 2289              		.size	Capsense_SetBitValue, .-Capsense_SetBitValue
 2290 006a C046     		.section	.text.Capsense_GetSenseClkDivider,"ax",%progbits
 2291              		.align	2
 2292              		.global	Capsense_GetSenseClkDivider
 2293              		.code	16
 2294              		.thumb_func
 2295              		.type	Capsense_GetSenseClkDivider, %function
 2296              	Capsense_GetSenseClkDivider:
 2297              	.LFB63:
1786:Generated_Source\PSoC4/Capsense.c **** 
1787:Generated_Source\PSoC4/Capsense.c **** 
1788:Generated_Source\PSoC4/Capsense.c **** 
1789:Generated_Source\PSoC4/Capsense.c **** /*******************************************************************************
1790:Generated_Source\PSoC4/Capsense.c **** * Function Name: Capsense_GetSenseClkDivider
ARM GAS  C:\Users\ROUSSMA\AppData\Local\Temp\ccTx5OE8.s 			page 73


1791:Generated_Source\PSoC4/Capsense.c **** ********************************************************************************
1792:Generated_Source\PSoC4/Capsense.c **** *
1793:Generated_Source\PSoC4/Capsense.c **** * Summary:
1794:Generated_Source\PSoC4/Capsense.c **** *  This API returns a value of the sense clock divider for the  sensor.
1795:Generated_Source\PSoC4/Capsense.c **** *
1796:Generated_Source\PSoC4/Capsense.c **** * Parameters:
1797:Generated_Source\PSoC4/Capsense.c **** *  sensor: sensor index. The index value can be
1798:Generated_Source\PSoC4/Capsense.c **** *  from 0 to (Capsense_TOTAL_SENSOR_COUNT-1).
1799:Generated_Source\PSoC4/Capsense.c **** *
1800:Generated_Source\PSoC4/Capsense.c **** * Return:
1801:Generated_Source\PSoC4/Capsense.c **** *  This API returns the sense clock divider of the sensor.
1802:Generated_Source\PSoC4/Capsense.c **** *
1803:Generated_Source\PSoC4/Capsense.c **** * Global Variables:
1804:Generated_Source\PSoC4/Capsense.c **** *  Capsense_senseClkDividerVal[] - stores the sense clock divider values.
1805:Generated_Source\PSoC4/Capsense.c **** *
1806:Generated_Source\PSoC4/Capsense.c **** * Side Effects:
1807:Generated_Source\PSoC4/Capsense.c **** *  None
1808:Generated_Source\PSoC4/Capsense.c **** *
1809:Generated_Source\PSoC4/Capsense.c **** *******************************************************************************/
1810:Generated_Source\PSoC4/Capsense.c **** uint32 Capsense_GetSenseClkDivider(uint32 sensor)
1811:Generated_Source\PSoC4/Capsense.c **** {
 2298              		.loc 1 1811 0
 2299              		.cfi_startproc
 2300              		@ args = 0, pretend = 0, frame = 8
 2301              		@ frame_needed = 1, uses_anonymous_args = 0
 2302 0000 80B5     		push	{r7, lr}
 2303              		.cfi_def_cfa_offset 8
 2304              		.cfi_offset 7, -8
 2305              		.cfi_offset 14, -4
 2306 0002 82B0     		sub	sp, sp, #8
 2307              		.cfi_def_cfa_offset 16
 2308 0004 00AF     		add	r7, sp, #0
 2309              		.cfi_def_cfa_register 7
 2310 0006 7860     		str	r0, [r7, #4]
1812:Generated_Source\PSoC4/Capsense.c ****     #if(0u != Capsense_MULTIPLE_FREQUENCY_SET)
1813:Generated_Source\PSoC4/Capsense.c ****         return((uint32)Capsense_senseClkDividerVal[sensor]);
 2311              		.loc 1 1813 0
 2312 0008 034A     		ldr	r2, .L116
 2313 000a 7B68     		ldr	r3, [r7, #4]
 2314 000c D318     		adds	r3, r2, r3
 2315 000e 1B78     		ldrb	r3, [r3]
1814:Generated_Source\PSoC4/Capsense.c ****     #else
1815:Generated_Source\PSoC4/Capsense.c ****         return((uint32)Capsense_senseClkDividerVal);
1816:Generated_Source\PSoC4/Capsense.c ****     #endif /* (0u != Capsense_MULTIPLE_FREQUENCY_SET) */
1817:Generated_Source\PSoC4/Capsense.c **** }
 2316              		.loc 1 1817 0
 2317 0010 1800     		movs	r0, r3
 2318 0012 BD46     		mov	sp, r7
 2319 0014 02B0     		add	sp, sp, #8
 2320              		@ sp needed
 2321 0016 80BD     		pop	{r7, pc}
 2322              	.L117:
 2323              		.align	2
 2324              	.L116:
 2325 0018 00000000 		.word	Capsense_senseClkDividerVal
 2326              		.cfi_endproc
 2327              	.LFE63:
ARM GAS  C:\Users\ROUSSMA\AppData\Local\Temp\ccTx5OE8.s 			page 74


 2328              		.size	Capsense_GetSenseClkDivider, .-Capsense_GetSenseClkDivider
 2329              		.section	.text.Capsense_SetSenseClkDivider,"ax",%progbits
 2330              		.align	2
 2331              		.global	Capsense_SetSenseClkDivider
 2332              		.code	16
 2333              		.thumb_func
 2334              		.type	Capsense_SetSenseClkDivider, %function
 2335              	Capsense_SetSenseClkDivider:
 2336              	.LFB64:
1818:Generated_Source\PSoC4/Capsense.c **** 
1819:Generated_Source\PSoC4/Capsense.c **** #if (Capsense_TUNING_METHOD != Capsense__TUNING_NONE)
1820:Generated_Source\PSoC4/Capsense.c ****     /*******************************************************************************
1821:Generated_Source\PSoC4/Capsense.c ****     * Function Name: Capsense_SetSenseClkDivider
1822:Generated_Source\PSoC4/Capsense.c ****     ********************************************************************************
1823:Generated_Source\PSoC4/Capsense.c ****     *
1824:Generated_Source\PSoC4/Capsense.c ****     * Summary:
1825:Generated_Source\PSoC4/Capsense.c ****     *  This API sets a value of the sense clock divider for the  sensor.
1826:Generated_Source\PSoC4/Capsense.c ****     *
1827:Generated_Source\PSoC4/Capsense.c ****     * Parameters:
1828:Generated_Source\PSoC4/Capsense.c ****     *  sensor:  Sensor index.
1829:Generated_Source\PSoC4/Capsense.c ****     *  senseClk: represents the sense clock value.
1830:Generated_Source\PSoC4/Capsense.c ****     *
1831:Generated_Source\PSoC4/Capsense.c ****     * Return:
1832:Generated_Source\PSoC4/Capsense.c ****     *  None.
1833:Generated_Source\PSoC4/Capsense.c ****     *
1834:Generated_Source\PSoC4/Capsense.c ****     * Global Variables:
1835:Generated_Source\PSoC4/Capsense.c ****     *  Capsense_senseClkDividerVal[] - stores the sense clock divider values.
1836:Generated_Source\PSoC4/Capsense.c ****     *
1837:Generated_Source\PSoC4/Capsense.c ****     * Side Effects:
1838:Generated_Source\PSoC4/Capsense.c ****     *  None
1839:Generated_Source\PSoC4/Capsense.c ****     *
1840:Generated_Source\PSoC4/Capsense.c ****     *******************************************************************************/
1841:Generated_Source\PSoC4/Capsense.c ****     void Capsense_SetSenseClkDivider(uint32 sensor, uint32 senseClk)
1842:Generated_Source\PSoC4/Capsense.c ****     {
 2337              		.loc 1 1842 0
 2338              		.cfi_startproc
 2339              		@ args = 0, pretend = 0, frame = 8
 2340              		@ frame_needed = 1, uses_anonymous_args = 0
 2341 0000 80B5     		push	{r7, lr}
 2342              		.cfi_def_cfa_offset 8
 2343              		.cfi_offset 7, -8
 2344              		.cfi_offset 14, -4
 2345 0002 82B0     		sub	sp, sp, #8
 2346              		.cfi_def_cfa_offset 16
 2347 0004 00AF     		add	r7, sp, #0
 2348              		.cfi_def_cfa_register 7
 2349 0006 7860     		str	r0, [r7, #4]
 2350 0008 3960     		str	r1, [r7]
1843:Generated_Source\PSoC4/Capsense.c ****         #if(0u != Capsense_MULTIPLE_FREQUENCY_SET)
1844:Generated_Source\PSoC4/Capsense.c ****             Capsense_senseClkDividerVal[sensor] = (uint8)senseClk;
 2351              		.loc 1 1844 0
 2352 000a 3B68     		ldr	r3, [r7]
 2353 000c D9B2     		uxtb	r1, r3
 2354 000e 044A     		ldr	r2, .L119
 2355 0010 7B68     		ldr	r3, [r7, #4]
 2356 0012 D318     		adds	r3, r2, r3
 2357 0014 0A1C     		adds	r2, r1, #0
ARM GAS  C:\Users\ROUSSMA\AppData\Local\Temp\ccTx5OE8.s 			page 75


 2358 0016 1A70     		strb	r2, [r3]
1845:Generated_Source\PSoC4/Capsense.c ****         #else
1846:Generated_Source\PSoC4/Capsense.c ****             Capsense_senseClkDividerVal = (uint8)senseClk;
1847:Generated_Source\PSoC4/Capsense.c ****         #endif /* (0u != Capsense_MULTIPLE_FREQUENCY_SET) */
1848:Generated_Source\PSoC4/Capsense.c ****     }
 2359              		.loc 1 1848 0
 2360 0018 C046     		nop
 2361 001a BD46     		mov	sp, r7
 2362 001c 02B0     		add	sp, sp, #8
 2363              		@ sp needed
 2364 001e 80BD     		pop	{r7, pc}
 2365              	.L120:
 2366              		.align	2
 2367              	.L119:
 2368 0020 00000000 		.word	Capsense_senseClkDividerVal
 2369              		.cfi_endproc
 2370              	.LFE64:
 2371              		.size	Capsense_SetSenseClkDivider, .-Capsense_SetSenseClkDivider
 2372              		.section	.text.Capsense_GetModulatorClkDivider,"ax",%progbits
 2373              		.align	2
 2374              		.global	Capsense_GetModulatorClkDivider
 2375              		.code	16
 2376              		.thumb_func
 2377              		.type	Capsense_GetModulatorClkDivider, %function
 2378              	Capsense_GetModulatorClkDivider:
 2379              	.LFB65:
1849:Generated_Source\PSoC4/Capsense.c **** #endif /* (Capsense_TUNING_METHOD != Capsense__TUNING_NONE) */
1850:Generated_Source\PSoC4/Capsense.c **** 
1851:Generated_Source\PSoC4/Capsense.c **** 
1852:Generated_Source\PSoC4/Capsense.c **** /*******************************************************************************
1853:Generated_Source\PSoC4/Capsense.c **** * Function Name: Capsense_GetModulatorClkDivider
1854:Generated_Source\PSoC4/Capsense.c **** ********************************************************************************
1855:Generated_Source\PSoC4/Capsense.c **** *
1856:Generated_Source\PSoC4/Capsense.c **** * Summary:
1857:Generated_Source\PSoC4/Capsense.c **** *  This API returns a value of the modulator sample clock divider for the  sensor.
1858:Generated_Source\PSoC4/Capsense.c **** *
1859:Generated_Source\PSoC4/Capsense.c **** * Parameters:
1860:Generated_Source\PSoC4/Capsense.c **** *  sensor: sensor index. The value of index can be
1861:Generated_Source\PSoC4/Capsense.c **** *  from 0 to (Capsense_TOTAL_SENSOR_COUNT-1).
1862:Generated_Source\PSoC4/Capsense.c **** *
1863:Generated_Source\PSoC4/Capsense.c **** * Return:
1864:Generated_Source\PSoC4/Capsense.c **** *  This API returns the modulator sample clock divider for the  sensor.
1865:Generated_Source\PSoC4/Capsense.c **** *
1866:Generated_Source\PSoC4/Capsense.c **** * Global Variables:
1867:Generated_Source\PSoC4/Capsense.c **** *  Capsense_sampleClkDividerVal[] - stores the modulator sample divider values.
1868:Generated_Source\PSoC4/Capsense.c **** *
1869:Generated_Source\PSoC4/Capsense.c **** * Side Effects:
1870:Generated_Source\PSoC4/Capsense.c **** *  None
1871:Generated_Source\PSoC4/Capsense.c **** *
1872:Generated_Source\PSoC4/Capsense.c **** *******************************************************************************/
1873:Generated_Source\PSoC4/Capsense.c **** uint32 Capsense_GetModulatorClkDivider(uint32 sensor)
1874:Generated_Source\PSoC4/Capsense.c **** {
 2380              		.loc 1 1874 0
 2381              		.cfi_startproc
 2382              		@ args = 0, pretend = 0, frame = 8
 2383              		@ frame_needed = 1, uses_anonymous_args = 0
 2384 0000 80B5     		push	{r7, lr}
ARM GAS  C:\Users\ROUSSMA\AppData\Local\Temp\ccTx5OE8.s 			page 76


 2385              		.cfi_def_cfa_offset 8
 2386              		.cfi_offset 7, -8
 2387              		.cfi_offset 14, -4
 2388 0002 82B0     		sub	sp, sp, #8
 2389              		.cfi_def_cfa_offset 16
 2390 0004 00AF     		add	r7, sp, #0
 2391              		.cfi_def_cfa_register 7
 2392 0006 7860     		str	r0, [r7, #4]
1875:Generated_Source\PSoC4/Capsense.c ****     #if(0u != Capsense_MULTIPLE_FREQUENCY_SET)
1876:Generated_Source\PSoC4/Capsense.c ****         return((uint32)Capsense_sampleClkDividerVal[sensor]);
 2393              		.loc 1 1876 0
 2394 0008 034A     		ldr	r2, .L123
 2395 000a 7B68     		ldr	r3, [r7, #4]
 2396 000c D318     		adds	r3, r2, r3
 2397 000e 1B78     		ldrb	r3, [r3]
1877:Generated_Source\PSoC4/Capsense.c ****     #else
1878:Generated_Source\PSoC4/Capsense.c ****         return((uint32)Capsense_sampleClkDividerVal);
1879:Generated_Source\PSoC4/Capsense.c ****     #endif /* (0u != Capsense_MULTIPLE_FREQUENCY_SET) */
1880:Generated_Source\PSoC4/Capsense.c **** }
 2398              		.loc 1 1880 0
 2399 0010 1800     		movs	r0, r3
 2400 0012 BD46     		mov	sp, r7
 2401 0014 02B0     		add	sp, sp, #8
 2402              		@ sp needed
 2403 0016 80BD     		pop	{r7, pc}
 2404              	.L124:
 2405              		.align	2
 2406              	.L123:
 2407 0018 00000000 		.word	Capsense_sampleClkDividerVal
 2408              		.cfi_endproc
 2409              	.LFE65:
 2410              		.size	Capsense_GetModulatorClkDivider, .-Capsense_GetModulatorClkDivider
 2411              		.section	.text.Capsense_SetModulatorClkDivider,"ax",%progbits
 2412              		.align	2
 2413              		.global	Capsense_SetModulatorClkDivider
 2414              		.code	16
 2415              		.thumb_func
 2416              		.type	Capsense_SetModulatorClkDivider, %function
 2417              	Capsense_SetModulatorClkDivider:
 2418              	.LFB66:
1881:Generated_Source\PSoC4/Capsense.c **** 
1882:Generated_Source\PSoC4/Capsense.c **** #if (Capsense_TUNING_METHOD != Capsense__TUNING_NONE)
1883:Generated_Source\PSoC4/Capsense.c ****     /*******************************************************************************
1884:Generated_Source\PSoC4/Capsense.c ****     * Function Name: Capsense_SetModulatorClkDivider
1885:Generated_Source\PSoC4/Capsense.c ****     ********************************************************************************
1886:Generated_Source\PSoC4/Capsense.c ****     *
1887:Generated_Source\PSoC4/Capsense.c ****     * Summary:
1888:Generated_Source\PSoC4/Capsense.c ****     *  This API sets a value of the modulator sample clock divider for the  sensor.
1889:Generated_Source\PSoC4/Capsense.c ****     *
1890:Generated_Source\PSoC4/Capsense.c ****     * Parameters:
1891:Generated_Source\PSoC4/Capsense.c ****     *  sensor:  Sensor index.
1892:Generated_Source\PSoC4/Capsense.c ****     *  modulatorClk: represents the modulator sample clock value.
1893:Generated_Source\PSoC4/Capsense.c ****     *
1894:Generated_Source\PSoC4/Capsense.c ****     * Return:
1895:Generated_Source\PSoC4/Capsense.c ****     *  None.
1896:Generated_Source\PSoC4/Capsense.c ****     *
1897:Generated_Source\PSoC4/Capsense.c ****     * Global Variables:
ARM GAS  C:\Users\ROUSSMA\AppData\Local\Temp\ccTx5OE8.s 			page 77


1898:Generated_Source\PSoC4/Capsense.c ****     *  Capsense_sampleClkDividerVal[] - stores the modulator sample divider values.
1899:Generated_Source\PSoC4/Capsense.c ****     *
1900:Generated_Source\PSoC4/Capsense.c ****     * Side Effects:
1901:Generated_Source\PSoC4/Capsense.c ****     *  None
1902:Generated_Source\PSoC4/Capsense.c ****     *
1903:Generated_Source\PSoC4/Capsense.c ****     *******************************************************************************/
1904:Generated_Source\PSoC4/Capsense.c ****     void Capsense_SetModulatorClkDivider(uint32 sensor, uint32 modulatorClk)
1905:Generated_Source\PSoC4/Capsense.c ****     {
 2419              		.loc 1 1905 0
 2420              		.cfi_startproc
 2421              		@ args = 0, pretend = 0, frame = 8
 2422              		@ frame_needed = 1, uses_anonymous_args = 0
 2423 0000 80B5     		push	{r7, lr}
 2424              		.cfi_def_cfa_offset 8
 2425              		.cfi_offset 7, -8
 2426              		.cfi_offset 14, -4
 2427 0002 82B0     		sub	sp, sp, #8
 2428              		.cfi_def_cfa_offset 16
 2429 0004 00AF     		add	r7, sp, #0
 2430              		.cfi_def_cfa_register 7
 2431 0006 7860     		str	r0, [r7, #4]
 2432 0008 3960     		str	r1, [r7]
1906:Generated_Source\PSoC4/Capsense.c ****         #if(0u != Capsense_MULTIPLE_FREQUENCY_SET)
1907:Generated_Source\PSoC4/Capsense.c ****             Capsense_sampleClkDividerVal[sensor] = (uint8)modulatorClk;
 2433              		.loc 1 1907 0
 2434 000a 3B68     		ldr	r3, [r7]
 2435 000c D9B2     		uxtb	r1, r3
 2436 000e 044A     		ldr	r2, .L126
 2437 0010 7B68     		ldr	r3, [r7, #4]
 2438 0012 D318     		adds	r3, r2, r3
 2439 0014 0A1C     		adds	r2, r1, #0
 2440 0016 1A70     		strb	r2, [r3]
1908:Generated_Source\PSoC4/Capsense.c ****         #else
1909:Generated_Source\PSoC4/Capsense.c ****             Capsense_sampleClkDividerVal = (uint8)modulatorClk;
1910:Generated_Source\PSoC4/Capsense.c ****         #endif /* (0u != Capsense_MULTIPLE_FREQUENCY_SET) */
1911:Generated_Source\PSoC4/Capsense.c ****     }
 2441              		.loc 1 1911 0
 2442 0018 C046     		nop
 2443 001a BD46     		mov	sp, r7
 2444 001c 02B0     		add	sp, sp, #8
 2445              		@ sp needed
 2446 001e 80BD     		pop	{r7, pc}
 2447              	.L127:
 2448              		.align	2
 2449              	.L126:
 2450 0020 00000000 		.word	Capsense_sampleClkDividerVal
 2451              		.cfi_endproc
 2452              	.LFE66:
 2453              		.size	Capsense_SetModulatorClkDivider, .-Capsense_SetModulatorClkDivider
 2454              		.section	.text.Capsense_GetModulationIDAC,"ax",%progbits
 2455              		.align	2
 2456              		.global	Capsense_GetModulationIDAC
 2457              		.code	16
 2458              		.thumb_func
 2459              		.type	Capsense_GetModulationIDAC, %function
 2460              	Capsense_GetModulationIDAC:
 2461              	.LFB67:
ARM GAS  C:\Users\ROUSSMA\AppData\Local\Temp\ccTx5OE8.s 			page 78


1912:Generated_Source\PSoC4/Capsense.c **** #endif /* (Capsense_TUNING_METHOD != Capsense__TUNING_NONE) */
1913:Generated_Source\PSoC4/Capsense.c **** 
1914:Generated_Source\PSoC4/Capsense.c **** /*******************************************************************************
1915:Generated_Source\PSoC4/Capsense.c **** * Function Name: Capsense_GetModulationIDAC
1916:Generated_Source\PSoC4/Capsense.c **** ********************************************************************************
1917:Generated_Source\PSoC4/Capsense.c **** *
1918:Generated_Source\PSoC4/Capsense.c **** * Summary:
