ARM GAS  C:\Users\ROUSSMA\AppData\Local\Temp\ccw7ZO0v.s 			page 1


   1              		.syntax unified
   2              		.cpu cortex-m0
   3              		.fpu softvfp
   4              		.eabi_attribute 20, 1
   5              		.eabi_attribute 21, 1
   6              		.eabi_attribute 23, 3
   7              		.eabi_attribute 24, 1
   8              		.eabi_attribute 25, 1
   9              		.eabi_attribute 26, 1
  10              		.eabi_attribute 30, 6
  11              		.eabi_attribute 34, 0
  12              		.eabi_attribute 18, 4
  13              		.thumb
  14              		.syntax unified
  15              		.file	"Capsense_CSHL.c"
  16              		.text
  17              	.Ltext0:
  18              		.cfi_sections	.debug_frame
  19              		.comm	Capsense_rawFilterData1,2,4
  20              		.global	Capsense_sensorBaseline
  21              		.bss
  22              		.align	2
  23              		.type	Capsense_sensorBaseline, %object
  24              		.size	Capsense_sensorBaseline, 2
  25              	Capsense_sensorBaseline:
  26 0000 0000     		.space	2
  27              		.global	Capsense_sensorBaselineLow
  28 0002 0000     		.align	2
  29              		.type	Capsense_sensorBaselineLow, %object
  30              		.size	Capsense_sensorBaselineLow, 1
  31              	Capsense_sensorBaselineLow:
  32 0004 00       		.space	1
  33              		.global	Capsense_sensorSignal
  34 0005 000000   		.align	2
  35              		.type	Capsense_sensorSignal, %object
  36              		.size	Capsense_sensorSignal, 1
  37              	Capsense_sensorSignal:
  38 0008 00       		.space	1
  39              		.global	Capsense_sensorOnMask
  40 0009 000000   		.align	2
  41              		.type	Capsense_sensorOnMask, %object
  42              		.size	Capsense_sensorOnMask, 1
  43              	Capsense_sensorOnMask:
  44 000c 00       		.space	1
  45              		.comm	Capsense_lowBaselineResetCnt,1,4
  46              		.global	Capsense_lowBaselineReset
  47              		.data
  48              		.align	2
  49              		.type	Capsense_lowBaselineReset, %object
  50              		.size	Capsense_lowBaselineReset, 1
  51              	Capsense_lowBaselineReset:
  52 0000 05       		.byte	5
  53              		.global	Capsense_enableRawFilters
  54              		.type	Capsense_enableRawFilters, %object
  55              		.size	Capsense_enableRawFilters, 1
  56              	Capsense_enableRawFilters:
  57 0001 01       		.byte	1
ARM GAS  C:\Users\ROUSSMA\AppData\Local\Temp\ccw7ZO0v.s 			page 2


  58              		.global	Capsense_fingerThreshold
  59 0002 0000     		.align	2
  60              		.type	Capsense_fingerThreshold, %object
  61              		.size	Capsense_fingerThreshold, 1
  62              	Capsense_fingerThreshold:
  63 0004 64       		.byte	100
  64              		.global	Capsense_noiseThreshold
  65 0005 000000   		.align	2
  66              		.type	Capsense_noiseThreshold, %object
  67              		.size	Capsense_noiseThreshold, 1
  68              	Capsense_noiseThreshold:
  69 0008 14       		.byte	20
  70              		.global	Capsense_negativeNoiseThreshold
  71 0009 000000   		.align	2
  72              		.type	Capsense_negativeNoiseThreshold, %object
  73              		.size	Capsense_negativeNoiseThreshold, 1
  74              	Capsense_negativeNoiseThreshold:
  75 000c 14       		.byte	20
  76              		.global	Capsense_hysteresis
  77 000d 000000   		.align	2
  78              		.type	Capsense_hysteresis, %object
  79              		.size	Capsense_hysteresis, 1
  80              	Capsense_hysteresis:
  81 0010 0A       		.byte	10
  82              		.global	Capsense_debounce
  83 0011 000000   		.align	2
  84              		.type	Capsense_debounce, %object
  85              		.size	Capsense_debounce, 1
  86              	Capsense_debounce:
  87 0014 01       		.byte	1
  88              		.bss
  89 000d 000000   		.align	2
  90              	Capsense_debounceCounter:
  91 0010 0000     		.space	2
  92              		.global	Capsense_rawDataIndex
  93              		.section	.rodata
  94              		.align	2
  95              		.type	Capsense_rawDataIndex, %object
  96              		.size	Capsense_rawDataIndex, 1
  97              	Capsense_rawDataIndex:
  98 0000 00       		.space	1
  99              		.global	Capsense_numberOfSensors
 100 0001 000000   		.align	2
 101              		.type	Capsense_numberOfSensors, %object
 102              		.size	Capsense_numberOfSensors, 1
 103              	Capsense_numberOfSensors:
 104 0004 01       		.byte	1
 105              		.section	.text.Capsense_BaseInit,"ax",%progbits
 106              		.align	2
 107              		.global	Capsense_BaseInit
 108              		.code	16
 109              		.thumb_func
 110              		.type	Capsense_BaseInit, %function
 111              	Capsense_BaseInit:
 112              	.LFB36:
 113              		.file 1 "Generated_Source\\PSoC4\\Capsense_CSHL.c"
   1:Generated_Source\PSoC4/Capsense_CSHL.c **** /*******************************************************************************
ARM GAS  C:\Users\ROUSSMA\AppData\Local\Temp\ccw7ZO0v.s 			page 3


   2:Generated_Source\PSoC4/Capsense_CSHL.c **** * File Name: Capsense_CSHL.c
   3:Generated_Source\PSoC4/Capsense_CSHL.c **** * Version 2.60
   4:Generated_Source\PSoC4/Capsense_CSHL.c **** *
   5:Generated_Source\PSoC4/Capsense_CSHL.c **** * Description:
   6:Generated_Source\PSoC4/Capsense_CSHL.c **** *  This file provides the source code to the High Level APIs for the CapSesne
   7:Generated_Source\PSoC4/Capsense_CSHL.c **** *  CSD component.
   8:Generated_Source\PSoC4/Capsense_CSHL.c **** *
   9:Generated_Source\PSoC4/Capsense_CSHL.c **** * Note:
  10:Generated_Source\PSoC4/Capsense_CSHL.c **** *
  11:Generated_Source\PSoC4/Capsense_CSHL.c **** ********************************************************************************
  12:Generated_Source\PSoC4/Capsense_CSHL.c **** * Copyright 2013-2016, Cypress Semiconductor Corporation.  All rights reserved.
  13:Generated_Source\PSoC4/Capsense_CSHL.c **** * You may use this file only in accordance with the license, terms, conditions,
  14:Generated_Source\PSoC4/Capsense_CSHL.c **** * disclaimers, and limitations in the end user license agreement accompanying
  15:Generated_Source\PSoC4/Capsense_CSHL.c **** * the software package with which this file was provided.
  16:Generated_Source\PSoC4/Capsense_CSHL.c **** *******************************************************************************/
  17:Generated_Source\PSoC4/Capsense_CSHL.c **** 
  18:Generated_Source\PSoC4/Capsense_CSHL.c **** #include "Capsense_CSHL.h"
  19:Generated_Source\PSoC4/Capsense_CSHL.c **** #include "Capsense_PVT.h"
  20:Generated_Source\PSoC4/Capsense_CSHL.c **** 
  21:Generated_Source\PSoC4/Capsense_CSHL.c **** /* SmartSense functions */
  22:Generated_Source\PSoC4/Capsense_CSHL.c **** #if (Capsense_TUNING_METHOD == Capsense__TUNING_AUTO)
  23:Generated_Source\PSoC4/Capsense_CSHL.c ****     extern void Capsense_UpdateThresholds(uint32 sensor);
  24:Generated_Source\PSoC4/Capsense_CSHL.c **** #endif /* (Capsense_TUNING_METHOD == Capsense__TUNING_AUTO) */
  25:Generated_Source\PSoC4/Capsense_CSHL.c **** 
  26:Generated_Source\PSoC4/Capsense_CSHL.c **** /* Storage of filters data */
  27:Generated_Source\PSoC4/Capsense_CSHL.c **** #if ( (0u != (Capsense_RAW_FILTER_MASK & Capsense_MEDIAN_FILTER)) || \
  28:Generated_Source\PSoC4/Capsense_CSHL.c ****       (0u != (Capsense_RAW_FILTER_MASK & Capsense_AVERAGING_FILTER)) )
  29:Generated_Source\PSoC4/Capsense_CSHL.c **** 
  30:Generated_Source\PSoC4/Capsense_CSHL.c ****     uint16 Capsense_rawFilterData1[Capsense_TOTAL_SENSOR_COUNT];
  31:Generated_Source\PSoC4/Capsense_CSHL.c ****     uint16 Capsense_rawFilterData2[Capsense_TOTAL_SENSOR_COUNT];
  32:Generated_Source\PSoC4/Capsense_CSHL.c **** 
  33:Generated_Source\PSoC4/Capsense_CSHL.c **** #elif ( (0u != (Capsense_RAW_FILTER_MASK & Capsense_IIR2_FILTER))   || \
  34:Generated_Source\PSoC4/Capsense_CSHL.c ****         (0u != (Capsense_RAW_FILTER_MASK & Capsense_IIR4_FILTER))   || \
  35:Generated_Source\PSoC4/Capsense_CSHL.c ****         (0u != (Capsense_RAW_FILTER_MASK & Capsense_JITTER_FILTER)) || \
  36:Generated_Source\PSoC4/Capsense_CSHL.c ****         (0u != (Capsense_RAW_FILTER_MASK & Capsense_IIR8_FILTER))   || \
  37:Generated_Source\PSoC4/Capsense_CSHL.c ****         (0u != (Capsense_RAW_FILTER_MASK & Capsense_IIR16_FILTER)) )
  38:Generated_Source\PSoC4/Capsense_CSHL.c **** 
  39:Generated_Source\PSoC4/Capsense_CSHL.c ****     uint16 Capsense_rawFilterData1[Capsense_TOTAL_SENSOR_COUNT];
  40:Generated_Source\PSoC4/Capsense_CSHL.c **** #endif  /* ( (Capsense_RAW_FILTER_MASK & Capsense_MEDIAN_FILTER) || \
  41:Generated_Source\PSoC4/Capsense_CSHL.c ****         *    (Capsense_RAW_FILTER_MASK & Capsense_AVERAGING_FILTER) )
  42:Generated_Source\PSoC4/Capsense_CSHL.c ****         */
  43:Generated_Source\PSoC4/Capsense_CSHL.c **** 
  44:Generated_Source\PSoC4/Capsense_CSHL.c **** extern uint16 Capsense_sensorRaw[Capsense_TOTAL_SENSOR_COUNT];
  45:Generated_Source\PSoC4/Capsense_CSHL.c **** extern uint8 Capsense_sensorEnableMask[Capsense_TOTAL_SENSOR_MASK];
  46:Generated_Source\PSoC4/Capsense_CSHL.c **** extern const uint8 Capsense_widgetNumber[Capsense_TOTAL_SENSOR_COUNT];
  47:Generated_Source\PSoC4/Capsense_CSHL.c **** 
  48:Generated_Source\PSoC4/Capsense_CSHL.c **** #if (Capsense_TUNING_METHOD != Capsense__TUNING_NONE)
  49:Generated_Source\PSoC4/Capsense_CSHL.c ****     extern uint32 Capsense_widgetResolution[Capsense_RESOLUTIONS_TBL_SIZE];
  50:Generated_Source\PSoC4/Capsense_CSHL.c **** #endif /* (Capsense_TUNING_METHOD != Capsense__TUNING_NONE) */
  51:Generated_Source\PSoC4/Capsense_CSHL.c **** 
  52:Generated_Source\PSoC4/Capsense_CSHL.c **** uint16 Capsense_sensorBaseline[Capsense_TOTAL_SENSOR_COUNT] = {0u};
  53:Generated_Source\PSoC4/Capsense_CSHL.c **** uint8 Capsense_sensorBaselineLow[Capsense_TOTAL_SENSOR_COUNT] = {0u};
  54:Generated_Source\PSoC4/Capsense_CSHL.c **** uint8 Capsense_sensorSignal[Capsense_TOTAL_SENSOR_COUNT] = {0u};
  55:Generated_Source\PSoC4/Capsense_CSHL.c **** uint8 Capsense_sensorOnMask[Capsense_TOTAL_SENSOR_MASK] = {0u};
  56:Generated_Source\PSoC4/Capsense_CSHL.c **** 
  57:Generated_Source\PSoC4/Capsense_CSHL.c **** uint8 Capsense_lowBaselineResetCnt[Capsense_TOTAL_SENSOR_COUNT];
  58:Generated_Source\PSoC4/Capsense_CSHL.c **** uint8 Capsense_lowBaselineReset[Capsense_TOTAL_SENSOR_COUNT] = {
ARM GAS  C:\Users\ROUSSMA\AppData\Local\Temp\ccw7ZO0v.s 			page 4


  59:Generated_Source\PSoC4/Capsense_CSHL.c ****     5u, 
  60:Generated_Source\PSoC4/Capsense_CSHL.c **** };
  61:Generated_Source\PSoC4/Capsense_CSHL.c **** 
  62:Generated_Source\PSoC4/Capsense_CSHL.c **** 
  63:Generated_Source\PSoC4/Capsense_CSHL.c **** 
  64:Generated_Source\PSoC4/Capsense_CSHL.c **** #if (Capsense_TUNING_METHOD == Capsense__TUNING_AUTO)
  65:Generated_Source\PSoC4/Capsense_CSHL.c ****     extern Capsense_CONFIG_TYPE_P4_v2_60 Capsense_config;
  66:Generated_Source\PSoC4/Capsense_CSHL.c **** #endif  /* (Capsense_TUNING_METHOD == Capsense__TUNING_AUTO) */
  67:Generated_Source\PSoC4/Capsense_CSHL.c **** 
  68:Generated_Source\PSoC4/Capsense_CSHL.c **** #if (Capsense_RAW_FILTER_MASK != 0u)
  69:Generated_Source\PSoC4/Capsense_CSHL.c **** uint8 Capsense_enableRawFilters = Capsense_RAW_FILTERS_ENABLED;
  70:Generated_Source\PSoC4/Capsense_CSHL.c **** #endif  /* (Capsense_RAW_FILTER_MASK != 0u) */
  71:Generated_Source\PSoC4/Capsense_CSHL.c **** 
  72:Generated_Source\PSoC4/Capsense_CSHL.c **** /* Generated by Customizer */
  73:Generated_Source\PSoC4/Capsense_CSHL.c **** uint8 Capsense_fingerThreshold[] = {
  74:Generated_Source\PSoC4/Capsense_CSHL.c ****     100u, 
  75:Generated_Source\PSoC4/Capsense_CSHL.c **** };
  76:Generated_Source\PSoC4/Capsense_CSHL.c **** 
  77:Generated_Source\PSoC4/Capsense_CSHL.c **** uint8 Capsense_noiseThreshold[] = {
  78:Generated_Source\PSoC4/Capsense_CSHL.c ****     20u, 
  79:Generated_Source\PSoC4/Capsense_CSHL.c **** };
  80:Generated_Source\PSoC4/Capsense_CSHL.c **** 
  81:Generated_Source\PSoC4/Capsense_CSHL.c **** uint8 Capsense_negativeNoiseThreshold[] = {
  82:Generated_Source\PSoC4/Capsense_CSHL.c ****     20u, 
  83:Generated_Source\PSoC4/Capsense_CSHL.c **** };
  84:Generated_Source\PSoC4/Capsense_CSHL.c **** 
  85:Generated_Source\PSoC4/Capsense_CSHL.c **** uint8 Capsense_hysteresis[] = {
  86:Generated_Source\PSoC4/Capsense_CSHL.c ****     10u, 
  87:Generated_Source\PSoC4/Capsense_CSHL.c **** };
  88:Generated_Source\PSoC4/Capsense_CSHL.c **** 
  89:Generated_Source\PSoC4/Capsense_CSHL.c **** uint8 Capsense_debounce[] = {
  90:Generated_Source\PSoC4/Capsense_CSHL.c ****     1u, 
  91:Generated_Source\PSoC4/Capsense_CSHL.c **** };
  92:Generated_Source\PSoC4/Capsense_CSHL.c **** 
  93:Generated_Source\PSoC4/Capsense_CSHL.c **** static uint8 Capsense_debounceCounter[] = {
  94:Generated_Source\PSoC4/Capsense_CSHL.c ****     0u, 0u, 
  95:Generated_Source\PSoC4/Capsense_CSHL.c **** };
  96:Generated_Source\PSoC4/Capsense_CSHL.c **** 
  97:Generated_Source\PSoC4/Capsense_CSHL.c **** const uint8 Capsense_rawDataIndex[] = {
  98:Generated_Source\PSoC4/Capsense_CSHL.c ****     0u, /* Button0__BTN */
  99:Generated_Source\PSoC4/Capsense_CSHL.c **** };
 100:Generated_Source\PSoC4/Capsense_CSHL.c **** 
 101:Generated_Source\PSoC4/Capsense_CSHL.c **** const uint8 Capsense_numberOfSensors[] = {
 102:Generated_Source\PSoC4/Capsense_CSHL.c ****     1u, /* Button0__BTN */
 103:Generated_Source\PSoC4/Capsense_CSHL.c **** };
 104:Generated_Source\PSoC4/Capsense_CSHL.c **** 
 105:Generated_Source\PSoC4/Capsense_CSHL.c **** 
 106:Generated_Source\PSoC4/Capsense_CSHL.c **** 
 107:Generated_Source\PSoC4/Capsense_CSHL.c **** 
 108:Generated_Source\PSoC4/Capsense_CSHL.c **** /*******************************************************************************
 109:Generated_Source\PSoC4/Capsense_CSHL.c **** * Function Name: Capsense_BaseInit
 110:Generated_Source\PSoC4/Capsense_CSHL.c **** ********************************************************************************
 111:Generated_Source\PSoC4/Capsense_CSHL.c **** *
 112:Generated_Source\PSoC4/Capsense_CSHL.c **** * Summary:
 113:Generated_Source\PSoC4/Capsense_CSHL.c **** *  Loads the Capsense_sensorBaseline[sensor] array element with an
 114:Generated_Source\PSoC4/Capsense_CSHL.c **** *  initial value which is equal to the raw count value.
 115:Generated_Source\PSoC4/Capsense_CSHL.c **** *  Resets to zero Capsense_sensorBaselineLow[sensor] and
ARM GAS  C:\Users\ROUSSMA\AppData\Local\Temp\ccw7ZO0v.s 			page 5


 116:Generated_Source\PSoC4/Capsense_CSHL.c **** *  Capsense_sensorSignal[sensor] array element.
 117:Generated_Source\PSoC4/Capsense_CSHL.c **** *  Loads the Capsense_rawFilterData2[sensor] and
 118:Generated_Source\PSoC4/Capsense_CSHL.c **** *  Capsense_rawFilterData2[sensor] array element with an
 119:Generated_Source\PSoC4/Capsense_CSHL.c **** *  initial value which is equal to the raw count value if the raw data filter is enabled.
 120:Generated_Source\PSoC4/Capsense_CSHL.c **** *
 121:Generated_Source\PSoC4/Capsense_CSHL.c **** * Parameters:
 122:Generated_Source\PSoC4/Capsense_CSHL.c **** *  sensor:  Sensor number.
 123:Generated_Source\PSoC4/Capsense_CSHL.c **** *
 124:Generated_Source\PSoC4/Capsense_CSHL.c **** * Return:
 125:Generated_Source\PSoC4/Capsense_CSHL.c **** *  None
 126:Generated_Source\PSoC4/Capsense_CSHL.c **** *
 127:Generated_Source\PSoC4/Capsense_CSHL.c **** * Global Variables:
 128:Generated_Source\PSoC4/Capsense_CSHL.c **** *  Capsense_sensorBaseline[]    - used to store the baseline value.
 129:Generated_Source\PSoC4/Capsense_CSHL.c **** *  Capsense_sensorBaselineLow[] - used to store the fraction byte of
 130:Generated_Source\PSoC4/Capsense_CSHL.c **** *  the baseline value.
 131:Generated_Source\PSoC4/Capsense_CSHL.c **** *  Capsense_sensorSignal[]      - used to store a difference between
 132:Generated_Source\PSoC4/Capsense_CSHL.c **** *  the current value of raw data and the previous value of the baseline.
 133:Generated_Source\PSoC4/Capsense_CSHL.c **** *  Capsense_rawFilterData1[]    - used to store a previous sample of
 134:Generated_Source\PSoC4/Capsense_CSHL.c **** *  any enabled raw data filter.
 135:Generated_Source\PSoC4/Capsense_CSHL.c **** *  Capsense_rawFilterData2[]    - used to store before a previous sample
 136:Generated_Source\PSoC4/Capsense_CSHL.c **** *  of the enabled raw data filter. Required only for median or average filters.
 137:Generated_Source\PSoC4/Capsense_CSHL.c **** *
 138:Generated_Source\PSoC4/Capsense_CSHL.c **** * Side Effects:
 139:Generated_Source\PSoC4/Capsense_CSHL.c **** *  None
 140:Generated_Source\PSoC4/Capsense_CSHL.c **** *
 141:Generated_Source\PSoC4/Capsense_CSHL.c **** *******************************************************************************/
 142:Generated_Source\PSoC4/Capsense_CSHL.c **** void Capsense_BaseInit(uint32 sensor)
 143:Generated_Source\PSoC4/Capsense_CSHL.c **** {
 114              		.loc 1 143 0
 115              		.cfi_startproc
 116              		@ args = 0, pretend = 0, frame = 16
 117              		@ frame_needed = 1, uses_anonymous_args = 0
 118 0000 80B5     		push	{r7, lr}
 119              		.cfi_def_cfa_offset 8
 120              		.cfi_offset 7, -8
 121              		.cfi_offset 14, -4
 122 0002 84B0     		sub	sp, sp, #16
 123              		.cfi_def_cfa_offset 24
 124 0004 00AF     		add	r7, sp, #0
 125              		.cfi_def_cfa_register 7
 126 0006 7860     		str	r0, [r7, #4]
 144:Generated_Source\PSoC4/Capsense_CSHL.c ****     #if ((Capsense_TOTAL_BUTTONS_COUNT) || (Capsense_TOTAL_MATRIX_BUTTONS_COUNT) || \
 145:Generated_Source\PSoC4/Capsense_CSHL.c ****          (Capsense_TOTAL_GENERICS_COUNT))
 146:Generated_Source\PSoC4/Capsense_CSHL.c ****         uint8 widget = Capsense_widgetNumber[sensor];
 127              		.loc 1 146 0
 128 0008 0F23     		movs	r3, #15
 129 000a FB18     		adds	r3, r7, r3
 130 000c 1649     		ldr	r1, .L2
 131 000e 7A68     		ldr	r2, [r7, #4]
 132 0010 8A18     		adds	r2, r1, r2
 133 0012 1278     		ldrb	r2, [r2]
 134 0014 1A70     		strb	r2, [r3]
 147:Generated_Source\PSoC4/Capsense_CSHL.c ****     #endif /* ((Capsense_TOTAL_MATRIX_BUTTONS_COUNT) || (Capsense_TOTAL_MATRIX_BUTTONS_COUNT)) */
 148:Generated_Source\PSoC4/Capsense_CSHL.c **** 
 149:Generated_Source\PSoC4/Capsense_CSHL.c ****     #if (Capsense_TOTAL_MATRIX_BUTTONS_COUNT)
 150:Generated_Source\PSoC4/Capsense_CSHL.c ****         uint8 debounceIndex;
 151:Generated_Source\PSoC4/Capsense_CSHL.c ****     #endif  /* (Capsense_TOTAL_MATRIX_BUTTONS_COUNT) */
ARM GAS  C:\Users\ROUSSMA\AppData\Local\Temp\ccw7ZO0v.s 			page 6


 152:Generated_Source\PSoC4/Capsense_CSHL.c **** 
 153:Generated_Source\PSoC4/Capsense_CSHL.c ****     #if (Capsense_TOTAL_GENERICS_COUNT)
 154:Generated_Source\PSoC4/Capsense_CSHL.c ****         /* Exclude generic widget */
 155:Generated_Source\PSoC4/Capsense_CSHL.c ****         if(widget < Capsense_END_OF_WIDGETS_INDEX)
 156:Generated_Source\PSoC4/Capsense_CSHL.c ****         {
 157:Generated_Source\PSoC4/Capsense_CSHL.c ****     #endif  /* Capsense_TOTAL_GENERICS_COUNT */
 158:Generated_Source\PSoC4/Capsense_CSHL.c **** 
 159:Generated_Source\PSoC4/Capsense_CSHL.c ****     /* Initialize Baseline */
 160:Generated_Source\PSoC4/Capsense_CSHL.c ****     Capsense_sensorBaseline[sensor] = Capsense_sensorRaw[sensor];
 135              		.loc 1 160 0
 136 0016 154B     		ldr	r3, .L2+4
 137 0018 7A68     		ldr	r2, [r7, #4]
 138 001a 5200     		lsls	r2, r2, #1
 139 001c D15A     		ldrh	r1, [r2, r3]
 140 001e 144B     		ldr	r3, .L2+8
 141 0020 7A68     		ldr	r2, [r7, #4]
 142 0022 5200     		lsls	r2, r2, #1
 143 0024 D152     		strh	r1, [r2, r3]
 161:Generated_Source\PSoC4/Capsense_CSHL.c ****     Capsense_sensorBaselineLow[sensor] = 0u;
 144              		.loc 1 161 0
 145 0026 134A     		ldr	r2, .L2+12
 146 0028 7B68     		ldr	r3, [r7, #4]
 147 002a D318     		adds	r3, r2, r3
 148 002c 0022     		movs	r2, #0
 149 002e 1A70     		strb	r2, [r3]
 162:Generated_Source\PSoC4/Capsense_CSHL.c ****     Capsense_sensorSignal[sensor] = 0u;
 150              		.loc 1 162 0
 151 0030 114A     		ldr	r2, .L2+16
 152 0032 7B68     		ldr	r3, [r7, #4]
 153 0034 D318     		adds	r3, r2, r3
 154 0036 0022     		movs	r2, #0
 155 0038 1A70     		strb	r2, [r3]
 163:Generated_Source\PSoC4/Capsense_CSHL.c **** 
 164:Generated_Source\PSoC4/Capsense_CSHL.c ****     Capsense_debounceCounter[widget] =  Capsense_debounce[widget];
 156              		.loc 1 164 0
 157 003a 0F23     		movs	r3, #15
 158 003c FB18     		adds	r3, r7, r3
 159 003e 1B78     		ldrb	r3, [r3]
 160 0040 0F22     		movs	r2, #15
 161 0042 BA18     		adds	r2, r7, r2
 162 0044 1278     		ldrb	r2, [r2]
 163 0046 0D49     		ldr	r1, .L2+20
 164 0048 895C     		ldrb	r1, [r1, r2]
 165 004a 0D4A     		ldr	r2, .L2+24
 166 004c D154     		strb	r1, [r2, r3]
 165:Generated_Source\PSoC4/Capsense_CSHL.c **** 
 166:Generated_Source\PSoC4/Capsense_CSHL.c **** 
 167:Generated_Source\PSoC4/Capsense_CSHL.c ****     #if ((0u != (Capsense_RAW_FILTER_MASK & Capsense_MEDIAN_FILTER)) ||\
 168:Generated_Source\PSoC4/Capsense_CSHL.c ****          (0u != (Capsense_RAW_FILTER_MASK & Capsense_AVERAGING_FILTER)))
 169:Generated_Source\PSoC4/Capsense_CSHL.c **** 
 170:Generated_Source\PSoC4/Capsense_CSHL.c ****         Capsense_rawFilterData1[sensor] = Capsense_sensorRaw[sensor];
 171:Generated_Source\PSoC4/Capsense_CSHL.c ****         Capsense_rawFilterData2[sensor] = Capsense_sensorRaw[sensor];
 172:Generated_Source\PSoC4/Capsense_CSHL.c **** 
 173:Generated_Source\PSoC4/Capsense_CSHL.c ****     #elif ((Capsense_RAW_FILTER_MASK & Capsense_IIR2_FILTER) ||\
 174:Generated_Source\PSoC4/Capsense_CSHL.c ****            (Capsense_RAW_FILTER_MASK & Capsense_IIR4_FILTER) ||\
 175:Generated_Source\PSoC4/Capsense_CSHL.c ****            (Capsense_RAW_FILTER_MASK & Capsense_JITTER_FILTER) ||\
 176:Generated_Source\PSoC4/Capsense_CSHL.c ****            (Capsense_RAW_FILTER_MASK & Capsense_IIR8_FILTER) ||\
ARM GAS  C:\Users\ROUSSMA\AppData\Local\Temp\ccw7ZO0v.s 			page 7


 177:Generated_Source\PSoC4/Capsense_CSHL.c ****            (Capsense_RAW_FILTER_MASK & Capsense_IIR16_FILTER))
 178:Generated_Source\PSoC4/Capsense_CSHL.c **** 
 179:Generated_Source\PSoC4/Capsense_CSHL.c ****         Capsense_rawFilterData1[sensor] = Capsense_sensorRaw[sensor];
 167              		.loc 1 179 0
 168 004e 074B     		ldr	r3, .L2+4
 169 0050 7A68     		ldr	r2, [r7, #4]
 170 0052 5200     		lsls	r2, r2, #1
 171 0054 D15A     		ldrh	r1, [r2, r3]
 172 0056 0B4B     		ldr	r3, .L2+28
 173 0058 7A68     		ldr	r2, [r7, #4]
 174 005a 5200     		lsls	r2, r2, #1
 175 005c D152     		strh	r1, [r2, r3]
 180:Generated_Source\PSoC4/Capsense_CSHL.c **** 
 181:Generated_Source\PSoC4/Capsense_CSHL.c ****     #else
 182:Generated_Source\PSoC4/Capsense_CSHL.c ****         /* No Raw filters */
 183:Generated_Source\PSoC4/Capsense_CSHL.c ****     #endif  /* ((Capsense_RAW_FILTER_MASK & Capsense_MEDIAN_FILTER) || \
 184:Generated_Source\PSoC4/Capsense_CSHL.c ****             *   (Capsense_RAW_FILTER_MASK & Capsense_AVERAGING_FILTER))
 185:Generated_Source\PSoC4/Capsense_CSHL.c ****             */
 186:Generated_Source\PSoC4/Capsense_CSHL.c **** 
 187:Generated_Source\PSoC4/Capsense_CSHL.c ****     #if (Capsense_TOTAL_GENERICS_COUNT)
 188:Generated_Source\PSoC4/Capsense_CSHL.c ****         /* Exclude generic widget */
 189:Generated_Source\PSoC4/Capsense_CSHL.c ****         }
 190:Generated_Source\PSoC4/Capsense_CSHL.c ****     #endif  /* Capsense_TOTAL_GENERICS_COUNT */
 191:Generated_Source\PSoC4/Capsense_CSHL.c **** }
 176              		.loc 1 191 0
 177 005e C046     		nop
 178 0060 BD46     		mov	sp, r7
 179 0062 04B0     		add	sp, sp, #16
 180              		@ sp needed
 181 0064 80BD     		pop	{r7, pc}
 182              	.L3:
 183 0066 C046     		.align	2
 184              	.L2:
 185 0068 00000000 		.word	Capsense_widgetNumber
 186 006c 00000000 		.word	Capsense_sensorRaw
 187 0070 00000000 		.word	Capsense_sensorBaseline
 188 0074 00000000 		.word	Capsense_sensorBaselineLow
 189 0078 00000000 		.word	Capsense_sensorSignal
 190 007c 00000000 		.word	Capsense_debounce
 191 0080 10000000 		.word	Capsense_debounceCounter
 192 0084 00000000 		.word	Capsense_rawFilterData1
 193              		.cfi_endproc
 194              	.LFE36:
 195              		.size	Capsense_BaseInit, .-Capsense_BaseInit
 196              		.section	.text.Capsense_InitializeSensorBaseline,"ax",%progbits
 197              		.align	2
 198              		.global	Capsense_InitializeSensorBaseline
 199              		.code	16
 200              		.thumb_func
 201              		.type	Capsense_InitializeSensorBaseline, %function
 202              	Capsense_InitializeSensorBaseline:
 203              	.LFB37:
 192:Generated_Source\PSoC4/Capsense_CSHL.c **** 
 193:Generated_Source\PSoC4/Capsense_CSHL.c **** 
 194:Generated_Source\PSoC4/Capsense_CSHL.c **** /*******************************************************************************
 195:Generated_Source\PSoC4/Capsense_CSHL.c **** * Function Name: Capsense_InitializeSensorBaseline
 196:Generated_Source\PSoC4/Capsense_CSHL.c **** ********************************************************************************
ARM GAS  C:\Users\ROUSSMA\AppData\Local\Temp\ccw7ZO0v.s 			page 8


 197:Generated_Source\PSoC4/Capsense_CSHL.c **** *
 198:Generated_Source\PSoC4/Capsense_CSHL.c **** * Summary:
 199:Generated_Source\PSoC4/Capsense_CSHL.c **** *  Loads the Capsense_sensorBaseline[sensor] array element with an
 200:Generated_Source\PSoC4/Capsense_CSHL.c **** *  initial value by scanning the selected sensor (one channel design) or a pair
 201:Generated_Source\PSoC4/Capsense_CSHL.c **** *  of sensors (two channels designs). The raw count value is copied into the
 202:Generated_Source\PSoC4/Capsense_CSHL.c **** *  baseline array for each sensor. The raw data filters are initialized if
 203:Generated_Source\PSoC4/Capsense_CSHL.c **** *  enabled.
 204:Generated_Source\PSoC4/Capsense_CSHL.c **** *
 205:Generated_Source\PSoC4/Capsense_CSHL.c **** * Parameters:
 206:Generated_Source\PSoC4/Capsense_CSHL.c **** *  sensor:  Sensor number.
 207:Generated_Source\PSoC4/Capsense_CSHL.c **** *
 208:Generated_Source\PSoC4/Capsense_CSHL.c **** * Return:
 209:Generated_Source\PSoC4/Capsense_CSHL.c **** *  None
 210:Generated_Source\PSoC4/Capsense_CSHL.c **** *
 211:Generated_Source\PSoC4/Capsense_CSHL.c **** * Global Variables:
 212:Generated_Source\PSoC4/Capsense_CSHL.c **** *  None
 213:Generated_Source\PSoC4/Capsense_CSHL.c **** *
 214:Generated_Source\PSoC4/Capsense_CSHL.c **** * Side Effects:
 215:Generated_Source\PSoC4/Capsense_CSHL.c **** *  None
 216:Generated_Source\PSoC4/Capsense_CSHL.c **** *
 217:Generated_Source\PSoC4/Capsense_CSHL.c **** *******************************************************************************/
 218:Generated_Source\PSoC4/Capsense_CSHL.c **** void Capsense_InitializeSensorBaseline(uint32 sensor)
 219:Generated_Source\PSoC4/Capsense_CSHL.c **** {
 204              		.loc 1 219 0
 205              		.cfi_startproc
 206              		@ args = 0, pretend = 0, frame = 8
 207              		@ frame_needed = 1, uses_anonymous_args = 0
 208 0000 80B5     		push	{r7, lr}
 209              		.cfi_def_cfa_offset 8
 210              		.cfi_offset 7, -8
 211              		.cfi_offset 14, -4
 212 0002 82B0     		sub	sp, sp, #8
 213              		.cfi_def_cfa_offset 16
 214 0004 00AF     		add	r7, sp, #0
 215              		.cfi_def_cfa_register 7
 216 0006 7860     		str	r0, [r7, #4]
 220:Generated_Source\PSoC4/Capsense_CSHL.c ****     /* Scan sensor */
 221:Generated_Source\PSoC4/Capsense_CSHL.c ****     Capsense_ScanSensor(sensor);
 217              		.loc 1 221 0
 218 0008 7B68     		ldr	r3, [r7, #4]
 219 000a 1800     		movs	r0, r3
 220 000c FFF7FEFF 		bl	Capsense_ScanSensor
 222:Generated_Source\PSoC4/Capsense_CSHL.c ****     while(Capsense_IsBusy() != 0u)
 221              		.loc 1 222 0
 222 0010 C046     		nop
 223              	.L5:
 224              		.loc 1 222 0 is_stmt 0 discriminator 1
 225 0012 FFF7FEFF 		bl	Capsense_IsBusy
 226 0016 031E     		subs	r3, r0, #0
 227 0018 FBD1     		bne	.L5
 223:Generated_Source\PSoC4/Capsense_CSHL.c ****     {
 224:Generated_Source\PSoC4/Capsense_CSHL.c ****         /* Wait while sensor is busy */
 225:Generated_Source\PSoC4/Capsense_CSHL.c ****     }
 226:Generated_Source\PSoC4/Capsense_CSHL.c **** 
 227:Generated_Source\PSoC4/Capsense_CSHL.c ****     /* Initialize Baseline, Signal and debounce counters */
 228:Generated_Source\PSoC4/Capsense_CSHL.c ****     Capsense_BaseInit(sensor);
 228              		.loc 1 228 0 is_stmt 1
ARM GAS  C:\Users\ROUSSMA\AppData\Local\Temp\ccw7ZO0v.s 			page 9


 229 001a 7B68     		ldr	r3, [r7, #4]
 230 001c 1800     		movs	r0, r3
 231 001e FFF7FEFF 		bl	Capsense_BaseInit
 229:Generated_Source\PSoC4/Capsense_CSHL.c **** }
 232              		.loc 1 229 0
 233 0022 C046     		nop
 234 0024 BD46     		mov	sp, r7
 235 0026 02B0     		add	sp, sp, #8
 236              		@ sp needed
 237 0028 80BD     		pop	{r7, pc}
 238              		.cfi_endproc
 239              	.LFE37:
 240              		.size	Capsense_InitializeSensorBaseline, .-Capsense_InitializeSensorBaseline
 241 002a C046     		.section	.text.Capsense_InitializeAllBaselines,"ax",%progbits
 242              		.align	2
 243              		.global	Capsense_InitializeAllBaselines
 244              		.code	16
 245              		.thumb_func
 246              		.type	Capsense_InitializeAllBaselines, %function
 247              	Capsense_InitializeAllBaselines:
 248              	.LFB38:
 230:Generated_Source\PSoC4/Capsense_CSHL.c **** 
 231:Generated_Source\PSoC4/Capsense_CSHL.c **** 
 232:Generated_Source\PSoC4/Capsense_CSHL.c **** /*******************************************************************************
 233:Generated_Source\PSoC4/Capsense_CSHL.c **** * Function Name: Capsense_InitializeAllBaselines
 234:Generated_Source\PSoC4/Capsense_CSHL.c **** ********************************************************************************
 235:Generated_Source\PSoC4/Capsense_CSHL.c **** *
 236:Generated_Source\PSoC4/Capsense_CSHL.c **** * Summary:
 237:Generated_Source\PSoC4/Capsense_CSHL.c **** *  Uses the Capsense_InitializeSensorBaseline function to load the
 238:Generated_Source\PSoC4/Capsense_CSHL.c **** *  Capsense_sensorBaseline[] array with an initial values by scanning
 239:Generated_Source\PSoC4/Capsense_CSHL.c **** *  all the sensors. The raw count values are copied into the baseline array for
 240:Generated_Source\PSoC4/Capsense_CSHL.c **** *  all the sensors. The raw data filters are initialized if enabled.
 241:Generated_Source\PSoC4/Capsense_CSHL.c **** *
 242:Generated_Source\PSoC4/Capsense_CSHL.c **** * Parameters:
 243:Generated_Source\PSoC4/Capsense_CSHL.c **** *  None
 244:Generated_Source\PSoC4/Capsense_CSHL.c **** *
 245:Generated_Source\PSoC4/Capsense_CSHL.c **** * Return:
 246:Generated_Source\PSoC4/Capsense_CSHL.c **** *  None
 247:Generated_Source\PSoC4/Capsense_CSHL.c **** *
 248:Generated_Source\PSoC4/Capsense_CSHL.c **** * Global Variables:
 249:Generated_Source\PSoC4/Capsense_CSHL.c **** *  None
 250:Generated_Source\PSoC4/Capsense_CSHL.c **** *
 251:Generated_Source\PSoC4/Capsense_CSHL.c **** * Side Effects:
 252:Generated_Source\PSoC4/Capsense_CSHL.c **** *  None
 253:Generated_Source\PSoC4/Capsense_CSHL.c **** *
 254:Generated_Source\PSoC4/Capsense_CSHL.c **** *******************************************************************************/
 255:Generated_Source\PSoC4/Capsense_CSHL.c **** void Capsense_InitializeAllBaselines(void)
 256:Generated_Source\PSoC4/Capsense_CSHL.c **** {
 249              		.loc 1 256 0
 250              		.cfi_startproc
 251              		@ args = 0, pretend = 0, frame = 8
 252              		@ frame_needed = 1, uses_anonymous_args = 0
 253 0000 80B5     		push	{r7, lr}
 254              		.cfi_def_cfa_offset 8
 255              		.cfi_offset 7, -8
 256              		.cfi_offset 14, -4
 257 0002 82B0     		sub	sp, sp, #8
ARM GAS  C:\Users\ROUSSMA\AppData\Local\Temp\ccw7ZO0v.s 			page 10


 258              		.cfi_def_cfa_offset 16
 259 0004 00AF     		add	r7, sp, #0
 260              		.cfi_def_cfa_register 7
 257:Generated_Source\PSoC4/Capsense_CSHL.c ****     uint32 i;
 258:Generated_Source\PSoC4/Capsense_CSHL.c **** 
 259:Generated_Source\PSoC4/Capsense_CSHL.c ****     for(i = 0u; i < Capsense_TOTAL_SCANSLOT_COUNT; i++)
 261              		.loc 1 259 0
 262 0006 0023     		movs	r3, #0
 263 0008 7B60     		str	r3, [r7, #4]
 264 000a 06E0     		b	.L7
 265              	.L8:
 260:Generated_Source\PSoC4/Capsense_CSHL.c ****     {
 261:Generated_Source\PSoC4/Capsense_CSHL.c ****         Capsense_InitializeSensorBaseline(i);
 266              		.loc 1 261 0 discriminator 3
 267 000c 7B68     		ldr	r3, [r7, #4]
 268 000e 1800     		movs	r0, r3
 269 0010 FFF7FEFF 		bl	Capsense_InitializeSensorBaseline
 259:Generated_Source\PSoC4/Capsense_CSHL.c ****     {
 270              		.loc 1 259 0 discriminator 3
 271 0014 7B68     		ldr	r3, [r7, #4]
 272 0016 0133     		adds	r3, r3, #1
 273 0018 7B60     		str	r3, [r7, #4]
 274              	.L7:
 259:Generated_Source\PSoC4/Capsense_CSHL.c ****     {
 275              		.loc 1 259 0 is_stmt 0 discriminator 1
 276 001a 7B68     		ldr	r3, [r7, #4]
 277 001c 002B     		cmp	r3, #0
 278 001e F5D0     		beq	.L8
 262:Generated_Source\PSoC4/Capsense_CSHL.c ****     }
 263:Generated_Source\PSoC4/Capsense_CSHL.c **** }
 279              		.loc 1 263 0 is_stmt 1
 280 0020 C046     		nop
 281 0022 BD46     		mov	sp, r7
 282 0024 02B0     		add	sp, sp, #8
 283              		@ sp needed
 284 0026 80BD     		pop	{r7, pc}
 285              		.cfi_endproc
 286              	.LFE38:
 287              		.size	Capsense_InitializeAllBaselines, .-Capsense_InitializeAllBaselines
 288              		.section	.text.Capsense_InitializeEnabledBaselines,"ax",%progbits
 289              		.align	2
 290              		.global	Capsense_InitializeEnabledBaselines
 291              		.code	16
 292              		.thumb_func
 293              		.type	Capsense_InitializeEnabledBaselines, %function
 294              	Capsense_InitializeEnabledBaselines:
 295              	.LFB39:
 264:Generated_Source\PSoC4/Capsense_CSHL.c **** 
 265:Generated_Source\PSoC4/Capsense_CSHL.c **** 
 266:Generated_Source\PSoC4/Capsense_CSHL.c **** /*******************************************************************************
 267:Generated_Source\PSoC4/Capsense_CSHL.c **** * Function Name: Capsense_InitializeEnabledBaselines
 268:Generated_Source\PSoC4/Capsense_CSHL.c **** ********************************************************************************
 269:Generated_Source\PSoC4/Capsense_CSHL.c **** *
 270:Generated_Source\PSoC4/Capsense_CSHL.c **** * Summary:
 271:Generated_Source\PSoC4/Capsense_CSHL.c **** *  Scans all the enabled widgets and the raw count values are copied into the
 272:Generated_Source\PSoC4/Capsense_CSHL.c **** *  baseline array for all the sensors enabled in the scanning process. The baselines
 273:Generated_Source\PSoC4/Capsense_CSHL.c **** *  are initialized with zero values for sensors disabled from the scanning process.
ARM GAS  C:\Users\ROUSSMA\AppData\Local\Temp\ccw7ZO0v.s 			page 11


 274:Generated_Source\PSoC4/Capsense_CSHL.c **** *  The raw data filters are initialized if enabled.
 275:Generated_Source\PSoC4/Capsense_CSHL.c **** *
 276:Generated_Source\PSoC4/Capsense_CSHL.c **** * Parameters:
 277:Generated_Source\PSoC4/Capsense_CSHL.c **** *  None
 278:Generated_Source\PSoC4/Capsense_CSHL.c **** *
 279:Generated_Source\PSoC4/Capsense_CSHL.c **** * Return:
 280:Generated_Source\PSoC4/Capsense_CSHL.c **** *  None
 281:Generated_Source\PSoC4/Capsense_CSHL.c **** *
 282:Generated_Source\PSoC4/Capsense_CSHL.c **** * Global Variables:
 283:Generated_Source\PSoC4/Capsense_CSHL.c **** *  Capsense_sensorRaw[] - used to store the sensors raw data.
 284:Generated_Source\PSoC4/Capsense_CSHL.c **** *  Capsense_sensorEnableMask[ ] - used to store bit masks of the enabled sensors.
 285:Generated_Source\PSoC4/Capsense_CSHL.c **** *
 286:Generated_Source\PSoC4/Capsense_CSHL.c **** * Side Effects:
 287:Generated_Source\PSoC4/Capsense_CSHL.c **** *  None
 288:Generated_Source\PSoC4/Capsense_CSHL.c **** *
 289:Generated_Source\PSoC4/Capsense_CSHL.c **** *******************************************************************************/
 290:Generated_Source\PSoC4/Capsense_CSHL.c **** void Capsense_InitializeEnabledBaselines(void)
 291:Generated_Source\PSoC4/Capsense_CSHL.c **** {
 296              		.loc 1 291 0
 297              		.cfi_startproc
 298              		@ args = 0, pretend = 0, frame = 8
 299              		@ frame_needed = 1, uses_anonymous_args = 0
 300 0000 80B5     		push	{r7, lr}
 301              		.cfi_def_cfa_offset 8
 302              		.cfi_offset 7, -8
 303              		.cfi_offset 14, -4
 304 0002 82B0     		sub	sp, sp, #8
 305              		.cfi_def_cfa_offset 16
 306 0004 00AF     		add	r7, sp, #0
 307              		.cfi_def_cfa_register 7
 292:Generated_Source\PSoC4/Capsense_CSHL.c ****     uint32 i;
 293:Generated_Source\PSoC4/Capsense_CSHL.c ****     uint32 isSensorEnabled;
 294:Generated_Source\PSoC4/Capsense_CSHL.c **** 
 295:Generated_Source\PSoC4/Capsense_CSHL.c ****     Capsense_ScanEnabledWidgets();
 308              		.loc 1 295 0
 309 0006 FFF7FEFF 		bl	Capsense_ScanEnabledWidgets
 296:Generated_Source\PSoC4/Capsense_CSHL.c ****     while(Capsense_IsBusy() != 0u)
 310              		.loc 1 296 0
 311 000a C046     		nop
 312              	.L10:
 313              		.loc 1 296 0 is_stmt 0 discriminator 1
 314 000c FFF7FEFF 		bl	Capsense_IsBusy
 315 0010 031E     		subs	r3, r0, #0
 316 0012 FBD1     		bne	.L10
 297:Generated_Source\PSoC4/Capsense_CSHL.c ****     {
 298:Generated_Source\PSoC4/Capsense_CSHL.c ****         /* Wait while sensor is busy */
 299:Generated_Source\PSoC4/Capsense_CSHL.c ****     }
 300:Generated_Source\PSoC4/Capsense_CSHL.c **** 
 301:Generated_Source\PSoC4/Capsense_CSHL.c ****     for(i = 0u; i < Capsense_TOTAL_SENSOR_COUNT; i++)
 317              		.loc 1 301 0 is_stmt 1
 318 0014 0023     		movs	r3, #0
 319 0016 7B60     		str	r3, [r7, #4]
 320 0018 11E0     		b	.L11
 321              	.L13:
 302:Generated_Source\PSoC4/Capsense_CSHL.c ****     {
 303:Generated_Source\PSoC4/Capsense_CSHL.c ****         isSensorEnabled = Capsense_GetBitValue(Capsense_sensorEnableMask, i);
 322              		.loc 1 303 0
ARM GAS  C:\Users\ROUSSMA\AppData\Local\Temp\ccw7ZO0v.s 			page 12


 323 001a 7A68     		ldr	r2, [r7, #4]
 324 001c 0B4B     		ldr	r3, .L14
 325 001e 1100     		movs	r1, r2
 326 0020 1800     		movs	r0, r3
 327 0022 FFF7FEFF 		bl	Capsense_GetBitValue
 328 0026 0300     		movs	r3, r0
 329 0028 3B60     		str	r3, [r7]
 304:Generated_Source\PSoC4/Capsense_CSHL.c **** 
 305:Generated_Source\PSoC4/Capsense_CSHL.c ****         /* Clear raw data if sensor is disabled from scanning process */
 306:Generated_Source\PSoC4/Capsense_CSHL.c ****         if(isSensorEnabled != 0u)
 330              		.loc 1 306 0
 331 002a 3B68     		ldr	r3, [r7]
 332 002c 002B     		cmp	r3, #0
 333 002e 03D0     		beq	.L12
 307:Generated_Source\PSoC4/Capsense_CSHL.c ****         {
 308:Generated_Source\PSoC4/Capsense_CSHL.c ****             /* Initialize baselines */
 309:Generated_Source\PSoC4/Capsense_CSHL.c ****             Capsense_BaseInit(i);
 334              		.loc 1 309 0
 335 0030 7B68     		ldr	r3, [r7, #4]
 336 0032 1800     		movs	r0, r3
 337 0034 FFF7FEFF 		bl	Capsense_BaseInit
 338              	.L12:
 301:Generated_Source\PSoC4/Capsense_CSHL.c ****     {
 339              		.loc 1 301 0 discriminator 2
 340 0038 7B68     		ldr	r3, [r7, #4]
 341 003a 0133     		adds	r3, r3, #1
 342 003c 7B60     		str	r3, [r7, #4]
 343              	.L11:
 301:Generated_Source\PSoC4/Capsense_CSHL.c ****     {
 344              		.loc 1 301 0 is_stmt 0 discriminator 1
 345 003e 7B68     		ldr	r3, [r7, #4]
 346 0040 002B     		cmp	r3, #0
 347 0042 EAD0     		beq	.L13
 310:Generated_Source\PSoC4/Capsense_CSHL.c ****         }
 311:Generated_Source\PSoC4/Capsense_CSHL.c ****     }
 312:Generated_Source\PSoC4/Capsense_CSHL.c **** }
 348              		.loc 1 312 0 is_stmt 1
 349 0044 C046     		nop
 350 0046 BD46     		mov	sp, r7
 351 0048 02B0     		add	sp, sp, #8
 352              		@ sp needed
 353 004a 80BD     		pop	{r7, pc}
 354              	.L15:
 355              		.align	2
 356              	.L14:
 357 004c 00000000 		.word	Capsense_sensorEnableMask
 358              		.cfi_endproc
 359              	.LFE39:
 360              		.size	Capsense_InitializeEnabledBaselines, .-Capsense_InitializeEnabledBaselines
 361              		.section	.text.Capsense_UpdateBaselineNoThreshold,"ax",%progbits
 362              		.align	2
 363              		.global	Capsense_UpdateBaselineNoThreshold
 364              		.code	16
 365              		.thumb_func
 366              		.type	Capsense_UpdateBaselineNoThreshold, %function
 367              	Capsense_UpdateBaselineNoThreshold:
 368              	.LFB40:
ARM GAS  C:\Users\ROUSSMA\AppData\Local\Temp\ccw7ZO0v.s 			page 13


 313:Generated_Source\PSoC4/Capsense_CSHL.c **** 
 314:Generated_Source\PSoC4/Capsense_CSHL.c **** 
 315:Generated_Source\PSoC4/Capsense_CSHL.c **** /*******************************************************************************
 316:Generated_Source\PSoC4/Capsense_CSHL.c **** * Function Name: Capsense_UpdateBaselineNoThreshold
 317:Generated_Source\PSoC4/Capsense_CSHL.c **** ********************************************************************************
 318:Generated_Source\PSoC4/Capsense_CSHL.c **** *
 319:Generated_Source\PSoC4/Capsense_CSHL.c **** * Summary:
 320:Generated_Source\PSoC4/Capsense_CSHL.c **** *  Updates the Capsense_sensorBaseline[sensor] array element using the
 321:Generated_Source\PSoC4/Capsense_CSHL.c **** *  LP filter with k = 256. The signal calculates the difference of count by
 322:Generated_Source\PSoC4/Capsense_CSHL.c **** *  subtracting the previous baseline from the current raw count value and stores
 323:Generated_Source\PSoC4/Capsense_CSHL.c **** *  it in Capsense_sensorSignal[sensor].
 324:Generated_Source\PSoC4/Capsense_CSHL.c **** *  If the auto reset option is enabled, the baseline updated regards the noise threshold.
 325:Generated_Source\PSoC4/Capsense_CSHL.c **** *  If the auto reset option is disabled, the baseline stops updating; baseline is loaded
 326:Generated_Source\PSoC4/Capsense_CSHL.c **** *  with a raw count value if a signal is greater than zero and if signal is less
 327:Generated_Source\PSoC4/Capsense_CSHL.c **** *  than noise threshold.
 328:Generated_Source\PSoC4/Capsense_CSHL.c **** *  Raw data filters are applied to the values if enabled before baseline
 329:Generated_Source\PSoC4/Capsense_CSHL.c **** *  calculation.
 330:Generated_Source\PSoC4/Capsense_CSHL.c **** *
 331:Generated_Source\PSoC4/Capsense_CSHL.c **** *  This API does not update the thresholds in the Smartsense Mode.
 332:Generated_Source\PSoC4/Capsense_CSHL.c **** *
 333:Generated_Source\PSoC4/Capsense_CSHL.c **** * Parameters:
 334:Generated_Source\PSoC4/Capsense_CSHL.c **** *  sensor:  Sensor number.
 335:Generated_Source\PSoC4/Capsense_CSHL.c **** *
 336:Generated_Source\PSoC4/Capsense_CSHL.c **** * Return:
 337:Generated_Source\PSoC4/Capsense_CSHL.c **** *  None
 338:Generated_Source\PSoC4/Capsense_CSHL.c **** *
 339:Generated_Source\PSoC4/Capsense_CSHL.c **** * Global Variables:
 340:Generated_Source\PSoC4/Capsense_CSHL.c **** *  Capsense_widgetNumber[]  - stores widget numbers.
 341:Generated_Source\PSoC4/Capsense_CSHL.c **** *  Capsense_sensorBaseline[]    - used to store baseline value.
 342:Generated_Source\PSoC4/Capsense_CSHL.c **** *  Capsense_sensorBaselineLow[] - used to store fraction byte of
 343:Generated_Source\PSoC4/Capsense_CSHL.c **** *  baseline value.
 344:Generated_Source\PSoC4/Capsense_CSHL.c **** *  Capsense_sensorSignal[]      - used to store difference between
 345:Generated_Source\PSoC4/Capsense_CSHL.c **** *  current value of raw data and previous value of baseline.
 346:Generated_Source\PSoC4/Capsense_CSHL.c **** *  Capsense_rawFilterData1[]    - used to store previous sample of
 347:Generated_Source\PSoC4/Capsense_CSHL.c **** *  any enabled raw data filter.
 348:Generated_Source\PSoC4/Capsense_CSHL.c **** *  Capsense_rawFilterData2[]    - used to store before previous sample
 349:Generated_Source\PSoC4/Capsense_CSHL.c **** *  of enabled raw data filter. Only required for median or average filters.
 350:Generated_Source\PSoC4/Capsense_CSHL.c **** *
 351:Generated_Source\PSoC4/Capsense_CSHL.c **** * Side Effects:
 352:Generated_Source\PSoC4/Capsense_CSHL.c **** *  None
 353:Generated_Source\PSoC4/Capsense_CSHL.c **** *
 354:Generated_Source\PSoC4/Capsense_CSHL.c **** *******************************************************************************/
 355:Generated_Source\PSoC4/Capsense_CSHL.c **** void Capsense_UpdateBaselineNoThreshold(uint32 sensor)
 356:Generated_Source\PSoC4/Capsense_CSHL.c **** {
 369              		.loc 1 356 0
 370              		.cfi_startproc
 371              		@ args = 0, pretend = 0, frame = 24
 372              		@ frame_needed = 1, uses_anonymous_args = 0
 373 0000 90B5     		push	{r4, r7, lr}
 374              		.cfi_def_cfa_offset 12
 375              		.cfi_offset 4, -12
 376              		.cfi_offset 7, -8
 377              		.cfi_offset 14, -4
 378 0002 87B0     		sub	sp, sp, #28
 379              		.cfi_def_cfa_offset 40
 380 0004 00AF     		add	r7, sp, #0
 381              		.cfi_def_cfa_register 7
ARM GAS  C:\Users\ROUSSMA\AppData\Local\Temp\ccw7ZO0v.s 			page 14


 382 0006 7860     		str	r0, [r7, #4]
 357:Generated_Source\PSoC4/Capsense_CSHL.c ****     uint32 calc;
 358:Generated_Source\PSoC4/Capsense_CSHL.c ****     uint32 sign;
 359:Generated_Source\PSoC4/Capsense_CSHL.c ****     uint16 tempRaw;
 360:Generated_Source\PSoC4/Capsense_CSHL.c ****     uint16 filteredRawData;
 361:Generated_Source\PSoC4/Capsense_CSHL.c ****     uint8 widget = Capsense_widgetNumber[sensor];
 383              		.loc 1 361 0
 384 0008 0F23     		movs	r3, #15
 385 000a FB18     		adds	r3, r7, r3
 386 000c 7A49     		ldr	r1, .L29
 387 000e 7A68     		ldr	r2, [r7, #4]
 388 0010 8A18     		adds	r2, r1, r2
 389 0012 1278     		ldrb	r2, [r2]
 390 0014 1A70     		strb	r2, [r3]
 362:Generated_Source\PSoC4/Capsense_CSHL.c ****     uint8 noiseThreshold;
 363:Generated_Source\PSoC4/Capsense_CSHL.c **** 
 364:Generated_Source\PSoC4/Capsense_CSHL.c ****     #if (Capsense_TOTAL_GENERICS_COUNT)
 365:Generated_Source\PSoC4/Capsense_CSHL.c ****         /* Exclude generic widget */
 366:Generated_Source\PSoC4/Capsense_CSHL.c ****         if(widget < Capsense_END_OF_WIDGETS_INDEX)
 367:Generated_Source\PSoC4/Capsense_CSHL.c ****         {
 368:Generated_Source\PSoC4/Capsense_CSHL.c ****     #endif  /* Capsense_TOTAL_GENERICS_COUNT */
 369:Generated_Source\PSoC4/Capsense_CSHL.c **** 
 370:Generated_Source\PSoC4/Capsense_CSHL.c ****     noiseThreshold = Capsense_noiseThreshold[widget];
 391              		.loc 1 370 0
 392 0016 0F23     		movs	r3, #15
 393 0018 FB18     		adds	r3, r7, r3
 394 001a 1A78     		ldrb	r2, [r3]
 395 001c 0E23     		movs	r3, #14
 396 001e FB18     		adds	r3, r7, r3
 397 0020 7649     		ldr	r1, .L29+4
 398 0022 8A5C     		ldrb	r2, [r1, r2]
 399 0024 1A70     		strb	r2, [r3]
 371:Generated_Source\PSoC4/Capsense_CSHL.c ****     filteredRawData = Capsense_sensorRaw[sensor];
 400              		.loc 1 371 0
 401 0026 1023     		movs	r3, #16
 402 0028 FB18     		adds	r3, r7, r3
 403 002a 754A     		ldr	r2, .L29+8
 404 002c 7968     		ldr	r1, [r7, #4]
 405 002e 4900     		lsls	r1, r1, #1
 406 0030 8A5A     		ldrh	r2, [r1, r2]
 407 0032 1A80     		strh	r2, [r3]
 372:Generated_Source\PSoC4/Capsense_CSHL.c **** 
 373:Generated_Source\PSoC4/Capsense_CSHL.c ****     #if (Capsense_RAW_FILTER_MASK != 0u)
 374:Generated_Source\PSoC4/Capsense_CSHL.c ****     if(Capsense_enableRawFilters != 0u)
 408              		.loc 1 374 0
 409 0034 734B     		ldr	r3, .L29+12
 410 0036 1B78     		ldrb	r3, [r3]
 411 0038 002B     		cmp	r3, #0
 412 003a 15D0     		beq	.L17
 375:Generated_Source\PSoC4/Capsense_CSHL.c ****     {
 376:Generated_Source\PSoC4/Capsense_CSHL.c ****         #if (Capsense_RAW_FILTER_MASK & Capsense_MEDIAN_FILTER)
 377:Generated_Source\PSoC4/Capsense_CSHL.c ****             tempRaw = filteredRawData;
 378:Generated_Source\PSoC4/Capsense_CSHL.c ****             filteredRawData = Capsense_MedianFilter(filteredRawData, Capsense_rawFilterData1[sensor
 379:Generated_Source\PSoC4/Capsense_CSHL.c ****                                                             Capsense_rawFilterData2[sensor]);
 380:Generated_Source\PSoC4/Capsense_CSHL.c ****             Capsense_rawFilterData2[sensor] = Capsense_rawFilterData1[sensor];
 381:Generated_Source\PSoC4/Capsense_CSHL.c ****             Capsense_rawFilterData1[sensor] = tempRaw;
 382:Generated_Source\PSoC4/Capsense_CSHL.c **** 
ARM GAS  C:\Users\ROUSSMA\AppData\Local\Temp\ccw7ZO0v.s 			page 15


 383:Generated_Source\PSoC4/Capsense_CSHL.c ****         #elif (Capsense_RAW_FILTER_MASK & Capsense_AVERAGING_FILTER)
 384:Generated_Source\PSoC4/Capsense_CSHL.c ****             tempRaw = filteredRawData;
 385:Generated_Source\PSoC4/Capsense_CSHL.c ****             filteredRawData = Capsense_AveragingFilter(filteredRawData, Capsense_rawFilterData1[sen
 386:Generated_Source\PSoC4/Capsense_CSHL.c ****                                                                Capsense_rawFilterData2[sensor]);
 387:Generated_Source\PSoC4/Capsense_CSHL.c ****             Capsense_rawFilterData2[sensor] = Capsense_rawFilterData1[sensor];
 388:Generated_Source\PSoC4/Capsense_CSHL.c ****             Capsense_rawFilterData1[sensor] = tempRaw;
 389:Generated_Source\PSoC4/Capsense_CSHL.c **** 
 390:Generated_Source\PSoC4/Capsense_CSHL.c ****         #elif (Capsense_RAW_FILTER_MASK & Capsense_IIR2_FILTER)
 391:Generated_Source\PSoC4/Capsense_CSHL.c ****             filteredRawData = Capsense_IIR2Filter(filteredRawData, Capsense_rawFilterData1[sensor])
 392:Generated_Source\PSoC4/Capsense_CSHL.c ****             Capsense_rawFilterData1[sensor] = filteredRawData;
 393:Generated_Source\PSoC4/Capsense_CSHL.c **** 
 394:Generated_Source\PSoC4/Capsense_CSHL.c ****         #elif (Capsense_RAW_FILTER_MASK & Capsense_IIR4_FILTER)
 395:Generated_Source\PSoC4/Capsense_CSHL.c ****             filteredRawData = Capsense_IIR4Filter(filteredRawData, Capsense_rawFilterData1[sensor])
 413              		.loc 1 395 0
 414 003c 724B     		ldr	r3, .L29+16
 415 003e 7A68     		ldr	r2, [r7, #4]
 416 0040 5200     		lsls	r2, r2, #1
 417 0042 D25A     		ldrh	r2, [r2, r3]
 418 0044 1023     		movs	r3, #16
 419 0046 FC18     		adds	r4, r7, r3
 420 0048 1023     		movs	r3, #16
 421 004a FB18     		adds	r3, r7, r3
 422 004c 1B88     		ldrh	r3, [r3]
 423 004e 1100     		movs	r1, r2
 424 0050 1800     		movs	r0, r3
 425 0052 FFF7FEFF 		bl	Capsense_IIR4Filter
 426 0056 0300     		movs	r3, r0
 427 0058 2380     		strh	r3, [r4]
 396:Generated_Source\PSoC4/Capsense_CSHL.c ****             Capsense_rawFilterData1[sensor] = filteredRawData;
 428              		.loc 1 396 0
 429 005a 6B4B     		ldr	r3, .L29+16
 430 005c 7A68     		ldr	r2, [r7, #4]
 431 005e 5200     		lsls	r2, r2, #1
 432 0060 1021     		movs	r1, #16
 433 0062 7918     		adds	r1, r7, r1
 434 0064 0988     		ldrh	r1, [r1]
 435 0066 D152     		strh	r1, [r2, r3]
 436              	.L17:
 397:Generated_Source\PSoC4/Capsense_CSHL.c **** 
 398:Generated_Source\PSoC4/Capsense_CSHL.c ****         #elif (Capsense_RAW_FILTER_MASK & Capsense_JITTER_FILTER)
 399:Generated_Source\PSoC4/Capsense_CSHL.c ****             filteredRawData = Capsense_JitterFilter(filteredRawData, Capsense_rawFilterData1[sensor
 400:Generated_Source\PSoC4/Capsense_CSHL.c ****             Capsense_rawFilterData1[sensor] = filteredRawData;
 401:Generated_Source\PSoC4/Capsense_CSHL.c **** 
 402:Generated_Source\PSoC4/Capsense_CSHL.c ****         #elif (Capsense_RAW_FILTER_MASK & Capsense_IIR8_FILTER)
 403:Generated_Source\PSoC4/Capsense_CSHL.c ****             filteredRawData = Capsense_IIR8Filter(filteredRawData, Capsense_rawFilterData1[sensor])
 404:Generated_Source\PSoC4/Capsense_CSHL.c ****             Capsense_rawFilterData1[sensor] = filteredRawData;
 405:Generated_Source\PSoC4/Capsense_CSHL.c **** 
 406:Generated_Source\PSoC4/Capsense_CSHL.c ****         #elif (Capsense_RAW_FILTER_MASK & Capsense_IIR16_FILTER)
 407:Generated_Source\PSoC4/Capsense_CSHL.c ****             filteredRawData = Capsense_IIR16Filter(filteredRawData, Capsense_rawFilterData1[sensor]
 408:Generated_Source\PSoC4/Capsense_CSHL.c ****             Capsense_rawFilterData1[sensor] = filteredRawData;
 409:Generated_Source\PSoC4/Capsense_CSHL.c **** 
 410:Generated_Source\PSoC4/Capsense_CSHL.c ****         #else
 411:Generated_Source\PSoC4/Capsense_CSHL.c ****             /* No Raw filters */
 412:Generated_Source\PSoC4/Capsense_CSHL.c ****         #endif  /* (Capsense_RAW_FILTER_MASK & Capsense_MEDIAN_FILTER) */
 413:Generated_Source\PSoC4/Capsense_CSHL.c ****     }
 414:Generated_Source\PSoC4/Capsense_CSHL.c ****     #endif  /* (Capsense_RAW_FILTER_MASK != 0u) */
 415:Generated_Source\PSoC4/Capsense_CSHL.c **** 
ARM GAS  C:\Users\ROUSSMA\AppData\Local\Temp\ccw7ZO0v.s 			page 16


 416:Generated_Source\PSoC4/Capsense_CSHL.c ****     #if (Capsense_TUNING_METHOD == Capsense__TUNING_AUTO)
 417:Generated_Source\PSoC4/Capsense_CSHL.c ****         MeasureNoiseEnvelope_P4_v2_60(&Capsense_config, (uint8)sensor, Capsense_sensorRaw);
 418:Generated_Source\PSoC4/Capsense_CSHL.c ****     #endif /* (Capsense_TUNING_METHOD == Capsense__TUNING_AUTO) */
 419:Generated_Source\PSoC4/Capsense_CSHL.c **** 
 420:Generated_Source\PSoC4/Capsense_CSHL.c ****     /* Baseline calculation */
 421:Generated_Source\PSoC4/Capsense_CSHL.c ****     /* Calculate difference RawData[cur] - Baseline[prev] */
 422:Generated_Source\PSoC4/Capsense_CSHL.c ****     if(filteredRawData >= Capsense_sensorBaseline[sensor])
 437              		.loc 1 422 0
 438 0068 684B     		ldr	r3, .L29+20
 439 006a 7A68     		ldr	r2, [r7, #4]
 440 006c 5200     		lsls	r2, r2, #1
 441 006e D35A     		ldrh	r3, [r2, r3]
 442 0070 1022     		movs	r2, #16
 443 0072 BA18     		adds	r2, r7, r2
 444 0074 1288     		ldrh	r2, [r2]
 445 0076 9A42     		cmp	r2, r3
 446 0078 12D3     		bcc	.L18
 423:Generated_Source\PSoC4/Capsense_CSHL.c ****     {
 424:Generated_Source\PSoC4/Capsense_CSHL.c ****         Capsense_lowBaselineResetCnt[sensor] = 0u;
 447              		.loc 1 424 0
 448 007a 654A     		ldr	r2, .L29+24
 449 007c 7B68     		ldr	r3, [r7, #4]
 450 007e D318     		adds	r3, r2, r3
 451 0080 0022     		movs	r2, #0
 452 0082 1A70     		strb	r2, [r3]
 425:Generated_Source\PSoC4/Capsense_CSHL.c ****         tempRaw = filteredRawData - Capsense_sensorBaseline[sensor];
 453              		.loc 1 425 0
 454 0084 614B     		ldr	r3, .L29+20
 455 0086 7A68     		ldr	r2, [r7, #4]
 456 0088 5200     		lsls	r2, r2, #1
 457 008a D25A     		ldrh	r2, [r2, r3]
 458 008c 1223     		movs	r3, #18
 459 008e FB18     		adds	r3, r7, r3
 460 0090 1021     		movs	r1, #16
 461 0092 7918     		adds	r1, r7, r1
 462 0094 0988     		ldrh	r1, [r1]
 463 0096 8A1A     		subs	r2, r1, r2
 464 0098 1A80     		strh	r2, [r3]
 426:Generated_Source\PSoC4/Capsense_CSHL.c ****         sign = 1u;    /* Positive difference - Calculate the Signal */
 465              		.loc 1 426 0
 466 009a 0123     		movs	r3, #1
 467 009c 7B61     		str	r3, [r7, #20]
 468 009e 0CE0     		b	.L19
 469              	.L18:
 427:Generated_Source\PSoC4/Capsense_CSHL.c ****     }
 428:Generated_Source\PSoC4/Capsense_CSHL.c ****     else
 429:Generated_Source\PSoC4/Capsense_CSHL.c ****     {
 430:Generated_Source\PSoC4/Capsense_CSHL.c ****         tempRaw = Capsense_sensorBaseline[sensor] - filteredRawData;
 470              		.loc 1 430 0
 471 00a0 5A4B     		ldr	r3, .L29+20
 472 00a2 7A68     		ldr	r2, [r7, #4]
 473 00a4 5200     		lsls	r2, r2, #1
 474 00a6 D15A     		ldrh	r1, [r2, r3]
 475 00a8 1223     		movs	r3, #18
 476 00aa FB18     		adds	r3, r7, r3
 477 00ac 1022     		movs	r2, #16
 478 00ae BA18     		adds	r2, r7, r2
ARM GAS  C:\Users\ROUSSMA\AppData\Local\Temp\ccw7ZO0v.s 			page 17


 479 00b0 1288     		ldrh	r2, [r2]
 480 00b2 8A1A     		subs	r2, r1, r2
 481 00b4 1A80     		strh	r2, [r3]
 431:Generated_Source\PSoC4/Capsense_CSHL.c ****         sign = 0u;    /* Negative difference - Do NOT calculate the Signal */
 482              		.loc 1 431 0
 483 00b6 0023     		movs	r3, #0
 484 00b8 7B61     		str	r3, [r7, #20]
 485              	.L19:
 432:Generated_Source\PSoC4/Capsense_CSHL.c ****     }
 433:Generated_Source\PSoC4/Capsense_CSHL.c **** 
 434:Generated_Source\PSoC4/Capsense_CSHL.c ****     #if (Capsense_TUNING_METHOD != Capsense__TUNING_NONE)
 435:Generated_Source\PSoC4/Capsense_CSHL.c ****     if((sign == 0u) && (tempRaw > (uint16) Capsense_negativeNoiseThreshold[widget]))
 486              		.loc 1 435 0
 487 00ba 7B69     		ldr	r3, [r7, #20]
 488 00bc 002B     		cmp	r3, #0
 489 00be 2AD1     		bne	.L20
 490              		.loc 1 435 0 is_stmt 0 discriminator 1
 491 00c0 0F23     		movs	r3, #15
 492 00c2 FB18     		adds	r3, r7, r3
 493 00c4 1B78     		ldrb	r3, [r3]
 494 00c6 534A     		ldr	r2, .L29+28
 495 00c8 D35C     		ldrb	r3, [r2, r3]
 496 00ca 9BB2     		uxth	r3, r3
 497 00cc 1222     		movs	r2, #18
 498 00ce BA18     		adds	r2, r7, r2
 499 00d0 1288     		ldrh	r2, [r2]
 500 00d2 9A42     		cmp	r2, r3
 501 00d4 1FD9     		bls	.L20
 436:Generated_Source\PSoC4/Capsense_CSHL.c ****     #else
 437:Generated_Source\PSoC4/Capsense_CSHL.c ****     if((sign == 0u) && (tempRaw > (uint16) Capsense_NEGATIVE_NOISE_THRESHOLD))
 438:Generated_Source\PSoC4/Capsense_CSHL.c ****     #endif /* (Capsense_TUNING_METHOD != Capsense__TUNING_NONE) */
 439:Generated_Source\PSoC4/Capsense_CSHL.c ****     {
 440:Generated_Source\PSoC4/Capsense_CSHL.c ****         if(Capsense_lowBaselineResetCnt[sensor] >= Capsense_lowBaselineReset[sensor])
 502              		.loc 1 440 0 is_stmt 1
 503 00d6 4E4A     		ldr	r2, .L29+24
 504 00d8 7B68     		ldr	r3, [r7, #4]
 505 00da D318     		adds	r3, r2, r3
 506 00dc 1A78     		ldrb	r2, [r3]
 507 00de 4E49     		ldr	r1, .L29+32
 508 00e0 7B68     		ldr	r3, [r7, #4]
 509 00e2 CB18     		adds	r3, r1, r3
 510 00e4 1B78     		ldrb	r3, [r3]
 511 00e6 9A42     		cmp	r2, r3
 512 00e8 09D3     		bcc	.L21
 441:Generated_Source\PSoC4/Capsense_CSHL.c ****         {
 442:Generated_Source\PSoC4/Capsense_CSHL.c ****             Capsense_BaseInit(sensor);
 513              		.loc 1 442 0
 514 00ea 7B68     		ldr	r3, [r7, #4]
 515 00ec 1800     		movs	r0, r3
 516 00ee FFF7FEFF 		bl	Capsense_BaseInit
 443:Generated_Source\PSoC4/Capsense_CSHL.c ****             Capsense_lowBaselineResetCnt[sensor] = 0u;
 517              		.loc 1 443 0
 518 00f2 474A     		ldr	r2, .L29+24
 519 00f4 7B68     		ldr	r3, [r7, #4]
 520 00f6 D318     		adds	r3, r2, r3
 521 00f8 0022     		movs	r2, #0
 522 00fa 1A70     		strb	r2, [r3]
ARM GAS  C:\Users\ROUSSMA\AppData\Local\Temp\ccw7ZO0v.s 			page 18


 440:Generated_Source\PSoC4/Capsense_CSHL.c ****         {
 523              		.loc 1 440 0
 524 00fc 51E0     		b	.L23
 525              	.L21:
 444:Generated_Source\PSoC4/Capsense_CSHL.c ****         }
 445:Generated_Source\PSoC4/Capsense_CSHL.c ****         else
 446:Generated_Source\PSoC4/Capsense_CSHL.c ****         {
 447:Generated_Source\PSoC4/Capsense_CSHL.c ****             Capsense_lowBaselineResetCnt[sensor]++;
 526              		.loc 1 447 0
 527 00fe 444A     		ldr	r2, .L29+24
 528 0100 7B68     		ldr	r3, [r7, #4]
 529 0102 D318     		adds	r3, r2, r3
 530 0104 1B78     		ldrb	r3, [r3]
 531 0106 0133     		adds	r3, r3, #1
 532 0108 D9B2     		uxtb	r1, r3
 533 010a 414A     		ldr	r2, .L29+24
 534 010c 7B68     		ldr	r3, [r7, #4]
 535 010e D318     		adds	r3, r2, r3
 536 0110 0A1C     		adds	r2, r1, #0
 537 0112 1A70     		strb	r2, [r3]
 440:Generated_Source\PSoC4/Capsense_CSHL.c ****         {
 538              		.loc 1 440 0
 539 0114 45E0     		b	.L23
 540              	.L20:
 448:Generated_Source\PSoC4/Capsense_CSHL.c ****         }
 449:Generated_Source\PSoC4/Capsense_CSHL.c ****     }
 450:Generated_Source\PSoC4/Capsense_CSHL.c ****     else
 451:Generated_Source\PSoC4/Capsense_CSHL.c ****     {
 452:Generated_Source\PSoC4/Capsense_CSHL.c ****         #if (Capsense_AUTO_RESET == Capsense_AUTO_RESET_DISABLE)
 453:Generated_Source\PSoC4/Capsense_CSHL.c ****         #if (Capsense_TUNING_METHOD != Capsense__TUNING_NONE)
 454:Generated_Source\PSoC4/Capsense_CSHL.c ****             /* Update Baseline if lower than noiseThreshold */
 455:Generated_Source\PSoC4/Capsense_CSHL.c ****             if ( (tempRaw <= noiseThreshold) ||
 541              		.loc 1 455 0
 542 0116 0E23     		movs	r3, #14
 543 0118 FB18     		adds	r3, r7, r3
 544 011a 1B78     		ldrb	r3, [r3]
 545 011c 9BB2     		uxth	r3, r3
 546 011e 1222     		movs	r2, #18
 547 0120 BA18     		adds	r2, r7, r2
 548 0122 1288     		ldrh	r2, [r2]
 549 0124 9A42     		cmp	r2, r3
 550 0126 0DD9     		bls	.L24
 456:Generated_Source\PSoC4/Capsense_CSHL.c ****              ((tempRaw < (uint16) Capsense_negativeNoiseThreshold[widget])
 551              		.loc 1 456 0 discriminator 1
 552 0128 0F23     		movs	r3, #15
 553 012a FB18     		adds	r3, r7, r3
 554 012c 1B78     		ldrb	r3, [r3]
 555 012e 394A     		ldr	r2, .L29+28
 556 0130 D35C     		ldrb	r3, [r2, r3]
 557 0132 9BB2     		uxth	r3, r3
 455:Generated_Source\PSoC4/Capsense_CSHL.c ****              ((tempRaw < (uint16) Capsense_negativeNoiseThreshold[widget])
 558              		.loc 1 455 0 discriminator 1
 559 0134 1222     		movs	r2, #18
 560 0136 BA18     		adds	r2, r7, r2
 561 0138 1288     		ldrh	r2, [r2]
 562 013a 9A42     		cmp	r2, r3
 563 013c 31D2     		bcs	.L23
ARM GAS  C:\Users\ROUSSMA\AppData\Local\Temp\ccw7ZO0v.s 			page 19


 457:Generated_Source\PSoC4/Capsense_CSHL.c ****                && (sign == 0u)))
 564              		.loc 1 457 0
 565 013e 7B69     		ldr	r3, [r7, #20]
 566 0140 002B     		cmp	r3, #0
 567 0142 2ED1     		bne	.L23
 568              	.L24:
 458:Generated_Source\PSoC4/Capsense_CSHL.c ****             {
 459:Generated_Source\PSoC4/Capsense_CSHL.c ****         #else
 460:Generated_Source\PSoC4/Capsense_CSHL.c ****             /* Update Baseline if lower than noiseThreshold */
 461:Generated_Source\PSoC4/Capsense_CSHL.c ****             if ( (tempRaw <= noiseThreshold) ||
 462:Generated_Source\PSoC4/Capsense_CSHL.c ****                  ((tempRaw < (uint16) Capsense_NEGATIVE_NOISE_THRESHOLD)
 463:Generated_Source\PSoC4/Capsense_CSHL.c ****                    && (sign == 0u)))
 464:Generated_Source\PSoC4/Capsense_CSHL.c ****             {
 465:Generated_Source\PSoC4/Capsense_CSHL.c ****         #endif /* (Capsense_TUNING_METHOD != Capsense__TUNING_NONE) */
 466:Generated_Source\PSoC4/Capsense_CSHL.c ****         #endif /* (Capsense_AUTO_RESET == Capsense_AUTO_RESET_DISABLE) */
 467:Generated_Source\PSoC4/Capsense_CSHL.c ****                 /* Make full Baseline 23 bits */
 468:Generated_Source\PSoC4/Capsense_CSHL.c ****                 calc = (uint32) Capsense_sensorBaseline[sensor] << 8u;
 569              		.loc 1 468 0
 570 0144 314B     		ldr	r3, .L29+20
 571 0146 7A68     		ldr	r2, [r7, #4]
 572 0148 5200     		lsls	r2, r2, #1
 573 014a D35A     		ldrh	r3, [r2, r3]
 574 014c 1B02     		lsls	r3, r3, #8
 575 014e BB60     		str	r3, [r7, #8]
 469:Generated_Source\PSoC4/Capsense_CSHL.c ****                 calc |= (uint32) Capsense_sensorBaselineLow[sensor];
 576              		.loc 1 469 0
 577 0150 324A     		ldr	r2, .L29+36
 578 0152 7B68     		ldr	r3, [r7, #4]
 579 0154 D318     		adds	r3, r2, r3
 580 0156 1B78     		ldrb	r3, [r3]
 581 0158 1A00     		movs	r2, r3
 582 015a BB68     		ldr	r3, [r7, #8]
 583 015c 1343     		orrs	r3, r2
 584 015e BB60     		str	r3, [r7, #8]
 470:Generated_Source\PSoC4/Capsense_CSHL.c **** 
 471:Generated_Source\PSoC4/Capsense_CSHL.c ****                 /* Add Raw Data to Baseline */
 472:Generated_Source\PSoC4/Capsense_CSHL.c ****                 calc += filteredRawData;
 585              		.loc 1 472 0
 586 0160 1023     		movs	r3, #16
 587 0162 FB18     		adds	r3, r7, r3
 588 0164 1B88     		ldrh	r3, [r3]
 589 0166 BA68     		ldr	r2, [r7, #8]
 590 0168 D318     		adds	r3, r2, r3
 591 016a BB60     		str	r3, [r7, #8]
 473:Generated_Source\PSoC4/Capsense_CSHL.c **** 
 474:Generated_Source\PSoC4/Capsense_CSHL.c ****                 /* Sub the high Baseline */
 475:Generated_Source\PSoC4/Capsense_CSHL.c ****                 calc -= Capsense_sensorBaseline[sensor];
 592              		.loc 1 475 0
 593 016c 274B     		ldr	r3, .L29+20
 594 016e 7A68     		ldr	r2, [r7, #4]
 595 0170 5200     		lsls	r2, r2, #1
 596 0172 D35A     		ldrh	r3, [r2, r3]
 597 0174 1A00     		movs	r2, r3
 598 0176 BB68     		ldr	r3, [r7, #8]
 599 0178 9B1A     		subs	r3, r3, r2
 600 017a BB60     		str	r3, [r7, #8]
 476:Generated_Source\PSoC4/Capsense_CSHL.c **** 
ARM GAS  C:\Users\ROUSSMA\AppData\Local\Temp\ccw7ZO0v.s 			page 20


 477:Generated_Source\PSoC4/Capsense_CSHL.c ****                 /* Put Baseline and BaselineLow */
 478:Generated_Source\PSoC4/Capsense_CSHL.c ****                 Capsense_sensorBaseline[sensor] = ((uint16) (calc >> 8u));
 601              		.loc 1 478 0
 602 017c BB68     		ldr	r3, [r7, #8]
 603 017e 1B0A     		lsrs	r3, r3, #8
 604 0180 99B2     		uxth	r1, r3
 605 0182 224B     		ldr	r3, .L29+20
 606 0184 7A68     		ldr	r2, [r7, #4]
 607 0186 5200     		lsls	r2, r2, #1
 608 0188 D152     		strh	r1, [r2, r3]
 479:Generated_Source\PSoC4/Capsense_CSHL.c ****                 Capsense_sensorBaselineLow[sensor] = ((uint8) calc);
 609              		.loc 1 479 0
 610 018a BB68     		ldr	r3, [r7, #8]
 611 018c D9B2     		uxtb	r1, r3
 612 018e 234A     		ldr	r2, .L29+36
 613 0190 7B68     		ldr	r3, [r7, #4]
 614 0192 D318     		adds	r3, r2, r3
 615 0194 0A1C     		adds	r2, r1, #0
 616 0196 1A70     		strb	r2, [r3]
 480:Generated_Source\PSoC4/Capsense_CSHL.c **** 
 481:Generated_Source\PSoC4/Capsense_CSHL.c ****                 Capsense_lowBaselineResetCnt[sensor] = 0u;
 617              		.loc 1 481 0
 618 0198 1D4A     		ldr	r2, .L29+24
 619 019a 7B68     		ldr	r3, [r7, #4]
 620 019c D318     		adds	r3, r2, r3
 621 019e 0022     		movs	r2, #0
 622 01a0 1A70     		strb	r2, [r3]
 623              	.L23:
 482:Generated_Source\PSoC4/Capsense_CSHL.c ****         #if (Capsense_AUTO_RESET == Capsense_AUTO_RESET_DISABLE)
 483:Generated_Source\PSoC4/Capsense_CSHL.c ****             }
 484:Generated_Source\PSoC4/Capsense_CSHL.c ****         #endif /* (Capsense_AUTO_RESET == Capsense_AUTO_RESET_DISABLE) */
 485:Generated_Source\PSoC4/Capsense_CSHL.c ****     }
 486:Generated_Source\PSoC4/Capsense_CSHL.c **** 
 487:Generated_Source\PSoC4/Capsense_CSHL.c ****     /* Calculate Signal if positive difference > noiseThreshold */
 488:Generated_Source\PSoC4/Capsense_CSHL.c ****     if((tempRaw > (uint16) noiseThreshold) && (sign != 0u))
 624              		.loc 1 488 0
 625 01a2 0E23     		movs	r3, #14
 626 01a4 FB18     		adds	r3, r7, r3
 627 01a6 1B78     		ldrb	r3, [r3]
 628 01a8 9BB2     		uxth	r3, r3
 629 01aa 1222     		movs	r2, #18
 630 01ac BA18     		adds	r2, r7, r2
 631 01ae 1288     		ldrh	r2, [r2]
 632 01b0 9A42     		cmp	r2, r3
 633 01b2 17D9     		bls	.L25
 634              		.loc 1 488 0 is_stmt 0 discriminator 1
 635 01b4 7B69     		ldr	r3, [r7, #20]
 636 01b6 002B     		cmp	r3, #0
 637 01b8 14D0     		beq	.L25
 489:Generated_Source\PSoC4/Capsense_CSHL.c ****     {
 490:Generated_Source\PSoC4/Capsense_CSHL.c ****         #if (Capsense_SIGNAL_SIZE == Capsense_SIGNAL_SIZE_UINT8)
 491:Generated_Source\PSoC4/Capsense_CSHL.c ****             /* Over flow defence for uint8 */
 492:Generated_Source\PSoC4/Capsense_CSHL.c ****             if (tempRaw > 0xFFu)
 638              		.loc 1 492 0 is_stmt 1
 639 01ba 1223     		movs	r3, #18
 640 01bc FB18     		adds	r3, r7, r3
 641 01be 1B88     		ldrh	r3, [r3]
ARM GAS  C:\Users\ROUSSMA\AppData\Local\Temp\ccw7ZO0v.s 			page 21


 642 01c0 FF2B     		cmp	r3, #255
 643 01c2 05D9     		bls	.L26
 493:Generated_Source\PSoC4/Capsense_CSHL.c ****             {
 494:Generated_Source\PSoC4/Capsense_CSHL.c ****                 Capsense_sensorSignal[sensor] = 0xFFu;
 644              		.loc 1 494 0
 645 01c4 164A     		ldr	r2, .L29+40
 646 01c6 7B68     		ldr	r3, [r7, #4]
 647 01c8 D318     		adds	r3, r2, r3
 648 01ca FF22     		movs	r2, #255
 649 01cc 1A70     		strb	r2, [r3]
 492:Generated_Source\PSoC4/Capsense_CSHL.c ****             {
 650              		.loc 1 492 0
 651 01ce 0EE0     		b	.L28
 652              	.L26:
 495:Generated_Source\PSoC4/Capsense_CSHL.c ****             }
 496:Generated_Source\PSoC4/Capsense_CSHL.c ****             else
 497:Generated_Source\PSoC4/Capsense_CSHL.c ****             {
 498:Generated_Source\PSoC4/Capsense_CSHL.c ****                 Capsense_sensorSignal[sensor] = ((uint8) tempRaw);
 653              		.loc 1 498 0
 654 01d0 1223     		movs	r3, #18
 655 01d2 FB18     		adds	r3, r7, r3
 656 01d4 1B88     		ldrh	r3, [r3]
 657 01d6 D9B2     		uxtb	r1, r3
 658 01d8 114A     		ldr	r2, .L29+40
 659 01da 7B68     		ldr	r3, [r7, #4]
 660 01dc D318     		adds	r3, r2, r3
 661 01de 0A1C     		adds	r2, r1, #0
 662 01e0 1A70     		strb	r2, [r3]
 492:Generated_Source\PSoC4/Capsense_CSHL.c ****             {
 663              		.loc 1 492 0
 664 01e2 04E0     		b	.L28
 665              	.L25:
 499:Generated_Source\PSoC4/Capsense_CSHL.c ****             }
 500:Generated_Source\PSoC4/Capsense_CSHL.c ****         #else
 501:Generated_Source\PSoC4/Capsense_CSHL.c ****             Capsense_sensorSignal[sensor] = ((uint16) tempRaw);
 502:Generated_Source\PSoC4/Capsense_CSHL.c ****         #endif  /* (Capsense_SIGNAL_SIZE == Capsense_SIGNAL_SIZE_UINT8) */
 503:Generated_Source\PSoC4/Capsense_CSHL.c ****     }
 504:Generated_Source\PSoC4/Capsense_CSHL.c ****     else
 505:Generated_Source\PSoC4/Capsense_CSHL.c ****     {
 506:Generated_Source\PSoC4/Capsense_CSHL.c ****         /* Signal is zero */
 507:Generated_Source\PSoC4/Capsense_CSHL.c ****         Capsense_sensorSignal[sensor] = 0u;
 666              		.loc 1 507 0
 667 01e4 0E4A     		ldr	r2, .L29+40
 668 01e6 7B68     		ldr	r3, [r7, #4]
 669 01e8 D318     		adds	r3, r2, r3
 670 01ea 0022     		movs	r2, #0
 671 01ec 1A70     		strb	r2, [r3]
 672              	.L28:
 508:Generated_Source\PSoC4/Capsense_CSHL.c ****     }
 509:Generated_Source\PSoC4/Capsense_CSHL.c **** 
 510:Generated_Source\PSoC4/Capsense_CSHL.c ****     #if (Capsense_TOTAL_GENERICS_COUNT)
 511:Generated_Source\PSoC4/Capsense_CSHL.c ****         /* Exclude generic widget */
 512:Generated_Source\PSoC4/Capsense_CSHL.c ****         }
 513:Generated_Source\PSoC4/Capsense_CSHL.c ****     #endif  /* Capsense_TOTAL_GENERICS_COUNT */
 514:Generated_Source\PSoC4/Capsense_CSHL.c **** }
 673              		.loc 1 514 0
 674 01ee C046     		nop
ARM GAS  C:\Users\ROUSSMA\AppData\Local\Temp\ccw7ZO0v.s 			page 22


 675 01f0 BD46     		mov	sp, r7
 676 01f2 07B0     		add	sp, sp, #28
 677              		@ sp needed
 678 01f4 90BD     		pop	{r4, r7, pc}
 679              	.L30:
 680 01f6 C046     		.align	2
 681              	.L29:
 682 01f8 00000000 		.word	Capsense_widgetNumber
 683 01fc 00000000 		.word	Capsense_noiseThreshold
 684 0200 00000000 		.word	Capsense_sensorRaw
 685 0204 00000000 		.word	Capsense_enableRawFilters
 686 0208 00000000 		.word	Capsense_rawFilterData1
 687 020c 00000000 		.word	Capsense_sensorBaseline
 688 0210 00000000 		.word	Capsense_lowBaselineResetCnt
 689 0214 00000000 		.word	Capsense_negativeNoiseThreshold
 690 0218 00000000 		.word	Capsense_lowBaselineReset
 691 021c 00000000 		.word	Capsense_sensorBaselineLow
 692 0220 00000000 		.word	Capsense_sensorSignal
 693              		.cfi_endproc
 694              	.LFE40:
 695              		.size	Capsense_UpdateBaselineNoThreshold, .-Capsense_UpdateBaselineNoThreshold
 696              		.section	.text.Capsense_UpdateSensorBaseline,"ax",%progbits
 697              		.align	2
 698              		.global	Capsense_UpdateSensorBaseline
 699              		.code	16
 700              		.thumb_func
 701              		.type	Capsense_UpdateSensorBaseline, %function
 702              	Capsense_UpdateSensorBaseline:
 703              	.LFB41:
 515:Generated_Source\PSoC4/Capsense_CSHL.c **** 
 516:Generated_Source\PSoC4/Capsense_CSHL.c **** 
 517:Generated_Source\PSoC4/Capsense_CSHL.c **** /*******************************************************************************
 518:Generated_Source\PSoC4/Capsense_CSHL.c **** * Function Name: Capsense_UpdateSensorBaseline
 519:Generated_Source\PSoC4/Capsense_CSHL.c **** ********************************************************************************
 520:Generated_Source\PSoC4/Capsense_CSHL.c **** *
 521:Generated_Source\PSoC4/Capsense_CSHL.c **** * Summary:
 522:Generated_Source\PSoC4/Capsense_CSHL.c **** *  Updates the Capsense_sensorBaseline[sensor] array element using the
 523:Generated_Source\PSoC4/Capsense_CSHL.c **** *  LP filter with k = 256. The signal calculates the difference of count by
 524:Generated_Source\PSoC4/Capsense_CSHL.c **** *  subtracting the previous baseline from the current raw count value and stores
 525:Generated_Source\PSoC4/Capsense_CSHL.c **** *  it in Capsense_sensorSignal[sensor].
 526:Generated_Source\PSoC4/Capsense_CSHL.c **** *  If the auto reset option is enabled, the baseline updated regards the noise threshold.
 527:Generated_Source\PSoC4/Capsense_CSHL.c **** *  If the auto reset option is disabled, the baseline stops updating.
 528:Generated_Source\PSoC4/Capsense_CSHL.c **** *  Baseline is loaded with raw count value if a signal is greater than zero and
 529:Generated_Source\PSoC4/Capsense_CSHL.c **** *  if signal is less than noise threshold.
 530:Generated_Source\PSoC4/Capsense_CSHL.c **** *  Raw data filters are applied to the values if enabled before baseline
 531:Generated_Source\PSoC4/Capsense_CSHL.c **** *  calculation.
 532:Generated_Source\PSoC4/Capsense_CSHL.c **** *  This API updates the thresholds in the Smartsense Mode.
 533:Generated_Source\PSoC4/Capsense_CSHL.c **** *
 534:Generated_Source\PSoC4/Capsense_CSHL.c **** * Parameters:
 535:Generated_Source\PSoC4/Capsense_CSHL.c **** *  sensor:  Sensor number.
 536:Generated_Source\PSoC4/Capsense_CSHL.c **** *
 537:Generated_Source\PSoC4/Capsense_CSHL.c **** * Return:
 538:Generated_Source\PSoC4/Capsense_CSHL.c **** *  None
 539:Generated_Source\PSoC4/Capsense_CSHL.c **** *
 540:Generated_Source\PSoC4/Capsense_CSHL.c **** * Global Variables:
 541:Generated_Source\PSoC4/Capsense_CSHL.c **** *  Capsense_widgetNumber[]  - stores widget numbers.
 542:Generated_Source\PSoC4/Capsense_CSHL.c **** *
ARM GAS  C:\Users\ROUSSMA\AppData\Local\Temp\ccw7ZO0v.s 			page 23


 543:Generated_Source\PSoC4/Capsense_CSHL.c **** * Side Effects:
 544:Generated_Source\PSoC4/Capsense_CSHL.c **** *  None
 545:Generated_Source\PSoC4/Capsense_CSHL.c **** *
 546:Generated_Source\PSoC4/Capsense_CSHL.c **** *******************************************************************************/
 547:Generated_Source\PSoC4/Capsense_CSHL.c ****  void Capsense_UpdateSensorBaseline(uint32 sensor)
 548:Generated_Source\PSoC4/Capsense_CSHL.c **** {
 704              		.loc 1 548 0
 705              		.cfi_startproc
 706              		@ args = 0, pretend = 0, frame = 8
 707              		@ frame_needed = 1, uses_anonymous_args = 0
 708 0000 80B5     		push	{r7, lr}
 709              		.cfi_def_cfa_offset 8
 710              		.cfi_offset 7, -8
 711              		.cfi_offset 14, -4
 712 0002 82B0     		sub	sp, sp, #8
 713              		.cfi_def_cfa_offset 16
 714 0004 00AF     		add	r7, sp, #0
 715              		.cfi_def_cfa_register 7
 716 0006 7860     		str	r0, [r7, #4]
 549:Generated_Source\PSoC4/Capsense_CSHL.c ****     #if (Capsense_TOTAL_GENERICS_COUNT)
 550:Generated_Source\PSoC4/Capsense_CSHL.c ****         uint32 widget;
 551:Generated_Source\PSoC4/Capsense_CSHL.c **** 
 552:Generated_Source\PSoC4/Capsense_CSHL.c ****         widget = Capsense_widgetNumber[sensor];
 553:Generated_Source\PSoC4/Capsense_CSHL.c **** 
 554:Generated_Source\PSoC4/Capsense_CSHL.c ****         /* Exclude generic widget */
 555:Generated_Source\PSoC4/Capsense_CSHL.c ****         if(widget < Capsense_END_OF_WIDGETS_INDEX)
 556:Generated_Source\PSoC4/Capsense_CSHL.c ****         {
 557:Generated_Source\PSoC4/Capsense_CSHL.c ****     #endif  /* Capsense_TOTAL_GENERICS_COUNT */
 558:Generated_Source\PSoC4/Capsense_CSHL.c **** 
 559:Generated_Source\PSoC4/Capsense_CSHL.c ****     #if (Capsense_TUNING_METHOD == Capsense__TUNING_AUTO)
 560:Generated_Source\PSoC4/Capsense_CSHL.c ****         Capsense_UpdateThresholds(sensor);
 561:Generated_Source\PSoC4/Capsense_CSHL.c ****     #endif /* (Capsense_TUNING_METHOD == Capsense__TUNING_AUTO) */
 562:Generated_Source\PSoC4/Capsense_CSHL.c **** 
 563:Generated_Source\PSoC4/Capsense_CSHL.c ****     Capsense_UpdateBaselineNoThreshold(sensor);
 717              		.loc 1 563 0
 718 0008 7B68     		ldr	r3, [r7, #4]
 719 000a 1800     		movs	r0, r3
 720 000c FFF7FEFF 		bl	Capsense_UpdateBaselineNoThreshold
 564:Generated_Source\PSoC4/Capsense_CSHL.c **** 
 565:Generated_Source\PSoC4/Capsense_CSHL.c ****     #if (Capsense_TOTAL_GENERICS_COUNT)
 566:Generated_Source\PSoC4/Capsense_CSHL.c ****         /* Exclude generic widget */
 567:Generated_Source\PSoC4/Capsense_CSHL.c ****         }
 568:Generated_Source\PSoC4/Capsense_CSHL.c ****     #endif  /* Capsense_TOTAL_GENERICS_COUNT */
 569:Generated_Source\PSoC4/Capsense_CSHL.c **** }
 721              		.loc 1 569 0
 722 0010 C046     		nop
 723 0012 BD46     		mov	sp, r7
 724 0014 02B0     		add	sp, sp, #8
 725              		@ sp needed
 726 0016 80BD     		pop	{r7, pc}
 727              		.cfi_endproc
 728              	.LFE41:
 729              		.size	Capsense_UpdateSensorBaseline, .-Capsense_UpdateSensorBaseline
 730              		.section	.text.Capsense_UpdateEnabledBaselines,"ax",%progbits
 731              		.align	2
 732              		.global	Capsense_UpdateEnabledBaselines
 733              		.code	16
ARM GAS  C:\Users\ROUSSMA\AppData\Local\Temp\ccw7ZO0v.s 			page 24


 734              		.thumb_func
 735              		.type	Capsense_UpdateEnabledBaselines, %function
 736              	Capsense_UpdateEnabledBaselines:
 737              	.LFB42:
 570:Generated_Source\PSoC4/Capsense_CSHL.c **** 
 571:Generated_Source\PSoC4/Capsense_CSHL.c **** 
 572:Generated_Source\PSoC4/Capsense_CSHL.c **** /*******************************************************************************
 573:Generated_Source\PSoC4/Capsense_CSHL.c **** * Function Name: Capsense_UpdateEnabledBaselines
 574:Generated_Source\PSoC4/Capsense_CSHL.c **** ********************************************************************************
 575:Generated_Source\PSoC4/Capsense_CSHL.c **** *
 576:Generated_Source\PSoC4/Capsense_CSHL.c **** * Summary:
 577:Generated_Source\PSoC4/Capsense_CSHL.c **** *  Checks Capsense_sensorEnableMask[] array and calls the
 578:Generated_Source\PSoC4/Capsense_CSHL.c **** *  Capsense_UpdateSensorBaseline function to update the baselines
 579:Generated_Source\PSoC4/Capsense_CSHL.c **** *  for the enabled sensors.
 580:Generated_Source\PSoC4/Capsense_CSHL.c **** *
 581:Generated_Source\PSoC4/Capsense_CSHL.c **** * Parameters:
 582:Generated_Source\PSoC4/Capsense_CSHL.c **** *  None
 583:Generated_Source\PSoC4/Capsense_CSHL.c **** *
 584:Generated_Source\PSoC4/Capsense_CSHL.c **** * Return:
 585:Generated_Source\PSoC4/Capsense_CSHL.c **** *  None
 586:Generated_Source\PSoC4/Capsense_CSHL.c **** *
 587:Generated_Source\PSoC4/Capsense_CSHL.c **** * Global Variables:
 588:Generated_Source\PSoC4/Capsense_CSHL.c **** *  Capsense_sensorEnableMask[] - used to store the sensor scanning
 589:Generated_Source\PSoC4/Capsense_CSHL.c **** *  state.
 590:Generated_Source\PSoC4/Capsense_CSHL.c **** *  Capsense_sensorEnableMask[0] contains the masked bits for sensors
 591:Generated_Source\PSoC4/Capsense_CSHL.c **** *   0 through 7 (sensor 0 is bit 0, sensor 1 is bit 1).
 592:Generated_Source\PSoC4/Capsense_CSHL.c **** *  Capsense_sensorEnableMask[1] contains the masked bits for
 593:Generated_Source\PSoC4/Capsense_CSHL.c **** *  sensors 8 through 15 (if needed), and so on.
 594:Generated_Source\PSoC4/Capsense_CSHL.c **** *  0 - sensor doesn't scan by Capsense_ScanEnabledWidgets().
 595:Generated_Source\PSoC4/Capsense_CSHL.c **** *  1 - sensor scans by Capsense_ScanEnabledWidgets().
 596:Generated_Source\PSoC4/Capsense_CSHL.c **** *
 597:Generated_Source\PSoC4/Capsense_CSHL.c **** * Side Effects:
 598:Generated_Source\PSoC4/Capsense_CSHL.c **** *  None
 599:Generated_Source\PSoC4/Capsense_CSHL.c **** *
 600:Generated_Source\PSoC4/Capsense_CSHL.c **** *******************************************************************************/
 601:Generated_Source\PSoC4/Capsense_CSHL.c ****  void Capsense_UpdateEnabledBaselines(void)
 602:Generated_Source\PSoC4/Capsense_CSHL.c **** {
 738              		.loc 1 602 0
 739              		.cfi_startproc
 740              		@ args = 0, pretend = 0, frame = 8
 741              		@ frame_needed = 1, uses_anonymous_args = 0
 742 0000 80B5     		push	{r7, lr}
 743              		.cfi_def_cfa_offset 8
 744              		.cfi_offset 7, -8
 745              		.cfi_offset 14, -4
 746 0002 82B0     		sub	sp, sp, #8
 747              		.cfi_def_cfa_offset 16
 748 0004 00AF     		add	r7, sp, #0
 749              		.cfi_def_cfa_register 7
 603:Generated_Source\PSoC4/Capsense_CSHL.c ****     uint32 i;
 604:Generated_Source\PSoC4/Capsense_CSHL.c ****     uint32 isSensorEnabled;
 605:Generated_Source\PSoC4/Capsense_CSHL.c **** 
 606:Generated_Source\PSoC4/Capsense_CSHL.c ****     for(i = 0u; i < Capsense_TOTAL_SENSOR_COUNT; i++)
 750              		.loc 1 606 0
 751 0006 0023     		movs	r3, #0
 752 0008 7B60     		str	r3, [r7, #4]
 753 000a 11E0     		b	.L33
ARM GAS  C:\Users\ROUSSMA\AppData\Local\Temp\ccw7ZO0v.s 			page 25


 754              	.L35:
 607:Generated_Source\PSoC4/Capsense_CSHL.c ****     {
 608:Generated_Source\PSoC4/Capsense_CSHL.c ****         isSensorEnabled = Capsense_GetBitValue(Capsense_sensorEnableMask, i);
 755              		.loc 1 608 0
 756 000c 7A68     		ldr	r2, [r7, #4]
 757 000e 0C4B     		ldr	r3, .L36
 758 0010 1100     		movs	r1, r2
 759 0012 1800     		movs	r0, r3
 760 0014 FFF7FEFF 		bl	Capsense_GetBitValue
 761 0018 0300     		movs	r3, r0
 762 001a 3B60     		str	r3, [r7]
 609:Generated_Source\PSoC4/Capsense_CSHL.c **** 
 610:Generated_Source\PSoC4/Capsense_CSHL.c ****         if(0u != isSensorEnabled)
 763              		.loc 1 610 0
 764 001c 3B68     		ldr	r3, [r7]
 765 001e 002B     		cmp	r3, #0
 766 0020 03D0     		beq	.L34
 611:Generated_Source\PSoC4/Capsense_CSHL.c ****         {
 612:Generated_Source\PSoC4/Capsense_CSHL.c ****             Capsense_UpdateSensorBaseline(i);
 767              		.loc 1 612 0
 768 0022 7B68     		ldr	r3, [r7, #4]
 769 0024 1800     		movs	r0, r3
 770 0026 FFF7FEFF 		bl	Capsense_UpdateSensorBaseline
 771              	.L34:
 606:Generated_Source\PSoC4/Capsense_CSHL.c ****     {
 772              		.loc 1 606 0 discriminator 2
 773 002a 7B68     		ldr	r3, [r7, #4]
 774 002c 0133     		adds	r3, r3, #1
 775 002e 7B60     		str	r3, [r7, #4]
 776              	.L33:
 606:Generated_Source\PSoC4/Capsense_CSHL.c ****     {
 777              		.loc 1 606 0 is_stmt 0 discriminator 1
 778 0030 7B68     		ldr	r3, [r7, #4]
 779 0032 002B     		cmp	r3, #0
 780 0034 EAD0     		beq	.L35
 613:Generated_Source\PSoC4/Capsense_CSHL.c ****         }
 614:Generated_Source\PSoC4/Capsense_CSHL.c ****     }
 615:Generated_Source\PSoC4/Capsense_CSHL.c **** }
 781              		.loc 1 615 0 is_stmt 1
 782 0036 C046     		nop
 783 0038 BD46     		mov	sp, r7
 784 003a 02B0     		add	sp, sp, #8
 785              		@ sp needed
 786 003c 80BD     		pop	{r7, pc}
 787              	.L37:
 788 003e C046     		.align	2
 789              	.L36:
 790 0040 00000000 		.word	Capsense_sensorEnableMask
 791              		.cfi_endproc
 792              	.LFE42:
 793              		.size	Capsense_UpdateEnabledBaselines, .-Capsense_UpdateEnabledBaselines
 794              		.section	.text.Capsense_UpdateWidgetBaseline,"ax",%progbits
 795              		.align	2
 796              		.global	Capsense_UpdateWidgetBaseline
 797              		.code	16
 798              		.thumb_func
 799              		.type	Capsense_UpdateWidgetBaseline, %function
ARM GAS  C:\Users\ROUSSMA\AppData\Local\Temp\ccw7ZO0v.s 			page 26


 800              	Capsense_UpdateWidgetBaseline:
 801              	.LFB43:
 616:Generated_Source\PSoC4/Capsense_CSHL.c **** 
 617:Generated_Source\PSoC4/Capsense_CSHL.c **** /*******************************************************************************
 618:Generated_Source\PSoC4/Capsense_CSHL.c **** * Function Name: Capsense_UpdateWidgetBaseline
 619:Generated_Source\PSoC4/Capsense_CSHL.c **** ********************************************************************************
 620:Generated_Source\PSoC4/Capsense_CSHL.c **** *
 621:Generated_Source\PSoC4/Capsense_CSHL.c **** * Summary:
 622:Generated_Source\PSoC4/Capsense_CSHL.c **** *  Checks Capsense_sensorEnableMask[] array and calls the
 623:Generated_Source\PSoC4/Capsense_CSHL.c **** *  Capsense_UpdateSensorBaseline function to update the baselines
 624:Generated_Source\PSoC4/Capsense_CSHL.c **** *  for the enabled sensors that belong to widget.
 625:Generated_Source\PSoC4/Capsense_CSHL.c **** *
 626:Generated_Source\PSoC4/Capsense_CSHL.c **** * Parameters:
 627:Generated_Source\PSoC4/Capsense_CSHL.c **** *  widget:  Widget number.
 628:Generated_Source\PSoC4/Capsense_CSHL.c **** *
 629:Generated_Source\PSoC4/Capsense_CSHL.c **** * Return:
 630:Generated_Source\PSoC4/Capsense_CSHL.c **** *  None
 631:Generated_Source\PSoC4/Capsense_CSHL.c **** *
 632:Generated_Source\PSoC4/Capsense_CSHL.c **** * Global Variables:
 633:Generated_Source\PSoC4/Capsense_CSHL.c **** *  Capsense_sensorEnableMask[] - used to store the sensor scanning
 634:Generated_Source\PSoC4/Capsense_CSHL.c **** *  state.
 635:Generated_Source\PSoC4/Capsense_CSHL.c **** *  Capsense_sensorEnableMask[0] contains the masked bits for sensors
 636:Generated_Source\PSoC4/Capsense_CSHL.c **** *   0 through 7 (sensor 0 is bit 0, sensor 1 is bit 1).
 637:Generated_Source\PSoC4/Capsense_CSHL.c **** *  Capsense_sensorEnableMask[1] contains the masked bits for
 638:Generated_Source\PSoC4/Capsense_CSHL.c **** *  sensors 8 through 15 (if needed), and so on.
 639:Generated_Source\PSoC4/Capsense_CSHL.c **** *  0 - sensor doesn't scan by Capsense_ScanEnabledWidgets().
 640:Generated_Source\PSoC4/Capsense_CSHL.c **** *  1 - sensor scans by Capsense_ScanEnabledWidgets().
 641:Generated_Source\PSoC4/Capsense_CSHL.c **** *
 642:Generated_Source\PSoC4/Capsense_CSHL.c **** * Side Effects:
 643:Generated_Source\PSoC4/Capsense_CSHL.c **** *  None
 644:Generated_Source\PSoC4/Capsense_CSHL.c **** *
 645:Generated_Source\PSoC4/Capsense_CSHL.c **** *******************************************************************************/
 646:Generated_Source\PSoC4/Capsense_CSHL.c **** void Capsense_UpdateWidgetBaseline(uint32 widget)
 647:Generated_Source\PSoC4/Capsense_CSHL.c **** {
 802              		.loc 1 647 0
 803              		.cfi_startproc
 804              		@ args = 0, pretend = 0, frame = 32
 805              		@ frame_needed = 1, uses_anonymous_args = 0
 806 0000 80B5     		push	{r7, lr}
 807              		.cfi_def_cfa_offset 8
 808              		.cfi_offset 7, -8
 809              		.cfi_offset 14, -4
 810 0002 88B0     		sub	sp, sp, #32
 811              		.cfi_def_cfa_offset 40
 812 0004 00AF     		add	r7, sp, #0
 813              		.cfi_def_cfa_register 7
 814 0006 7860     		str	r0, [r7, #4]
 648:Generated_Source\PSoC4/Capsense_CSHL.c ****     uint32 sensorsPerWidget;
 649:Generated_Source\PSoC4/Capsense_CSHL.c ****     uint32 firstSensor;
 650:Generated_Source\PSoC4/Capsense_CSHL.c ****     uint32 lastSensor;
 651:Generated_Source\PSoC4/Capsense_CSHL.c ****     uint32 i;
 652:Generated_Source\PSoC4/Capsense_CSHL.c ****     uint32 isSensorEnabled;
 653:Generated_Source\PSoC4/Capsense_CSHL.c **** 
 654:Generated_Source\PSoC4/Capsense_CSHL.c ****     /* Get number of sensors in widget */
 655:Generated_Source\PSoC4/Capsense_CSHL.c ****     sensorsPerWidget = Capsense_numberOfSensors[widget];
 815              		.loc 1 655 0
 816 0008 0123     		movs	r3, #1
ARM GAS  C:\Users\ROUSSMA\AppData\Local\Temp\ccw7ZO0v.s 			page 27


 817 000a BB61     		str	r3, [r7, #24]
 656:Generated_Source\PSoC4/Capsense_CSHL.c **** 
 657:Generated_Source\PSoC4/Capsense_CSHL.c ****     /* Get first sensor in widget */
 658:Generated_Source\PSoC4/Capsense_CSHL.c ****     firstSensor = Capsense_rawDataIndex[widget];
 818              		.loc 1 658 0
 819 000c 0023     		movs	r3, #0
 820 000e 7B61     		str	r3, [r7, #20]
 659:Generated_Source\PSoC4/Capsense_CSHL.c **** 
 660:Generated_Source\PSoC4/Capsense_CSHL.c ****     /* Get last sensor in widget */
 661:Generated_Source\PSoC4/Capsense_CSHL.c ****     lastSensor = (Capsense_rawDataIndex[widget] + sensorsPerWidget);
 821              		.loc 1 661 0
 822 0010 0023     		movs	r3, #0
 823 0012 1A00     		movs	r2, r3
 824 0014 BB69     		ldr	r3, [r7, #24]
 825 0016 D318     		adds	r3, r2, r3
 826 0018 3B61     		str	r3, [r7, #16]
 662:Generated_Source\PSoC4/Capsense_CSHL.c **** 
 663:Generated_Source\PSoC4/Capsense_CSHL.c ****     for(i = firstSensor; i < lastSensor; i++)
 827              		.loc 1 663 0
 828 001a 7B69     		ldr	r3, [r7, #20]
 829 001c FB61     		str	r3, [r7, #28]
 830 001e 11E0     		b	.L39
 831              	.L41:
 664:Generated_Source\PSoC4/Capsense_CSHL.c ****     {
 665:Generated_Source\PSoC4/Capsense_CSHL.c ****         isSensorEnabled = Capsense_GetBitValue(Capsense_sensorEnableMask, i);
 832              		.loc 1 665 0
 833 0020 FA69     		ldr	r2, [r7, #28]
 834 0022 0C4B     		ldr	r3, .L42
 835 0024 1100     		movs	r1, r2
 836 0026 1800     		movs	r0, r3
 837 0028 FFF7FEFF 		bl	Capsense_GetBitValue
 838 002c 0300     		movs	r3, r0
 839 002e FB60     		str	r3, [r7, #12]
 666:Generated_Source\PSoC4/Capsense_CSHL.c **** 
 667:Generated_Source\PSoC4/Capsense_CSHL.c ****         if(0u != isSensorEnabled)
 840              		.loc 1 667 0
 841 0030 FB68     		ldr	r3, [r7, #12]
 842 0032 002B     		cmp	r3, #0
 843 0034 03D0     		beq	.L40
 668:Generated_Source\PSoC4/Capsense_CSHL.c ****         {
 669:Generated_Source\PSoC4/Capsense_CSHL.c ****             Capsense_UpdateSensorBaseline(i);
 844              		.loc 1 669 0
 845 0036 FB69     		ldr	r3, [r7, #28]
 846 0038 1800     		movs	r0, r3
 847 003a FFF7FEFF 		bl	Capsense_UpdateSensorBaseline
 848              	.L40:
 663:Generated_Source\PSoC4/Capsense_CSHL.c ****     {
 849              		.loc 1 663 0 discriminator 2
 850 003e FB69     		ldr	r3, [r7, #28]
 851 0040 0133     		adds	r3, r3, #1
 852 0042 FB61     		str	r3, [r7, #28]
 853              	.L39:
 663:Generated_Source\PSoC4/Capsense_CSHL.c ****     {
 854              		.loc 1 663 0 is_stmt 0 discriminator 1
 855 0044 FA69     		ldr	r2, [r7, #28]
 856 0046 3B69     		ldr	r3, [r7, #16]
 857 0048 9A42     		cmp	r2, r3
ARM GAS  C:\Users\ROUSSMA\AppData\Local\Temp\ccw7ZO0v.s 			page 28


 858 004a E9D3     		bcc	.L41
 670:Generated_Source\PSoC4/Capsense_CSHL.c ****         }
 671:Generated_Source\PSoC4/Capsense_CSHL.c ****     }
 672:Generated_Source\PSoC4/Capsense_CSHL.c **** }
 859              		.loc 1 672 0 is_stmt 1
 860 004c C046     		nop
 861 004e BD46     		mov	sp, r7
 862 0050 08B0     		add	sp, sp, #32
 863              		@ sp needed
 864 0052 80BD     		pop	{r7, pc}
 865              	.L43:
 866              		.align	2
 867              	.L42:
 868 0054 00000000 		.word	Capsense_sensorEnableMask
 869              		.cfi_endproc
 870              	.LFE43:
 871              		.size	Capsense_UpdateWidgetBaseline, .-Capsense_UpdateWidgetBaseline
 872              		.section	.text.Capsense_GetBaselineData,"ax",%progbits
 873              		.align	2
 874              		.global	Capsense_GetBaselineData
 875              		.code	16
 876              		.thumb_func
 877              		.type	Capsense_GetBaselineData, %function
 878              	Capsense_GetBaselineData:
 879              	.LFB44:
 673:Generated_Source\PSoC4/Capsense_CSHL.c **** 
 674:Generated_Source\PSoC4/Capsense_CSHL.c **** 
 675:Generated_Source\PSoC4/Capsense_CSHL.c **** /*******************************************************************************
 676:Generated_Source\PSoC4/Capsense_CSHL.c **** * Function Name: Capsense_GetBaselineData
 677:Generated_Source\PSoC4/Capsense_CSHL.c **** ********************************************************************************
 678:Generated_Source\PSoC4/Capsense_CSHL.c **** *
 679:Generated_Source\PSoC4/Capsense_CSHL.c **** * Summary:
 680:Generated_Source\PSoC4/Capsense_CSHL.c **** *  This function reads the sensor baseline from the component.
 681:Generated_Source\PSoC4/Capsense_CSHL.c **** *
 682:Generated_Source\PSoC4/Capsense_CSHL.c **** * Parameters:
 683:Generated_Source\PSoC4/Capsense_CSHL.c **** *  sensor:  Sensor number.
 684:Generated_Source\PSoC4/Capsense_CSHL.c **** *
 685:Generated_Source\PSoC4/Capsense_CSHL.c **** * Return:
 686:Generated_Source\PSoC4/Capsense_CSHL.c **** *  This API returns the baseline value of the sensor indicated by an argument.
 687:Generated_Source\PSoC4/Capsense_CSHL.c **** *
 688:Generated_Source\PSoC4/Capsense_CSHL.c **** * Global Variables:
 689:Generated_Source\PSoC4/Capsense_CSHL.c **** *  Capsense_sensorBaseline[] - the array with an initial values by scanning
 690:Generated_Source\PSoC4/Capsense_CSHL.c **** *
 691:Generated_Source\PSoC4/Capsense_CSHL.c **** * Side Effects:
 692:Generated_Source\PSoC4/Capsense_CSHL.c **** *  None
 693:Generated_Source\PSoC4/Capsense_CSHL.c **** *
 694:Generated_Source\PSoC4/Capsense_CSHL.c **** *******************************************************************************/
 695:Generated_Source\PSoC4/Capsense_CSHL.c **** uint16 Capsense_GetBaselineData(uint32 sensor)
 696:Generated_Source\PSoC4/Capsense_CSHL.c **** {
 880              		.loc 1 696 0
 881              		.cfi_startproc
 882              		@ args = 0, pretend = 0, frame = 8
 883              		@ frame_needed = 1, uses_anonymous_args = 0
 884 0000 80B5     		push	{r7, lr}
 885              		.cfi_def_cfa_offset 8
 886              		.cfi_offset 7, -8
 887              		.cfi_offset 14, -4
ARM GAS  C:\Users\ROUSSMA\AppData\Local\Temp\ccw7ZO0v.s 			page 29


 888 0002 82B0     		sub	sp, sp, #8
 889              		.cfi_def_cfa_offset 16
 890 0004 00AF     		add	r7, sp, #0
 891              		.cfi_def_cfa_register 7
 892 0006 7860     		str	r0, [r7, #4]
 697:Generated_Source\PSoC4/Capsense_CSHL.c ****     return (Capsense_sensorBaseline[sensor]);
 893              		.loc 1 697 0
 894 0008 034B     		ldr	r3, .L46
 895 000a 7A68     		ldr	r2, [r7, #4]
 896 000c 5200     		lsls	r2, r2, #1
 897 000e D35A     		ldrh	r3, [r2, r3]
 698:Generated_Source\PSoC4/Capsense_CSHL.c **** }
 898              		.loc 1 698 0
 899 0010 1800     		movs	r0, r3
 900 0012 BD46     		mov	sp, r7
 901 0014 02B0     		add	sp, sp, #8
 902              		@ sp needed
 903 0016 80BD     		pop	{r7, pc}
 904              	.L47:
 905              		.align	2
 906              	.L46:
 907 0018 00000000 		.word	Capsense_sensorBaseline
 908              		.cfi_endproc
 909              	.LFE44:
 910              		.size	Capsense_GetBaselineData, .-Capsense_GetBaselineData
 911              		.section	.text.Capsense_SetBaselineData,"ax",%progbits
 912              		.align	2
 913              		.global	Capsense_SetBaselineData
 914              		.code	16
 915              		.thumb_func
 916              		.type	Capsense_SetBaselineData, %function
 917              	Capsense_SetBaselineData:
 918              	.LFB45:
 699:Generated_Source\PSoC4/Capsense_CSHL.c **** 
 700:Generated_Source\PSoC4/Capsense_CSHL.c **** 
 701:Generated_Source\PSoC4/Capsense_CSHL.c **** /*******************************************************************************
 702:Generated_Source\PSoC4/Capsense_CSHL.c **** * Function Name: Capsense_SetBaselineData
 703:Generated_Source\PSoC4/Capsense_CSHL.c **** ********************************************************************************
 704:Generated_Source\PSoC4/Capsense_CSHL.c **** *
 705:Generated_Source\PSoC4/Capsense_CSHL.c **** * Summary:
 706:Generated_Source\PSoC4/Capsense_CSHL.c **** *  This API writes the data value passed as an argument to the sensor baseline array.
 707:Generated_Source\PSoC4/Capsense_CSHL.c **** *
 708:Generated_Source\PSoC4/Capsense_CSHL.c **** * Parameters:
 709:Generated_Source\PSoC4/Capsense_CSHL.c **** *  sensor:  Sensor number.
 710:Generated_Source\PSoC4/Capsense_CSHL.c **** *  data:    Sensor baseline.
 711:Generated_Source\PSoC4/Capsense_CSHL.c **** *
 712:Generated_Source\PSoC4/Capsense_CSHL.c **** * Return:
 713:Generated_Source\PSoC4/Capsense_CSHL.c **** *  None.
 714:Generated_Source\PSoC4/Capsense_CSHL.c **** *
 715:Generated_Source\PSoC4/Capsense_CSHL.c **** * Global Variables:
 716:Generated_Source\PSoC4/Capsense_CSHL.c **** *  Capsense_sensorBaseline[] - the array with initial values by scanning
 717:Generated_Source\PSoC4/Capsense_CSHL.c **** *
 718:Generated_Source\PSoC4/Capsense_CSHL.c **** * Side Effects:
 719:Generated_Source\PSoC4/Capsense_CSHL.c **** *  None
 720:Generated_Source\PSoC4/Capsense_CSHL.c **** *
 721:Generated_Source\PSoC4/Capsense_CSHL.c **** *******************************************************************************/
 722:Generated_Source\PSoC4/Capsense_CSHL.c **** void Capsense_SetBaselineData(uint32 sensor, uint16 data)
ARM GAS  C:\Users\ROUSSMA\AppData\Local\Temp\ccw7ZO0v.s 			page 30


 723:Generated_Source\PSoC4/Capsense_CSHL.c **** {
 919              		.loc 1 723 0
 920              		.cfi_startproc
 921              		@ args = 0, pretend = 0, frame = 8
 922              		@ frame_needed = 1, uses_anonymous_args = 0
 923 0000 80B5     		push	{r7, lr}
 924              		.cfi_def_cfa_offset 8
 925              		.cfi_offset 7, -8
 926              		.cfi_offset 14, -4
 927 0002 82B0     		sub	sp, sp, #8
 928              		.cfi_def_cfa_offset 16
 929 0004 00AF     		add	r7, sp, #0
 930              		.cfi_def_cfa_register 7
 931 0006 7860     		str	r0, [r7, #4]
 932 0008 0A00     		movs	r2, r1
 933 000a BB1C     		adds	r3, r7, #2
 934 000c 1A80     		strh	r2, [r3]
 724:Generated_Source\PSoC4/Capsense_CSHL.c ****     Capsense_sensorBaseline[sensor] = data;
 935              		.loc 1 724 0
 936 000e 054B     		ldr	r3, .L49
 937 0010 7A68     		ldr	r2, [r7, #4]
 938 0012 5200     		lsls	r2, r2, #1
 939 0014 B91C     		adds	r1, r7, #2
 940 0016 0988     		ldrh	r1, [r1]
 941 0018 D152     		strh	r1, [r2, r3]
 725:Generated_Source\PSoC4/Capsense_CSHL.c **** }
 942              		.loc 1 725 0
 943 001a C046     		nop
 944 001c BD46     		mov	sp, r7
 945 001e 02B0     		add	sp, sp, #8
 946              		@ sp needed
 947 0020 80BD     		pop	{r7, pc}
 948              	.L50:
 949 0022 C046     		.align	2
 950              	.L49:
 951 0024 00000000 		.word	Capsense_sensorBaseline
 952              		.cfi_endproc
 953              	.LFE45:
 954              		.size	Capsense_SetBaselineData, .-Capsense_SetBaselineData
 955              		.section	.text.Capsense_GetDiffCountData,"ax",%progbits
 956              		.align	2
 957              		.global	Capsense_GetDiffCountData
 958              		.code	16
 959              		.thumb_func
 960              		.type	Capsense_GetDiffCountData, %function
 961              	Capsense_GetDiffCountData:
 962              	.LFB46:
 726:Generated_Source\PSoC4/Capsense_CSHL.c **** 
 727:Generated_Source\PSoC4/Capsense_CSHL.c **** 
 728:Generated_Source\PSoC4/Capsense_CSHL.c **** /*******************************************************************************
 729:Generated_Source\PSoC4/Capsense_CSHL.c **** * Function Name: Capsense_GetDiffCountData
 730:Generated_Source\PSoC4/Capsense_CSHL.c **** ********************************************************************************
 731:Generated_Source\PSoC4/Capsense_CSHL.c **** *
 732:Generated_Source\PSoC4/Capsense_CSHL.c **** * Summary:
 733:Generated_Source\PSoC4/Capsense_CSHL.c **** *  This function returns the Sensor Signal from the component.
 734:Generated_Source\PSoC4/Capsense_CSHL.c **** *
 735:Generated_Source\PSoC4/Capsense_CSHL.c **** * Parameters:
ARM GAS  C:\Users\ROUSSMA\AppData\Local\Temp\ccw7ZO0v.s 			page 31


 736:Generated_Source\PSoC4/Capsense_CSHL.c **** *  sensor:  Sensor number.
 737:Generated_Source\PSoC4/Capsense_CSHL.c **** *
 738:Generated_Source\PSoC4/Capsense_CSHL.c **** * Return:
 739:Generated_Source\PSoC4/Capsense_CSHL.c **** *  This API returns the difference count value of the sensor indicated by the
 740:Generated_Source\PSoC4/Capsense_CSHL.c **** *  argument.
 741:Generated_Source\PSoC4/Capsense_CSHL.c **** *
 742:Generated_Source\PSoC4/Capsense_CSHL.c **** * Global Variables:
 743:Generated_Source\PSoC4/Capsense_CSHL.c **** *  Capsense_sensorSignal[] - the array with difference counts for sensors
 744:Generated_Source\PSoC4/Capsense_CSHL.c **** *
 745:Generated_Source\PSoC4/Capsense_CSHL.c **** * Side Effects:
 746:Generated_Source\PSoC4/Capsense_CSHL.c **** *  None
 747:Generated_Source\PSoC4/Capsense_CSHL.c **** *
 748:Generated_Source\PSoC4/Capsense_CSHL.c **** *******************************************************************************/
 749:Generated_Source\PSoC4/Capsense_CSHL.c **** uint8 Capsense_GetDiffCountData(uint32 sensor)
 750:Generated_Source\PSoC4/Capsense_CSHL.c **** {
 963              		.loc 1 750 0
 964              		.cfi_startproc
 965              		@ args = 0, pretend = 0, frame = 8
 966              		@ frame_needed = 1, uses_anonymous_args = 0
 967 0000 80B5     		push	{r7, lr}
 968              		.cfi_def_cfa_offset 8
 969              		.cfi_offset 7, -8
 970              		.cfi_offset 14, -4
 971 0002 82B0     		sub	sp, sp, #8
 972              		.cfi_def_cfa_offset 16
 973 0004 00AF     		add	r7, sp, #0
 974              		.cfi_def_cfa_register 7
 975 0006 7860     		str	r0, [r7, #4]
 751:Generated_Source\PSoC4/Capsense_CSHL.c ****     return (Capsense_sensorSignal[sensor]);
 976              		.loc 1 751 0
 977 0008 034A     		ldr	r2, .L53
 978 000a 7B68     		ldr	r3, [r7, #4]
 979 000c D318     		adds	r3, r2, r3
 980 000e 1B78     		ldrb	r3, [r3]
 752:Generated_Source\PSoC4/Capsense_CSHL.c **** }
 981              		.loc 1 752 0
 982 0010 1800     		movs	r0, r3
 983 0012 BD46     		mov	sp, r7
 984 0014 02B0     		add	sp, sp, #8
 985              		@ sp needed
 986 0016 80BD     		pop	{r7, pc}
 987              	.L54:
 988              		.align	2
 989              	.L53:
 990 0018 00000000 		.word	Capsense_sensorSignal
 991              		.cfi_endproc
 992              	.LFE46:
 993              		.size	Capsense_GetDiffCountData, .-Capsense_GetDiffCountData
 994              		.section	.text.Capsense_SetDiffCountData,"ax",%progbits
 995              		.align	2
 996              		.global	Capsense_SetDiffCountData
 997              		.code	16
 998              		.thumb_func
 999              		.type	Capsense_SetDiffCountData, %function
 1000              	Capsense_SetDiffCountData:
 1001              	.LFB47:
 753:Generated_Source\PSoC4/Capsense_CSHL.c **** 
ARM GAS  C:\Users\ROUSSMA\AppData\Local\Temp\ccw7ZO0v.s 			page 32


 754:Generated_Source\PSoC4/Capsense_CSHL.c **** 
 755:Generated_Source\PSoC4/Capsense_CSHL.c **** /*******************************************************************************
 756:Generated_Source\PSoC4/Capsense_CSHL.c **** * Function Name: Capsense_SetDiffCountData
 757:Generated_Source\PSoC4/Capsense_CSHL.c **** ********************************************************************************
 758:Generated_Source\PSoC4/Capsense_CSHL.c **** *
 759:Generated_Source\PSoC4/Capsense_CSHL.c **** * Summary:
 760:Generated_Source\PSoC4/Capsense_CSHL.c **** *  This API writes the data value passed as an argument to the sensor signal array.
 761:Generated_Source\PSoC4/Capsense_CSHL.c **** *
 762:Generated_Source\PSoC4/Capsense_CSHL.c **** * Parameters:
 763:Generated_Source\PSoC4/Capsense_CSHL.c **** *  sensor:  Sensor number.
 764:Generated_Source\PSoC4/Capsense_CSHL.c **** *  value:   Sensor signal.
 765:Generated_Source\PSoC4/Capsense_CSHL.c **** *
 766:Generated_Source\PSoC4/Capsense_CSHL.c **** * Return:
 767:Generated_Source\PSoC4/Capsense_CSHL.c **** *  None.
 768:Generated_Source\PSoC4/Capsense_CSHL.c **** *
 769:Generated_Source\PSoC4/Capsense_CSHL.c **** * Global Variables:
 770:Generated_Source\PSoC4/Capsense_CSHL.c **** *  Capsense_sensorSignal[] - the array with difference counts for sensors
 771:Generated_Source\PSoC4/Capsense_CSHL.c **** *
 772:Generated_Source\PSoC4/Capsense_CSHL.c **** * Side Effects:
 773:Generated_Source\PSoC4/Capsense_CSHL.c **** *  None
 774:Generated_Source\PSoC4/Capsense_CSHL.c **** *
 775:Generated_Source\PSoC4/Capsense_CSHL.c **** *******************************************************************************/
 776:Generated_Source\PSoC4/Capsense_CSHL.c **** void Capsense_SetDiffCountData(uint32 sensor, uint8 value)
 777:Generated_Source\PSoC4/Capsense_CSHL.c **** {
 1002              		.loc 1 777 0
 1003              		.cfi_startproc
 1004              		@ args = 0, pretend = 0, frame = 8
 1005              		@ frame_needed = 1, uses_anonymous_args = 0
 1006 0000 80B5     		push	{r7, lr}
 1007              		.cfi_def_cfa_offset 8
 1008              		.cfi_offset 7, -8
 1009              		.cfi_offset 14, -4
 1010 0002 82B0     		sub	sp, sp, #8
 1011              		.cfi_def_cfa_offset 16
 1012 0004 00AF     		add	r7, sp, #0
 1013              		.cfi_def_cfa_register 7
 1014 0006 7860     		str	r0, [r7, #4]
 1015 0008 0A00     		movs	r2, r1
 1016 000a FB1C     		adds	r3, r7, #3
 1017 000c 1A70     		strb	r2, [r3]
 778:Generated_Source\PSoC4/Capsense_CSHL.c ****     Capsense_sensorSignal[sensor] = value;
 1018              		.loc 1 778 0
 1019 000e 054A     		ldr	r2, .L56
 1020 0010 7B68     		ldr	r3, [r7, #4]
 1021 0012 D318     		adds	r3, r2, r3
 1022 0014 FA1C     		adds	r2, r7, #3
 1023 0016 1278     		ldrb	r2, [r2]
 1024 0018 1A70     		strb	r2, [r3]
 779:Generated_Source\PSoC4/Capsense_CSHL.c **** }
 1025              		.loc 1 779 0
 1026 001a C046     		nop
 1027 001c BD46     		mov	sp, r7
 1028 001e 02B0     		add	sp, sp, #8
 1029              		@ sp needed
 1030 0020 80BD     		pop	{r7, pc}
 1031              	.L57:
 1032 0022 C046     		.align	2
ARM GAS  C:\Users\ROUSSMA\AppData\Local\Temp\ccw7ZO0v.s 			page 33


 1033              	.L56:
 1034 0024 00000000 		.word	Capsense_sensorSignal
 1035              		.cfi_endproc
 1036              	.LFE47:
 1037              		.size	Capsense_SetDiffCountData, .-Capsense_SetDiffCountData
 1038              		.section	.text.Capsense_GetFingerThreshold,"ax",%progbits
 1039              		.align	2
 1040              		.global	Capsense_GetFingerThreshold
 1041              		.code	16
 1042              		.thumb_func
 1043              		.type	Capsense_GetFingerThreshold, %function
 1044              	Capsense_GetFingerThreshold:
 1045              	.LFB48:
 780:Generated_Source\PSoC4/Capsense_CSHL.c **** 
 781:Generated_Source\PSoC4/Capsense_CSHL.c **** 
 782:Generated_Source\PSoC4/Capsense_CSHL.c **** /*******************************************************************************
 783:Generated_Source\PSoC4/Capsense_CSHL.c **** * Function Name: Capsense_GetFingerThreshold
 784:Generated_Source\PSoC4/Capsense_CSHL.c **** ********************************************************************************
 785:Generated_Source\PSoC4/Capsense_CSHL.c **** *
 786:Generated_Source\PSoC4/Capsense_CSHL.c **** * Summary:
 787:Generated_Source\PSoC4/Capsense_CSHL.c **** *  This function reads the finger threshold from the component.
 788:Generated_Source\PSoC4/Capsense_CSHL.c **** *
 789:Generated_Source\PSoC4/Capsense_CSHL.c **** * Parameters:
 790:Generated_Source\PSoC4/Capsense_CSHL.c **** *  widget:  widget number.
 791:Generated_Source\PSoC4/Capsense_CSHL.c **** *
 792:Generated_Source\PSoC4/Capsense_CSHL.c **** * Return:
 793:Generated_Source\PSoC4/Capsense_CSHL.c **** *  This API returns the finger threshold of the widget indicated by the argument.
 794:Generated_Source\PSoC4/Capsense_CSHL.c **** *
 795:Generated_Source\PSoC4/Capsense_CSHL.c **** * Global Variables:
 796:Generated_Source\PSoC4/Capsense_CSHL.c **** *  Capsense_fingerThreshold[] - This array contains the level of signal
 797:Generated_Source\PSoC4/Capsense_CSHL.c **** *  for each widget that is determined if a finger is present on the widget.
 798:Generated_Source\PSoC4/Capsense_CSHL.c **** *
 799:Generated_Source\PSoC4/Capsense_CSHL.c **** * Side Effects:
 800:Generated_Source\PSoC4/Capsense_CSHL.c **** *  None
 801:Generated_Source\PSoC4/Capsense_CSHL.c **** *
 802:Generated_Source\PSoC4/Capsense_CSHL.c **** *******************************************************************************/
 803:Generated_Source\PSoC4/Capsense_CSHL.c **** uint8 Capsense_GetFingerThreshold(uint32 widget)
 804:Generated_Source\PSoC4/Capsense_CSHL.c **** {
 1046              		.loc 1 804 0
 1047              		.cfi_startproc
 1048              		@ args = 0, pretend = 0, frame = 8
 1049              		@ frame_needed = 1, uses_anonymous_args = 0
 1050 0000 80B5     		push	{r7, lr}
 1051              		.cfi_def_cfa_offset 8
 1052              		.cfi_offset 7, -8
 1053              		.cfi_offset 14, -4
 1054 0002 82B0     		sub	sp, sp, #8
 1055              		.cfi_def_cfa_offset 16
 1056 0004 00AF     		add	r7, sp, #0
 1057              		.cfi_def_cfa_register 7
 1058 0006 7860     		str	r0, [r7, #4]
 805:Generated_Source\PSoC4/Capsense_CSHL.c ****     return(Capsense_fingerThreshold[widget]);
 1059              		.loc 1 805 0
 1060 0008 034A     		ldr	r2, .L60
 1061 000a 7B68     		ldr	r3, [r7, #4]
 1062 000c D318     		adds	r3, r2, r3
 1063 000e 1B78     		ldrb	r3, [r3]
ARM GAS  C:\Users\ROUSSMA\AppData\Local\Temp\ccw7ZO0v.s 			page 34


 806:Generated_Source\PSoC4/Capsense_CSHL.c **** }
 1064              		.loc 1 806 0
 1065 0010 1800     		movs	r0, r3
 1066 0012 BD46     		mov	sp, r7
 1067 0014 02B0     		add	sp, sp, #8
 1068              		@ sp needed
 1069 0016 80BD     		pop	{r7, pc}
 1070              	.L61:
 1071              		.align	2
 1072              	.L60:
 1073 0018 00000000 		.word	Capsense_fingerThreshold
 1074              		.cfi_endproc
 1075              	.LFE48:
 1076              		.size	Capsense_GetFingerThreshold, .-Capsense_GetFingerThreshold
 1077              		.section	.text.Capsense_GetNoiseThreshold,"ax",%progbits
 1078              		.align	2
 1079              		.global	Capsense_GetNoiseThreshold
 1080              		.code	16
 1081              		.thumb_func
 1082              		.type	Capsense_GetNoiseThreshold, %function
 1083              	Capsense_GetNoiseThreshold:
 1084              	.LFB49:
 807:Generated_Source\PSoC4/Capsense_CSHL.c **** 
 808:Generated_Source\PSoC4/Capsense_CSHL.c **** 
 809:Generated_Source\PSoC4/Capsense_CSHL.c **** /*******************************************************************************
 810:Generated_Source\PSoC4/Capsense_CSHL.c **** * Function Name: Capsense_GetNoiseThreshold
 811:Generated_Source\PSoC4/Capsense_CSHL.c **** ********************************************************************************
 812:Generated_Source\PSoC4/Capsense_CSHL.c **** *
 813:Generated_Source\PSoC4/Capsense_CSHL.c **** * Summary:
 814:Generated_Source\PSoC4/Capsense_CSHL.c **** *  This function reads the noise threshold from the component.
 815:Generated_Source\PSoC4/Capsense_CSHL.c **** *
 816:Generated_Source\PSoC4/Capsense_CSHL.c **** * Parameters:
 817:Generated_Source\PSoC4/Capsense_CSHL.c **** *  widget:  widget number.
 818:Generated_Source\PSoC4/Capsense_CSHL.c **** *
 819:Generated_Source\PSoC4/Capsense_CSHL.c **** * Return:
 820:Generated_Source\PSoC4/Capsense_CSHL.c **** *  This API returns the noise threshold of the widget indicated by the argument.
 821:Generated_Source\PSoC4/Capsense_CSHL.c **** *
 822:Generated_Source\PSoC4/Capsense_CSHL.c **** * Global Variables:
 823:Generated_Source\PSoC4/Capsense_CSHL.c **** *  Capsense_noiseThreshold[] - This array contains the level of signal
 824:Generated_Source\PSoC4/Capsense_CSHL.c **** *  for each widget that determines the level of noise in the capacitive scan.
 825:Generated_Source\PSoC4/Capsense_CSHL.c **** *
 826:Generated_Source\PSoC4/Capsense_CSHL.c **** * Side Effects:
 827:Generated_Source\PSoC4/Capsense_CSHL.c **** *  None
 828:Generated_Source\PSoC4/Capsense_CSHL.c **** *
 829:Generated_Source\PSoC4/Capsense_CSHL.c **** *******************************************************************************/
 830:Generated_Source\PSoC4/Capsense_CSHL.c **** uint8 Capsense_GetNoiseThreshold(uint32 widget)
 831:Generated_Source\PSoC4/Capsense_CSHL.c **** {
 1085              		.loc 1 831 0
 1086              		.cfi_startproc
 1087              		@ args = 0, pretend = 0, frame = 8
 1088              		@ frame_needed = 1, uses_anonymous_args = 0
 1089 0000 80B5     		push	{r7, lr}
 1090              		.cfi_def_cfa_offset 8
 1091              		.cfi_offset 7, -8
 1092              		.cfi_offset 14, -4
 1093 0002 82B0     		sub	sp, sp, #8
 1094              		.cfi_def_cfa_offset 16
ARM GAS  C:\Users\ROUSSMA\AppData\Local\Temp\ccw7ZO0v.s 			page 35


 1095 0004 00AF     		add	r7, sp, #0
 1096              		.cfi_def_cfa_register 7
 1097 0006 7860     		str	r0, [r7, #4]
 832:Generated_Source\PSoC4/Capsense_CSHL.c ****     return (Capsense_noiseThreshold[widget]);
 1098              		.loc 1 832 0
 1099 0008 034A     		ldr	r2, .L64
 1100 000a 7B68     		ldr	r3, [r7, #4]
 1101 000c D318     		adds	r3, r2, r3
 1102 000e 1B78     		ldrb	r3, [r3]
 833:Generated_Source\PSoC4/Capsense_CSHL.c **** }
 1103              		.loc 1 833 0
 1104 0010 1800     		movs	r0, r3
 1105 0012 BD46     		mov	sp, r7
 1106 0014 02B0     		add	sp, sp, #8
 1107              		@ sp needed
 1108 0016 80BD     		pop	{r7, pc}
 1109              	.L65:
 1110              		.align	2
 1111              	.L64:
 1112 0018 00000000 		.word	Capsense_noiseThreshold
 1113              		.cfi_endproc
 1114              	.LFE49:
 1115              		.size	Capsense_GetNoiseThreshold, .-Capsense_GetNoiseThreshold
 1116              		.section	.text.Capsense_GetFingerHysteresis,"ax",%progbits
 1117              		.align	2
 1118              		.global	Capsense_GetFingerHysteresis
 1119              		.code	16
 1120              		.thumb_func
 1121              		.type	Capsense_GetFingerHysteresis, %function
 1122              	Capsense_GetFingerHysteresis:
 1123              	.LFB50:
 834:Generated_Source\PSoC4/Capsense_CSHL.c **** 
 835:Generated_Source\PSoC4/Capsense_CSHL.c **** 
 836:Generated_Source\PSoC4/Capsense_CSHL.c **** /*******************************************************************************
 837:Generated_Source\PSoC4/Capsense_CSHL.c **** * Function Name: Capsense_GetFingerHysteresis
 838:Generated_Source\PSoC4/Capsense_CSHL.c **** ********************************************************************************
 839:Generated_Source\PSoC4/Capsense_CSHL.c **** *
 840:Generated_Source\PSoC4/Capsense_CSHL.c **** * Summary:
 841:Generated_Source\PSoC4/Capsense_CSHL.c **** *  This function reads the Hysteresis value from the component.
 842:Generated_Source\PSoC4/Capsense_CSHL.c **** *
 843:Generated_Source\PSoC4/Capsense_CSHL.c **** * Parameters:
 844:Generated_Source\PSoC4/Capsense_CSHL.c **** *  widget:  widget number.
 845:Generated_Source\PSoC4/Capsense_CSHL.c **** *
 846:Generated_Source\PSoC4/Capsense_CSHL.c **** * Return:
 847:Generated_Source\PSoC4/Capsense_CSHL.c **** *  This API returns the Hysteresis of the widget indicated by the argument.
 848:Generated_Source\PSoC4/Capsense_CSHL.c **** *
 849:Generated_Source\PSoC4/Capsense_CSHL.c **** * Global Variables:
 850:Generated_Source\PSoC4/Capsense_CSHL.c **** *  Capsense_hysteresis[] - This array contains the hysteresis value
 851:Generated_Source\PSoC4/Capsense_CSHL.c **** *   for each widget.
 852:Generated_Source\PSoC4/Capsense_CSHL.c **** *  Capsense_widgetNumberSld - structure with dynamic sliders' parameters.
 853:Generated_Source\PSoC4/Capsense_CSHL.c **** *
 854:Generated_Source\PSoC4/Capsense_CSHL.c **** * Side Effects:
 855:Generated_Source\PSoC4/Capsense_CSHL.c **** *  None
 856:Generated_Source\PSoC4/Capsense_CSHL.c **** *
 857:Generated_Source\PSoC4/Capsense_CSHL.c **** *******************************************************************************/
 858:Generated_Source\PSoC4/Capsense_CSHL.c **** uint8 Capsense_GetFingerHysteresis(uint32 widget)
 859:Generated_Source\PSoC4/Capsense_CSHL.c **** {
ARM GAS  C:\Users\ROUSSMA\AppData\Local\Temp\ccw7ZO0v.s 			page 36


 1124              		.loc 1 859 0
 1125              		.cfi_startproc
 1126              		@ args = 0, pretend = 0, frame = 8
 1127              		@ frame_needed = 1, uses_anonymous_args = 0
 1128 0000 80B5     		push	{r7, lr}
 1129              		.cfi_def_cfa_offset 8
 1130              		.cfi_offset 7, -8
 1131              		.cfi_offset 14, -4
 1132 0002 82B0     		sub	sp, sp, #8
 1133              		.cfi_def_cfa_offset 16
 1134 0004 00AF     		add	r7, sp, #0
 1135              		.cfi_def_cfa_register 7
 1136 0006 7860     		str	r0, [r7, #4]
 860:Generated_Source\PSoC4/Capsense_CSHL.c ****     return(Capsense_hysteresis[widget]);
 1137              		.loc 1 860 0
 1138 0008 034A     		ldr	r2, .L68
 1139 000a 7B68     		ldr	r3, [r7, #4]
 1140 000c D318     		adds	r3, r2, r3
 1141 000e 1B78     		ldrb	r3, [r3]
 861:Generated_Source\PSoC4/Capsense_CSHL.c **** }
 1142              		.loc 1 861 0
 1143 0010 1800     		movs	r0, r3
 1144 0012 BD46     		mov	sp, r7
 1145 0014 02B0     		add	sp, sp, #8
 1146              		@ sp needed
 1147 0016 80BD     		pop	{r7, pc}
 1148              	.L69:
 1149              		.align	2
 1150              	.L68:
 1151 0018 00000000 		.word	Capsense_hysteresis
 1152              		.cfi_endproc
 1153              	.LFE50:
 1154              		.size	Capsense_GetFingerHysteresis, .-Capsense_GetFingerHysteresis
 1155              		.section	.text.Capsense_GetNegativeNoiseThreshold,"ax",%progbits
 1156              		.align	2
 1157              		.global	Capsense_GetNegativeNoiseThreshold
 1158              		.code	16
 1159              		.thumb_func
 1160              		.type	Capsense_GetNegativeNoiseThreshold, %function
 1161              	Capsense_GetNegativeNoiseThreshold:
 1162              	.LFB51:
 862:Generated_Source\PSoC4/Capsense_CSHL.c **** 
 863:Generated_Source\PSoC4/Capsense_CSHL.c **** 
 864:Generated_Source\PSoC4/Capsense_CSHL.c **** /*******************************************************************************
 865:Generated_Source\PSoC4/Capsense_CSHL.c **** * Function Name: Capsense_GetNegativeNoiseThreshold
 866:Generated_Source\PSoC4/Capsense_CSHL.c **** ********************************************************************************
 867:Generated_Source\PSoC4/Capsense_CSHL.c **** *
 868:Generated_Source\PSoC4/Capsense_CSHL.c **** * Summary:
 869:Generated_Source\PSoC4/Capsense_CSHL.c **** *  This function reads the negative noise threshold from the component.
 870:Generated_Source\PSoC4/Capsense_CSHL.c **** *
 871:Generated_Source\PSoC4/Capsense_CSHL.c **** * Parameters:
 872:Generated_Source\PSoC4/Capsense_CSHL.c **** *  None.
 873:Generated_Source\PSoC4/Capsense_CSHL.c **** *
 874:Generated_Source\PSoC4/Capsense_CSHL.c **** * Return Value:
 875:Generated_Source\PSoC4/Capsense_CSHL.c **** *  This API returns the negative noise threshold
 876:Generated_Source\PSoC4/Capsense_CSHL.c **** *
 877:Generated_Source\PSoC4/Capsense_CSHL.c **** * Global Variables:
ARM GAS  C:\Users\ROUSSMA\AppData\Local\Temp\ccw7ZO0v.s 			page 37


 878:Generated_Source\PSoC4/Capsense_CSHL.c **** *  Capsense_negativeNoiseThreshold - This variable specifies the negative
 879:Generated_Source\PSoC4/Capsense_CSHL.c **** *   difference between the raw count and baseline levels for Baseline resetting
 880:Generated_Source\PSoC4/Capsense_CSHL.c **** *   to the raw count level.
 881:Generated_Source\PSoC4/Capsense_CSHL.c **** *
 882:Generated_Source\PSoC4/Capsense_CSHL.c **** * Side Effects:
 883:Generated_Source\PSoC4/Capsense_CSHL.c **** *  None
 884:Generated_Source\PSoC4/Capsense_CSHL.c **** *
 885:Generated_Source\PSoC4/Capsense_CSHL.c **** *******************************************************************************/
 886:Generated_Source\PSoC4/Capsense_CSHL.c **** uint8 Capsense_GetNegativeNoiseThreshold(uint32 widget)
 887:Generated_Source\PSoC4/Capsense_CSHL.c **** {
 1163              		.loc 1 887 0
 1164              		.cfi_startproc
 1165              		@ args = 0, pretend = 0, frame = 8
 1166              		@ frame_needed = 1, uses_anonymous_args = 0
 1167 0000 80B5     		push	{r7, lr}
 1168              		.cfi_def_cfa_offset 8
 1169              		.cfi_offset 7, -8
 1170              		.cfi_offset 14, -4
 1171 0002 82B0     		sub	sp, sp, #8
 1172              		.cfi_def_cfa_offset 16
 1173 0004 00AF     		add	r7, sp, #0
 1174              		.cfi_def_cfa_register 7
 1175 0006 7860     		str	r0, [r7, #4]
 888:Generated_Source\PSoC4/Capsense_CSHL.c **** #if (Capsense_TUNING_METHOD != Capsense__TUNING_NONE)
 889:Generated_Source\PSoC4/Capsense_CSHL.c ****     return(Capsense_negativeNoiseThreshold[widget]);
 1176              		.loc 1 889 0
 1177 0008 034A     		ldr	r2, .L72
 1178 000a 7B68     		ldr	r3, [r7, #4]
 1179 000c D318     		adds	r3, r2, r3
 1180 000e 1B78     		ldrb	r3, [r3]
 890:Generated_Source\PSoC4/Capsense_CSHL.c **** #else
 891:Generated_Source\PSoC4/Capsense_CSHL.c ****     return(Capsense_NEGATIVE_NOISE_THRESHOLD);
 892:Generated_Source\PSoC4/Capsense_CSHL.c **** #endif /* (Capsense_TUNING_METHOD != Capsense__TUNING_NONE) */
 893:Generated_Source\PSoC4/Capsense_CSHL.c **** }
 1181              		.loc 1 893 0
 1182 0010 1800     		movs	r0, r3
 1183 0012 BD46     		mov	sp, r7
 1184 0014 02B0     		add	sp, sp, #8
 1185              		@ sp needed
 1186 0016 80BD     		pop	{r7, pc}
 1187              	.L73:
 1188              		.align	2
 1189              	.L72:
 1190 0018 00000000 		.word	Capsense_negativeNoiseThreshold
 1191              		.cfi_endproc
 1192              	.LFE51:
 1193              		.size	Capsense_GetNegativeNoiseThreshold, .-Capsense_GetNegativeNoiseThreshold
 1194              		.section	.text.Capsense_SetFingerThreshold,"ax",%progbits
 1195              		.align	2
 1196              		.global	Capsense_SetFingerThreshold
 1197              		.code	16
 1198              		.thumb_func
 1199              		.type	Capsense_SetFingerThreshold, %function
 1200              	Capsense_SetFingerThreshold:
 1201              	.LFB52:
 894:Generated_Source\PSoC4/Capsense_CSHL.c **** 
 895:Generated_Source\PSoC4/Capsense_CSHL.c **** 
ARM GAS  C:\Users\ROUSSMA\AppData\Local\Temp\ccw7ZO0v.s 			page 38


 896:Generated_Source\PSoC4/Capsense_CSHL.c **** #if(Capsense_TUNING_METHOD != Capsense__TUNING_NONE)
 897:Generated_Source\PSoC4/Capsense_CSHL.c ****     /*******************************************************************************
 898:Generated_Source\PSoC4/Capsense_CSHL.c ****     * Function Name: Capsense_SetFingerThreshold
 899:Generated_Source\PSoC4/Capsense_CSHL.c ****     ********************************************************************************
 900:Generated_Source\PSoC4/Capsense_CSHL.c ****     *
 901:Generated_Source\PSoC4/Capsense_CSHL.c ****     * Summary:
 902:Generated_Source\PSoC4/Capsense_CSHL.c ****     *  This API sets the finger threshold value for a widget.
 903:Generated_Source\PSoC4/Capsense_CSHL.c ****     *
 904:Generated_Source\PSoC4/Capsense_CSHL.c ****     * Parameters:
 905:Generated_Source\PSoC4/Capsense_CSHL.c ****     *  sensorNumber:  widget index.
 906:Generated_Source\PSoC4/Capsense_CSHL.c ****     *  value:  Finger threshold value for the widget.
 907:Generated_Source\PSoC4/Capsense_CSHL.c ****     *
 908:Generated_Source\PSoC4/Capsense_CSHL.c ****     * Return Value:
 909:Generated_Source\PSoC4/Capsense_CSHL.c ****     *  None
 910:Generated_Source\PSoC4/Capsense_CSHL.c ****     *
 911:Generated_Source\PSoC4/Capsense_CSHL.c ****     * Global Variables:
 912:Generated_Source\PSoC4/Capsense_CSHL.c ****     *  Capsense_fingerThreshold[] - This array contains the level of signal
 913:Generated_Source\PSoC4/Capsense_CSHL.c ****     *   for each widget that determines if a finger is present on the widget.
 914:Generated_Source\PSoC4/Capsense_CSHL.c ****     *
 915:Generated_Source\PSoC4/Capsense_CSHL.c ****     * Side Effects:
 916:Generated_Source\PSoC4/Capsense_CSHL.c ****     *  None
 917:Generated_Source\PSoC4/Capsense_CSHL.c ****     *
 918:Generated_Source\PSoC4/Capsense_CSHL.c ****     *******************************************************************************/
 919:Generated_Source\PSoC4/Capsense_CSHL.c ****     void Capsense_SetFingerThreshold(uint32 widget, uint8 value)
 920:Generated_Source\PSoC4/Capsense_CSHL.c ****     {
 1202              		.loc 1 920 0
 1203              		.cfi_startproc
 1204              		@ args = 0, pretend = 0, frame = 8
 1205              		@ frame_needed = 1, uses_anonymous_args = 0
 1206 0000 80B5     		push	{r7, lr}
 1207              		.cfi_def_cfa_offset 8
 1208              		.cfi_offset 7, -8
 1209              		.cfi_offset 14, -4
 1210 0002 82B0     		sub	sp, sp, #8
 1211              		.cfi_def_cfa_offset 16
 1212 0004 00AF     		add	r7, sp, #0
 1213              		.cfi_def_cfa_register 7
 1214 0006 7860     		str	r0, [r7, #4]
 1215 0008 0A00     		movs	r2, r1
 1216 000a FB1C     		adds	r3, r7, #3
 1217 000c 1A70     		strb	r2, [r3]
 921:Generated_Source\PSoC4/Capsense_CSHL.c ****         Capsense_fingerThreshold[widget] = value;
 1218              		.loc 1 921 0
 1219 000e 054A     		ldr	r2, .L75
 1220 0010 7B68     		ldr	r3, [r7, #4]
 1221 0012 D318     		adds	r3, r2, r3
 1222 0014 FA1C     		adds	r2, r7, #3
 1223 0016 1278     		ldrb	r2, [r2]
 1224 0018 1A70     		strb	r2, [r3]
 922:Generated_Source\PSoC4/Capsense_CSHL.c ****     }
 1225              		.loc 1 922 0
 1226 001a C046     		nop
 1227 001c BD46     		mov	sp, r7
 1228 001e 02B0     		add	sp, sp, #8
 1229              		@ sp needed
 1230 0020 80BD     		pop	{r7, pc}
 1231              	.L76:
ARM GAS  C:\Users\ROUSSMA\AppData\Local\Temp\ccw7ZO0v.s 			page 39


 1232 0022 C046     		.align	2
 1233              	.L75:
 1234 0024 00000000 		.word	Capsense_fingerThreshold
 1235              		.cfi_endproc
 1236              	.LFE52:
 1237              		.size	Capsense_SetFingerThreshold, .-Capsense_SetFingerThreshold
 1238              		.section	.text.Capsense_SetNoiseThreshold,"ax",%progbits
 1239              		.align	2
 1240              		.global	Capsense_SetNoiseThreshold
 1241              		.code	16
 1242              		.thumb_func
 1243              		.type	Capsense_SetNoiseThreshold, %function
 1244              	Capsense_SetNoiseThreshold:
 1245              	.LFB53:
 923:Generated_Source\PSoC4/Capsense_CSHL.c **** 
 924:Generated_Source\PSoC4/Capsense_CSHL.c **** 
 925:Generated_Source\PSoC4/Capsense_CSHL.c ****     /*******************************************************************************
 926:Generated_Source\PSoC4/Capsense_CSHL.c ****     * Function Name: Capsense_SetNoiseThreshold
 927:Generated_Source\PSoC4/Capsense_CSHL.c ****     ********************************************************************************
 928:Generated_Source\PSoC4/Capsense_CSHL.c ****     *
 929:Generated_Source\PSoC4/Capsense_CSHL.c ****     * Summary:
 930:Generated_Source\PSoC4/Capsense_CSHL.c ****     *  This API sets the Noise Threshold value for each widget.
 931:Generated_Source\PSoC4/Capsense_CSHL.c ****     *
 932:Generated_Source\PSoC4/Capsense_CSHL.c ****     * Parameters:
 933:Generated_Source\PSoC4/Capsense_CSHL.c ****     *  widget:  Sensor index number.
 934:Generated_Source\PSoC4/Capsense_CSHL.c ****     *  value:   Noise Threshold value for widget.
 935:Generated_Source\PSoC4/Capsense_CSHL.c ****     *
 936:Generated_Source\PSoC4/Capsense_CSHL.c ****     * Return Value:
 937:Generated_Source\PSoC4/Capsense_CSHL.c ****     *  None
 938:Generated_Source\PSoC4/Capsense_CSHL.c ****     *
 939:Generated_Source\PSoC4/Capsense_CSHL.c ****     * Global Variables:
 940:Generated_Source\PSoC4/Capsense_CSHL.c ****     *  Capsense_noiseThreshold[] - This array contains the level of signal
 941:Generated_Source\PSoC4/Capsense_CSHL.c ****     *   for each widget that determines the level of noise in the capacitive scan.
 942:Generated_Source\PSoC4/Capsense_CSHL.c ****     *
 943:Generated_Source\PSoC4/Capsense_CSHL.c ****     * Side Effects:
 944:Generated_Source\PSoC4/Capsense_CSHL.c ****     *  None
 945:Generated_Source\PSoC4/Capsense_CSHL.c ****     *
 946:Generated_Source\PSoC4/Capsense_CSHL.c ****     *******************************************************************************/
 947:Generated_Source\PSoC4/Capsense_CSHL.c ****     void Capsense_SetNoiseThreshold(uint32 widget, uint8 value)
 948:Generated_Source\PSoC4/Capsense_CSHL.c ****     {
 1246              		.loc 1 948 0
 1247              		.cfi_startproc
 1248              		@ args = 0, pretend = 0, frame = 8
 1249              		@ frame_needed = 1, uses_anonymous_args = 0
 1250 0000 80B5     		push	{r7, lr}
 1251              		.cfi_def_cfa_offset 8
 1252              		.cfi_offset 7, -8
 1253              		.cfi_offset 14, -4
 1254 0002 82B0     		sub	sp, sp, #8
 1255              		.cfi_def_cfa_offset 16
 1256 0004 00AF     		add	r7, sp, #0
 1257              		.cfi_def_cfa_register 7
 1258 0006 7860     		str	r0, [r7, #4]
 1259 0008 0A00     		movs	r2, r1
 1260 000a FB1C     		adds	r3, r7, #3
 1261 000c 1A70     		strb	r2, [r3]
 949:Generated_Source\PSoC4/Capsense_CSHL.c ****         Capsense_noiseThreshold[widget] = value;
ARM GAS  C:\Users\ROUSSMA\AppData\Local\Temp\ccw7ZO0v.s 			page 40


 1262              		.loc 1 949 0
 1263 000e 054A     		ldr	r2, .L78
 1264 0010 7B68     		ldr	r3, [r7, #4]
 1265 0012 D318     		adds	r3, r2, r3
 1266 0014 FA1C     		adds	r2, r7, #3
 1267 0016 1278     		ldrb	r2, [r2]
 1268 0018 1A70     		strb	r2, [r3]
 950:Generated_Source\PSoC4/Capsense_CSHL.c ****     }
 1269              		.loc 1 950 0
 1270 001a C046     		nop
 1271 001c BD46     		mov	sp, r7
 1272 001e 02B0     		add	sp, sp, #8
 1273              		@ sp needed
 1274 0020 80BD     		pop	{r7, pc}
 1275              	.L79:
 1276 0022 C046     		.align	2
 1277              	.L78:
 1278 0024 00000000 		.word	Capsense_noiseThreshold
 1279              		.cfi_endproc
 1280              	.LFE53:
 1281              		.size	Capsense_SetNoiseThreshold, .-Capsense_SetNoiseThreshold
 1282              		.section	.text.Capsense_SetFingerHysteresis,"ax",%progbits
 1283              		.align	2
 1284              		.global	Capsense_SetFingerHysteresis
 1285              		.code	16
 1286              		.thumb_func
 1287              		.type	Capsense_SetFingerHysteresis, %function
 1288              	Capsense_SetFingerHysteresis:
 1289              	.LFB54:
 951:Generated_Source\PSoC4/Capsense_CSHL.c **** 
 952:Generated_Source\PSoC4/Capsense_CSHL.c **** 
 953:Generated_Source\PSoC4/Capsense_CSHL.c ****     /*******************************************************************************
 954:Generated_Source\PSoC4/Capsense_CSHL.c ****     * Function Name: Capsense_SetFingerHysteresis
 955:Generated_Source\PSoC4/Capsense_CSHL.c ****     ********************************************************************************
 956:Generated_Source\PSoC4/Capsense_CSHL.c ****     *
 957:Generated_Source\PSoC4/Capsense_CSHL.c ****     * Summary:
 958:Generated_Source\PSoC4/Capsense_CSHL.c ****     *  This API sets the Hysteresis value of a widget
 959:Generated_Source\PSoC4/Capsense_CSHL.c ****     *
 960:Generated_Source\PSoC4/Capsense_CSHL.c ****     * Parameters:
 961:Generated_Source\PSoC4/Capsense_CSHL.c ****     *  value:  Hysteresis value for widgets.
 962:Generated_Source\PSoC4/Capsense_CSHL.c ****     *  widget:  widget number
 963:Generated_Source\PSoC4/Capsense_CSHL.c ****     *
 964:Generated_Source\PSoC4/Capsense_CSHL.c ****     * Return Value:
 965:Generated_Source\PSoC4/Capsense_CSHL.c ****     *  None
 966:Generated_Source\PSoC4/Capsense_CSHL.c ****     *
 967:Generated_Source\PSoC4/Capsense_CSHL.c ****     * Global Variables:
 968:Generated_Source\PSoC4/Capsense_CSHL.c ****     *  Capsense_hysteresis[] - This array contains the hysteresis value for each widget.
 969:Generated_Source\PSoC4/Capsense_CSHL.c ****     *  Capsense_widgetNumberSld - structure with dynamic sliders' parameters.
 970:Generated_Source\PSoC4/Capsense_CSHL.c ****     *
 971:Generated_Source\PSoC4/Capsense_CSHL.c ****     * Side Effects:
 972:Generated_Source\PSoC4/Capsense_CSHL.c ****     *  None
 973:Generated_Source\PSoC4/Capsense_CSHL.c ****     *
 974:Generated_Source\PSoC4/Capsense_CSHL.c ****     *******************************************************************************/
 975:Generated_Source\PSoC4/Capsense_CSHL.c ****     void Capsense_SetFingerHysteresis(uint32 widget, uint8 value)
 976:Generated_Source\PSoC4/Capsense_CSHL.c ****     {
 1290              		.loc 1 976 0
 1291              		.cfi_startproc
ARM GAS  C:\Users\ROUSSMA\AppData\Local\Temp\ccw7ZO0v.s 			page 41


 1292              		@ args = 0, pretend = 0, frame = 8
 1293              		@ frame_needed = 1, uses_anonymous_args = 0
 1294 0000 80B5     		push	{r7, lr}
 1295              		.cfi_def_cfa_offset 8
 1296              		.cfi_offset 7, -8
 1297              		.cfi_offset 14, -4
 1298 0002 82B0     		sub	sp, sp, #8
 1299              		.cfi_def_cfa_offset 16
 1300 0004 00AF     		add	r7, sp, #0
 1301              		.cfi_def_cfa_register 7
 1302 0006 7860     		str	r0, [r7, #4]
 1303 0008 0A00     		movs	r2, r1
 1304 000a FB1C     		adds	r3, r7, #3
 1305 000c 1A70     		strb	r2, [r3]
 977:Generated_Source\PSoC4/Capsense_CSHL.c ****         Capsense_hysteresis[widget] = value;
 1306              		.loc 1 977 0
 1307 000e 054A     		ldr	r2, .L81
 1308 0010 7B68     		ldr	r3, [r7, #4]
 1309 0012 D318     		adds	r3, r2, r3
 1310 0014 FA1C     		adds	r2, r7, #3
 1311 0016 1278     		ldrb	r2, [r2]
 1312 0018 1A70     		strb	r2, [r3]
 978:Generated_Source\PSoC4/Capsense_CSHL.c ****     }
 1313              		.loc 1 978 0
 1314 001a C046     		nop
 1315 001c BD46     		mov	sp, r7
 1316 001e 02B0     		add	sp, sp, #8
 1317              		@ sp needed
 1318 0020 80BD     		pop	{r7, pc}
 1319              	.L82:
 1320 0022 C046     		.align	2
 1321              	.L81:
 1322 0024 00000000 		.word	Capsense_hysteresis
 1323              		.cfi_endproc
 1324              	.LFE54:
 1325              		.size	Capsense_SetFingerHysteresis, .-Capsense_SetFingerHysteresis
 1326              		.section	.text.Capsense_SetNegativeNoiseThreshold,"ax",%progbits
 1327              		.align	2
 1328              		.global	Capsense_SetNegativeNoiseThreshold
 1329              		.code	16
 1330              		.thumb_func
 1331              		.type	Capsense_SetNegativeNoiseThreshold, %function
 1332              	Capsense_SetNegativeNoiseThreshold:
 1333              	.LFB55:
 979:Generated_Source\PSoC4/Capsense_CSHL.c **** 
 980:Generated_Source\PSoC4/Capsense_CSHL.c **** 
 981:Generated_Source\PSoC4/Capsense_CSHL.c ****     /*******************************************************************************
 982:Generated_Source\PSoC4/Capsense_CSHL.c ****     * Function Name: Capsense_SetNegativeNoiseThreshold
 983:Generated_Source\PSoC4/Capsense_CSHL.c ****     ********************************************************************************
 984:Generated_Source\PSoC4/Capsense_CSHL.c ****     *
 985:Generated_Source\PSoC4/Capsense_CSHL.c ****     * Summary:
 986:Generated_Source\PSoC4/Capsense_CSHL.c ****     *  This API sets the Negative Noise Threshold value of a widget
 987:Generated_Source\PSoC4/Capsense_CSHL.c ****     *
 988:Generated_Source\PSoC4/Capsense_CSHL.c ****     * Parameters:
 989:Generated_Source\PSoC4/Capsense_CSHL.c ****     *  value:  Negative Noise Threshold value for widgets.
 990:Generated_Source\PSoC4/Capsense_CSHL.c ****     *  widget: widget number
 991:Generated_Source\PSoC4/Capsense_CSHL.c ****     *
ARM GAS  C:\Users\ROUSSMA\AppData\Local\Temp\ccw7ZO0v.s 			page 42


 992:Generated_Source\PSoC4/Capsense_CSHL.c ****     * Return Value:
 993:Generated_Source\PSoC4/Capsense_CSHL.c ****     *  None
 994:Generated_Source\PSoC4/Capsense_CSHL.c ****     *
 995:Generated_Source\PSoC4/Capsense_CSHL.c ****     * Global Variables:
 996:Generated_Source\PSoC4/Capsense_CSHL.c ****     *  Capsense_negativeNoiseThreshold  - This parameter specifies the negative
 997:Generated_Source\PSoC4/Capsense_CSHL.c ****     *   difference between the raw count and baseline levels for Baseline resetting to
 998:Generated_Source\PSoC4/Capsense_CSHL.c ****     *   the raw count level.
 999:Generated_Source\PSoC4/Capsense_CSHL.c ****     *
1000:Generated_Source\PSoC4/Capsense_CSHL.c ****     * Side Effects:
1001:Generated_Source\PSoC4/Capsense_CSHL.c ****     *  None
1002:Generated_Source\PSoC4/Capsense_CSHL.c ****     *
1003:Generated_Source\PSoC4/Capsense_CSHL.c ****     *******************************************************************************/
1004:Generated_Source\PSoC4/Capsense_CSHL.c ****     void Capsense_SetNegativeNoiseThreshold(uint32 widget, uint8 value)
1005:Generated_Source\PSoC4/Capsense_CSHL.c ****     {
 1334              		.loc 1 1005 0
 1335              		.cfi_startproc
 1336              		@ args = 0, pretend = 0, frame = 8
 1337              		@ frame_needed = 1, uses_anonymous_args = 0
 1338 0000 80B5     		push	{r7, lr}
 1339              		.cfi_def_cfa_offset 8
 1340              		.cfi_offset 7, -8
 1341              		.cfi_offset 14, -4
 1342 0002 82B0     		sub	sp, sp, #8
 1343              		.cfi_def_cfa_offset 16
 1344 0004 00AF     		add	r7, sp, #0
 1345              		.cfi_def_cfa_register 7
 1346 0006 7860     		str	r0, [r7, #4]
 1347 0008 0A00     		movs	r2, r1
 1348 000a FB1C     		adds	r3, r7, #3
 1349 000c 1A70     		strb	r2, [r3]
1006:Generated_Source\PSoC4/Capsense_CSHL.c ****         Capsense_negativeNoiseThreshold[widget] = value;
 1350              		.loc 1 1006 0
 1351 000e 054A     		ldr	r2, .L84
 1352 0010 7B68     		ldr	r3, [r7, #4]
 1353 0012 D318     		adds	r3, r2, r3
 1354 0014 FA1C     		adds	r2, r7, #3
 1355 0016 1278     		ldrb	r2, [r2]
 1356 0018 1A70     		strb	r2, [r3]
1007:Generated_Source\PSoC4/Capsense_CSHL.c ****     }
 1357              		.loc 1 1007 0
 1358 001a C046     		nop
 1359 001c BD46     		mov	sp, r7
 1360 001e 02B0     		add	sp, sp, #8
 1361              		@ sp needed
 1362 0020 80BD     		pop	{r7, pc}
 1363              	.L85:
 1364 0022 C046     		.align	2
 1365              	.L84:
 1366 0024 00000000 		.word	Capsense_negativeNoiseThreshold
 1367              		.cfi_endproc
 1368              	.LFE55:
 1369              		.size	Capsense_SetNegativeNoiseThreshold, .-Capsense_SetNegativeNoiseThreshold
 1370              		.section	.text.Capsense_SetDebounce,"ax",%progbits
 1371              		.align	2
 1372              		.global	Capsense_SetDebounce
 1373              		.code	16
 1374              		.thumb_func
ARM GAS  C:\Users\ROUSSMA\AppData\Local\Temp\ccw7ZO0v.s 			page 43


 1375              		.type	Capsense_SetDebounce, %function
 1376              	Capsense_SetDebounce:
 1377              	.LFB56:
1008:Generated_Source\PSoC4/Capsense_CSHL.c **** 
1009:Generated_Source\PSoC4/Capsense_CSHL.c **** 
1010:Generated_Source\PSoC4/Capsense_CSHL.c ****     /*******************************************************************************
1011:Generated_Source\PSoC4/Capsense_CSHL.c ****     * Function Name: Capsense_SetDebounce
1012:Generated_Source\PSoC4/Capsense_CSHL.c ****     ********************************************************************************
1013:Generated_Source\PSoC4/Capsense_CSHL.c ****     *
1014:Generated_Source\PSoC4/Capsense_CSHL.c ****     * Summary:
1015:Generated_Source\PSoC4/Capsense_CSHL.c ****     *  This API sets the debounce value for a widget.
1016:Generated_Source\PSoC4/Capsense_CSHL.c ****     *
1017:Generated_Source\PSoC4/Capsense_CSHL.c ****     * Parameters:
1018:Generated_Source\PSoC4/Capsense_CSHL.c ****     *  value:  Debounce value for widget.
1019:Generated_Source\PSoC4/Capsense_CSHL.c ****     *  widget: widget index.
1020:Generated_Source\PSoC4/Capsense_CSHL.c ****     *
1021:Generated_Source\PSoC4/Capsense_CSHL.c ****     * Return Value:
1022:Generated_Source\PSoC4/Capsense_CSHL.c ****     *  None
1023:Generated_Source\PSoC4/Capsense_CSHL.c ****     *
1024:Generated_Source\PSoC4/Capsense_CSHL.c ****     * Global Variables:
1025:Generated_Source\PSoC4/Capsense_CSHL.c ****     *  Capsense_debounce[] - This array contains the debounce value for each widget.
1026:Generated_Source\PSoC4/Capsense_CSHL.c ****     *  Capsense_widgetNumberSld - structure with dynamic sliders' parameters.
1027:Generated_Source\PSoC4/Capsense_CSHL.c ****     *
1028:Generated_Source\PSoC4/Capsense_CSHL.c ****     * Side Effects:
1029:Generated_Source\PSoC4/Capsense_CSHL.c ****     *  None
1030:Generated_Source\PSoC4/Capsense_CSHL.c ****     *
1031:Generated_Source\PSoC4/Capsense_CSHL.c ****     *******************************************************************************/
1032:Generated_Source\PSoC4/Capsense_CSHL.c ****     void Capsense_SetDebounce(uint32 widget, uint8 value)
1033:Generated_Source\PSoC4/Capsense_CSHL.c ****     {
 1378              		.loc 1 1033 0
 1379              		.cfi_startproc
 1380              		@ args = 0, pretend = 0, frame = 8
 1381              		@ frame_needed = 1, uses_anonymous_args = 0
 1382 0000 80B5     		push	{r7, lr}
 1383              		.cfi_def_cfa_offset 8
 1384              		.cfi_offset 7, -8
 1385              		.cfi_offset 14, -4
 1386 0002 82B0     		sub	sp, sp, #8
 1387              		.cfi_def_cfa_offset 16
 1388 0004 00AF     		add	r7, sp, #0
 1389              		.cfi_def_cfa_register 7
 1390 0006 7860     		str	r0, [r7, #4]
 1391 0008 0A00     		movs	r2, r1
 1392 000a FB1C     		adds	r3, r7, #3
 1393 000c 1A70     		strb	r2, [r3]
1034:Generated_Source\PSoC4/Capsense_CSHL.c ****         Capsense_debounce[widget] = value;
 1394              		.loc 1 1034 0
 1395 000e 054A     		ldr	r2, .L87
 1396 0010 7B68     		ldr	r3, [r7, #4]
 1397 0012 D318     		adds	r3, r2, r3
 1398 0014 FA1C     		adds	r2, r7, #3
 1399 0016 1278     		ldrb	r2, [r2]
 1400 0018 1A70     		strb	r2, [r3]
1035:Generated_Source\PSoC4/Capsense_CSHL.c ****     }
 1401              		.loc 1 1035 0
 1402 001a C046     		nop
 1403 001c BD46     		mov	sp, r7
ARM GAS  C:\Users\ROUSSMA\AppData\Local\Temp\ccw7ZO0v.s 			page 44


 1404 001e 02B0     		add	sp, sp, #8
 1405              		@ sp needed
 1406 0020 80BD     		pop	{r7, pc}
 1407              	.L88:
 1408 0022 C046     		.align	2
 1409              	.L87:
 1410 0024 00000000 		.word	Capsense_debounce
 1411              		.cfi_endproc
 1412              	.LFE56:
 1413              		.size	Capsense_SetDebounce, .-Capsense_SetDebounce
 1414              		.section	.text.Capsense_SetLowBaselineReset,"ax",%progbits
 1415              		.align	2
 1416              		.global	Capsense_SetLowBaselineReset
 1417              		.code	16
 1418              		.thumb_func
 1419              		.type	Capsense_SetLowBaselineReset, %function
 1420              	Capsense_SetLowBaselineReset:
 1421              	.LFB57:
1036:Generated_Source\PSoC4/Capsense_CSHL.c **** 
1037:Generated_Source\PSoC4/Capsense_CSHL.c **** 
1038:Generated_Source\PSoC4/Capsense_CSHL.c ****     /*******************************************************************************
1039:Generated_Source\PSoC4/Capsense_CSHL.c ****     * Function Name: Capsense_SetLowBaselineReset
1040:Generated_Source\PSoC4/Capsense_CSHL.c ****     ********************************************************************************
1041:Generated_Source\PSoC4/Capsense_CSHL.c ****     *
1042:Generated_Source\PSoC4/Capsense_CSHL.c ****     * Summary:
1043:Generated_Source\PSoC4/Capsense_CSHL.c ****     *  This API sets the low baseline reset threshold value for the sensor.
1044:Generated_Source\PSoC4/Capsense_CSHL.c ****     *
1045:Generated_Source\PSoC4/Capsense_CSHL.c ****     * Parameters:
1046:Generated_Source\PSoC4/Capsense_CSHL.c ****     *  value: low baseline reset threshold value.
1047:Generated_Source\PSoC4/Capsense_CSHL.c ****     *  sensor: Sensor index.
1048:Generated_Source\PSoC4/Capsense_CSHL.c ****     *
1049:Generated_Source\PSoC4/Capsense_CSHL.c ****     * Return Value:
1050:Generated_Source\PSoC4/Capsense_CSHL.c ****     *  None
1051:Generated_Source\PSoC4/Capsense_CSHL.c ****     *
1052:Generated_Source\PSoC4/Capsense_CSHL.c ****     * Global Variables:
1053:Generated_Source\PSoC4/Capsense_CSHL.c ****     *  Capsense_lowBaselineReset[] - This array contains the Baseline update
1054:Generated_Source\PSoC4/Capsense_CSHL.c ****     *  threshold value for each sensor.
1055:Generated_Source\PSoC4/Capsense_CSHL.c ****     *
1056:Generated_Source\PSoC4/Capsense_CSHL.c ****     * Side Effects:
1057:Generated_Source\PSoC4/Capsense_CSHL.c ****     *  None
1058:Generated_Source\PSoC4/Capsense_CSHL.c ****     *
1059:Generated_Source\PSoC4/Capsense_CSHL.c ****     *******************************************************************************/
1060:Generated_Source\PSoC4/Capsense_CSHL.c ****     void Capsense_SetLowBaselineReset(uint32 sensor, uint8 value)
1061:Generated_Source\PSoC4/Capsense_CSHL.c ****     {
 1422              		.loc 1 1061 0
 1423              		.cfi_startproc
 1424              		@ args = 0, pretend = 0, frame = 8
 1425              		@ frame_needed = 1, uses_anonymous_args = 0
 1426 0000 80B5     		push	{r7, lr}
 1427              		.cfi_def_cfa_offset 8
 1428              		.cfi_offset 7, -8
 1429              		.cfi_offset 14, -4
 1430 0002 82B0     		sub	sp, sp, #8
 1431              		.cfi_def_cfa_offset 16
 1432 0004 00AF     		add	r7, sp, #0
 1433              		.cfi_def_cfa_register 7
 1434 0006 7860     		str	r0, [r7, #4]
ARM GAS  C:\Users\ROUSSMA\AppData\Local\Temp\ccw7ZO0v.s 			page 45


 1435 0008 0A00     		movs	r2, r1
 1436 000a FB1C     		adds	r3, r7, #3
 1437 000c 1A70     		strb	r2, [r3]
1062:Generated_Source\PSoC4/Capsense_CSHL.c ****         Capsense_lowBaselineReset[sensor] = value;
 1438              		.loc 1 1062 0
 1439 000e 054A     		ldr	r2, .L90
 1440 0010 7B68     		ldr	r3, [r7, #4]
 1441 0012 D318     		adds	r3, r2, r3
 1442 0014 FA1C     		adds	r2, r7, #3
 1443 0016 1278     		ldrb	r2, [r2]
 1444 0018 1A70     		strb	r2, [r3]
1063:Generated_Source\PSoC4/Capsense_CSHL.c ****     }
 1445              		.loc 1 1063 0
 1446 001a C046     		nop
 1447 001c BD46     		mov	sp, r7
 1448 001e 02B0     		add	sp, sp, #8
 1449              		@ sp needed
 1450 0020 80BD     		pop	{r7, pc}
 1451              	.L91:
 1452 0022 C046     		.align	2
 1453              	.L90:
 1454 0024 00000000 		.word	Capsense_lowBaselineReset
 1455              		.cfi_endproc
 1456              	.LFE57:
 1457              		.size	Capsense_SetLowBaselineReset, .-Capsense_SetLowBaselineReset
 1458              		.section	.text.Capsense_CheckIsSensorActive,"ax",%progbits
 1459              		.align	2
 1460              		.global	Capsense_CheckIsSensorActive
 1461              		.code	16
 1462              		.thumb_func
 1463              		.type	Capsense_CheckIsSensorActive, %function
 1464              	Capsense_CheckIsSensorActive:
 1465              	.LFB58:
1064:Generated_Source\PSoC4/Capsense_CSHL.c **** #endif /* (Capsense_TUNING_METHOD != Capsense__TUNING_NONE) */
1065:Generated_Source\PSoC4/Capsense_CSHL.c **** 
1066:Generated_Source\PSoC4/Capsense_CSHL.c **** 
1067:Generated_Source\PSoC4/Capsense_CSHL.c **** /*******************************************************************************
1068:Generated_Source\PSoC4/Capsense_CSHL.c **** * Function Name: Capsense_CheckIsSensorActive
1069:Generated_Source\PSoC4/Capsense_CSHL.c **** ********************************************************************************
1070:Generated_Source\PSoC4/Capsense_CSHL.c **** *
1071:Generated_Source\PSoC4/Capsense_CSHL.c **** * Summary:
1072:Generated_Source\PSoC4/Capsense_CSHL.c **** *  Compares the Capsense_sensorSignal[sensor] array element to the finger
1073:Generated_Source\PSoC4/Capsense_CSHL.c **** *  threshold of the widget it belongs to. The hysteresis and debounce are taken into
1074:Generated_Source\PSoC4/Capsense_CSHL.c **** *  account. The hysteresis is added or subtracted from the finger threshold
1075:Generated_Source\PSoC4/Capsense_CSHL.c **** *  based on whether the sensor is currently active.
1076:Generated_Source\PSoC4/Capsense_CSHL.c **** *  If the sensor is active, the threshold is lowered by the hysteresis amount.
1077:Generated_Source\PSoC4/Capsense_CSHL.c **** *  If the sensor is inactive, the threshold is raised by the hysteresis amount.
1078:Generated_Source\PSoC4/Capsense_CSHL.c **** *  The debounce counter is added to the sensor active transition.
1079:Generated_Source\PSoC4/Capsense_CSHL.c **** *  This function updates the Capsense_sensorOnMask[] array element.
1080:Generated_Source\PSoC4/Capsense_CSHL.c **** *
1081:Generated_Source\PSoC4/Capsense_CSHL.c **** * Parameters:
1082:Generated_Source\PSoC4/Capsense_CSHL.c **** *  sensor:  Sensor number.
1083:Generated_Source\PSoC4/Capsense_CSHL.c **** *
1084:Generated_Source\PSoC4/Capsense_CSHL.c **** * Return:
1085:Generated_Source\PSoC4/Capsense_CSHL.c **** *  Returns sensor state 1 if active, 0 if not active.
1086:Generated_Source\PSoC4/Capsense_CSHL.c **** *
1087:Generated_Source\PSoC4/Capsense_CSHL.c **** * Global Variables:
ARM GAS  C:\Users\ROUSSMA\AppData\Local\Temp\ccw7ZO0v.s 			page 46


1088:Generated_Source\PSoC4/Capsense_CSHL.c **** *  Capsense_sensorSignal[] - used to store the difference between
1089:Generated_Source\PSoC4/Capsense_CSHL.c **** *  the current value of raw data and a previous value of the baseline.
1090:Generated_Source\PSoC4/Capsense_CSHL.c **** *  Capsense_debounceCounter[]   - used to store the current debounce
1091:Generated_Source\PSoC4/Capsense_CSHL.c **** *  counter of the sensor. the widget which have this parameter are buttons, matrix
1092:Generated_Source\PSoC4/Capsense_CSHL.c **** *  buttons, proximity, and guard. All other widgets don't have the  debounce parameter
1093:Generated_Source\PSoC4/Capsense_CSHL.c **** *  and use the last element of this array with value 0 (it means no debounce).
1094:Generated_Source\PSoC4/Capsense_CSHL.c **** *  Capsense_sensorOnMask[] - used to store the sensors on/off state.
1095:Generated_Source\PSoC4/Capsense_CSHL.c **** *  Capsense_sensorOnMask[0] contains the masked bits for sensors
1096:Generated_Source\PSoC4/Capsense_CSHL.c **** *   0 through 7 (sensor 0 is bit 0, sensor 1 is bit 1).
1097:Generated_Source\PSoC4/Capsense_CSHL.c **** *  Capsense_sensorEnableMask[1] contains the masked bits for
1098:Generated_Source\PSoC4/Capsense_CSHL.c **** *  sensors 8 through 15 (if needed), and so on.
1099:Generated_Source\PSoC4/Capsense_CSHL.c **** *  0 - sensor is inactive.
1100:Generated_Source\PSoC4/Capsense_CSHL.c **** *  1 - sensor is active.
1101:Generated_Source\PSoC4/Capsense_CSHL.c **** *
1102:Generated_Source\PSoC4/Capsense_CSHL.c **** * Side Effects:
1103:Generated_Source\PSoC4/Capsense_CSHL.c **** *  None
1104:Generated_Source\PSoC4/Capsense_CSHL.c **** *
1105:Generated_Source\PSoC4/Capsense_CSHL.c **** *******************************************************************************/
1106:Generated_Source\PSoC4/Capsense_CSHL.c **** uint32 Capsense_CheckIsSensorActive(uint32 sensor)
1107:Generated_Source\PSoC4/Capsense_CSHL.c **** {
 1466              		.loc 1 1107 0
 1467              		.cfi_startproc
 1468              		@ args = 0, pretend = 0, frame = 16
 1469              		@ frame_needed = 1, uses_anonymous_args = 0
 1470 0000 80B5     		push	{r7, lr}
 1471              		.cfi_def_cfa_offset 8
 1472              		.cfi_offset 7, -8
 1473              		.cfi_offset 14, -4
 1474 0002 84B0     		sub	sp, sp, #16
 1475              		.cfi_def_cfa_offset 24
 1476 0004 00AF     		add	r7, sp, #0
 1477              		.cfi_def_cfa_register 7
 1478 0006 7860     		str	r0, [r7, #4]
1108:Generated_Source\PSoC4/Capsense_CSHL.c ****     uint8 widget;
1109:Generated_Source\PSoC4/Capsense_CSHL.c ****     uint8 debounce;
1110:Generated_Source\PSoC4/Capsense_CSHL.c ****     uint8 debounceIndex;
1111:Generated_Source\PSoC4/Capsense_CSHL.c **** 
1112:Generated_Source\PSoC4/Capsense_CSHL.c ****     uint8 fingerThreshold;
1113:Generated_Source\PSoC4/Capsense_CSHL.c ****     uint8 hysteresis;
1114:Generated_Source\PSoC4/Capsense_CSHL.c ****     
1115:Generated_Source\PSoC4/Capsense_CSHL.c **** 
1116:Generated_Source\PSoC4/Capsense_CSHL.c ****     /* Prepare to find debounce counter index */
1117:Generated_Source\PSoC4/Capsense_CSHL.c ****     widget = Capsense_widgetNumber[sensor];
 1479              		.loc 1 1117 0
 1480 0008 0F23     		movs	r3, #15
 1481 000a FB18     		adds	r3, r7, r3
 1482 000c 4149     		ldr	r1, .L101
 1483 000e 7A68     		ldr	r2, [r7, #4]
 1484 0010 8A18     		adds	r2, r1, r2
 1485 0012 1278     		ldrb	r2, [r2]
 1486 0014 1A70     		strb	r2, [r3]
1118:Generated_Source\PSoC4/Capsense_CSHL.c **** 
1119:Generated_Source\PSoC4/Capsense_CSHL.c ****     fingerThreshold = Capsense_fingerThreshold[widget];
 1487              		.loc 1 1119 0
 1488 0016 0F23     		movs	r3, #15
 1489 0018 FB18     		adds	r3, r7, r3
 1490 001a 1A78     		ldrb	r2, [r3]
ARM GAS  C:\Users\ROUSSMA\AppData\Local\Temp\ccw7ZO0v.s 			page 47


 1491 001c 0E23     		movs	r3, #14
 1492 001e FB18     		adds	r3, r7, r3
 1493 0020 3D49     		ldr	r1, .L101+4
 1494 0022 8A5C     		ldrb	r2, [r1, r2]
 1495 0024 1A70     		strb	r2, [r3]
1120:Generated_Source\PSoC4/Capsense_CSHL.c ****     hysteresis = Capsense_hysteresis[widget];
 1496              		.loc 1 1120 0
 1497 0026 0F23     		movs	r3, #15
 1498 0028 FB18     		adds	r3, r7, r3
 1499 002a 1A78     		ldrb	r2, [r3]
 1500 002c 0D23     		movs	r3, #13
 1501 002e FB18     		adds	r3, r7, r3
 1502 0030 3A49     		ldr	r1, .L101+8
 1503 0032 8A5C     		ldrb	r2, [r1, r2]
 1504 0034 1A70     		strb	r2, [r3]
1121:Generated_Source\PSoC4/Capsense_CSHL.c ****     debounce = Capsense_debounce[widget];
 1505              		.loc 1 1121 0
 1506 0036 0F23     		movs	r3, #15
 1507 0038 FB18     		adds	r3, r7, r3
 1508 003a 1A78     		ldrb	r2, [r3]
 1509 003c 0C23     		movs	r3, #12
 1510 003e FB18     		adds	r3, r7, r3
 1511 0040 3749     		ldr	r1, .L101+12
 1512 0042 8A5C     		ldrb	r2, [r1, r2]
 1513 0044 1A70     		strb	r2, [r3]
1122:Generated_Source\PSoC4/Capsense_CSHL.c **** 
1123:Generated_Source\PSoC4/Capsense_CSHL.c ****         debounceIndex = widget;
 1514              		.loc 1 1123 0
 1515 0046 0B23     		movs	r3, #11
 1516 0048 FB18     		adds	r3, r7, r3
 1517 004a 0F22     		movs	r2, #15
 1518 004c BA18     		adds	r2, r7, r2
 1519 004e 1278     		ldrb	r2, [r2]
 1520 0050 1A70     		strb	r2, [r3]
1124:Generated_Source\PSoC4/Capsense_CSHL.c **** 
1125:Generated_Source\PSoC4/Capsense_CSHL.c **** 
1126:Generated_Source\PSoC4/Capsense_CSHL.c ****     /* Was on */
1127:Generated_Source\PSoC4/Capsense_CSHL.c ****     if (0u != Capsense_GetBitValue(Capsense_sensorOnMask, sensor))
 1521              		.loc 1 1127 0
 1522 0052 7A68     		ldr	r2, [r7, #4]
 1523 0054 334B     		ldr	r3, .L101+16
 1524 0056 1100     		movs	r1, r2
 1525 0058 1800     		movs	r0, r3
 1526 005a FFF7FEFF 		bl	Capsense_GetBitValue
 1527 005e 031E     		subs	r3, r0, #0
 1528 0060 1CD0     		beq	.L93
1128:Generated_Source\PSoC4/Capsense_CSHL.c ****     {
1129:Generated_Source\PSoC4/Capsense_CSHL.c ****         /* Hysteresis minus */
1130:Generated_Source\PSoC4/Capsense_CSHL.c ****         if (Capsense_sensorSignal[sensor] < (fingerThreshold - hysteresis))
 1529              		.loc 1 1130 0
 1530 0062 314A     		ldr	r2, .L101+20
 1531 0064 7B68     		ldr	r3, [r7, #4]
 1532 0066 D318     		adds	r3, r2, r3
 1533 0068 1B78     		ldrb	r3, [r3]
 1534 006a 1900     		movs	r1, r3
 1535 006c 0E23     		movs	r3, #14
 1536 006e FB18     		adds	r3, r7, r3
ARM GAS  C:\Users\ROUSSMA\AppData\Local\Temp\ccw7ZO0v.s 			page 48


 1537 0070 1A78     		ldrb	r2, [r3]
 1538 0072 0D23     		movs	r3, #13
 1539 0074 FB18     		adds	r3, r7, r3
 1540 0076 1B78     		ldrb	r3, [r3]
 1541 0078 D31A     		subs	r3, r2, r3
 1542 007a 9942     		cmp	r1, r3
 1543 007c 3BDA     		bge	.L95
1131:Generated_Source\PSoC4/Capsense_CSHL.c ****         {
1132:Generated_Source\PSoC4/Capsense_CSHL.c ****             Capsense_SetBitValue(Capsense_sensorOnMask, sensor, 0u);
 1544              		.loc 1 1132 0
 1545 007e 7968     		ldr	r1, [r7, #4]
 1546 0080 284B     		ldr	r3, .L101+16
 1547 0082 0022     		movs	r2, #0
 1548 0084 1800     		movs	r0, r3
 1549 0086 FFF7FEFF 		bl	Capsense_SetBitValue
1133:Generated_Source\PSoC4/Capsense_CSHL.c ****             /* Sensor inactive - reset Debounce counter */
1134:Generated_Source\PSoC4/Capsense_CSHL.c ****             Capsense_debounceCounter[debounceIndex] = debounce;
 1550              		.loc 1 1134 0
 1551 008a 0B23     		movs	r3, #11
 1552 008c FB18     		adds	r3, r7, r3
 1553 008e 1B78     		ldrb	r3, [r3]
 1554 0090 264A     		ldr	r2, .L101+24
 1555 0092 0C21     		movs	r1, #12
 1556 0094 7918     		adds	r1, r7, r1
 1557 0096 0978     		ldrb	r1, [r1]
 1558 0098 D154     		strb	r1, [r2, r3]
 1559 009a 2CE0     		b	.L95
 1560              	.L93:
1135:Generated_Source\PSoC4/Capsense_CSHL.c ****         }
1136:Generated_Source\PSoC4/Capsense_CSHL.c ****     }
1137:Generated_Source\PSoC4/Capsense_CSHL.c ****     else    /* Was off */
1138:Generated_Source\PSoC4/Capsense_CSHL.c ****     {
1139:Generated_Source\PSoC4/Capsense_CSHL.c ****         /* Hysteresis plus */
1140:Generated_Source\PSoC4/Capsense_CSHL.c ****         if (Capsense_sensorSignal[sensor] >= (fingerThreshold + hysteresis))
 1561              		.loc 1 1140 0
 1562 009c 224A     		ldr	r2, .L101+20
 1563 009e 7B68     		ldr	r3, [r7, #4]
 1564 00a0 D318     		adds	r3, r2, r3
 1565 00a2 1B78     		ldrb	r3, [r3]
 1566 00a4 1900     		movs	r1, r3
 1567 00a6 0E23     		movs	r3, #14
 1568 00a8 FB18     		adds	r3, r7, r3
 1569 00aa 1A78     		ldrb	r2, [r3]
 1570 00ac 0D23     		movs	r3, #13
 1571 00ae FB18     		adds	r3, r7, r3
 1572 00b0 1B78     		ldrb	r3, [r3]
 1573 00b2 D318     		adds	r3, r2, r3
 1574 00b4 9942     		cmp	r1, r3
 1575 00b6 16DB     		blt	.L96
1141:Generated_Source\PSoC4/Capsense_CSHL.c ****         {
1142:Generated_Source\PSoC4/Capsense_CSHL.c ****             Capsense_debounceCounter[debounceIndex]--;
 1576              		.loc 1 1142 0
 1577 00b8 0B23     		movs	r3, #11
 1578 00ba FB18     		adds	r3, r7, r3
 1579 00bc 1B78     		ldrb	r3, [r3]
 1580 00be 1B4A     		ldr	r2, .L101+24
 1581 00c0 D25C     		ldrb	r2, [r2, r3]
ARM GAS  C:\Users\ROUSSMA\AppData\Local\Temp\ccw7ZO0v.s 			page 49


 1582 00c2 013A     		subs	r2, r2, #1
 1583 00c4 D1B2     		uxtb	r1, r2
 1584 00c6 194A     		ldr	r2, .L101+24
 1585 00c8 D154     		strb	r1, [r2, r3]
1143:Generated_Source\PSoC4/Capsense_CSHL.c ****             /* Sensor active, decrement debounce counter */
1144:Generated_Source\PSoC4/Capsense_CSHL.c ****             if(Capsense_debounceCounter[debounceIndex] == 0u)
 1586              		.loc 1 1144 0
 1587 00ca 0B23     		movs	r3, #11
 1588 00cc FB18     		adds	r3, r7, r3
 1589 00ce 1B78     		ldrb	r3, [r3]
 1590 00d0 164A     		ldr	r2, .L101+24
 1591 00d2 D35C     		ldrb	r3, [r2, r3]
 1592 00d4 002B     		cmp	r3, #0
 1593 00d6 0ED1     		bne	.L95
1145:Generated_Source\PSoC4/Capsense_CSHL.c ****             {
1146:Generated_Source\PSoC4/Capsense_CSHL.c ****                 Capsense_SetBitValue(Capsense_sensorOnMask, sensor, 1u);
 1594              		.loc 1 1146 0
 1595 00d8 7968     		ldr	r1, [r7, #4]
 1596 00da 124B     		ldr	r3, .L101+16
 1597 00dc 0122     		movs	r2, #1
 1598 00de 1800     		movs	r0, r3
 1599 00e0 FFF7FEFF 		bl	Capsense_SetBitValue
 1600 00e4 07E0     		b	.L95
 1601              	.L96:
1147:Generated_Source\PSoC4/Capsense_CSHL.c ****             }
1148:Generated_Source\PSoC4/Capsense_CSHL.c ****         }
1149:Generated_Source\PSoC4/Capsense_CSHL.c ****         else
1150:Generated_Source\PSoC4/Capsense_CSHL.c ****         {
1151:Generated_Source\PSoC4/Capsense_CSHL.c ****             /* Sensor inactive - reset Debounce counter */
1152:Generated_Source\PSoC4/Capsense_CSHL.c ****             Capsense_debounceCounter[debounceIndex] = debounce;
 1602              		.loc 1 1152 0
 1603 00e6 0B23     		movs	r3, #11
 1604 00e8 FB18     		adds	r3, r7, r3
 1605 00ea 1B78     		ldrb	r3, [r3]
 1606 00ec 0F4A     		ldr	r2, .L101+24
 1607 00ee 0C21     		movs	r1, #12
 1608 00f0 7918     		adds	r1, r7, r1
 1609 00f2 0978     		ldrb	r1, [r1]
 1610 00f4 D154     		strb	r1, [r2, r3]
 1611              	.L95:
1153:Generated_Source\PSoC4/Capsense_CSHL.c ****         }
1154:Generated_Source\PSoC4/Capsense_CSHL.c ****     }
1155:Generated_Source\PSoC4/Capsense_CSHL.c **** 
1156:Generated_Source\PSoC4/Capsense_CSHL.c ****     return ((uint32)((0u != Capsense_GetBitValue(Capsense_sensorOnMask, sensor)) ? 1u : 0u));
 1612              		.loc 1 1156 0
 1613 00f6 7A68     		ldr	r2, [r7, #4]
 1614 00f8 0A4B     		ldr	r3, .L101+16
 1615 00fa 1100     		movs	r1, r2
 1616 00fc 1800     		movs	r0, r3
 1617 00fe FFF7FEFF 		bl	Capsense_GetBitValue
 1618 0102 031E     		subs	r3, r0, #0
 1619 0104 01D0     		beq	.L98
 1620              		.loc 1 1156 0 is_stmt 0 discriminator 1
 1621 0106 0123     		movs	r3, #1
 1622 0108 00E0     		b	.L100
 1623              	.L98:
 1624              		.loc 1 1156 0 discriminator 2
ARM GAS  C:\Users\ROUSSMA\AppData\Local\Temp\ccw7ZO0v.s 			page 50


 1625 010a 0023     		movs	r3, #0
 1626              	.L100:
1157:Generated_Source\PSoC4/Capsense_CSHL.c **** }
 1627              		.loc 1 1157 0 is_stmt 1 discriminator 5
 1628 010c 1800     		movs	r0, r3
 1629 010e BD46     		mov	sp, r7
 1630 0110 04B0     		add	sp, sp, #16
 1631              		@ sp needed
 1632 0112 80BD     		pop	{r7, pc}
 1633              	.L102:
 1634              		.align	2
 1635              	.L101:
 1636 0114 00000000 		.word	Capsense_widgetNumber
 1637 0118 00000000 		.word	Capsense_fingerThreshold
 1638 011c 00000000 		.word	Capsense_hysteresis
 1639 0120 00000000 		.word	Capsense_debounce
 1640 0124 00000000 		.word	Capsense_sensorOnMask
 1641 0128 00000000 		.word	Capsense_sensorSignal
 1642 012c 10000000 		.word	Capsense_debounceCounter
 1643              		.cfi_endproc
 1644              	.LFE58:
 1645              		.size	Capsense_CheckIsSensorActive, .-Capsense_CheckIsSensorActive
 1646              		.section	.text.Capsense_CheckIsWidgetActive,"ax",%progbits
 1647              		.align	2
 1648              		.global	Capsense_CheckIsWidgetActive
 1649              		.code	16
 1650              		.thumb_func
 1651              		.type	Capsense_CheckIsWidgetActive, %function
 1652              	Capsense_CheckIsWidgetActive:
 1653              	.LFB59:
1158:Generated_Source\PSoC4/Capsense_CSHL.c **** 
1159:Generated_Source\PSoC4/Capsense_CSHL.c **** 
1160:Generated_Source\PSoC4/Capsense_CSHL.c **** /*******************************************************************************
1161:Generated_Source\PSoC4/Capsense_CSHL.c **** * Function Name: Capsense_CheckIsWidgetActive
1162:Generated_Source\PSoC4/Capsense_CSHL.c **** ********************************************************************************
1163:Generated_Source\PSoC4/Capsense_CSHL.c **** *
1164:Generated_Source\PSoC4/Capsense_CSHL.c **** * Summary:
1165:Generated_Source\PSoC4/Capsense_CSHL.c **** *  Compares the CapSense_sensorSignal[] array element to the finger threshold of
1166:Generated_Source\PSoC4/Capsense_CSHL.c **** * the widget it belongs to. The hysteresis and debounce are taken into account.
1167:Generated_Source\PSoC4/Capsense_CSHL.c **** * The hysteresis is added or subtracted from the finger threshold based on whether
1168:Generated_Source\PSoC4/Capsense_CSHL.c **** *  the sensor is currently active. If the sensor is active, the threshold is
1169:Generated_Source\PSoC4/Capsense_CSHL.c **** *  lowered by the hysteresis amount. If the sensor is inactive, the threshold
1170:Generated_Source\PSoC4/Capsense_CSHL.c **** *  is raised by the hysteresis amount.
1171:Generated_Source\PSoC4/Capsense_CSHL.c **** * The debounce counter added to the sensor active transition.
1172:Generated_Source\PSoC4/Capsense_CSHL.c **** * This function updates CapSense_sensorOnMask[] array element
1173:Generated_Source\PSoC4/Capsense_CSHL.c **** *
1174:Generated_Source\PSoC4/Capsense_CSHL.c **** * Parameters:
1175:Generated_Source\PSoC4/Capsense_CSHL.c **** *  widget:  widget number.
1176:Generated_Source\PSoC4/Capsense_CSHL.c **** *
1177:Generated_Source\PSoC4/Capsense_CSHL.c **** * Return:
1178:Generated_Source\PSoC4/Capsense_CSHL.c **** *  Returns widget sensor state 1 if one or more sensors within widget is/are
1179:Generated_Source\PSoC4/Capsense_CSHL.c **** *  active, 0 if all sensors within widget are inactive.
1180:Generated_Source\PSoC4/Capsense_CSHL.c **** *
1181:Generated_Source\PSoC4/Capsense_CSHL.c **** * Global Variables:
1182:Generated_Source\PSoC4/Capsense_CSHL.c **** *  rawDataIndex[]: Contains the  1st sensor position in the widget
1183:Generated_Source\PSoC4/Capsense_CSHL.c **** *
1184:Generated_Source\PSoC4/Capsense_CSHL.c **** * Side Effects:
ARM GAS  C:\Users\ROUSSMA\AppData\Local\Temp\ccw7ZO0v.s 			page 51


1185:Generated_Source\PSoC4/Capsense_CSHL.c **** *  None
1186:Generated_Source\PSoC4/Capsense_CSHL.c **** *
1187:Generated_Source\PSoC4/Capsense_CSHL.c **** *******************************************************************************/
1188:Generated_Source\PSoC4/Capsense_CSHL.c **** uint32 Capsense_CheckIsWidgetActive(uint32 widget)
1189:Generated_Source\PSoC4/Capsense_CSHL.c **** {
 1654              		.loc 1 1189 0
 1655              		.cfi_startproc
 1656              		@ args = 0, pretend = 0, frame = 24
 1657              		@ frame_needed = 1, uses_anonymous_args = 0
 1658 0000 80B5     		push	{r7, lr}
 1659              		.cfi_def_cfa_offset 8
 1660              		.cfi_offset 7, -8
 1661              		.cfi_offset 14, -4
 1662 0002 86B0     		sub	sp, sp, #24
 1663              		.cfi_def_cfa_offset 32
 1664 0004 00AF     		add	r7, sp, #0
 1665              		.cfi_def_cfa_register 7
 1666 0006 7860     		str	r0, [r7, #4]
1190:Generated_Source\PSoC4/Capsense_CSHL.c ****     uint32 rawIndex = (uint32)Capsense_rawDataIndex[widget];
 1667              		.loc 1 1190 0
 1668 0008 0023     		movs	r3, #0
 1669 000a 7B61     		str	r3, [r7, #20]
1191:Generated_Source\PSoC4/Capsense_CSHL.c ****     uint32 numOfSensors = (uint32)Capsense_numberOfSensors[widget] + rawIndex;
 1670              		.loc 1 1191 0
 1671 000c 0123     		movs	r3, #1
 1672 000e 1A00     		movs	r2, r3
 1673 0010 7B69     		ldr	r3, [r7, #20]
 1674 0012 D318     		adds	r3, r2, r3
 1675 0014 FB60     		str	r3, [r7, #12]
1192:Generated_Source\PSoC4/Capsense_CSHL.c ****     uint32 state = 0u;
 1676              		.loc 1 1192 0
 1677 0016 0023     		movs	r3, #0
 1678 0018 3B61     		str	r3, [r7, #16]
 1679              	.L105:
1193:Generated_Source\PSoC4/Capsense_CSHL.c **** 
1194:Generated_Source\PSoC4/Capsense_CSHL.c ****     /* Check all sensors of widget */
1195:Generated_Source\PSoC4/Capsense_CSHL.c ****     do
1196:Generated_Source\PSoC4/Capsense_CSHL.c ****     {
1197:Generated_Source\PSoC4/Capsense_CSHL.c ****         if(Capsense_CheckIsSensorActive((uint32)rawIndex) != 0u)
 1680              		.loc 1 1197 0
 1681 001a 7B69     		ldr	r3, [r7, #20]
 1682 001c 1800     		movs	r0, r3
 1683 001e FFF7FEFF 		bl	Capsense_CheckIsSensorActive
 1684 0022 031E     		subs	r3, r0, #0
 1685 0024 01D0     		beq	.L104
1198:Generated_Source\PSoC4/Capsense_CSHL.c ****         {
1199:Generated_Source\PSoC4/Capsense_CSHL.c ****             state = Capsense_SENSOR_IS_ACTIVE;
 1686              		.loc 1 1199 0
 1687 0026 0123     		movs	r3, #1
 1688 0028 3B61     		str	r3, [r7, #16]
 1689              	.L104:
1200:Generated_Source\PSoC4/Capsense_CSHL.c ****         }
1201:Generated_Source\PSoC4/Capsense_CSHL.c ****         rawIndex++;
 1690              		.loc 1 1201 0
 1691 002a 7B69     		ldr	r3, [r7, #20]
 1692 002c 0133     		adds	r3, r3, #1
 1693 002e 7B61     		str	r3, [r7, #20]
ARM GAS  C:\Users\ROUSSMA\AppData\Local\Temp\ccw7ZO0v.s 			page 52


1202:Generated_Source\PSoC4/Capsense_CSHL.c ****     }
1203:Generated_Source\PSoC4/Capsense_CSHL.c ****     while(rawIndex < numOfSensors);
 1694              		.loc 1 1203 0
 1695 0030 7A69     		ldr	r2, [r7, #20]
 1696 0032 FB68     		ldr	r3, [r7, #12]
 1697 0034 9A42     		cmp	r2, r3
 1698 0036 F0D3     		bcc	.L105
1204:Generated_Source\PSoC4/Capsense_CSHL.c **** 
1205:Generated_Source\PSoC4/Capsense_CSHL.c **** 
1206:Generated_Source\PSoC4/Capsense_CSHL.c **** 
1207:Generated_Source\PSoC4/Capsense_CSHL.c ****     return state;
 1699              		.loc 1 1207 0
 1700 0038 3B69     		ldr	r3, [r7, #16]
1208:Generated_Source\PSoC4/Capsense_CSHL.c **** }
 1701              		.loc 1 1208 0
 1702 003a 1800     		movs	r0, r3
 1703 003c BD46     		mov	sp, r7
 1704 003e 06B0     		add	sp, sp, #24
 1705              		@ sp needed
 1706 0040 80BD     		pop	{r7, pc}
 1707              		.cfi_endproc
 1708              	.LFE59:
 1709              		.size	Capsense_CheckIsWidgetActive, .-Capsense_CheckIsWidgetActive
 1710 0042 C046     		.section	.text.Capsense_CheckIsAnyWidgetActive,"ax",%progbits
 1711              		.align	2
 1712              		.global	Capsense_CheckIsAnyWidgetActive
 1713              		.code	16
 1714              		.thumb_func
 1715              		.type	Capsense_CheckIsAnyWidgetActive, %function
 1716              	Capsense_CheckIsAnyWidgetActive:
 1717              	.LFB60:
1209:Generated_Source\PSoC4/Capsense_CSHL.c **** 
1210:Generated_Source\PSoC4/Capsense_CSHL.c **** 
1211:Generated_Source\PSoC4/Capsense_CSHL.c **** /*******************************************************************************
1212:Generated_Source\PSoC4/Capsense_CSHL.c **** * Function Name: Capsense_CheckIsAnyWidgetActive
1213:Generated_Source\PSoC4/Capsense_CSHL.c **** ********************************************************************************
1214:Generated_Source\PSoC4/Capsense_CSHL.c **** *
1215:Generated_Source\PSoC4/Capsense_CSHL.c **** * Summary:
1216:Generated_Source\PSoC4/Capsense_CSHL.c **** *  Compares all the sensors of the Capsense_Signal[] array to their finger
1217:Generated_Source\PSoC4/Capsense_CSHL.c **** *  threshold. Calls Capsense_CheckIsWidgetActive() for each widget so
1218:Generated_Source\PSoC4/Capsense_CSHL.c **** *  the Capsense_sensorOnMask[] array is up to date after calling this
1219:Generated_Source\PSoC4/Capsense_CSHL.c **** *  function.
1220:Generated_Source\PSoC4/Capsense_CSHL.c **** *
1221:Generated_Source\PSoC4/Capsense_CSHL.c **** * Parameters:
1222:Generated_Source\PSoC4/Capsense_CSHL.c **** *  widget:  widget number.
1223:Generated_Source\PSoC4/Capsense_CSHL.c **** *
1224:Generated_Source\PSoC4/Capsense_CSHL.c **** * Return:
1225:Generated_Source\PSoC4/Capsense_CSHL.c **** *  Returns 1 if any widget is active, 0 none of widgets are active.
1226:Generated_Source\PSoC4/Capsense_CSHL.c **** *
1227:Generated_Source\PSoC4/Capsense_CSHL.c **** * Global Variables:
1228:Generated_Source\PSoC4/Capsense_CSHL.c **** *  None
1229:Generated_Source\PSoC4/Capsense_CSHL.c **** *
1230:Generated_Source\PSoC4/Capsense_CSHL.c **** * Side Effects:
1231:Generated_Source\PSoC4/Capsense_CSHL.c **** *  None
1232:Generated_Source\PSoC4/Capsense_CSHL.c **** *
1233:Generated_Source\PSoC4/Capsense_CSHL.c **** *******************************************************************************/
1234:Generated_Source\PSoC4/Capsense_CSHL.c **** uint32 Capsense_CheckIsAnyWidgetActive(void)
ARM GAS  C:\Users\ROUSSMA\AppData\Local\Temp\ccw7ZO0v.s 			page 53


1235:Generated_Source\PSoC4/Capsense_CSHL.c **** {
 1718              		.loc 1 1235 0
 1719              		.cfi_startproc
 1720              		@ args = 0, pretend = 0, frame = 8
 1721              		@ frame_needed = 1, uses_anonymous_args = 0
 1722 0000 80B5     		push	{r7, lr}
 1723              		.cfi_def_cfa_offset 8
 1724              		.cfi_offset 7, -8
 1725              		.cfi_offset 14, -4
 1726 0002 82B0     		sub	sp, sp, #8
 1727              		.cfi_def_cfa_offset 16
 1728 0004 00AF     		add	r7, sp, #0
 1729              		.cfi_def_cfa_register 7
1236:Generated_Source\PSoC4/Capsense_CSHL.c **** 
1237:Generated_Source\PSoC4/Capsense_CSHL.c ****         uint32 i;
1238:Generated_Source\PSoC4/Capsense_CSHL.c ****     uint32 state = 0u;
 1730              		.loc 1 1238 0
 1731 0006 0023     		movs	r3, #0
 1732 0008 3B60     		str	r3, [r7]
1239:Generated_Source\PSoC4/Capsense_CSHL.c ****     
1240:Generated_Source\PSoC4/Capsense_CSHL.c ****     for(i = 0u; i < Capsense_TOTAL_WIDGET_COUNT; i++)
 1733              		.loc 1 1240 0
 1734 000a 0023     		movs	r3, #0
 1735 000c 7B60     		str	r3, [r7, #4]
 1736 000e 0AE0     		b	.L108
 1737              	.L110:
1241:Generated_Source\PSoC4/Capsense_CSHL.c ****     {
1242:Generated_Source\PSoC4/Capsense_CSHL.c ****         if (Capsense_CheckIsWidgetActive(i) != 0u)
 1738              		.loc 1 1242 0
 1739 0010 7B68     		ldr	r3, [r7, #4]
 1740 0012 1800     		movs	r0, r3
 1741 0014 FFF7FEFF 		bl	Capsense_CheckIsWidgetActive
 1742 0018 031E     		subs	r3, r0, #0
 1743 001a 01D0     		beq	.L109
1243:Generated_Source\PSoC4/Capsense_CSHL.c ****         {
1244:Generated_Source\PSoC4/Capsense_CSHL.c ****             state = Capsense_WIDGET_IS_ACTIVE;
 1744              		.loc 1 1244 0
 1745 001c 0123     		movs	r3, #1
 1746 001e 3B60     		str	r3, [r7]
 1747              	.L109:
1240:Generated_Source\PSoC4/Capsense_CSHL.c ****     {
 1748              		.loc 1 1240 0 discriminator 2
 1749 0020 7B68     		ldr	r3, [r7, #4]
 1750 0022 0133     		adds	r3, r3, #1
 1751 0024 7B60     		str	r3, [r7, #4]
 1752              	.L108:
1240:Generated_Source\PSoC4/Capsense_CSHL.c ****     {
 1753              		.loc 1 1240 0 is_stmt 0 discriminator 1
 1754 0026 7B68     		ldr	r3, [r7, #4]
 1755 0028 002B     		cmp	r3, #0
 1756 002a F1D0     		beq	.L110
1245:Generated_Source\PSoC4/Capsense_CSHL.c ****         }
1246:Generated_Source\PSoC4/Capsense_CSHL.c ****     }
1247:Generated_Source\PSoC4/Capsense_CSHL.c ****     
1248:Generated_Source\PSoC4/Capsense_CSHL.c **** 
1249:Generated_Source\PSoC4/Capsense_CSHL.c **** 
1250:Generated_Source\PSoC4/Capsense_CSHL.c ****     return state;
ARM GAS  C:\Users\ROUSSMA\AppData\Local\Temp\ccw7ZO0v.s 			page 54


 1757              		.loc 1 1250 0 is_stmt 1
 1758 002c 3B68     		ldr	r3, [r7]
1251:Generated_Source\PSoC4/Capsense_CSHL.c **** }
 1759              		.loc 1 1251 0
 1760 002e 1800     		movs	r0, r3
 1761 0030 BD46     		mov	sp, r7
 1762 0032 02B0     		add	sp, sp, #8
 1763              		@ sp needed
 1764 0034 80BD     		pop	{r7, pc}
 1765              		.cfi_endproc
 1766              	.LFE60:
 1767              		.size	Capsense_CheckIsAnyWidgetActive, .-Capsense_CheckIsAnyWidgetActive
 1768 0036 C046     		.section	.text.Capsense_EnableWidget,"ax",%progbits
 1769              		.align	2
 1770              		.global	Capsense_EnableWidget
 1771              		.code	16
 1772              		.thumb_func
 1773              		.type	Capsense_EnableWidget, %function
 1774              	Capsense_EnableWidget:
 1775              	.LFB61:
1252:Generated_Source\PSoC4/Capsense_CSHL.c **** 
1253:Generated_Source\PSoC4/Capsense_CSHL.c **** 
1254:Generated_Source\PSoC4/Capsense_CSHL.c **** /*******************************************************************************
1255:Generated_Source\PSoC4/Capsense_CSHL.c **** * Function Name: Capsense_EnableWidget
1256:Generated_Source\PSoC4/Capsense_CSHL.c **** ********************************************************************************
1257:Generated_Source\PSoC4/Capsense_CSHL.c **** *
1258:Generated_Source\PSoC4/Capsense_CSHL.c **** * Summary:
1259:Generated_Source\PSoC4/Capsense_CSHL.c **** *  Enables all the widget elements (sensors) to the scanning process.
1260:Generated_Source\PSoC4/Capsense_CSHL.c **** *
1261:Generated_Source\PSoC4/Capsense_CSHL.c **** * Parameters:
1262:Generated_Source\PSoC4/Capsense_CSHL.c **** *  widget:  widget number.
1263:Generated_Source\PSoC4/Capsense_CSHL.c **** *
1264:Generated_Source\PSoC4/Capsense_CSHL.c **** * Return:
1265:Generated_Source\PSoC4/Capsense_CSHL.c **** *  None
1266:Generated_Source\PSoC4/Capsense_CSHL.c **** *
1267:Generated_Source\PSoC4/Capsense_CSHL.c **** * Global Variables:
1268:Generated_Source\PSoC4/Capsense_CSHL.c **** *  Capsense_sensorEnableMask[] - used to store the sensor scanning
1269:Generated_Source\PSoC4/Capsense_CSHL.c **** *  state.
1270:Generated_Source\PSoC4/Capsense_CSHL.c **** *  Capsense_sensorEnableMask[0] contains the masked bits for sensors
1271:Generated_Source\PSoC4/Capsense_CSHL.c **** *  0 through 7 (sensor 0 is bit 0, sensor 1 is bit 1).
1272:Generated_Source\PSoC4/Capsense_CSHL.c **** *  Capsense_sensorEnableMask[1] contains the masked bits for
1273:Generated_Source\PSoC4/Capsense_CSHL.c **** *  sensors 8 through 15 (if needed), and so on.
1274:Generated_Source\PSoC4/Capsense_CSHL.c **** *  0 - sensor doesn't scan by Capsense_ScanEnabledWidgets().
1275:Generated_Source\PSoC4/Capsense_CSHL.c **** *  1 - sensor scans by Capsense_ScanEnabledWidgets().
1276:Generated_Source\PSoC4/Capsense_CSHL.c **** *
1277:Generated_Source\PSoC4/Capsense_CSHL.c **** * Side Effects:
1278:Generated_Source\PSoC4/Capsense_CSHL.c **** *  None
1279:Generated_Source\PSoC4/Capsense_CSHL.c **** *
1280:Generated_Source\PSoC4/Capsense_CSHL.c **** *******************************************************************************/
1281:Generated_Source\PSoC4/Capsense_CSHL.c **** void Capsense_EnableWidget(uint32 widget)
1282:Generated_Source\PSoC4/Capsense_CSHL.c **** {
 1776              		.loc 1 1282 0
 1777              		.cfi_startproc
 1778              		@ args = 0, pretend = 0, frame = 16
 1779              		@ frame_needed = 1, uses_anonymous_args = 0
 1780 0000 80B5     		push	{r7, lr}
 1781              		.cfi_def_cfa_offset 8
ARM GAS  C:\Users\ROUSSMA\AppData\Local\Temp\ccw7ZO0v.s 			page 55


 1782              		.cfi_offset 7, -8
 1783              		.cfi_offset 14, -4
 1784 0002 84B0     		sub	sp, sp, #16
 1785              		.cfi_def_cfa_offset 24
 1786 0004 00AF     		add	r7, sp, #0
 1787              		.cfi_def_cfa_register 7
 1788 0006 7860     		str	r0, [r7, #4]
1283:Generated_Source\PSoC4/Capsense_CSHL.c **** 
1284:Generated_Source\PSoC4/Capsense_CSHL.c ****     uint8 rawIndex = Capsense_rawDataIndex[widget];
 1789              		.loc 1 1284 0
 1790 0008 0F23     		movs	r3, #15
 1791 000a FB18     		adds	r3, r7, r3
 1792 000c 0022     		movs	r2, #0
 1793 000e 1A70     		strb	r2, [r3]
1285:Generated_Source\PSoC4/Capsense_CSHL.c ****     uint8 numOfSensors = Capsense_numberOfSensors[widget] + rawIndex;
 1794              		.loc 1 1285 0
 1795 0010 0121     		movs	r1, #1
 1796 0012 0E23     		movs	r3, #14
 1797 0014 FB18     		adds	r3, r7, r3
 1798 0016 0F22     		movs	r2, #15
 1799 0018 BA18     		adds	r2, r7, r2
 1800 001a 1278     		ldrb	r2, [r2]
 1801 001c 8A18     		adds	r2, r1, r2
 1802 001e 1A70     		strb	r2, [r3]
 1803              	.L113:
1286:Generated_Source\PSoC4/Capsense_CSHL.c **** 
1287:Generated_Source\PSoC4/Capsense_CSHL.c ****     /* Enable all sensors of widget */
1288:Generated_Source\PSoC4/Capsense_CSHL.c ****     do
1289:Generated_Source\PSoC4/Capsense_CSHL.c ****     {
1290:Generated_Source\PSoC4/Capsense_CSHL.c ****         Capsense_SetBitValue(Capsense_sensorEnableMask, (uint32)rawIndex, 1u);
 1804              		.loc 1 1290 0 discriminator 1
 1805 0020 0F23     		movs	r3, #15
 1806 0022 FB18     		adds	r3, r7, r3
 1807 0024 1978     		ldrb	r1, [r3]
 1808 0026 0C4B     		ldr	r3, .L114
 1809 0028 0122     		movs	r2, #1
 1810 002a 1800     		movs	r0, r3
 1811 002c FFF7FEFF 		bl	Capsense_SetBitValue
1291:Generated_Source\PSoC4/Capsense_CSHL.c ****         rawIndex++;
 1812              		.loc 1 1291 0 discriminator 1
 1813 0030 0F23     		movs	r3, #15
 1814 0032 FB18     		adds	r3, r7, r3
 1815 0034 1A78     		ldrb	r2, [r3]
 1816 0036 0F23     		movs	r3, #15
 1817 0038 FB18     		adds	r3, r7, r3
 1818 003a 0132     		adds	r2, r2, #1
 1819 003c 1A70     		strb	r2, [r3]
1292:Generated_Source\PSoC4/Capsense_CSHL.c ****     }
1293:Generated_Source\PSoC4/Capsense_CSHL.c ****     while(rawIndex < numOfSensors);
 1820              		.loc 1 1293 0 discriminator 1
 1821 003e 0F23     		movs	r3, #15
 1822 0040 FA18     		adds	r2, r7, r3
 1823 0042 0E23     		movs	r3, #14
 1824 0044 FB18     		adds	r3, r7, r3
 1825 0046 1278     		ldrb	r2, [r2]
 1826 0048 1B78     		ldrb	r3, [r3]
 1827 004a 9A42     		cmp	r2, r3
ARM GAS  C:\Users\ROUSSMA\AppData\Local\Temp\ccw7ZO0v.s 			page 56


 1828 004c E8D3     		bcc	.L113
1294:Generated_Source\PSoC4/Capsense_CSHL.c **** }
 1829              		.loc 1 1294 0
 1830 004e C046     		nop
 1831 0050 BD46     		mov	sp, r7
 1832 0052 04B0     		add	sp, sp, #16
 1833              		@ sp needed
 1834 0054 80BD     		pop	{r7, pc}
 1835              	.L115:
 1836 0056 C046     		.align	2
 1837              	.L114:
 1838 0058 00000000 		.word	Capsense_sensorEnableMask
 1839              		.cfi_endproc
 1840              	.LFE61:
 1841              		.size	Capsense_EnableWidget, .-Capsense_EnableWidget
 1842              		.section	.text.Capsense_DisableWidget,"ax",%progbits
 1843              		.align	2
 1844              		.global	Capsense_DisableWidget
 1845              		.code	16
 1846              		.thumb_func
 1847              		.type	Capsense_DisableWidget, %function
 1848              	Capsense_DisableWidget:
 1849              	.LFB62:
1295:Generated_Source\PSoC4/Capsense_CSHL.c **** 
1296:Generated_Source\PSoC4/Capsense_CSHL.c **** 
1297:Generated_Source\PSoC4/Capsense_CSHL.c **** /*******************************************************************************
1298:Generated_Source\PSoC4/Capsense_CSHL.c **** * Function Name: Capsense_DisableWidget
1299:Generated_Source\PSoC4/Capsense_CSHL.c **** ********************************************************************************
1300:Generated_Source\PSoC4/Capsense_CSHL.c **** *
1301:Generated_Source\PSoC4/Capsense_CSHL.c **** * Summary:
1302:Generated_Source\PSoC4/Capsense_CSHL.c **** *  Disables all the widget elements (sensors) from the scanning process.
1303:Generated_Source\PSoC4/Capsense_CSHL.c **** *
1304:Generated_Source\PSoC4/Capsense_CSHL.c **** * Parameters:
1305:Generated_Source\PSoC4/Capsense_CSHL.c **** *  widget:  widget number.
1306:Generated_Source\PSoC4/Capsense_CSHL.c **** *
1307:Generated_Source\PSoC4/Capsense_CSHL.c **** * Return:
1308:Generated_Source\PSoC4/Capsense_CSHL.c **** *  None
1309:Generated_Source\PSoC4/Capsense_CSHL.c **** *
1310:Generated_Source\PSoC4/Capsense_CSHL.c **** * Global Variables:
1311:Generated_Source\PSoC4/Capsense_CSHL.c **** *  Capsense_sensorEnableMask[] - used to store the sensor scanning
1312:Generated_Source\PSoC4/Capsense_CSHL.c **** *  state.
1313:Generated_Source\PSoC4/Capsense_CSHL.c **** *  Capsense_sensorEnableMask[0] contains the masked bits for sensors
1314:Generated_Source\PSoC4/Capsense_CSHL.c **** *  0 through 7 (sensor 0 is bit 0, sensor 1 is bit 1).
1315:Generated_Source\PSoC4/Capsense_CSHL.c **** *  Capsense_sensorEnableMask[1] contains the masked bits for
1316:Generated_Source\PSoC4/Capsense_CSHL.c **** *  sensors 8 through 15 (if needed), and so on.
1317:Generated_Source\PSoC4/Capsense_CSHL.c **** *  0 - sensor isn't scanned by Capsense_ScanEnabledWidgets().
1318:Generated_Source\PSoC4/Capsense_CSHL.c **** *  1 - sensor is scanned by Capsense_ScanEnabledWidgets().
1319:Generated_Source\PSoC4/Capsense_CSHL.c **** *
1320:Generated_Source\PSoC4/Capsense_CSHL.c **** * Side Effects:
1321:Generated_Source\PSoC4/Capsense_CSHL.c **** *  None
1322:Generated_Source\PSoC4/Capsense_CSHL.c **** *
1323:Generated_Source\PSoC4/Capsense_CSHL.c **** *******************************************************************************/
1324:Generated_Source\PSoC4/Capsense_CSHL.c **** void Capsense_DisableWidget(uint32 widget)
1325:Generated_Source\PSoC4/Capsense_CSHL.c **** {
 1850              		.loc 1 1325 0
 1851              		.cfi_startproc
 1852              		@ args = 0, pretend = 0, frame = 16
ARM GAS  C:\Users\ROUSSMA\AppData\Local\Temp\ccw7ZO0v.s 			page 57


 1853              		@ frame_needed = 1, uses_anonymous_args = 0
 1854 0000 80B5     		push	{r7, lr}
 1855              		.cfi_def_cfa_offset 8
 1856              		.cfi_offset 7, -8
 1857              		.cfi_offset 14, -4
 1858 0002 84B0     		sub	sp, sp, #16
 1859              		.cfi_def_cfa_offset 24
 1860 0004 00AF     		add	r7, sp, #0
 1861              		.cfi_def_cfa_register 7
 1862 0006 7860     		str	r0, [r7, #4]
1326:Generated_Source\PSoC4/Capsense_CSHL.c ****     uint8 rawIndex = Capsense_rawDataIndex[widget];
 1863              		.loc 1 1326 0
 1864 0008 0F23     		movs	r3, #15
 1865 000a FB18     		adds	r3, r7, r3
 1866 000c 0022     		movs	r2, #0
 1867 000e 1A70     		strb	r2, [r3]
1327:Generated_Source\PSoC4/Capsense_CSHL.c ****     uint8 numOfSensors = Capsense_numberOfSensors[widget] + rawIndex;
 1868              		.loc 1 1327 0
 1869 0010 0121     		movs	r1, #1
 1870 0012 0E23     		movs	r3, #14
 1871 0014 FB18     		adds	r3, r7, r3
 1872 0016 0F22     		movs	r2, #15
 1873 0018 BA18     		adds	r2, r7, r2
 1874 001a 1278     		ldrb	r2, [r2]
 1875 001c 8A18     		adds	r2, r1, r2
 1876 001e 1A70     		strb	r2, [r3]
 1877              	.L117:
1328:Generated_Source\PSoC4/Capsense_CSHL.c **** 
1329:Generated_Source\PSoC4/Capsense_CSHL.c ****     /* Disable all sensors of widget */
1330:Generated_Source\PSoC4/Capsense_CSHL.c ****     do
1331:Generated_Source\PSoC4/Capsense_CSHL.c ****     {
1332:Generated_Source\PSoC4/Capsense_CSHL.c **** 
1333:Generated_Source\PSoC4/Capsense_CSHL.c ****         Capsense_SetBitValue(Capsense_sensorEnableMask, (uint32)rawIndex, 0u);
 1878              		.loc 1 1333 0 discriminator 1
 1879 0020 0F23     		movs	r3, #15
 1880 0022 FB18     		adds	r3, r7, r3
 1881 0024 1978     		ldrb	r1, [r3]
 1882 0026 0C4B     		ldr	r3, .L118
 1883 0028 0022     		movs	r2, #0
 1884 002a 1800     		movs	r0, r3
 1885 002c FFF7FEFF 		bl	Capsense_SetBitValue
1334:Generated_Source\PSoC4/Capsense_CSHL.c ****         rawIndex++;
 1886              		.loc 1 1334 0 discriminator 1
 1887 0030 0F23     		movs	r3, #15
 1888 0032 FB18     		adds	r3, r7, r3
 1889 0034 1A78     		ldrb	r2, [r3]
 1890 0036 0F23     		movs	r3, #15
 1891 0038 FB18     		adds	r3, r7, r3
 1892 003a 0132     		adds	r2, r2, #1
 1893 003c 1A70     		strb	r2, [r3]
1335:Generated_Source\PSoC4/Capsense_CSHL.c ****     }
1336:Generated_Source\PSoC4/Capsense_CSHL.c ****     while(rawIndex < numOfSensors);
 1894              		.loc 1 1336 0 discriminator 1
 1895 003e 0F23     		movs	r3, #15
 1896 0040 FA18     		adds	r2, r7, r3
 1897 0042 0E23     		movs	r3, #14
 1898 0044 FB18     		adds	r3, r7, r3
ARM GAS  C:\Users\ROUSSMA\AppData\Local\Temp\ccw7ZO0v.s 			page 58


 1899 0046 1278     		ldrb	r2, [r2]
 1900 0048 1B78     		ldrb	r3, [r3]
 1901 004a 9A42     		cmp	r2, r3
 1902 004c E8D3     		bcc	.L117
1337:Generated_Source\PSoC4/Capsense_CSHL.c **** }
 1903              		.loc 1 1337 0
 1904 004e C046     		nop
 1905 0050 BD46     		mov	sp, r7
 1906 0052 04B0     		add	sp, sp, #16
 1907              		@ sp needed
 1908 0054 80BD     		pop	{r7, pc}
 1909              	.L119:
 1910 0056 C046     		.align	2
 1911              	.L118:
 1912 0058 00000000 		.word	Capsense_sensorEnableMask
 1913              		.cfi_endproc
 1914              	.LFE62:
 1915              		.size	Capsense_DisableWidget, .-Capsense_DisableWidget
 1916              		.section	.text.Capsense_IIR4Filter,"ax",%progbits
 1917              		.align	2
 1918              		.global	Capsense_IIR4Filter
 1919              		.code	16
 1920              		.thumb_func
 1921              		.type	Capsense_IIR4Filter, %function
 1922              	Capsense_IIR4Filter:
 1923              	.LFB63:
1338:Generated_Source\PSoC4/Capsense_CSHL.c **** 
1339:Generated_Source\PSoC4/Capsense_CSHL.c **** 
1340:Generated_Source\PSoC4/Capsense_CSHL.c **** #if(Capsense_TOTAL_CENTROIDS_BASIC_COUNT)
1341:Generated_Source\PSoC4/Capsense_CSHL.c ****     /*******************************************************************************
1342:Generated_Source\PSoC4/Capsense_CSHL.c ****     * Function Name: Capsense_FindMaximum
1343:Generated_Source\PSoC4/Capsense_CSHL.c ****     ********************************************************************************
1344:Generated_Source\PSoC4/Capsense_CSHL.c ****     *
1345:Generated_Source\PSoC4/Capsense_CSHL.c ****     * Summary:
1346:Generated_Source\PSoC4/Capsense_CSHL.c ****     *  Finds the index of the maximum element within a defined centroid. Checks
1347:Generated_Source\PSoC4/Capsense_CSHL.c ****     *  Capsense_sensorSignal[] within a defined centroid and
1348:Generated_Source\PSoC4/Capsense_CSHL.c ****     *  returns the index of the maximum element. The values below the finger threshold are
1349:Generated_Source\PSoC4/Capsense_CSHL.c ****     *  ignored.
1350:Generated_Source\PSoC4/Capsense_CSHL.c ****     *  The centroid is defined by offset of the first element and a number of elements - count.
1351:Generated_Source\PSoC4/Capsense_CSHL.c ****     *  The diplexed centroid requires at least two consecutive elements above
1352:Generated_Source\PSoC4/Capsense_CSHL.c ****     *  FingerThreshold to find the index of the maximum element.
1353:Generated_Source\PSoC4/Capsense_CSHL.c ****     *
1354:Generated_Source\PSoC4/Capsense_CSHL.c ****     * Parameters:
1355:Generated_Source\PSoC4/Capsense_CSHL.c ****     *  offset:  Start index of centroid in Capsense_sensorSignal[] array.
1356:Generated_Source\PSoC4/Capsense_CSHL.c ****     *  count:   number of elements within centroid.
1357:Generated_Source\PSoC4/Capsense_CSHL.c ****     *  fingerThreshold:  Finger threshold.
1358:Generated_Source\PSoC4/Capsense_CSHL.c ****     *  diplex:   pointer to diplex table.
1359:Generated_Source\PSoC4/Capsense_CSHL.c ****     *
1360:Generated_Source\PSoC4/Capsense_CSHL.c ****     * Return:
1361:Generated_Source\PSoC4/Capsense_CSHL.c ****     *  Returns the index of the maximum element within a defined centroid.
1362:Generated_Source\PSoC4/Capsense_CSHL.c ****     *  If the index of the maximum element isn't found it returns 0xFF.
1363:Generated_Source\PSoC4/Capsense_CSHL.c ****     *
1364:Generated_Source\PSoC4/Capsense_CSHL.c ****     * Global Variables:
1365:Generated_Source\PSoC4/Capsense_CSHL.c ****     *  Capsense_startOfSlider[] - contains the index of the first slider element
1366:Generated_Source\PSoC4/Capsense_CSHL.c ****     *
1367:Generated_Source\PSoC4/Capsense_CSHL.c ****     * Side Effects:
1368:Generated_Source\PSoC4/Capsense_CSHL.c ****     *  None
ARM GAS  C:\Users\ROUSSMA\AppData\Local\Temp\ccw7ZO0v.s 			page 59


1369:Generated_Source\PSoC4/Capsense_CSHL.c ****     *
1370:Generated_Source\PSoC4/Capsense_CSHL.c ****     *******************************************************************************/
1371:Generated_Source\PSoC4/Capsense_CSHL.c ****     #if (Capsense_IS_DIPLEX_SLIDER)
1372:Generated_Source\PSoC4/Capsense_CSHL.c ****         uint8 Capsense_FindMaximum(uint8 offset, uint8 count, uint8 fingerThreshold, const uint8 *d
1373:Generated_Source\PSoC4/Capsense_CSHL.c ****     #else
1374:Generated_Source\PSoC4/Capsense_CSHL.c ****         uint8 Capsense_FindMaximum(uint8 offset, uint8 count, uint8 fingerThreshold)
1375:Generated_Source\PSoC4/Capsense_CSHL.c ****     #endif /* (Capsense_IS_DIPLEX_SLIDER) */
1376:Generated_Source\PSoC4/Capsense_CSHL.c ****     {
1377:Generated_Source\PSoC4/Capsense_CSHL.c ****         uint8 i;
1378:Generated_Source\PSoC4/Capsense_CSHL.c ****         #if (Capsense_IS_DIPLEX_SLIDER)
1379:Generated_Source\PSoC4/Capsense_CSHL.c ****             uint8 curPos = 0u;
1380:Generated_Source\PSoC4/Capsense_CSHL.c ****             /* No centroid at Start */
1381:Generated_Source\PSoC4/Capsense_CSHL.c ****             uint8 curCntrdSize = 0u;
1382:Generated_Source\PSoC4/Capsense_CSHL.c ****             uint8 curCtrdStartPos = Capsense_MAXIMUM_CENTROID;
1383:Generated_Source\PSoC4/Capsense_CSHL.c ****             /* Biggest centroid is zero */
1384:Generated_Source\PSoC4/Capsense_CSHL.c ****             uint8 biggestCtrdSize = 0u;
1385:Generated_Source\PSoC4/Capsense_CSHL.c ****             uint8 biggestCtrdStartPos = 0u;
1386:Generated_Source\PSoC4/Capsense_CSHL.c ****         #endif /* (Capsense_IS_DIPLEX_SLIDER) */
1387:Generated_Source\PSoC4/Capsense_CSHL.c ****         uint8 maximum = Capsense_MAXIMUM_CENTROID;
1388:Generated_Source\PSoC4/Capsense_CSHL.c **** 
1389:Generated_Source\PSoC4/Capsense_CSHL.c ****         uint8 temp = 0u;
1390:Generated_Source\PSoC4/Capsense_CSHL.c ****         uint8 *startOfSlider = &Capsense_sensorSignal[offset];
1391:Generated_Source\PSoC4/Capsense_CSHL.c **** 
1392:Generated_Source\PSoC4/Capsense_CSHL.c ****         #if (Capsense_IS_DIPLEX_SLIDER)
1393:Generated_Source\PSoC4/Capsense_CSHL.c ****             if(diplex != 0u)
1394:Generated_Source\PSoC4/Capsense_CSHL.c ****             {
1395:Generated_Source\PSoC4/Capsense_CSHL.c ****                 /* Initialize */
1396:Generated_Source\PSoC4/Capsense_CSHL.c ****                 i = 0u;
1397:Generated_Source\PSoC4/Capsense_CSHL.c **** 
1398:Generated_Source\PSoC4/Capsense_CSHL.c ****                 /* Make slider x2 as Diplexed */
1399:Generated_Source\PSoC4/Capsense_CSHL.c ****                 count <<= 1u;
1400:Generated_Source\PSoC4/Capsense_CSHL.c ****                 while(1u)
1401:Generated_Source\PSoC4/Capsense_CSHL.c ****                 {
1402:Generated_Source\PSoC4/Capsense_CSHL.c ****                     if (startOfSlider[curPos] > 0u)    /* Looking for centroids */
1403:Generated_Source\PSoC4/Capsense_CSHL.c ****                     {
1404:Generated_Source\PSoC4/Capsense_CSHL.c ****                         if (curCtrdStartPos == Capsense_MAXIMUM_CENTROID)
1405:Generated_Source\PSoC4/Capsense_CSHL.c ****                         {
1406:Generated_Source\PSoC4/Capsense_CSHL.c ****                             /* Start of centroid */
1407:Generated_Source\PSoC4/Capsense_CSHL.c ****                             curCtrdStartPos = i;
1408:Generated_Source\PSoC4/Capsense_CSHL.c ****                             curCntrdSize++;
1409:Generated_Source\PSoC4/Capsense_CSHL.c ****                         }
1410:Generated_Source\PSoC4/Capsense_CSHL.c ****                         else
1411:Generated_Source\PSoC4/Capsense_CSHL.c ****                         {
1412:Generated_Source\PSoC4/Capsense_CSHL.c ****                             curCntrdSize++;
1413:Generated_Source\PSoC4/Capsense_CSHL.c ****                         }
1414:Generated_Source\PSoC4/Capsense_CSHL.c ****                     }
1415:Generated_Source\PSoC4/Capsense_CSHL.c ****                     else   /* Select biggest and indicate zero start */
1416:Generated_Source\PSoC4/Capsense_CSHL.c ****                     {
1417:Generated_Source\PSoC4/Capsense_CSHL.c ****                         if(curCntrdSize > 0u)
1418:Generated_Source\PSoC4/Capsense_CSHL.c ****                         {
1419:Generated_Source\PSoC4/Capsense_CSHL.c ****                             /* We are at the end of current */
1420:Generated_Source\PSoC4/Capsense_CSHL.c ****                             if(curCntrdSize > biggestCtrdSize)
1421:Generated_Source\PSoC4/Capsense_CSHL.c ****                             {
1422:Generated_Source\PSoC4/Capsense_CSHL.c ****                                 biggestCtrdSize = curCntrdSize;
1423:Generated_Source\PSoC4/Capsense_CSHL.c ****                                 biggestCtrdStartPos = curCtrdStartPos;
1424:Generated_Source\PSoC4/Capsense_CSHL.c ****                             }
1425:Generated_Source\PSoC4/Capsense_CSHL.c **** 
ARM GAS  C:\Users\ROUSSMA\AppData\Local\Temp\ccw7ZO0v.s 			page 60


1426:Generated_Source\PSoC4/Capsense_CSHL.c ****                             curCntrdSize = 0u;
1427:Generated_Source\PSoC4/Capsense_CSHL.c ****                             curCtrdStartPos = Capsense_MAXIMUM_CENTROID;
1428:Generated_Source\PSoC4/Capsense_CSHL.c ****                         }
1429:Generated_Source\PSoC4/Capsense_CSHL.c ****                     }
1430:Generated_Source\PSoC4/Capsense_CSHL.c **** 
1431:Generated_Source\PSoC4/Capsense_CSHL.c ****                     i++;
1432:Generated_Source\PSoC4/Capsense_CSHL.c ****                     curPos = diplex[i];
1433:Generated_Source\PSoC4/Capsense_CSHL.c ****                     if(i == count)
1434:Generated_Source\PSoC4/Capsense_CSHL.c ****                     {
1435:Generated_Source\PSoC4/Capsense_CSHL.c ****                         break;
1436:Generated_Source\PSoC4/Capsense_CSHL.c ****                     }
1437:Generated_Source\PSoC4/Capsense_CSHL.c ****                 }
1438:Generated_Source\PSoC4/Capsense_CSHL.c **** 
1439:Generated_Source\PSoC4/Capsense_CSHL.c ****                     /* Find biggest centroid if two are same size, last one wins
1440:Generated_Source\PSoC4/Capsense_CSHL.c ****                        We are at the end of current */
1441:Generated_Source\PSoC4/Capsense_CSHL.c ****                 if (curCntrdSize >= biggestCtrdSize)
1442:Generated_Source\PSoC4/Capsense_CSHL.c ****                 {
1443:Generated_Source\PSoC4/Capsense_CSHL.c ****                     biggestCtrdSize = curCntrdSize;
1444:Generated_Source\PSoC4/Capsense_CSHL.c ****                     biggestCtrdStartPos = curCtrdStartPos;
1445:Generated_Source\PSoC4/Capsense_CSHL.c ****                 }
1446:Generated_Source\PSoC4/Capsense_CSHL.c ****             }
1447:Generated_Source\PSoC4/Capsense_CSHL.c ****             else
1448:Generated_Source\PSoC4/Capsense_CSHL.c ****             {
1449:Generated_Source\PSoC4/Capsense_CSHL.c ****                 /* Without diplexing */
1450:Generated_Source\PSoC4/Capsense_CSHL.c ****                 biggestCtrdSize = count;
1451:Generated_Source\PSoC4/Capsense_CSHL.c ****             }
1452:Generated_Source\PSoC4/Capsense_CSHL.c **** 
1453:Generated_Source\PSoC4/Capsense_CSHL.c **** 
1454:Generated_Source\PSoC4/Capsense_CSHL.c ****             /* Check centroid size */
1455:Generated_Source\PSoC4/Capsense_CSHL.c ****             #if (Capsense_IS_NON_DIPLEX_SLIDER)
1456:Generated_Source\PSoC4/Capsense_CSHL.c ****                 if((biggestCtrdSize >= 2u) || ((biggestCtrdSize == 1u) && (diplex == 0u)))
1457:Generated_Source\PSoC4/Capsense_CSHL.c ****             #else
1458:Generated_Source\PSoC4/Capsense_CSHL.c ****                 if(biggestCtrdSize >= 2u)
1459:Generated_Source\PSoC4/Capsense_CSHL.c ****             #endif /* (Capsense_IS_NON_DIPLEX_SLIDER) */
1460:Generated_Source\PSoC4/Capsense_CSHL.c ****                 {
1461:Generated_Source\PSoC4/Capsense_CSHL.c ****                     for (i = biggestCtrdStartPos; i < (biggestCtrdStartPos + biggestCtrdSize); i++)
1462:Generated_Source\PSoC4/Capsense_CSHL.c ****                     {
1463:Generated_Source\PSoC4/Capsense_CSHL.c ****                         #if (Capsense_IS_DIPLEX_SLIDER && Capsense_IS_NON_DIPLEX_SLIDER)
1464:Generated_Source\PSoC4/Capsense_CSHL.c ****                             if (diplex == 0u)
1465:Generated_Source\PSoC4/Capsense_CSHL.c ****                             {
1466:Generated_Source\PSoC4/Capsense_CSHL.c ****                                 curPos = i;
1467:Generated_Source\PSoC4/Capsense_CSHL.c ****                             }
1468:Generated_Source\PSoC4/Capsense_CSHL.c ****                             else
1469:Generated_Source\PSoC4/Capsense_CSHL.c ****                             {
1470:Generated_Source\PSoC4/Capsense_CSHL.c ****                                 curPos = diplex[i];
1471:Generated_Source\PSoC4/Capsense_CSHL.c ****                             }
1472:Generated_Source\PSoC4/Capsense_CSHL.c ****                         #elif (Capsense_IS_DIPLEX_SLIDER)
1473:Generated_Source\PSoC4/Capsense_CSHL.c ****                             curPos = diplex[i];
1474:Generated_Source\PSoC4/Capsense_CSHL.c ****                         #endif /* (Capsense_IS_DIPLEX_SLIDER && Capsense_IS_NON_DIPLEX_SLIDER) */
1475:Generated_Source\PSoC4/Capsense_CSHL.c ****                         /* Looking for greater element within centroid */
1476:Generated_Source\PSoC4/Capsense_CSHL.c ****                         if(startOfSlider[curPos] > fingerThreshold)
1477:Generated_Source\PSoC4/Capsense_CSHL.c ****                         {
1478:Generated_Source\PSoC4/Capsense_CSHL.c ****                             if(startOfSlider[curPos] > temp)
1479:Generated_Source\PSoC4/Capsense_CSHL.c ****                             {
1480:Generated_Source\PSoC4/Capsense_CSHL.c ****                                 maximum = i;
1481:Generated_Source\PSoC4/Capsense_CSHL.c ****                                 temp = startOfSlider[curPos];
1482:Generated_Source\PSoC4/Capsense_CSHL.c ****                             }
ARM GAS  C:\Users\ROUSSMA\AppData\Local\Temp\ccw7ZO0v.s 			page 61


1483:Generated_Source\PSoC4/Capsense_CSHL.c ****                         }
1484:Generated_Source\PSoC4/Capsense_CSHL.c ****                     }
1485:Generated_Source\PSoC4/Capsense_CSHL.c ****                 }
1486:Generated_Source\PSoC4/Capsense_CSHL.c ****         #else
1487:Generated_Source\PSoC4/Capsense_CSHL.c ****             for (i = 0u; i < count; i++)
1488:Generated_Source\PSoC4/Capsense_CSHL.c ****             {
1489:Generated_Source\PSoC4/Capsense_CSHL.c ****                 /* Looking for greater element within centroid */
1490:Generated_Source\PSoC4/Capsense_CSHL.c ****                 if(startOfSlider[i] > fingerThreshold)
1491:Generated_Source\PSoC4/Capsense_CSHL.c ****                 {
1492:Generated_Source\PSoC4/Capsense_CSHL.c ****                     if(startOfSlider[i] > temp)
1493:Generated_Source\PSoC4/Capsense_CSHL.c ****                     {
1494:Generated_Source\PSoC4/Capsense_CSHL.c ****                         maximum = i;
1495:Generated_Source\PSoC4/Capsense_CSHL.c ****                         temp = startOfSlider[i];
1496:Generated_Source\PSoC4/Capsense_CSHL.c ****                     }
1497:Generated_Source\PSoC4/Capsense_CSHL.c ****                 }
1498:Generated_Source\PSoC4/Capsense_CSHL.c ****             }
1499:Generated_Source\PSoC4/Capsense_CSHL.c ****         #endif /* (Capsense_IS_DIPLEX_SLIDER) */
1500:Generated_Source\PSoC4/Capsense_CSHL.c ****         return (maximum);
1501:Generated_Source\PSoC4/Capsense_CSHL.c ****     }
1502:Generated_Source\PSoC4/Capsense_CSHL.c **** 
1503:Generated_Source\PSoC4/Capsense_CSHL.c **** 
1504:Generated_Source\PSoC4/Capsense_CSHL.c ****     /*******************************************************************************
1505:Generated_Source\PSoC4/Capsense_CSHL.c ****     * Function Name: Capsense_CalcCentroid
1506:Generated_Source\PSoC4/Capsense_CSHL.c ****     ********************************************************************************
1507:Generated_Source\PSoC4/Capsense_CSHL.c ****     *
1508:Generated_Source\PSoC4/Capsense_CSHL.c ****     * Summary:
1509:Generated_Source\PSoC4/Capsense_CSHL.c ****     *  Returns a position value calculated according to the index of the maximum element and API
1510:Generated_Source\PSoC4/Capsense_CSHL.c ****     *  resolution.
1511:Generated_Source\PSoC4/Capsense_CSHL.c ****     *
1512:Generated_Source\PSoC4/Capsense_CSHL.c ****     * Parameters:
1513:Generated_Source\PSoC4/Capsense_CSHL.c ****     *  type:  widget type.
1514:Generated_Source\PSoC4/Capsense_CSHL.c ****     *  diplex:  pointer to diplex table.
1515:Generated_Source\PSoC4/Capsense_CSHL.c ****     *  maximum:  Index of maximum element within centroid.
1516:Generated_Source\PSoC4/Capsense_CSHL.c ****     *  offset:   Start index of centroid in Capsense_sensorSignal[] array.
1517:Generated_Source\PSoC4/Capsense_CSHL.c ****     *  count:    Number of elements within centroid.
1518:Generated_Source\PSoC4/Capsense_CSHL.c ****     *  resolution:  multiplicator calculated according to centroid type and
1519:Generated_Source\PSoC4/Capsense_CSHL.c ****     *  API resolution.
1520:Generated_Source\PSoC4/Capsense_CSHL.c ****     *  noiseThreshold:  Noise threshold.
1521:Generated_Source\PSoC4/Capsense_CSHL.c ****     *
1522:Generated_Source\PSoC4/Capsense_CSHL.c ****     * Return:
1523:Generated_Source\PSoC4/Capsense_CSHL.c ****     *  Returns a position value of the slider.
1524:Generated_Source\PSoC4/Capsense_CSHL.c ****     *
1525:Generated_Source\PSoC4/Capsense_CSHL.c ****     * Side Effects:
1526:Generated_Source\PSoC4/Capsense_CSHL.c ****     *  None
1527:Generated_Source\PSoC4/Capsense_CSHL.c ****     *
1528:Generated_Source\PSoC4/Capsense_CSHL.c ****     *******************************************************************************/
1529:Generated_Source\PSoC4/Capsense_CSHL.c **** #if (Capsense_TOTAL_TRACKPAD_GESTURES_COUNT > 0u)
1530:Generated_Source\PSoC4/Capsense_CSHL.c ****     uint8 Capsense_CalcCentroid(uint8 maximum, uint8 offset,
1531:Generated_Source\PSoC4/Capsense_CSHL.c ****                                         uint8 count, uint32 resolution, uint8 noiseThreshold)
1532:Generated_Source\PSoC4/Capsense_CSHL.c **** #else
1533:Generated_Source\PSoC4/Capsense_CSHL.c ****     uint8 Capsense_CalcCentroid(uint8 maximum, uint8 offset,
1534:Generated_Source\PSoC4/Capsense_CSHL.c ****                                         uint8 count, uint16 resolution, uint8 noiseThreshold)
1535:Generated_Source\PSoC4/Capsense_CSHL.c **** #endif /* (Capsense_TOTAL_TRACKPAD_GESTURES_COUNT > 0u) */
1536:Generated_Source\PSoC4/Capsense_CSHL.c ****     {
1537:Generated_Source\PSoC4/Capsense_CSHL.c ****         #if ((Capsense_TOTAL_LINEAR_SLIDERS_COUNT > 0u) || (Capsense_TOTAL_TOUCH_PADS_BASIC_COUNT >
1538:Generated_Source\PSoC4/Capsense_CSHL.c ****             uint8 posPrev;
1539:Generated_Source\PSoC4/Capsense_CSHL.c ****             uint8 posNext;
ARM GAS  C:\Users\ROUSSMA\AppData\Local\Temp\ccw7ZO0v.s 			page 62


1540:Generated_Source\PSoC4/Capsense_CSHL.c ****         #endif /* ((Capsense_TOTAL_LINEAR_SLIDERS_COUNT>0u) || (Capsense_TOTAL_TOUCH_PADS_BASIC_COU
1541:Generated_Source\PSoC4/Capsense_CSHL.c **** 
1542:Generated_Source\PSoC4/Capsense_CSHL.c ****         /* Helps during centroid calculation */
1543:Generated_Source\PSoC4/Capsense_CSHL.c ****         #if (Capsense_TOTAL_CENTROIDS_BASIC_COUNT)
1544:Generated_Source\PSoC4/Capsense_CSHL.c ****             static uint8 Capsense_centroid[3u];
1545:Generated_Source\PSoC4/Capsense_CSHL.c ****         #endif  /* (Capsense_TOTAL_CENTROIDS_BASIC_COUNT) */
1546:Generated_Source\PSoC4/Capsense_CSHL.c **** 
1547:Generated_Source\PSoC4/Capsense_CSHL.c ****         #if (Capsense_IS_DIPLEX_SLIDER)
1548:Generated_Source\PSoC4/Capsense_CSHL.c ****             uint8 pos;
1549:Generated_Source\PSoC4/Capsense_CSHL.c ****         #endif /* (Capsense_IS_DIPLEX_SLIDER) */
1550:Generated_Source\PSoC4/Capsense_CSHL.c **** 
1551:Generated_Source\PSoC4/Capsense_CSHL.c ****         uint8 position;
1552:Generated_Source\PSoC4/Capsense_CSHL.c ****         uint32 numerator;
1553:Generated_Source\PSoC4/Capsense_CSHL.c ****         int32 denominator;
1554:Generated_Source\PSoC4/Capsense_CSHL.c **** 
1555:Generated_Source\PSoC4/Capsense_CSHL.c ****         uint8  *startOfSlider = &Capsense_sensorSignal[offset];
1556:Generated_Source\PSoC4/Capsense_CSHL.c **** 
1557:Generated_Source\PSoC4/Capsense_CSHL.c ****         #if ((Capsense_TOTAL_LINEAR_SLIDERS_COUNT > 0u) || (Capsense_TOTAL_TOUCH_PADS_BASIC_COUNT >
1558:Generated_Source\PSoC4/Capsense_CSHL.c ****             posPrev = 0u;
1559:Generated_Source\PSoC4/Capsense_CSHL.c ****         #endif /* ((Capsense_TOTAL_LINEAR_SLIDERS_COUNT>0u) || (Capsense_TOTAL_TOUCH_PADS_BASIC_COU
1560:Generated_Source\PSoC4/Capsense_CSHL.c **** 
1561:Generated_Source\PSoC4/Capsense_CSHL.c ****         #if (Capsense_ADD_SLIDER_TYPE)
1562:Generated_Source\PSoC4/Capsense_CSHL.c ****             if(type == Capsense_TYPE_RADIAL_SLIDER)
1563:Generated_Source\PSoC4/Capsense_CSHL.c ****             {
1564:Generated_Source\PSoC4/Capsense_CSHL.c ****         #endif /* (Capsense_ADD_SLIDER_TYPE) */
1565:Generated_Source\PSoC4/Capsense_CSHL.c **** 
1566:Generated_Source\PSoC4/Capsense_CSHL.c ****             #if (Capsense_TOTAL_RADIAL_SLIDERS_COUNT > 0u)
1567:Generated_Source\PSoC4/Capsense_CSHL.c ****                 /* Copy Signal to the centroid array */
1568:Generated_Source\PSoC4/Capsense_CSHL.c ****                 Capsense_centroid[Capsense_POS] = startOfSlider[maximum];
1569:Generated_Source\PSoC4/Capsense_CSHL.c **** 
1570:Generated_Source\PSoC4/Capsense_CSHL.c ****                 /* Check borders for ROTARY Slider */
1571:Generated_Source\PSoC4/Capsense_CSHL.c ****                 if (maximum == 0u)                   /* Start of centroid */
1572:Generated_Source\PSoC4/Capsense_CSHL.c ****                 {
1573:Generated_Source\PSoC4/Capsense_CSHL.c ****                     Capsense_centroid[Capsense_POS_PREV] = startOfSlider[count - 1u];
1574:Generated_Source\PSoC4/Capsense_CSHL.c ****                     Capsense_centroid[Capsense_POS_NEXT] = startOfSlider[1u];
1575:Generated_Source\PSoC4/Capsense_CSHL.c ****                 }
1576:Generated_Source\PSoC4/Capsense_CSHL.c ****                 else if (maximum == (count - 1u))    /* End of centroid */
1577:Generated_Source\PSoC4/Capsense_CSHL.c ****                 {
1578:Generated_Source\PSoC4/Capsense_CSHL.c ****                     Capsense_centroid[Capsense_POS_PREV] = startOfSlider[maximum - 1u];
1579:Generated_Source\PSoC4/Capsense_CSHL.c ****                     Capsense_centroid[Capsense_POS_NEXT] = startOfSlider[0u];
1580:Generated_Source\PSoC4/Capsense_CSHL.c ****                 }
1581:Generated_Source\PSoC4/Capsense_CSHL.c ****                 else                                /* Not first Not last */
1582:Generated_Source\PSoC4/Capsense_CSHL.c ****                 {
1583:Generated_Source\PSoC4/Capsense_CSHL.c ****                     Capsense_centroid[Capsense_POS_PREV] = startOfSlider[maximum - 1u];
1584:Generated_Source\PSoC4/Capsense_CSHL.c ****                     Capsense_centroid[Capsense_POS_NEXT] = startOfSlider[maximum + 1u];
1585:Generated_Source\PSoC4/Capsense_CSHL.c ****                 }
1586:Generated_Source\PSoC4/Capsense_CSHL.c ****             #endif /* (Capsense_TOTAL_RADIAL_SLIDERS_COUNT > 0u) */
1587:Generated_Source\PSoC4/Capsense_CSHL.c **** 
1588:Generated_Source\PSoC4/Capsense_CSHL.c ****         #if (Capsense_ADD_SLIDER_TYPE)
1589:Generated_Source\PSoC4/Capsense_CSHL.c ****             }
1590:Generated_Source\PSoC4/Capsense_CSHL.c ****             else
1591:Generated_Source\PSoC4/Capsense_CSHL.c ****             {
1592:Generated_Source\PSoC4/Capsense_CSHL.c ****         #endif /* (Capsense_ADD_SLIDER_TYPE) */
1593:Generated_Source\PSoC4/Capsense_CSHL.c **** 
1594:Generated_Source\PSoC4/Capsense_CSHL.c ****             #if ((Capsense_TOTAL_LINEAR_SLIDERS_COUNT > 0u) || (Capsense_TOTAL_TOUCH_PADS_BASIC_COU
1595:Generated_Source\PSoC4/Capsense_CSHL.c ****                 #if (Capsense_IS_DIPLEX_SLIDER && Capsense_IS_NON_DIPLEX_SLIDER)
1596:Generated_Source\PSoC4/Capsense_CSHL.c ****                     /* Calculate next and previous near to maximum */
ARM GAS  C:\Users\ROUSSMA\AppData\Local\Temp\ccw7ZO0v.s 			page 63


1597:Generated_Source\PSoC4/Capsense_CSHL.c ****                     if(diplex == 0u)
1598:Generated_Source\PSoC4/Capsense_CSHL.c ****                     {
1599:Generated_Source\PSoC4/Capsense_CSHL.c ****                         pos     = maximum;
1600:Generated_Source\PSoC4/Capsense_CSHL.c ****                         posPrev = maximum - 1u;
1601:Generated_Source\PSoC4/Capsense_CSHL.c ****                         posNext = maximum + 1u;
1602:Generated_Source\PSoC4/Capsense_CSHL.c ****                     }
1603:Generated_Source\PSoC4/Capsense_CSHL.c ****                     else
1604:Generated_Source\PSoC4/Capsense_CSHL.c ****                     {
1605:Generated_Source\PSoC4/Capsense_CSHL.c ****                         pos     = diplex[maximum];
1606:Generated_Source\PSoC4/Capsense_CSHL.c ****                         posPrev = diplex[maximum - 1u];
1607:Generated_Source\PSoC4/Capsense_CSHL.c ****                         posNext = diplex[maximum + 1u];
1608:Generated_Source\PSoC4/Capsense_CSHL.c ****                         count <<= 1u;
1609:Generated_Source\PSoC4/Capsense_CSHL.c ****                     }
1610:Generated_Source\PSoC4/Capsense_CSHL.c ****                 #elif (Capsense_IS_DIPLEX_SLIDER)
1611:Generated_Source\PSoC4/Capsense_CSHL.c ****                     /* Calculate next and previous near to maximum */
1612:Generated_Source\PSoC4/Capsense_CSHL.c ****                     pos     = diplex[maximum];
1613:Generated_Source\PSoC4/Capsense_CSHL.c ****                     posPrev = diplex[maximum - 1u];
1614:Generated_Source\PSoC4/Capsense_CSHL.c ****                     posNext = diplex[maximum + 1u];
1615:Generated_Source\PSoC4/Capsense_CSHL.c ****                     count <<= 1u;
1616:Generated_Source\PSoC4/Capsense_CSHL.c ****                 #else
1617:Generated_Source\PSoC4/Capsense_CSHL.c ****                     /* Calculate next and previous near to maximum */
1618:Generated_Source\PSoC4/Capsense_CSHL.c ****                     if (maximum >= 1u)
1619:Generated_Source\PSoC4/Capsense_CSHL.c ****                     {
1620:Generated_Source\PSoC4/Capsense_CSHL.c ****                         posPrev = maximum - 1u;
1621:Generated_Source\PSoC4/Capsense_CSHL.c ****                     }
1622:Generated_Source\PSoC4/Capsense_CSHL.c ****                     posNext = maximum + 1u;
1623:Generated_Source\PSoC4/Capsense_CSHL.c ****                 #endif /* (Capsense_IS_DIPLEX_SLIDER && Capsense_IS_NON_DIPLEX_SLIDER) */
1624:Generated_Source\PSoC4/Capsense_CSHL.c **** 
1625:Generated_Source\PSoC4/Capsense_CSHL.c ****                 /* Copy Signal to the centroid array */
1626:Generated_Source\PSoC4/Capsense_CSHL.c ****                 #if (Capsense_IS_DIPLEX_SLIDER)
1627:Generated_Source\PSoC4/Capsense_CSHL.c ****                     Capsense_centroid[Capsense_POS] = startOfSlider[pos];
1628:Generated_Source\PSoC4/Capsense_CSHL.c ****                 #else
1629:Generated_Source\PSoC4/Capsense_CSHL.c ****                     Capsense_centroid[Capsense_POS] = startOfSlider[maximum];
1630:Generated_Source\PSoC4/Capsense_CSHL.c ****                 #endif /* (Capsense_IS_DIPLEX_SLIDER) */
1631:Generated_Source\PSoC4/Capsense_CSHL.c **** 
1632:Generated_Source\PSoC4/Capsense_CSHL.c ****                 /* Check borders for LINEAR Slider */
1633:Generated_Source\PSoC4/Capsense_CSHL.c ****                 if (maximum == 0u)                   /* Start of centroid */
1634:Generated_Source\PSoC4/Capsense_CSHL.c ****                 {
1635:Generated_Source\PSoC4/Capsense_CSHL.c ****                     Capsense_centroid[Capsense_POS_PREV] = 0u;
1636:Generated_Source\PSoC4/Capsense_CSHL.c ****                     Capsense_centroid[Capsense_POS_NEXT] = startOfSlider[posNext];
1637:Generated_Source\PSoC4/Capsense_CSHL.c ****                 }
1638:Generated_Source\PSoC4/Capsense_CSHL.c ****                 else if (maximum == ((count) - 1u)) /* End of centroid */
1639:Generated_Source\PSoC4/Capsense_CSHL.c ****                 {
1640:Generated_Source\PSoC4/Capsense_CSHL.c ****                     Capsense_centroid[Capsense_POS_PREV] = startOfSlider[posPrev];
1641:Generated_Source\PSoC4/Capsense_CSHL.c ****                     Capsense_centroid[Capsense_POS_NEXT] = 0u;
1642:Generated_Source\PSoC4/Capsense_CSHL.c ****                 }
1643:Generated_Source\PSoC4/Capsense_CSHL.c ****                 else                                /* Not first Not last */
1644:Generated_Source\PSoC4/Capsense_CSHL.c ****                 {
1645:Generated_Source\PSoC4/Capsense_CSHL.c ****                     Capsense_centroid[Capsense_POS_PREV] = startOfSlider[posPrev];
1646:Generated_Source\PSoC4/Capsense_CSHL.c ****                     Capsense_centroid[Capsense_POS_NEXT] = startOfSlider[posNext];
1647:Generated_Source\PSoC4/Capsense_CSHL.c ****                 }
1648:Generated_Source\PSoC4/Capsense_CSHL.c ****             #endif /* ((Capsense_TOTAL_LINEAR_SLIDERS_COUNT>0u)||(Capsense_TOTAL_TOUCH_PADS_BASIC_C
1649:Generated_Source\PSoC4/Capsense_CSHL.c **** 
1650:Generated_Source\PSoC4/Capsense_CSHL.c ****         #if (Capsense_ADD_SLIDER_TYPE)
1651:Generated_Source\PSoC4/Capsense_CSHL.c ****             }
1652:Generated_Source\PSoC4/Capsense_CSHL.c ****         #endif /* (Capsense_ADD_SLIDER_TYPE) */
1653:Generated_Source\PSoC4/Capsense_CSHL.c **** 
ARM GAS  C:\Users\ROUSSMA\AppData\Local\Temp\ccw7ZO0v.s 			page 64


1654:Generated_Source\PSoC4/Capsense_CSHL.c ****         /* Subtract noiseThreshold */
1655:Generated_Source\PSoC4/Capsense_CSHL.c ****         if(Capsense_centroid[Capsense_POS_PREV] > noiseThreshold)
1656:Generated_Source\PSoC4/Capsense_CSHL.c ****         {
1657:Generated_Source\PSoC4/Capsense_CSHL.c ****             Capsense_centroid[Capsense_POS_PREV] -= noiseThreshold;
1658:Generated_Source\PSoC4/Capsense_CSHL.c ****         }
1659:Generated_Source\PSoC4/Capsense_CSHL.c ****         else
1660:Generated_Source\PSoC4/Capsense_CSHL.c ****         {
1661:Generated_Source\PSoC4/Capsense_CSHL.c ****             Capsense_centroid[Capsense_POS_PREV] = 0u;
1662:Generated_Source\PSoC4/Capsense_CSHL.c ****         }
1663:Generated_Source\PSoC4/Capsense_CSHL.c **** 
1664:Generated_Source\PSoC4/Capsense_CSHL.c ****         /* Maximum always greater than fingerThreshold, so greater than noiseThreshold */
1665:Generated_Source\PSoC4/Capsense_CSHL.c ****         Capsense_centroid[Capsense_POS] -= noiseThreshold;
1666:Generated_Source\PSoC4/Capsense_CSHL.c **** 
1667:Generated_Source\PSoC4/Capsense_CSHL.c ****         /* Subtract noiseThreshold */
1668:Generated_Source\PSoC4/Capsense_CSHL.c ****         if(Capsense_centroid[Capsense_POS_NEXT] > noiseThreshold)
1669:Generated_Source\PSoC4/Capsense_CSHL.c ****         {
1670:Generated_Source\PSoC4/Capsense_CSHL.c ****             Capsense_centroid[Capsense_POS_NEXT] -= noiseThreshold;
1671:Generated_Source\PSoC4/Capsense_CSHL.c ****         }
1672:Generated_Source\PSoC4/Capsense_CSHL.c ****         else
1673:Generated_Source\PSoC4/Capsense_CSHL.c ****         {
1674:Generated_Source\PSoC4/Capsense_CSHL.c ****             Capsense_centroid[Capsense_POS_NEXT] = 0u;
1675:Generated_Source\PSoC4/Capsense_CSHL.c ****         }
1676:Generated_Source\PSoC4/Capsense_CSHL.c **** 
1677:Generated_Source\PSoC4/Capsense_CSHL.c **** 
1678:Generated_Source\PSoC4/Capsense_CSHL.c ****         /* Si+1 - Si-1 */
1679:Generated_Source\PSoC4/Capsense_CSHL.c ****         numerator = (uint32) Capsense_centroid[Capsense_POS_NEXT] -
1680:Generated_Source\PSoC4/Capsense_CSHL.c ****                     (uint32) Capsense_centroid[Capsense_POS_PREV];
1681:Generated_Source\PSoC4/Capsense_CSHL.c **** 
1682:Generated_Source\PSoC4/Capsense_CSHL.c ****         /* Si+1 + Si + Si-1 */
1683:Generated_Source\PSoC4/Capsense_CSHL.c ****         denominator = (int32) Capsense_centroid[Capsense_POS_PREV] +
1684:Generated_Source\PSoC4/Capsense_CSHL.c ****                       (int32) Capsense_centroid[Capsense_POS] +
1685:Generated_Source\PSoC4/Capsense_CSHL.c ****                       (int32) Capsense_centroid[Capsense_POS_NEXT];
1686:Generated_Source\PSoC4/Capsense_CSHL.c **** 
1687:Generated_Source\PSoC4/Capsense_CSHL.c ****         /* (numerator/denominator) + maximum */
1688:Generated_Source\PSoC4/Capsense_CSHL.c ****         denominator = (((int32)(uint32)((uint32)numerator << 8u)/denominator) + (int32)(uint32)((ui
1689:Generated_Source\PSoC4/Capsense_CSHL.c **** 
1690:Generated_Source\PSoC4/Capsense_CSHL.c ****         #if(Capsense_TOTAL_RADIAL_SLIDERS_COUNT > 0u)
1691:Generated_Source\PSoC4/Capsense_CSHL.c ****             /* Only required for RADIAL Slider */
1692:Generated_Source\PSoC4/Capsense_CSHL.c ****             if(denominator < 0)
1693:Generated_Source\PSoC4/Capsense_CSHL.c ****             {
1694:Generated_Source\PSoC4/Capsense_CSHL.c ****                 denominator += (int32)((uint16)((uint16) count << 8u));
1695:Generated_Source\PSoC4/Capsense_CSHL.c ****             }
1696:Generated_Source\PSoC4/Capsense_CSHL.c ****         #endif /* (Capsense_TOTAL_RADIAL_SLIDERS_COUNT > 0u) */
1697:Generated_Source\PSoC4/Capsense_CSHL.c **** 
1698:Generated_Source\PSoC4/Capsense_CSHL.c ****         denominator *= (int16)resolution;
1699:Generated_Source\PSoC4/Capsense_CSHL.c **** 
1700:Generated_Source\PSoC4/Capsense_CSHL.c ****         /* Round result and put it to uint8 */
1701:Generated_Source\PSoC4/Capsense_CSHL.c ****         position = ((uint8) HI16((uint32)denominator + Capsense_CENTROID_ROUND_VALUE));
1702:Generated_Source\PSoC4/Capsense_CSHL.c **** 
1703:Generated_Source\PSoC4/Capsense_CSHL.c ****         return (position);
1704:Generated_Source\PSoC4/Capsense_CSHL.c ****     }
1705:Generated_Source\PSoC4/Capsense_CSHL.c **** #endif /* (Capsense_TOTAL_CENTROIDS_BASIC_COUNT) */
1706:Generated_Source\PSoC4/Capsense_CSHL.c **** 
1707:Generated_Source\PSoC4/Capsense_CSHL.c **** 
1708:Generated_Source\PSoC4/Capsense_CSHL.c **** #if((Capsense_TOTAL_RADIAL_SLIDERS_COUNT > 0u) || (Capsense_TOTAL_LINEAR_SLIDERS_COUNT > 0u))
1709:Generated_Source\PSoC4/Capsense_CSHL.c ****     /*******************************************************************************
1710:Generated_Source\PSoC4/Capsense_CSHL.c ****     * Function Name: Capsense_GetCentroidPos
ARM GAS  C:\Users\ROUSSMA\AppData\Local\Temp\ccw7ZO0v.s 			page 65


1711:Generated_Source\PSoC4/Capsense_CSHL.c ****     ********************************************************************************
1712:Generated_Source\PSoC4/Capsense_CSHL.c ****     *
1713:Generated_Source\PSoC4/Capsense_CSHL.c ****     * Summary:
1714:Generated_Source\PSoC4/Capsense_CSHL.c ****     *  Checks the Capsense_Signal[ ] array for a centroid within
1715:Generated_Source\PSoC4/Capsense_CSHL.c ****     *  a slider specified range. The centroid position is calculated according to the resolution
1716:Generated_Source\PSoC4/Capsense_CSHL.c ****     *  specified in the CapSense customizer. The position filters are applied to the
1717:Generated_Source\PSoC4/Capsense_CSHL.c ****     *  result if enabled.
1718:Generated_Source\PSoC4/Capsense_CSHL.c ****     *
1719:Generated_Source\PSoC4/Capsense_CSHL.c ****     * Parameters:
1720:Generated_Source\PSoC4/Capsense_CSHL.c ****     *  widget:  Widget number.
1721:Generated_Source\PSoC4/Capsense_CSHL.c ****     *  For every linear slider widget there are defines in this format:
1722:Generated_Source\PSoC4/Capsense_CSHL.c ****     *  #define Capsense_"widget_name"__LS           5
1723:Generated_Source\PSoC4/Capsense_CSHL.c ****     *
1724:Generated_Source\PSoC4/Capsense_CSHL.c ****     * Return:
1725:Generated_Source\PSoC4/Capsense_CSHL.c ****     *  Returns a position value of the linear slider.
1726:Generated_Source\PSoC4/Capsense_CSHL.c ****     *
1727:Generated_Source\PSoC4/Capsense_CSHL.c ****     * Global Variables:
1728:Generated_Source\PSoC4/Capsense_CSHL.c ****     *  None
1729:Generated_Source\PSoC4/Capsense_CSHL.c ****     *
1730:Generated_Source\PSoC4/Capsense_CSHL.c ****     * Side Effects:
1731:Generated_Source\PSoC4/Capsense_CSHL.c ****     *  If any sensor within the slider widget is active, the function returns values
1732:Generated_Source\PSoC4/Capsense_CSHL.c ****     *  from zero to the API resolution value set in the CapSense customizer. If no
1733:Generated_Source\PSoC4/Capsense_CSHL.c ****     *  sensors are active, the function returns 0xFFFF. If an error occurs during
1734:Generated_Source\PSoC4/Capsense_CSHL.c ****     *  execution of the centroid/diplexing algorithm, the function returns 0xFFFF.
1735:Generated_Source\PSoC4/Capsense_CSHL.c ****     *  There are no checks of the widget type argument provided to this function.
1736:Generated_Source\PSoC4/Capsense_CSHL.c ****     *  The unproper widget type provided will cause unexpected position calculations.
1737:Generated_Source\PSoC4/Capsense_CSHL.c ****     *
1738:Generated_Source\PSoC4/Capsense_CSHL.c ****     * Note:
1739:Generated_Source\PSoC4/Capsense_CSHL.c ****     *  If noise counts on the slider segments are greater than the noise
1740:Generated_Source\PSoC4/Capsense_CSHL.c ****     *  threshold, this subroutine may generate a false centroid result. The noise
1741:Generated_Source\PSoC4/Capsense_CSHL.c ****     *  threshold should be set carefully (high enough above the noise level) so
1742:Generated_Source\PSoC4/Capsense_CSHL.c ****     *  that noise will not generate a false centroid.
1743:Generated_Source\PSoC4/Capsense_CSHL.c ****     *******************************************************************************/
1744:Generated_Source\PSoC4/Capsense_CSHL.c ****     uint16 Capsense_GetCentroidPos(uint32 widget)
1745:Generated_Source\PSoC4/Capsense_CSHL.c ****     {
1746:Generated_Source\PSoC4/Capsense_CSHL.c ****         #if (Capsense_IS_DIPLEX_SLIDER)
1747:Generated_Source\PSoC4/Capsense_CSHL.c ****             const uint8 *diplex;
1748:Generated_Source\PSoC4/Capsense_CSHL.c ****         #endif /* (Capsense_IS_DIPLEX_SLIDER) */
1749:Generated_Source\PSoC4/Capsense_CSHL.c **** 
1750:Generated_Source\PSoC4/Capsense_CSHL.c ****         #if (0u != Capsense_LINEAR_SLIDERS_POS_FILTERS_MASK)
1751:Generated_Source\PSoC4/Capsense_CSHL.c ****             uint8 posIndex;
1752:Generated_Source\PSoC4/Capsense_CSHL.c ****             uint8 firstTimeIndex = Capsense_posFiltersData[widget];
1753:Generated_Source\PSoC4/Capsense_CSHL.c ****             uint8 posFiltersMask = Capsense_posFiltersMask[widget];
1754:Generated_Source\PSoC4/Capsense_CSHL.c ****         #endif /* (0u != Capsense_LINEAR_SLIDERS_POS_FILTERS_MASK) */
1755:Generated_Source\PSoC4/Capsense_CSHL.c **** 
1756:Generated_Source\PSoC4/Capsense_CSHL.c ****         #if ((0u != (Capsense_MEDIAN_FILTER & Capsense_LINEAR_SLIDERS_POS_FILTERS_MASK)) || \
1757:Generated_Source\PSoC4/Capsense_CSHL.c ****              (0u != (Capsense_AVERAGING_FILTER & Capsense_LINEAR_SLIDERS_POS_FILTERS_MASK)))
1758:Generated_Source\PSoC4/Capsense_CSHL.c ****             uint8 tempPos;
1759:Generated_Source\PSoC4/Capsense_CSHL.c ****         #endif /* ((0u != (Capsense_MEDIAN_FILTER & Capsense_LINEAR_SLIDERS_POS_FILTERS_MASK)) || \
1760:Generated_Source\PSoC4/Capsense_CSHL.c ****                *   (0u != (Capsense_AVERAGING_FILTER & Capsense_LINEAR_SLIDERS_POS_FILTERS_MASK)))
1761:Generated_Source\PSoC4/Capsense_CSHL.c ****                */
1762:Generated_Source\PSoC4/Capsense_CSHL.c **** 
1763:Generated_Source\PSoC4/Capsense_CSHL.c ****         uint8 maximum;
1764:Generated_Source\PSoC4/Capsense_CSHL.c ****         uint16 position;
1765:Generated_Source\PSoC4/Capsense_CSHL.c ****         uint8 offset = Capsense_rawDataIndex[widget];
1766:Generated_Source\PSoC4/Capsense_CSHL.c ****         uint8 count = Capsense_numberOfSensors[widget];
1767:Generated_Source\PSoC4/Capsense_CSHL.c **** 
ARM GAS  C:\Users\ROUSSMA\AppData\Local\Temp\ccw7ZO0v.s 			page 66


1768:Generated_Source\PSoC4/Capsense_CSHL.c ****         #if (Capsense_IS_DIPLEX_SLIDER)
1769:Generated_Source\PSoC4/Capsense_CSHL.c ****             if(widget < Capsense_TOTAL_DIPLEXED_SLIDERS_COUNT)
1770:Generated_Source\PSoC4/Capsense_CSHL.c ****             {
1771:Generated_Source\PSoC4/Capsense_CSHL.c ****                 maximum = Capsense_diplexTable[widget];
1772:Generated_Source\PSoC4/Capsense_CSHL.c ****                 diplex = &Capsense_diplexTable[maximum];
1773:Generated_Source\PSoC4/Capsense_CSHL.c ****             }
1774:Generated_Source\PSoC4/Capsense_CSHL.c ****             else
1775:Generated_Source\PSoC4/Capsense_CSHL.c ****             {
1776:Generated_Source\PSoC4/Capsense_CSHL.c ****                 diplex = 0u;
1777:Generated_Source\PSoC4/Capsense_CSHL.c ****             }
1778:Generated_Source\PSoC4/Capsense_CSHL.c ****         #endif /* (Capsense_IS_DIPLEX_SLIDER) */
1779:Generated_Source\PSoC4/Capsense_CSHL.c **** 
1780:Generated_Source\PSoC4/Capsense_CSHL.c ****         /* Find Maximum within centroid */
1781:Generated_Source\PSoC4/Capsense_CSHL.c ****         #if (Capsense_IS_DIPLEX_SLIDER)
1782:Generated_Source\PSoC4/Capsense_CSHL.c ****             maximum = Capsense_FindMaximum(offset, count, (uint8)Capsense_fingerThreshold[widget], 
1783:Generated_Source\PSoC4/Capsense_CSHL.c ****         #else
1784:Generated_Source\PSoC4/Capsense_CSHL.c ****             maximum = Capsense_FindMaximum(offset, count, (uint8)Capsense_fingerThreshold[widget]);
1785:Generated_Source\PSoC4/Capsense_CSHL.c ****         #endif /* (Capsense_IS_DIPLEX_SLIDER) */
1786:Generated_Source\PSoC4/Capsense_CSHL.c **** 
1787:Generated_Source\PSoC4/Capsense_CSHL.c ****         if (maximum != 0xFFu)
1788:Generated_Source\PSoC4/Capsense_CSHL.c ****         {
1789:Generated_Source\PSoC4/Capsense_CSHL.c ****             /* Calculate centroid */
1790:Generated_Source\PSoC4/Capsense_CSHL.c ****             position = (uint16) Capsense_CalcCentroid(maximum,
1791:Generated_Source\PSoC4/Capsense_CSHL.c ****                          offset, count, Capsense_centroidMult[widget], Capsense_noiseThreshold[widg
1792:Generated_Source\PSoC4/Capsense_CSHL.c **** 
1793:Generated_Source\PSoC4/Capsense_CSHL.c ****             #if (0u != Capsense_LINEAR_SLIDERS_POS_FILTERS_MASK)
1794:Generated_Source\PSoC4/Capsense_CSHL.c ****                 /* Check if this linear slider has enabled filters */
1795:Generated_Source\PSoC4/Capsense_CSHL.c ****                 if (0u != (posFiltersMask & Capsense_ANY_POS_FILTER))
1796:Generated_Source\PSoC4/Capsense_CSHL.c ****                 {
1797:Generated_Source\PSoC4/Capsense_CSHL.c ****                     /* Calculate position to store filters data */
1798:Generated_Source\PSoC4/Capsense_CSHL.c ****                     posIndex  = firstTimeIndex + 1u;
1799:Generated_Source\PSoC4/Capsense_CSHL.c **** 
1800:Generated_Source\PSoC4/Capsense_CSHL.c ****                     if (0u == Capsense_posFiltersData[firstTimeIndex])
1801:Generated_Source\PSoC4/Capsense_CSHL.c ****                     {
1802:Generated_Source\PSoC4/Capsense_CSHL.c ****                         /* Init filters */
1803:Generated_Source\PSoC4/Capsense_CSHL.c ****                         Capsense_posFiltersData[posIndex] = (uint8) position;
1804:Generated_Source\PSoC4/Capsense_CSHL.c ****                         #if ((0u != (Capsense_MEDIAN_FILTER & \
1805:Generated_Source\PSoC4/Capsense_CSHL.c ****                                      Capsense_LINEAR_SLIDERS_POS_FILTERS_MASK)) || \
1806:Generated_Source\PSoC4/Capsense_CSHL.c ****                              (0u != (Capsense_AVERAGING_FILTER & \
1807:Generated_Source\PSoC4/Capsense_CSHL.c ****                                      Capsense_LINEAR_SLIDERS_POS_FILTERS_MASK)))
1808:Generated_Source\PSoC4/Capsense_CSHL.c **** 
1809:Generated_Source\PSoC4/Capsense_CSHL.c ****                             if ( (0u != (posFiltersMask & Capsense_MEDIAN_FILTER)) ||
1810:Generated_Source\PSoC4/Capsense_CSHL.c ****                                  (0u != (posFiltersMask & Capsense_AVERAGING_FILTER)) )
1811:Generated_Source\PSoC4/Capsense_CSHL.c ****                             {
1812:Generated_Source\PSoC4/Capsense_CSHL.c ****                                 Capsense_posFiltersData[posIndex + 1u] = (uint8) position;
1813:Generated_Source\PSoC4/Capsense_CSHL.c ****                             }
1814:Generated_Source\PSoC4/Capsense_CSHL.c ****                         #endif /* ((0u != (Capsense_MEDIAN_FILTER & \
1815:Generated_Source\PSoC4/Capsense_CSHL.c ****                                *           Capsense_LINEAR_SLIDERS_POS_FILTERS_MASK)) || \
1816:Generated_Source\PSoC4/Capsense_CSHL.c ****                                *   (0u != (Capsense_AVERAGING_FILTER & \
1817:Generated_Source\PSoC4/Capsense_CSHL.c ****                                *           Capsense_LINEAR_SLIDERS_POS_FILTERS_MASK)))
1818:Generated_Source\PSoC4/Capsense_CSHL.c ****                                */
1819:Generated_Source\PSoC4/Capsense_CSHL.c **** 
1820:Generated_Source\PSoC4/Capsense_CSHL.c ****                         Capsense_posFiltersData[firstTimeIndex] = 1u;
1821:Generated_Source\PSoC4/Capsense_CSHL.c ****                     }
1822:Generated_Source\PSoC4/Capsense_CSHL.c ****                     else
1823:Generated_Source\PSoC4/Capsense_CSHL.c ****                     {
1824:Generated_Source\PSoC4/Capsense_CSHL.c ****                         /* Do filtering */
ARM GAS  C:\Users\ROUSSMA\AppData\Local\Temp\ccw7ZO0v.s 			page 67


1825:Generated_Source\PSoC4/Capsense_CSHL.c ****                         #if (0u != (Capsense_MEDIAN_FILTER & Capsense_LINEAR_SLIDERS_POS_FILTERS_MA
1826:Generated_Source\PSoC4/Capsense_CSHL.c ****                             if (0u != (posFiltersMask & Capsense_MEDIAN_FILTER))
1827:Generated_Source\PSoC4/Capsense_CSHL.c ****                             {
1828:Generated_Source\PSoC4/Capsense_CSHL.c ****                                 tempPos = (uint8) position;
1829:Generated_Source\PSoC4/Capsense_CSHL.c ****                                 position = Capsense_MedianFilter(position,
1830:Generated_Source\PSoC4/Capsense_CSHL.c ****                                                                 (uint16)Capsense_posFiltersData[pos
1831:Generated_Source\PSoC4/Capsense_CSHL.c ****                                                                 (uint16)Capsense_posFiltersData[pos
1832:Generated_Source\PSoC4/Capsense_CSHL.c ****                                 Capsense_posFiltersData[posIndex + 1u] =
1833:Generated_Source\PSoC4/Capsense_CSHL.c ****                                                                              Capsense_posFiltersDat
1834:Generated_Source\PSoC4/Capsense_CSHL.c ****                                 Capsense_posFiltersData[posIndex] = tempPos;
1835:Generated_Source\PSoC4/Capsense_CSHL.c ****                             }
1836:Generated_Source\PSoC4/Capsense_CSHL.c ****                         #endif /*(0u != (Capsense_MEDIAN_FILTER &
1837:Generated_Source\PSoC4/Capsense_CSHL.c ****                                *         Capsense_LINEAR_SLIDERS_POS_FILTERS_MASK))
1838:Generated_Source\PSoC4/Capsense_CSHL.c ****                                */
1839:Generated_Source\PSoC4/Capsense_CSHL.c **** 
1840:Generated_Source\PSoC4/Capsense_CSHL.c ****                         #if(0u!=(Capsense_AVERAGING_FILTER & Capsense_LINEAR_SLIDERS_POS_FILTERS_MA
1841:Generated_Source\PSoC4/Capsense_CSHL.c ****                             if (0u != (posFiltersMask & Capsense_AVERAGING_FILTER))
1842:Generated_Source\PSoC4/Capsense_CSHL.c ****                             {
1843:Generated_Source\PSoC4/Capsense_CSHL.c ****                                 tempPos = (uint8) position;
1844:Generated_Source\PSoC4/Capsense_CSHL.c ****                                 position = Capsense_AveragingFilter(position,
1845:Generated_Source\PSoC4/Capsense_CSHL.c ****                                                                 (uint16)Capsense_posFiltersData[pos
1846:Generated_Source\PSoC4/Capsense_CSHL.c ****                                                                 (uint16)Capsense_posFiltersData[pos
1847:Generated_Source\PSoC4/Capsense_CSHL.c ****                                 Capsense_posFiltersData[posIndex+1u]=Capsense_posFiltersData[posInd
1848:Generated_Source\PSoC4/Capsense_CSHL.c ****                                 Capsense_posFiltersData[posIndex] = tempPos;
1849:Generated_Source\PSoC4/Capsense_CSHL.c ****                             }
1850:Generated_Source\PSoC4/Capsense_CSHL.c ****                         #endif /* (0u != (Capsense_AVERAGING_FILTER & \
1851:Generated_Source\PSoC4/Capsense_CSHL.c ****                                *           Capsense_LINEAR_SLIDERS_POS_FILTERS_MASK))
1852:Generated_Source\PSoC4/Capsense_CSHL.c ****                                */
1853:Generated_Source\PSoC4/Capsense_CSHL.c **** 
1854:Generated_Source\PSoC4/Capsense_CSHL.c ****                         #if (0u != (Capsense_IIR2_FILTER & Capsense_LINEAR_SLIDERS_POS_FILTERS_MASK
1855:Generated_Source\PSoC4/Capsense_CSHL.c ****                             if (0u != (posFiltersMask & Capsense_IIR2_FILTER))
1856:Generated_Source\PSoC4/Capsense_CSHL.c ****                             {
1857:Generated_Source\PSoC4/Capsense_CSHL.c ****                                 position = Capsense_IIR2Filter(position,
1858:Generated_Source\PSoC4/Capsense_CSHL.c ****                                                                     (uint16)Capsense_posFiltersData
1859:Generated_Source\PSoC4/Capsense_CSHL.c ****                                 Capsense_posFiltersData[posIndex] = (uint8) position;
1860:Generated_Source\PSoC4/Capsense_CSHL.c ****                             }
1861:Generated_Source\PSoC4/Capsense_CSHL.c ****                         #endif /* (0u != (Capsense_IIR2_FILTER & \
1862:Generated_Source\PSoC4/Capsense_CSHL.c ****                                *          Capsense_LINEAR_SLIDERS_POS_FILTERS_MASK))
1863:Generated_Source\PSoC4/Capsense_CSHL.c ****                                */
1864:Generated_Source\PSoC4/Capsense_CSHL.c **** 
1865:Generated_Source\PSoC4/Capsense_CSHL.c ****                         #if (0u != (Capsense_IIR4_FILTER & Capsense_LINEAR_SLIDERS_POS_FILTERS_MASK
1866:Generated_Source\PSoC4/Capsense_CSHL.c ****                             if (0u != (posFiltersMask & Capsense_IIR4_FILTER))
1867:Generated_Source\PSoC4/Capsense_CSHL.c ****                             {
1868:Generated_Source\PSoC4/Capsense_CSHL.c ****                                 position = Capsense_IIR4Filter(position,
1869:Generated_Source\PSoC4/Capsense_CSHL.c ****                                                                     (uint16)Capsense_posFiltersData
1870:Generated_Source\PSoC4/Capsense_CSHL.c ****                                 Capsense_posFiltersData[posIndex] = (uint8) position;
1871:Generated_Source\PSoC4/Capsense_CSHL.c ****                             }
1872:Generated_Source\PSoC4/Capsense_CSHL.c ****                         #endif /* (0u != (Capsense_IIR4_FILTER & \
1873:Generated_Source\PSoC4/Capsense_CSHL.c ****                                *          Capsense_LINEAR_SLIDERS_POS_FILTERS_MASK))
1874:Generated_Source\PSoC4/Capsense_CSHL.c ****                                */
1875:Generated_Source\PSoC4/Capsense_CSHL.c **** 
1876:Generated_Source\PSoC4/Capsense_CSHL.c ****                         #if (0u != (Capsense_JITTER_FILTER & Capsense_LINEAR_SLIDERS_POS_FILTERS_MA
1877:Generated_Source\PSoC4/Capsense_CSHL.c ****                             if (0u != (posFiltersMask & Capsense_JITTER_FILTER))
1878:Generated_Source\PSoC4/Capsense_CSHL.c ****                             {
1879:Generated_Source\PSoC4/Capsense_CSHL.c ****                                 position = Capsense_JitterFilter(position,
1880:Generated_Source\PSoC4/Capsense_CSHL.c ****                                                                     (uint16)Capsense_posFiltersData
1881:Generated_Source\PSoC4/Capsense_CSHL.c ****                                 Capsense_posFiltersData[posIndex] = (uint8) position;
ARM GAS  C:\Users\ROUSSMA\AppData\Local\Temp\ccw7ZO0v.s 			page 68


1882:Generated_Source\PSoC4/Capsense_CSHL.c ****                             }
1883:Generated_Source\PSoC4/Capsense_CSHL.c ****                         #endif /* (0u != (Capsense_JITTER_FILTER & \
1884:Generated_Source\PSoC4/Capsense_CSHL.c ****                                *           Capsense_LINEAR_SLIDERS_POS_FILTERS_MASK))
1885:Generated_Source\PSoC4/Capsense_CSHL.c ****                                */
1886:Generated_Source\PSoC4/Capsense_CSHL.c ****                     }
1887:Generated_Source\PSoC4/Capsense_CSHL.c ****                 }
1888:Generated_Source\PSoC4/Capsense_CSHL.c ****             #endif /* (0u != Capsense_LINEAR_SLIDERS_POS_FILTERS_MASK) */
1889:Generated_Source\PSoC4/Capsense_CSHL.c **** 
1890:Generated_Source\PSoC4/Capsense_CSHL.c ****         }
1891:Generated_Source\PSoC4/Capsense_CSHL.c ****         else
1892:Generated_Source\PSoC4/Capsense_CSHL.c ****         {
1893:Generated_Source\PSoC4/Capsense_CSHL.c ****             /* Maximum wasn't found */
1894:Generated_Source\PSoC4/Capsense_CSHL.c ****             position = 0xFFFFu;
1895:Generated_Source\PSoC4/Capsense_CSHL.c **** 
1896:Generated_Source\PSoC4/Capsense_CSHL.c ****             #if(0u != Capsense_LINEAR_SLIDERS_POS_FILTERS_MASK)
1897:Generated_Source\PSoC4/Capsense_CSHL.c ****                 /* Reset filters */
1898:Generated_Source\PSoC4/Capsense_CSHL.c ****                 if(0u != (posFiltersMask & Capsense_ANY_POS_FILTER))
1899:Generated_Source\PSoC4/Capsense_CSHL.c ****                 {
1900:Generated_Source\PSoC4/Capsense_CSHL.c ****                     Capsense_posFiltersData[firstTimeIndex] = 0u;
1901:Generated_Source\PSoC4/Capsense_CSHL.c ****                 }
1902:Generated_Source\PSoC4/Capsense_CSHL.c ****             #endif /* (0u != Capsense_LINEAR_SLIDERS_POS_FILTERS_MASK) */
1903:Generated_Source\PSoC4/Capsense_CSHL.c ****         }
1904:Generated_Source\PSoC4/Capsense_CSHL.c **** 
1905:Generated_Source\PSoC4/Capsense_CSHL.c **** 
1906:Generated_Source\PSoC4/Capsense_CSHL.c ****         return (position);
1907:Generated_Source\PSoC4/Capsense_CSHL.c ****     }
1908:Generated_Source\PSoC4/Capsense_CSHL.c **** #endif /* ((Capsense_TOTAL_RADIAL_SLIDERS_COUNT > 0u) || (Capsense_TOTAL_LINEAR_SLIDERS_COUNT > 0u)
1909:Generated_Source\PSoC4/Capsense_CSHL.c **** 
1910:Generated_Source\PSoC4/Capsense_CSHL.c **** 
1911:Generated_Source\PSoC4/Capsense_CSHL.c **** #if((Capsense_TOTAL_RADIAL_SLIDERS_COUNT > 0u) || (Capsense_TOTAL_LINEAR_SLIDERS_COUNT > 0u))
1912:Generated_Source\PSoC4/Capsense_CSHL.c ****     /*******************************************************************************
1913:Generated_Source\PSoC4/Capsense_CSHL.c ****     * Function Name: Capsense_GetRadialCentroidPos
1914:Generated_Source\PSoC4/Capsense_CSHL.c ****     ********************************************************************************
1915:Generated_Source\PSoC4/Capsense_CSHL.c ****     *
1916:Generated_Source\PSoC4/Capsense_CSHL.c ****     * Summary:
1917:Generated_Source\PSoC4/Capsense_CSHL.c ****     *  Checks the Capsense_Signal[ ] array for a centroid within
1918:Generated_Source\PSoC4/Capsense_CSHL.c ****     *  a slider specified range. The centroid position is calculated according to the resolution
1919:Generated_Source\PSoC4/Capsense_CSHL.c ****     *  specified in the CapSense customizer. The position filters are applied to the
1920:Generated_Source\PSoC4/Capsense_CSHL.c ****     *  result if enabled.
1921:Generated_Source\PSoC4/Capsense_CSHL.c ****     *
1922:Generated_Source\PSoC4/Capsense_CSHL.c ****     * Parameters:
1923:Generated_Source\PSoC4/Capsense_CSHL.c ****     *  widget:  Widget number.
1924:Generated_Source\PSoC4/Capsense_CSHL.c ****     *  For every radial slider widget there are defines in this format:
1925:Generated_Source\PSoC4/Capsense_CSHL.c ****     *  #define Capsense_"widget_name"__RS           5
1926:Generated_Source\PSoC4/Capsense_CSHL.c ****     *
1927:Generated_Source\PSoC4/Capsense_CSHL.c ****     * Return:
1928:Generated_Source\PSoC4/Capsense_CSHL.c ****     *  Returns a position value of the radial slider.
1929:Generated_Source\PSoC4/Capsense_CSHL.c ****     *
1930:Generated_Source\PSoC4/Capsense_CSHL.c ****     * Global Variables:
1931:Generated_Source\PSoC4/Capsense_CSHL.c ****     *  None.
1932:Generated_Source\PSoC4/Capsense_CSHL.c ****     *
1933:Generated_Source\PSoC4/Capsense_CSHL.c ****     * Side Effects:
1934:Generated_Source\PSoC4/Capsense_CSHL.c ****     *  If any sensor within the slider widget is active, the function returns values
1935:Generated_Source\PSoC4/Capsense_CSHL.c ****     *  from zero to the API resolution value set in the CapSense customizer. If no
1936:Generated_Source\PSoC4/Capsense_CSHL.c ****     *  sensors are active, the function returns 0xFFFF.
1937:Generated_Source\PSoC4/Capsense_CSHL.c ****     *  There are no checks of the widget type argument provided to this function.
1938:Generated_Source\PSoC4/Capsense_CSHL.c ****     *  The unproper widget type provided will cause unexpected position calculations.
ARM GAS  C:\Users\ROUSSMA\AppData\Local\Temp\ccw7ZO0v.s 			page 69


1939:Generated_Source\PSoC4/Capsense_CSHL.c ****     *
1940:Generated_Source\PSoC4/Capsense_CSHL.c ****     * Note:
1941:Generated_Source\PSoC4/Capsense_CSHL.c ****     *  If noise counts on the slider segments are greater than the noise
1942:Generated_Source\PSoC4/Capsense_CSHL.c ****     *  threshold, this subroutine may generate a false centroid result. The noise
1943:Generated_Source\PSoC4/Capsense_CSHL.c ****     *  threshold should be set carefully (high enough above the noise level) so
1944:Generated_Source\PSoC4/Capsense_CSHL.c ****     *  that noise will not generate a false centroid.
1945:Generated_Source\PSoC4/Capsense_CSHL.c ****     *
1946:Generated_Source\PSoC4/Capsense_CSHL.c ****     *******************************************************************************/
1947:Generated_Source\PSoC4/Capsense_CSHL.c ****      uint16 Capsense_GetRadialCentroidPos(uint32 widget)
1948:Generated_Source\PSoC4/Capsense_CSHL.c ****     {
1949:Generated_Source\PSoC4/Capsense_CSHL.c ****         #if (0u != Capsense_RADIAL_SLIDERS_POS_FILTERS_MASK)
1950:Generated_Source\PSoC4/Capsense_CSHL.c ****             uint8 posIndex;
1951:Generated_Source\PSoC4/Capsense_CSHL.c ****             uint8 firstTimeIndex = Capsense_posFiltersData[widget];
1952:Generated_Source\PSoC4/Capsense_CSHL.c ****             uint8 posFiltersMask = Capsense_posFiltersMask[widget];
1953:Generated_Source\PSoC4/Capsense_CSHL.c ****         #endif /* (0u != Capsense_RADIAL_SLIDERS_POS_FILTERS_MASK) */
1954:Generated_Source\PSoC4/Capsense_CSHL.c **** 
1955:Generated_Source\PSoC4/Capsense_CSHL.c ****         #if ((0u != (Capsense_MEDIAN_FILTER & Capsense_RADIAL_SLIDERS_POS_FILTERS_MASK)) || \
1956:Generated_Source\PSoC4/Capsense_CSHL.c ****              (0u != (Capsense_AVERAGING_FILTER & Capsense_RADIAL_SLIDERS_POS_FILTERS_MASK)))
1957:Generated_Source\PSoC4/Capsense_CSHL.c ****             uint8 tempPos;
1958:Generated_Source\PSoC4/Capsense_CSHL.c ****         #endif /* ((0u != (Capsense_MEDIAN_FILTER & Capsense_RADIAL_SLIDERS_POS_FILTERS_MASK)) || \
1959:Generated_Source\PSoC4/Capsense_CSHL.c ****                *   (0u != (Capsense_AVERAGING_FILTER & Capsense_RADIAL_SLIDERS_POS_FILTERS_MASK)))
1960:Generated_Source\PSoC4/Capsense_CSHL.c ****                */
1961:Generated_Source\PSoC4/Capsense_CSHL.c **** 
1962:Generated_Source\PSoC4/Capsense_CSHL.c ****         uint8 maximum;
1963:Generated_Source\PSoC4/Capsense_CSHL.c ****         uint16 position;
1964:Generated_Source\PSoC4/Capsense_CSHL.c ****         uint8 offset = Capsense_rawDataIndex[widget];
1965:Generated_Source\PSoC4/Capsense_CSHL.c ****         uint8 count = Capsense_numberOfSensors[widget];
1966:Generated_Source\PSoC4/Capsense_CSHL.c **** 
1967:Generated_Source\PSoC4/Capsense_CSHL.c ****         /* Find Maximum within centroid */
1968:Generated_Source\PSoC4/Capsense_CSHL.c ****         #if (Capsense_IS_DIPLEX_SLIDER)
1969:Generated_Source\PSoC4/Capsense_CSHL.c ****             maximum = Capsense_FindMaximum(offset, count, (uint8)Capsense_fingerThreshold[widget], 
1970:Generated_Source\PSoC4/Capsense_CSHL.c ****         #else
1971:Generated_Source\PSoC4/Capsense_CSHL.c ****             maximum = Capsense_FindMaximum(offset, count, (uint8)Capsense_fingerThreshold[widget]);
1972:Generated_Source\PSoC4/Capsense_CSHL.c ****         #endif /* (Capsense_IS_DIPLEX_SLIDER) */
1973:Generated_Source\PSoC4/Capsense_CSHL.c **** 
1974:Generated_Source\PSoC4/Capsense_CSHL.c ****         if (maximum != Capsense_MAXIMUM_CENTROID)
1975:Generated_Source\PSoC4/Capsense_CSHL.c ****         {
1976:Generated_Source\PSoC4/Capsense_CSHL.c ****             /* Calculate centroid */
1977:Generated_Source\PSoC4/Capsense_CSHL.c ****             position = (uint16) Capsense_CalcCentroid(maximum,
1978:Generated_Source\PSoC4/Capsense_CSHL.c ****                          offset, count, Capsense_centroidMult[widget], Capsense_noiseThreshold[widg
1979:Generated_Source\PSoC4/Capsense_CSHL.c **** 
1980:Generated_Source\PSoC4/Capsense_CSHL.c ****             #if (0u != Capsense_RADIAL_SLIDERS_POS_FILTERS_MASK)
