ARM GAS  C:\Users\ROUSSMA\AppData\Local\Temp\cc8VsTWP.s 			page 1


   1              		.syntax unified
   2              		.cpu cortex-m0
   3              		.fpu softvfp
   4              		.eabi_attribute 20, 1
   5              		.eabi_attribute 21, 1
   6              		.eabi_attribute 23, 3
   7              		.eabi_attribute 24, 1
   8              		.eabi_attribute 25, 1
   9              		.eabi_attribute 26, 1
  10              		.eabi_attribute 30, 6
  11              		.eabi_attribute 34, 0
  12              		.eabi_attribute 18, 4
  13              		.thumb
  14              		.syntax unified
  15              		.file	"RTC_1.c"
  16              		.text
  17              	.Ltext0:
  18              		.cfi_sections	.debug_frame
  19              		.section	.text.RTC_1_IsBitSet,"ax",%progbits
  20              		.align	2
  21              		.code	16
  22              		.thumb_func
  23              		.type	RTC_1_IsBitSet, %function
  24              	RTC_1_IsBitSet:
  25              	.LFB2:
  26              		.file 1 "Generated_Source\\PSoC4\\RTC_1.h"
   1:Generated_Source\PSoC4/RTC_1.h **** /***************************************************************************//**
   2:Generated_Source\PSoC4/RTC_1.h **** * \file Name: RTC_1.h
   3:Generated_Source\PSoC4/RTC_1.h **** * \version 1.10
   4:Generated_Source\PSoC4/RTC_1.h **** *
   5:Generated_Source\PSoC4/RTC_1.h **** * \brief
   6:Generated_Source\PSoC4/RTC_1.h **** *  This file provides constants and parameter values for the RTC_P4 Component.
   7:Generated_Source\PSoC4/RTC_1.h **** *
   8:Generated_Source\PSoC4/RTC_1.h **** ********************************************************************************
   9:Generated_Source\PSoC4/RTC_1.h **** * Copyright 2015-2016, Cypress Semiconductor Corporation.  All rights reserved.
  10:Generated_Source\PSoC4/RTC_1.h **** * You may use this file only in accordance with the license, terms, conditions,
  11:Generated_Source\PSoC4/RTC_1.h **** * disclaimers, and limitations in the end user license agreement accompanying
  12:Generated_Source\PSoC4/RTC_1.h **** * the software package with which this file was provided.
  13:Generated_Source\PSoC4/RTC_1.h **** *******************************************************************************/
  14:Generated_Source\PSoC4/RTC_1.h **** 
  15:Generated_Source\PSoC4/RTC_1.h **** #if !defined(CY_RTC_P4_RTC_1_H)
  16:Generated_Source\PSoC4/RTC_1.h **** #define CY_RTC_P4_RTC_1_H
  17:Generated_Source\PSoC4/RTC_1.h **** 
  18:Generated_Source\PSoC4/RTC_1.h **** #include <cytypes.h>
  19:Generated_Source\PSoC4/RTC_1.h **** #include <CyLib.h>
  20:Generated_Source\PSoC4/RTC_1.h **** 
  21:Generated_Source\PSoC4/RTC_1.h **** 
  22:Generated_Source\PSoC4/RTC_1.h **** /*******************************************************************************
  23:Generated_Source\PSoC4/RTC_1.h **** *    Data types definition
  24:Generated_Source\PSoC4/RTC_1.h **** *******************************************************************************/
  25:Generated_Source\PSoC4/RTC_1.h **** 
  26:Generated_Source\PSoC4/RTC_1.h **** typedef enum
  27:Generated_Source\PSoC4/RTC_1.h **** {
  28:Generated_Source\PSoC4/RTC_1.h ****     RTC_1_DST_DATE_RELATIVE = 0u,
  29:Generated_Source\PSoC4/RTC_1.h ****     RTC_1_DST_DATE_FIXED = 1u
  30:Generated_Source\PSoC4/RTC_1.h **** }RTC_1_DST_DATETYPE_ENUM;
  31:Generated_Source\PSoC4/RTC_1.h **** 
ARM GAS  C:\Users\ROUSSMA\AppData\Local\Temp\cc8VsTWP.s 			page 2


  32:Generated_Source\PSoC4/RTC_1.h **** /**
  33:Generated_Source\PSoC4/RTC_1.h **** * \addtogroup group_structures
  34:Generated_Source\PSoC4/RTC_1.h **** * @{
  35:Generated_Source\PSoC4/RTC_1.h **** */
  36:Generated_Source\PSoC4/RTC_1.h **** 
  37:Generated_Source\PSoC4/RTC_1.h **** /**
  38:Generated_Source\PSoC4/RTC_1.h **** * This is the data structure that is used to save the current time and date 
  39:Generated_Source\PSoC4/RTC_1.h **** * (RTC_currentTimeDate), and Alarm time and date (RTC_alarmCfgTimeDate).
  40:Generated_Source\PSoC4/RTC_1.h **** */
  41:Generated_Source\PSoC4/RTC_1.h **** typedef struct
  42:Generated_Source\PSoC4/RTC_1.h **** {
  43:Generated_Source\PSoC4/RTC_1.h ****     uint32 time;
  44:Generated_Source\PSoC4/RTC_1.h ****     uint32 date;
  45:Generated_Source\PSoC4/RTC_1.h ****     uint32 dayOfWeek;
  46:Generated_Source\PSoC4/RTC_1.h ****     uint32 status;
  47:Generated_Source\PSoC4/RTC_1.h **** }RTC_1_DATE_TIME;
  48:Generated_Source\PSoC4/RTC_1.h **** 
  49:Generated_Source\PSoC4/RTC_1.h **** /**
  50:Generated_Source\PSoC4/RTC_1.h **** * This is the data structure that is used to save time and date values for 
  51:Generated_Source\PSoC4/RTC_1.h **** * Daylight Savings Time Start and Stop (RTC_dstTimeDateStart and 
  52:Generated_Source\PSoC4/RTC_1.h **** * RTC_dstTimeDateStop).
  53:Generated_Source\PSoC4/RTC_1.h **** */
  54:Generated_Source\PSoC4/RTC_1.h **** typedef struct
  55:Generated_Source\PSoC4/RTC_1.h **** {
  56:Generated_Source\PSoC4/RTC_1.h ****     uint32 hour;
  57:Generated_Source\PSoC4/RTC_1.h ****     uint32 dayOfWeek;
  58:Generated_Source\PSoC4/RTC_1.h ****     uint32 dayOfMonth;
  59:Generated_Source\PSoC4/RTC_1.h ****     uint32 weekOfMonth;
  60:Generated_Source\PSoC4/RTC_1.h ****     uint32 month;
  61:Generated_Source\PSoC4/RTC_1.h ****     uint8  timeFormat;
  62:Generated_Source\PSoC4/RTC_1.h **** }RTC_1_DST_TIME;
  63:Generated_Source\PSoC4/RTC_1.h **** 
  64:Generated_Source\PSoC4/RTC_1.h **** /** @} structures */
  65:Generated_Source\PSoC4/RTC_1.h **** 
  66:Generated_Source\PSoC4/RTC_1.h **** /*******************************************************************************
  67:Generated_Source\PSoC4/RTC_1.h **** *    Enumerated Types and Parameters
  68:Generated_Source\PSoC4/RTC_1.h **** *******************************************************************************/
  69:Generated_Source\PSoC4/RTC_1.h **** /* Time Format setting constants */
  70:Generated_Source\PSoC4/RTC_1.h **** #define RTC_1__HOUR_12 1
  71:Generated_Source\PSoC4/RTC_1.h **** #define RTC_1__HOUR_24 0
  72:Generated_Source\PSoC4/RTC_1.h **** 
  73:Generated_Source\PSoC4/RTC_1.h **** /*  Date Format setting constants */
  74:Generated_Source\PSoC4/RTC_1.h **** #define RTC_1__MM_DD_YYYY 0
  75:Generated_Source\PSoC4/RTC_1.h **** #define RTC_1__DD_MM_YYYY 1
  76:Generated_Source\PSoC4/RTC_1.h **** #define RTC_1__YYYY_MM_DD 2
  77:Generated_Source\PSoC4/RTC_1.h **** 
  78:Generated_Source\PSoC4/RTC_1.h **** /* Date Type setting constants */
  79:Generated_Source\PSoC4/RTC_1.h **** #define RTC_1__RELATIVE 0
  80:Generated_Source\PSoC4/RTC_1.h **** #define RTC_1__FIXED 1
  81:Generated_Source\PSoC4/RTC_1.h **** 
  82:Generated_Source\PSoC4/RTC_1.h **** /* DST Hour setting constants */
  83:Generated_Source\PSoC4/RTC_1.h **** #define RTC_1__H0000 0
  84:Generated_Source\PSoC4/RTC_1.h **** #define RTC_1__H0100 1
  85:Generated_Source\PSoC4/RTC_1.h **** #define RTC_1__H0200 2
  86:Generated_Source\PSoC4/RTC_1.h **** #define RTC_1__H0300 3
  87:Generated_Source\PSoC4/RTC_1.h **** #define RTC_1__H0400 4
  88:Generated_Source\PSoC4/RTC_1.h **** #define RTC_1__H0500 5
ARM GAS  C:\Users\ROUSSMA\AppData\Local\Temp\cc8VsTWP.s 			page 3


  89:Generated_Source\PSoC4/RTC_1.h **** #define RTC_1__H0600 6
  90:Generated_Source\PSoC4/RTC_1.h **** #define RTC_1__H0700 7
  91:Generated_Source\PSoC4/RTC_1.h **** #define RTC_1__H0800 8
  92:Generated_Source\PSoC4/RTC_1.h **** #define RTC_1__H0900 9
  93:Generated_Source\PSoC4/RTC_1.h **** #define RTC_1__H1000 10
  94:Generated_Source\PSoC4/RTC_1.h **** #define RTC_1__H1100 11
  95:Generated_Source\PSoC4/RTC_1.h **** #define RTC_1__H1200 12
  96:Generated_Source\PSoC4/RTC_1.h **** #define RTC_1__H1300 13
  97:Generated_Source\PSoC4/RTC_1.h **** #define RTC_1__H1400 14
  98:Generated_Source\PSoC4/RTC_1.h **** #define RTC_1__H1500 15
  99:Generated_Source\PSoC4/RTC_1.h **** #define RTC_1__H1600 16
 100:Generated_Source\PSoC4/RTC_1.h **** #define RTC_1__H1700 17
 101:Generated_Source\PSoC4/RTC_1.h **** #define RTC_1__H1800 18
 102:Generated_Source\PSoC4/RTC_1.h **** #define RTC_1__H1900 19
 103:Generated_Source\PSoC4/RTC_1.h **** #define RTC_1__H2000 20
 104:Generated_Source\PSoC4/RTC_1.h **** #define RTC_1__H2100 21
 105:Generated_Source\PSoC4/RTC_1.h **** #define RTC_1__H2200 22
 106:Generated_Source\PSoC4/RTC_1.h **** #define RTC_1__H2300 23
 107:Generated_Source\PSoC4/RTC_1.h **** 
 108:Generated_Source\PSoC4/RTC_1.h **** /* DST DayOfWeek setting constants */
 109:Generated_Source\PSoC4/RTC_1.h **** #define RTC_1__SUNDAY 1
 110:Generated_Source\PSoC4/RTC_1.h **** #define RTC_1__MONDAY 2
 111:Generated_Source\PSoC4/RTC_1.h **** #define RTC_1__TUESDAY 3
 112:Generated_Source\PSoC4/RTC_1.h **** #define RTC_1__WEDNESDAY 4
 113:Generated_Source\PSoC4/RTC_1.h **** #define RTC_1__THURSDAY 5
 114:Generated_Source\PSoC4/RTC_1.h **** #define RTC_1__FRIDAY 6
 115:Generated_Source\PSoC4/RTC_1.h **** #define RTC_1__SATURDAY 7
 116:Generated_Source\PSoC4/RTC_1.h **** 
 117:Generated_Source\PSoC4/RTC_1.h **** /* DST Month setting constants */
 118:Generated_Source\PSoC4/RTC_1.h **** #define RTC_1__JAN 1
 119:Generated_Source\PSoC4/RTC_1.h **** #define RTC_1__FEB 2
 120:Generated_Source\PSoC4/RTC_1.h **** #define RTC_1__MAR 3
 121:Generated_Source\PSoC4/RTC_1.h **** #define RTC_1__APR 4
 122:Generated_Source\PSoC4/RTC_1.h **** #define RTC_1__MAY 5
 123:Generated_Source\PSoC4/RTC_1.h **** #define RTC_1__JUN 6
 124:Generated_Source\PSoC4/RTC_1.h **** #define RTC_1__JUL 7
 125:Generated_Source\PSoC4/RTC_1.h **** #define RTC_1__AUG 8
 126:Generated_Source\PSoC4/RTC_1.h **** #define RTC_1__SEP 9
 127:Generated_Source\PSoC4/RTC_1.h **** #define RTC_1__OCT 10
 128:Generated_Source\PSoC4/RTC_1.h **** #define RTC_1__NOV 11
 129:Generated_Source\PSoC4/RTC_1.h **** #define RTC_1__DEC 12
 130:Generated_Source\PSoC4/RTC_1.h **** 
 131:Generated_Source\PSoC4/RTC_1.h **** /* DST WeekOfMonth setting constants */
 132:Generated_Source\PSoC4/RTC_1.h **** #define RTC_1__FIRST 1
 133:Generated_Source\PSoC4/RTC_1.h **** #define RTC_1__SECOND 2
 134:Generated_Source\PSoC4/RTC_1.h **** #define RTC_1__THIRD 3
 135:Generated_Source\PSoC4/RTC_1.h **** #define RTC_1__FOURTH 4
 136:Generated_Source\PSoC4/RTC_1.h **** #define RTC_1__FIFTH 5
 137:Generated_Source\PSoC4/RTC_1.h **** #define RTC_1__LAST 6
 138:Generated_Source\PSoC4/RTC_1.h **** 
 139:Generated_Source\PSoC4/RTC_1.h **** 
 140:Generated_Source\PSoC4/RTC_1.h **** #define RTC_1_INITIAL_DATA_FORMAT     (0u)
 141:Generated_Source\PSoC4/RTC_1.h **** #define RTC_1_INITIAL_TIME_FORMAT     (1u)
 142:Generated_Source\PSoC4/RTC_1.h **** #define RTC_1_INITIAL_UPDATE_MODE     (0u)
 143:Generated_Source\PSoC4/RTC_1.h **** #define RTC_1_INITIAL_SECOND          (0u)
 144:Generated_Source\PSoC4/RTC_1.h **** #define RTC_1_INITIAL_MINUTE          (48u)
 145:Generated_Source\PSoC4/RTC_1.h **** #define RTC_1_INITIAL_HOUR            (23u)
ARM GAS  C:\Users\ROUSSMA\AppData\Local\Temp\cc8VsTWP.s 			page 4


 146:Generated_Source\PSoC4/RTC_1.h **** #define RTC_1_INITIAL_DAY             (23u)
 147:Generated_Source\PSoC4/RTC_1.h **** #define RTC_1_INITIAL_MONTH           (12u)
 148:Generated_Source\PSoC4/RTC_1.h **** #define RTC_1_INITIAL_YEAR            (2017u)
 149:Generated_Source\PSoC4/RTC_1.h **** 
 150:Generated_Source\PSoC4/RTC_1.h **** #define RTC_1_INITIAL_ALARM_STATUS    (1u)
 151:Generated_Source\PSoC4/RTC_1.h **** 
 152:Generated_Source\PSoC4/RTC_1.h **** #define RTC_1_INITIAL_DST_STATUS      (0u)
 153:Generated_Source\PSoC4/RTC_1.h **** #define RTC_1_INITIAL_DST_DATE_TYPE   (0u)
 154:Generated_Source\PSoC4/RTC_1.h **** #define RTC_1_INITIAL_DST_START_MONTH (3uL)
 155:Generated_Source\PSoC4/RTC_1.h **** #define RTC_1_INITIAL_DST_START_WOM   (6uL)
 156:Generated_Source\PSoC4/RTC_1.h **** #define RTC_1_INITIAL_DST_START_DOM   (22uL)
 157:Generated_Source\PSoC4/RTC_1.h **** #define RTC_1_INITIAL_DST_START_DOW   (1uL)
 158:Generated_Source\PSoC4/RTC_1.h **** #define RTC_1_INITIAL_DST_START_HRS   (0uL)
 159:Generated_Source\PSoC4/RTC_1.h **** #define RTC_1_INITIAL_DST_STOP_MONTH  (10uL)
 160:Generated_Source\PSoC4/RTC_1.h **** #define RTC_1_INITIAL_DST_STOP_DOM    (22uL)
 161:Generated_Source\PSoC4/RTC_1.h **** #define RTC_1_INITIAL_DST_STOP_DOW    (1uL)
 162:Generated_Source\PSoC4/RTC_1.h **** #define RTC_1_INITIAL_DST_STOP_WOM    (6uL)
 163:Generated_Source\PSoC4/RTC_1.h **** #define RTC_1_INITIAL_DST_STOP_HRS    (0uL)
 164:Generated_Source\PSoC4/RTC_1.h **** 
 165:Generated_Source\PSoC4/RTC_1.h **** /* Day of week definitions */
 166:Generated_Source\PSoC4/RTC_1.h **** #define RTC_1_SUNDAY     (RTC_1__SUNDAY)
 167:Generated_Source\PSoC4/RTC_1.h **** #define RTC_1_MONDAY     (RTC_1__MONDAY)
 168:Generated_Source\PSoC4/RTC_1.h **** #define RTC_1_TUESDAY    (RTC_1__TUESDAY)
 169:Generated_Source\PSoC4/RTC_1.h **** #define RTC_1_WEDNESDAY  (RTC_1__WEDNESDAY)
 170:Generated_Source\PSoC4/RTC_1.h **** #define RTC_1_THURSDAY   (RTC_1__THURSDAY)
 171:Generated_Source\PSoC4/RTC_1.h **** #define RTC_1_FRIDAY     (RTC_1__FRIDAY)
 172:Generated_Source\PSoC4/RTC_1.h **** #define RTC_1_SATURDAY   (RTC_1__SATURDAY)
 173:Generated_Source\PSoC4/RTC_1.h **** 
 174:Generated_Source\PSoC4/RTC_1.h **** /* DST WeekOfMonth setting constants definitions */
 175:Generated_Source\PSoC4/RTC_1.h **** #define RTC_1_FIRST      (RTC_1__FIRST)
 176:Generated_Source\PSoC4/RTC_1.h **** #define RTC_1_SECOND     (RTC_1__SECOND)
 177:Generated_Source\PSoC4/RTC_1.h **** #define RTC_1_THIRD      (RTC_1__THIRD)
 178:Generated_Source\PSoC4/RTC_1.h **** #define RTC_1_FOURTH     (RTC_1__FOURTH)
 179:Generated_Source\PSoC4/RTC_1.h **** #define RTC_1_FIFTH      (RTC_1__FIFTH)
 180:Generated_Source\PSoC4/RTC_1.h **** #define RTC_1_LAST       (RTC_1__LAST)
 181:Generated_Source\PSoC4/RTC_1.h **** 
 182:Generated_Source\PSoC4/RTC_1.h **** /* Month definitions */
 183:Generated_Source\PSoC4/RTC_1.h **** #define RTC_1_JANUARY    (RTC_1__JAN)
 184:Generated_Source\PSoC4/RTC_1.h **** #define RTC_1_FEBRUARY   (RTC_1__FEB)
 185:Generated_Source\PSoC4/RTC_1.h **** #define RTC_1_MARCH      (RTC_1__MAR)
 186:Generated_Source\PSoC4/RTC_1.h **** #define RTC_1_APRIL      (RTC_1__APR)
 187:Generated_Source\PSoC4/RTC_1.h **** #define RTC_1_MAY        (RTC_1__MAY)
 188:Generated_Source\PSoC4/RTC_1.h **** #define RTC_1_JUNE       (RTC_1__JUN)
 189:Generated_Source\PSoC4/RTC_1.h **** #define RTC_1_JULY       (RTC_1__JUL)
 190:Generated_Source\PSoC4/RTC_1.h **** #define RTC_1_AUGUST     (RTC_1__AUG)
 191:Generated_Source\PSoC4/RTC_1.h **** #define RTC_1_SEPTEMBER  (RTC_1__SEP)
 192:Generated_Source\PSoC4/RTC_1.h **** #define RTC_1_OCTOBER    (RTC_1__OCT)
 193:Generated_Source\PSoC4/RTC_1.h **** #define RTC_1_NOVEMBER   (RTC_1__NOV)
 194:Generated_Source\PSoC4/RTC_1.h **** #define RTC_1_DECEMBER   (RTC_1__DEC)
 195:Generated_Source\PSoC4/RTC_1.h **** 
 196:Generated_Source\PSoC4/RTC_1.h **** #define RTC_1_DAYS_PER_WEEK       (7u)
 197:Generated_Source\PSoC4/RTC_1.h **** 
 198:Generated_Source\PSoC4/RTC_1.h **** /* Number of days in month definitions */
 199:Generated_Source\PSoC4/RTC_1.h **** #define RTC_1_DAYS_IN_JANUARY     (31u)
 200:Generated_Source\PSoC4/RTC_1.h **** #define RTC_1_DAYS_IN_FEBRUARY    (28u)
 201:Generated_Source\PSoC4/RTC_1.h **** #define RTC_1_DAYS_IN_MARCH       (31u)
 202:Generated_Source\PSoC4/RTC_1.h **** #define RTC_1_DAYS_IN_APRIL       (30u)
ARM GAS  C:\Users\ROUSSMA\AppData\Local\Temp\cc8VsTWP.s 			page 5


 203:Generated_Source\PSoC4/RTC_1.h **** #define RTC_1_DAYS_IN_MAY         (31u)
 204:Generated_Source\PSoC4/RTC_1.h **** #define RTC_1_DAYS_IN_JUNE        (30u)
 205:Generated_Source\PSoC4/RTC_1.h **** #define RTC_1_DAYS_IN_JULY        (31u)
 206:Generated_Source\PSoC4/RTC_1.h **** #define RTC_1_DAYS_IN_AUGUST      (31u)
 207:Generated_Source\PSoC4/RTC_1.h **** #define RTC_1_DAYS_IN_SEPTEMBER   (30u)
 208:Generated_Source\PSoC4/RTC_1.h **** #define RTC_1_DAYS_IN_OCTOBER     (31u)
 209:Generated_Source\PSoC4/RTC_1.h **** #define RTC_1_DAYS_IN_NOVEMBER    (30u)
 210:Generated_Source\PSoC4/RTC_1.h **** #define RTC_1_DAYS_IN_DECEMBER    (31u)
 211:Generated_Source\PSoC4/RTC_1.h **** 
 212:Generated_Source\PSoC4/RTC_1.h **** #define RTC_1_MONTHS_PER_YEAR     (12uL)
 213:Generated_Source\PSoC4/RTC_1.h **** 
 214:Generated_Source\PSoC4/RTC_1.h **** #define RTC_1_HOURS_PER_DAY       (24uL)
 215:Generated_Source\PSoC4/RTC_1.h **** #define RTC_1_HOURS_PER_HALF_DAY  (12uL)
 216:Generated_Source\PSoC4/RTC_1.h **** 
 217:Generated_Source\PSoC4/RTC_1.h **** #define RTC_1_SECONDS_PER_MINUTE  (60uL)
 218:Generated_Source\PSoC4/RTC_1.h **** #define RTC_1_SECONDS_PER_HOUR    (3600uL)
 219:Generated_Source\PSoC4/RTC_1.h **** #define RTC_1_SECONDS_PER_DAY     (24uL * 3600uL)
 220:Generated_Source\PSoC4/RTC_1.h **** 
 221:Generated_Source\PSoC4/RTC_1.h **** #define RTC_1_SECONDS_PER_LEAP_YEAR    (366uL * 24uL * 3600uL)
 222:Generated_Source\PSoC4/RTC_1.h **** #define RTC_1_SECONDS_PER_NONLEAP_YEAR (365uL * 24uL * 3600uL)
 223:Generated_Source\PSoC4/RTC_1.h **** 
 224:Generated_Source\PSoC4/RTC_1.h **** #define RTC_1_UNIX_TIME_PM   ((12uL * 3600uL) + 1uL)
 225:Generated_Source\PSoC4/RTC_1.h **** 
 226:Generated_Source\PSoC4/RTC_1.h **** /* AM/PM status definitions */
 227:Generated_Source\PSoC4/RTC_1.h **** #define RTC_1_AM                 (0u)
 228:Generated_Source\PSoC4/RTC_1.h **** #define RTC_1_PM                 (1u)
 229:Generated_Source\PSoC4/RTC_1.h **** 
 230:Generated_Source\PSoC4/RTC_1.h **** /* Time format definitions */
 231:Generated_Source\PSoC4/RTC_1.h **** #define RTC_1_12_HOURS_FORMAT    (RTC_1__HOUR_12)
 232:Generated_Source\PSoC4/RTC_1.h **** #define RTC_1_24_HOURS_FORMAT    (RTC_1__HOUR_24)
 233:Generated_Source\PSoC4/RTC_1.h **** 
 234:Generated_Source\PSoC4/RTC_1.h **** /* UNIX time begins in 1970 year.  */
 235:Generated_Source\PSoC4/RTC_1.h **** #define RTC_1_YEAR_0             (1970u)
 236:Generated_Source\PSoC4/RTC_1.h **** 
 237:Generated_Source\PSoC4/RTC_1.h **** /* Definition of date register fields */
 238:Generated_Source\PSoC4/RTC_1.h **** #if(RTC_1_INITIAL_DATA_FORMAT == RTC_1__MM_DD_YYYY)
 239:Generated_Source\PSoC4/RTC_1.h ****     #define RTC_1_10_MONTH_OFFSET   (28u)
 240:Generated_Source\PSoC4/RTC_1.h ****     #define RTC_1_MONTH_OFFSET      (24u)
 241:Generated_Source\PSoC4/RTC_1.h ****     #define RTC_1_10_DAY_OFFSET     (20u)
 242:Generated_Source\PSoC4/RTC_1.h ****     #define RTC_1_DAY_OFFSET        (16u)
 243:Generated_Source\PSoC4/RTC_1.h ****     #define RTC_1_1000_YEAR_OFFSET  (12u)
 244:Generated_Source\PSoC4/RTC_1.h ****     #define RTC_1_100_YEAR_OFFSET   (8u)
 245:Generated_Source\PSoC4/RTC_1.h ****     #define RTC_1_10_YEAR_OFFSET    (4u)
 246:Generated_Source\PSoC4/RTC_1.h ****     #define RTC_1_YEAR_OFFSET       (0u)
 247:Generated_Source\PSoC4/RTC_1.h **** #elif(RTC_1_INITIAL_DATA_FORMAT == RTC_1__DD_MM_YYYY)
 248:Generated_Source\PSoC4/RTC_1.h ****     #define RTC_1_10_MONTH_OFFSET   (20u)
 249:Generated_Source\PSoC4/RTC_1.h ****     #define RTC_1_MONTH_OFFSET      (16u)
 250:Generated_Source\PSoC4/RTC_1.h ****     #define RTC_1_10_DAY_OFFSET     (28u)
 251:Generated_Source\PSoC4/RTC_1.h ****     #define RTC_1_DAY_OFFSET        (24u)
 252:Generated_Source\PSoC4/RTC_1.h ****     #define RTC_1_1000_YEAR_OFFSET  (12u)
 253:Generated_Source\PSoC4/RTC_1.h ****     #define RTC_1_100_YEAR_OFFSET   (8u)
 254:Generated_Source\PSoC4/RTC_1.h ****     #define RTC_1_10_YEAR_OFFSET    (4u)
 255:Generated_Source\PSoC4/RTC_1.h ****     #define RTC_1_YEAR_OFFSET       (0u)
 256:Generated_Source\PSoC4/RTC_1.h **** #else
 257:Generated_Source\PSoC4/RTC_1.h ****     #define RTC_1_10_MONTH_OFFSET   (12u)
 258:Generated_Source\PSoC4/RTC_1.h ****     #define RTC_1_MONTH_OFFSET      (8u)
 259:Generated_Source\PSoC4/RTC_1.h ****     #define RTC_1_10_DAY_OFFSET     (4u)
ARM GAS  C:\Users\ROUSSMA\AppData\Local\Temp\cc8VsTWP.s 			page 6


 260:Generated_Source\PSoC4/RTC_1.h ****     #define RTC_1_DAY_OFFSET        (0u)
 261:Generated_Source\PSoC4/RTC_1.h ****     #define RTC_1_1000_YEAR_OFFSET  (28u)
 262:Generated_Source\PSoC4/RTC_1.h ****     #define RTC_1_100_YEAR_OFFSET   (24u)
 263:Generated_Source\PSoC4/RTC_1.h ****     #define RTC_1_10_YEAR_OFFSET    (20u)
 264:Generated_Source\PSoC4/RTC_1.h ****     #define RTC_1_YEAR_OFFSET       (16u)
 265:Generated_Source\PSoC4/RTC_1.h **** #endif /* (RTC_1_INITIAL_DATA_FORMAT == RTC_1__MM_DD_YYYY) */
 266:Generated_Source\PSoC4/RTC_1.h **** 
 267:Generated_Source\PSoC4/RTC_1.h **** #define RTC_1_10_MONTH_MASK          (0x00000001uL << RTC_1_10_MONTH_OFFSET)
 268:Generated_Source\PSoC4/RTC_1.h **** #define RTC_1_MONTH_MASK             (0x0000000FuL << RTC_1_MONTH_OFFSET)
 269:Generated_Source\PSoC4/RTC_1.h **** #define RTC_1_10_DAY_MASK            (0x00000003uL << RTC_1_10_DAY_OFFSET)
 270:Generated_Source\PSoC4/RTC_1.h **** #define RTC_1_DAY_MASK               (0x0000000FuL << RTC_1_DAY_OFFSET)
 271:Generated_Source\PSoC4/RTC_1.h **** #define RTC_1_1000_YEAR_MASK         (0x00000003uL << RTC_1_1000_YEAR_OFFSET)
 272:Generated_Source\PSoC4/RTC_1.h **** #define RTC_1_100_YEAR_MASK          (0x0000000FuL << RTC_1_100_YEAR_OFFSET)
 273:Generated_Source\PSoC4/RTC_1.h **** #define RTC_1_10_YEAR_MASK           (0x0000000FuL << RTC_1_10_YEAR_OFFSET)
 274:Generated_Source\PSoC4/RTC_1.h **** #define RTC_1_YEAR_MASK              (0x0000000FuL << RTC_1_YEAR_OFFSET)
 275:Generated_Source\PSoC4/RTC_1.h **** 
 276:Generated_Source\PSoC4/RTC_1.h **** #define  RTC_1_MONTH_FULL_MASK       (RTC_1_10_MONTH_MASK  | RTC_1_MONTH_MASK)
 277:Generated_Source\PSoC4/RTC_1.h **** #define  RTC_1_DAY_FULL_MASK         (RTC_1_10_DAY_MASK    | RTC_1_DAY_MASK)
 278:Generated_Source\PSoC4/RTC_1.h **** #define  RTC_1_YEAR_FULL_MASK        (RTC_1_1000_YEAR_MASK | RTC_1_100_YEAR_MASK |\
 279:Generated_Source\PSoC4/RTC_1.h ****                                                  RTC_1_10_YEAR_MASK   | RTC_1_YEAR_MASK)
 280:Generated_Source\PSoC4/RTC_1.h **** 
 281:Generated_Source\PSoC4/RTC_1.h **** 
 282:Generated_Source\PSoC4/RTC_1.h **** /* Definition of time register fields */
 283:Generated_Source\PSoC4/RTC_1.h **** #define RTC_1_TIME_FORMAT_OFFSET     (23u)
 284:Generated_Source\PSoC4/RTC_1.h **** #define RTC_1_PERIOD_OF_DAY_OFFSET   (22u)
 285:Generated_Source\PSoC4/RTC_1.h **** #define RTC_1_10_HOURS_OFFSET        (20u)
 286:Generated_Source\PSoC4/RTC_1.h **** #define RTC_1_HOURS_OFFSET           (16u)
 287:Generated_Source\PSoC4/RTC_1.h **** #define RTC_1_10_MINUTES_OFFSET      (12u)
 288:Generated_Source\PSoC4/RTC_1.h **** #define RTC_1_MINUTES_OFFSET         (8u)
 289:Generated_Source\PSoC4/RTC_1.h **** #define RTC_1_10_SECONDS_OFFSET      (4u)
 290:Generated_Source\PSoC4/RTC_1.h **** #define RTC_1_SECONDS_OFFSET         (0u)
 291:Generated_Source\PSoC4/RTC_1.h **** 
 292:Generated_Source\PSoC4/RTC_1.h **** #define RTC_1_TIME_FORMAT_MASK       (0x00000001uL << RTC_1_TIME_FORMAT_OFFSET)
 293:Generated_Source\PSoC4/RTC_1.h **** #define RTC_1_PERIOD_OF_DAY_MASK     (0x00000001uL << RTC_1_PERIOD_OF_DAY_OFFSET)
 294:Generated_Source\PSoC4/RTC_1.h **** #define RTC_1_10_HOURS_MASK          (0x00000003uL << RTC_1_10_HOURS_OFFSET)
 295:Generated_Source\PSoC4/RTC_1.h **** #define RTC_1_HOURS_MASK             (0x0000000FuL << RTC_1_HOURS_OFFSET)
 296:Generated_Source\PSoC4/RTC_1.h **** #define RTC_1_10_MINUTES_MASK        (0x00000007uL << RTC_1_10_MINUTES_OFFSET)
 297:Generated_Source\PSoC4/RTC_1.h **** #define RTC_1_MINUTES_MASK           (0x0000000FuL << RTC_1_MINUTES_OFFSET)
 298:Generated_Source\PSoC4/RTC_1.h **** #define RTC_1_10_SECONDS_MASK        (0x00000007uL << RTC_1_10_SECONDS_OFFSET)
 299:Generated_Source\PSoC4/RTC_1.h **** #define RTC_1_SECONDS_MASK           (0x0000000FuL << RTC_1_SECONDS_OFFSET)
 300:Generated_Source\PSoC4/RTC_1.h **** 
 301:Generated_Source\PSoC4/RTC_1.h **** #define RTC_1_HOURS_FULL_MASK        (RTC_1_10_HOURS_MASK   | RTC_1_HOURS_MASK)
 302:Generated_Source\PSoC4/RTC_1.h **** #define RTC_1_MINUTES_FULL_MASK      (RTC_1_10_MINUTES_MASK | RTC_1_MINUTES_MASK)
 303:Generated_Source\PSoC4/RTC_1.h **** #define RTC_1_SECONDS_FULL_MASK      (RTC_1_10_SECONDS_MASK | RTC_1_SECONDS_MASK)
 304:Generated_Source\PSoC4/RTC_1.h **** 
 305:Generated_Source\PSoC4/RTC_1.h **** #define RTC_1_ALARM_SEC_MASK         (0x00000001uL)
 306:Generated_Source\PSoC4/RTC_1.h **** #define RTC_1_ALARM_MIN_MASK         (0x00000002uL)
 307:Generated_Source\PSoC4/RTC_1.h **** #define RTC_1_ALARM_HOUR_MASK        (0x00000004uL)
 308:Generated_Source\PSoC4/RTC_1.h **** #define RTC_1_ALARM_DAYOFWEEK_MASK   (0x00000008uL)
 309:Generated_Source\PSoC4/RTC_1.h **** #define RTC_1_ALARM_DAYOFMONTH_MASK  (0x00000010uL)
 310:Generated_Source\PSoC4/RTC_1.h **** #define RTC_1_ALARM_MONTH_MASK       (0x00000020uL)
 311:Generated_Source\PSoC4/RTC_1.h **** #define RTC_1_ALARM_YEAR_MASK        (0x00000040uL)
 312:Generated_Source\PSoC4/RTC_1.h **** 
 313:Generated_Source\PSoC4/RTC_1.h **** #define RTC_1_STATUS_DST_OFFSET      (1u)
 314:Generated_Source\PSoC4/RTC_1.h **** #define RTC_1_STATUS_ALARM_OFFSET    (2u)
 315:Generated_Source\PSoC4/RTC_1.h **** #define RTC_1_STATUS_LY_OFFSET       (3u)
 316:Generated_Source\PSoC4/RTC_1.h **** #define RTC_1_STATUS_AM_PM_OFFSET    (4u)
ARM GAS  C:\Users\ROUSSMA\AppData\Local\Temp\cc8VsTWP.s 			page 7


 317:Generated_Source\PSoC4/RTC_1.h **** 
 318:Generated_Source\PSoC4/RTC_1.h **** /* Definition of the RTC status values. */
 319:Generated_Source\PSoC4/RTC_1.h **** #define RTC_1_STATUS_DST             (1uL << RTC_1_STATUS_DST_OFFSET)
 320:Generated_Source\PSoC4/RTC_1.h **** #define RTC_1_STATUS_LY              (1uL << RTC_1_STATUS_LY_OFFSET)
 321:Generated_Source\PSoC4/RTC_1.h **** #define RTC_1_STATUS_AM_PM           (1uL << RTC_1_STATUS_AM_PM_OFFSET)
 322:Generated_Source\PSoC4/RTC_1.h **** 
 323:Generated_Source\PSoC4/RTC_1.h **** /* Number of bits per one BCD digit. */
 324:Generated_Source\PSoC4/RTC_1.h **** #define RTC_1_BCD_NUMBER_SIZE        (4u)
 325:Generated_Source\PSoC4/RTC_1.h **** #define RTC_1_BCD_ONE_DIGIT_MASK     (0x0000000FuL)
 326:Generated_Source\PSoC4/RTC_1.h **** 
 327:Generated_Source\PSoC4/RTC_1.h **** /*******************************************************************************
 328:Generated_Source\PSoC4/RTC_1.h **** *    Function Prototypes
 329:Generated_Source\PSoC4/RTC_1.h **** *******************************************************************************/
 330:Generated_Source\PSoC4/RTC_1.h **** /**
 331:Generated_Source\PSoC4/RTC_1.h **** * \addtogroup group_api
 332:Generated_Source\PSoC4/RTC_1.h **** * @{
 333:Generated_Source\PSoC4/RTC_1.h **** */
 334:Generated_Source\PSoC4/RTC_1.h **** void   RTC_1_Start(void);
 335:Generated_Source\PSoC4/RTC_1.h **** void   RTC_1_Stop(void);
 336:Generated_Source\PSoC4/RTC_1.h **** void   RTC_1_Init(void);
 337:Generated_Source\PSoC4/RTC_1.h **** void   RTC_1_SetUnixTime(uint64 unixTime);
 338:Generated_Source\PSoC4/RTC_1.h **** uint64 RTC_1_GetUnixTime(void);
 339:Generated_Source\PSoC4/RTC_1.h **** void   RTC_1_SetPeriod(uint32 ticks, uint32 refOneSecTicks);
 340:Generated_Source\PSoC4/RTC_1.h **** uint32 RTC_1_GetPeriod(void);
 341:Generated_Source\PSoC4/RTC_1.h **** uint32 RTC_1_GetRefOneSec(void);
 342:Generated_Source\PSoC4/RTC_1.h **** void   RTC_1_SetDateAndTime(uint32 inputTime, uint32 inputDate);
 343:Generated_Source\PSoC4/RTC_1.h **** void   RTC_1_GetDateAndTime(RTC_1_DATE_TIME* dateTime);
 344:Generated_Source\PSoC4/RTC_1.h **** uint32 RTC_1_GetTime(void);
 345:Generated_Source\PSoC4/RTC_1.h **** uint32 RTC_1_GetDate(void);
 346:Generated_Source\PSoC4/RTC_1.h **** void   RTC_1_SetAlarmDateAndTime(const RTC_1_DATE_TIME* alarmTime);
 347:Generated_Source\PSoC4/RTC_1.h **** void   RTC_1_GetAlarmDateAndTime(RTC_1_DATE_TIME* alarmTimeDate);
 348:Generated_Source\PSoC4/RTC_1.h **** void   RTC_1_SetAlarmMask(uint32 mask);
 349:Generated_Source\PSoC4/RTC_1.h **** uint32 RTC_1_GetAlarmMask(void);
 350:Generated_Source\PSoC4/RTC_1.h **** uint32 RTC_1_ReadStatus(void);
 351:Generated_Source\PSoC4/RTC_1.h **** uint32 RTC_1_GetAlarmStatus(void);
 352:Generated_Source\PSoC4/RTC_1.h **** void   RTC_1_ClearAlarmStatus(void);
 353:Generated_Source\PSoC4/RTC_1.h **** void   RTC_1_SetDSTStartTime(const RTC_1_DST_TIME* dstStartTime,
 354:Generated_Source\PSoC4/RTC_1.h ****                                               RTC_1_DST_DATETYPE_ENUM type);
 355:Generated_Source\PSoC4/RTC_1.h **** void   RTC_1_SetDSTStopTime(const RTC_1_DST_TIME* dstStopTime,
 356:Generated_Source\PSoC4/RTC_1.h ****                                              RTC_1_DST_DATETYPE_ENUM type);
 357:Generated_Source\PSoC4/RTC_1.h **** uint32 RTC_1_ConvertBCDToDec(uint32 bcdNum);
 358:Generated_Source\PSoC4/RTC_1.h **** uint32 RTC_1_ConvertDecToBCD(uint32 decNum);
 359:Generated_Source\PSoC4/RTC_1.h **** void   RTC_1_Update(void);
 360:Generated_Source\PSoC4/RTC_1.h **** void*  RTC_1_SetAlarmHandler(void (*CallbackFunction)(void));
 361:Generated_Source\PSoC4/RTC_1.h **** 
 362:Generated_Source\PSoC4/RTC_1.h **** static uint32 RTC_1_ConstructDate(uint32 month, uint32 day, uint32 year);
 363:Generated_Source\PSoC4/RTC_1.h **** static uint32 RTC_1_ConstructTime(uint32 timeFormat, uint32 stateAmPm, uint32 hour, uint32 min, uin
 364:Generated_Source\PSoC4/RTC_1.h **** /** @} api */
 365:Generated_Source\PSoC4/RTC_1.h **** 
 366:Generated_Source\PSoC4/RTC_1.h **** static uint32 RTC_1_GetTimeFormat(uint32 inputTime);
 367:Generated_Source\PSoC4/RTC_1.h **** static uint32 RTC_1_SetTimeFormat(uint32 inputTime, uint32 timeFormat);
 368:Generated_Source\PSoC4/RTC_1.h **** 
 369:Generated_Source\PSoC4/RTC_1.h **** /**
 370:Generated_Source\PSoC4/RTC_1.h **** * \addtogroup group_api
 371:Generated_Source\PSoC4/RTC_1.h **** * @{
 372:Generated_Source\PSoC4/RTC_1.h **** */
 373:Generated_Source\PSoC4/RTC_1.h **** static uint32 RTC_1_LeapYear(uint32 year);
ARM GAS  C:\Users\ROUSSMA\AppData\Local\Temp\cc8VsTWP.s 			page 8


 374:Generated_Source\PSoC4/RTC_1.h **** static uint32 RTC_1_IsBitSet(uint32 var, uint32 mask);
 375:Generated_Source\PSoC4/RTC_1.h **** static uint32 RTC_1_GetSecond(uint32 inputTime);
 376:Generated_Source\PSoC4/RTC_1.h **** static uint32 RTC_1_GetMinutes(uint32 inputTime);
 377:Generated_Source\PSoC4/RTC_1.h **** static uint32 RTC_1_GetHours(uint32 inputTime);
 378:Generated_Source\PSoC4/RTC_1.h **** static uint32 RTC_1_GetAmPm(uint32 inputTime);
 379:Generated_Source\PSoC4/RTC_1.h **** static uint32 RTC_1_GetDay(uint32 date);
 380:Generated_Source\PSoC4/RTC_1.h **** static uint32 RTC_1_GetMonth(uint32 date);
 381:Generated_Source\PSoC4/RTC_1.h **** static uint32 RTC_1_GetYear(uint32 date);
 382:Generated_Source\PSoC4/RTC_1.h **** /** @} api */
 383:Generated_Source\PSoC4/RTC_1.h **** 
 384:Generated_Source\PSoC4/RTC_1.h **** static uint32 RTC_1_SetSecond(uint32 inputTime, uint32 inputSecond);
 385:Generated_Source\PSoC4/RTC_1.h **** static uint32 RTC_1_SetMinutes(uint32 inputTime, uint32 inputMinute);
 386:Generated_Source\PSoC4/RTC_1.h **** static uint32 RTC_1_SetHours(uint32 inputTime, uint32 inputHours);
 387:Generated_Source\PSoC4/RTC_1.h **** static uint32 RTC_1_SetAmPm(uint32 inputTime, uint32 periodOfDay);
 388:Generated_Source\PSoC4/RTC_1.h **** static uint32 RTC_1_SetDay(uint32 inputDate, uint32 inputDay);
 389:Generated_Source\PSoC4/RTC_1.h **** static uint32 RTC_1_SetMonth(uint32 inputDate, uint32 inputMonth);
 390:Generated_Source\PSoC4/RTC_1.h **** static uint32 RTC_1_SetYear(uint32 inputDate, uint32 inputYear);
 391:Generated_Source\PSoC4/RTC_1.h **** 
 392:Generated_Source\PSoC4/RTC_1.h **** uint64 RTC_1_ConstructUnixAlarmTime(const RTC_1_DATE_TIME* alarmTime, uint8 alarmCfgMask);
 393:Generated_Source\PSoC4/RTC_1.h **** uint64 RTC_1_GetDstUnixTime(const RTC_1_DST_TIME* dstTime);
 394:Generated_Source\PSoC4/RTC_1.h **** uint64 RTC_1_GetNexAlarmTime(uint64 curUnixTime, uint8 alarmCfgMask);
 395:Generated_Source\PSoC4/RTC_1.h **** 
 396:Generated_Source\PSoC4/RTC_1.h **** static uint32 RTC_1_GetNextMinSec(uint32 curVal);
 397:Generated_Source\PSoC4/RTC_1.h **** static uint32 RTC_1_GetNextHour(uint32 curVal);
 398:Generated_Source\PSoC4/RTC_1.h **** static uint32 RTC_1_GetNextDay(uint32 curYear, uint32 curMonth, uint32 curDay, uint32 alarmCfgMask)
 399:Generated_Source\PSoC4/RTC_1.h **** static uint32 RTC_1_GetNextMonth(uint32 curMonth);
 400:Generated_Source\PSoC4/RTC_1.h **** static uint32 RTC_1_GetNextYear(uint32 curYear);
 401:Generated_Source\PSoC4/RTC_1.h **** static uint32 RTC_1_GetDayOfWeek(uint32 day, uint32 month, uint32 year);
 402:Generated_Source\PSoC4/RTC_1.h **** 
 403:Generated_Source\PSoC4/RTC_1.h **** uint32 RTC_1_DaysInMonth(uint32 month, uint32 year);
 404:Generated_Source\PSoC4/RTC_1.h **** uint32 RTC_1_DaysBeforeMonth(uint32 month, uint32 year);
 405:Generated_Source\PSoC4/RTC_1.h **** 
 406:Generated_Source\PSoC4/RTC_1.h **** /**
 407:Generated_Source\PSoC4/RTC_1.h **** * \addtogroup group_api
 408:Generated_Source\PSoC4/RTC_1.h **** * @{
 409:Generated_Source\PSoC4/RTC_1.h **** */
 410:Generated_Source\PSoC4/RTC_1.h **** void   RTC_1_UnixToDateTime(RTC_1_DATE_TIME* dateTime, uint64 unixTime, uint32 timeFormat);
 411:Generated_Source\PSoC4/RTC_1.h **** uint64 RTC_1_DateTimeToUnix(uint32 inputDate, uint32 inputTime);
 412:Generated_Source\PSoC4/RTC_1.h **** /** @} api */
 413:Generated_Source\PSoC4/RTC_1.h **** 
 414:Generated_Source\PSoC4/RTC_1.h **** uint32 RTC_1_RelativeToFixed(uint32 dayOfWeek, uint32 weekOfMonth, uint32 month, uint32 year);
 415:Generated_Source\PSoC4/RTC_1.h **** 
 416:Generated_Source\PSoC4/RTC_1.h **** 
 417:Generated_Source\PSoC4/RTC_1.h **** #if defined(CYDEV_RTC_SOURCE_WDT)
 418:Generated_Source\PSoC4/RTC_1.h ****     #if((0u != CYDEV_WDT_GENERATE_ISR) && (0u == RTC_1_INITIAL_UPDATE_MODE))
 419:Generated_Source\PSoC4/RTC_1.h ****         static void RTC_1_CySysRtcSetCallback(uint32 wdtNumber);
 420:Generated_Source\PSoC4/RTC_1.h ****         static void RTC_1_CySysRtcResetCallback(uint32 wdtNumber);
 421:Generated_Source\PSoC4/RTC_1.h ****     #endif /* ((0u != CYDEV_WDT_GENERATE_ISR) && (0u == RTC_1_INITIAL_UPDATE_MODE)) */
 422:Generated_Source\PSoC4/RTC_1.h **** #endif /* (CYDEV_RTC_SOURCE_WDT) */
 423:Generated_Source\PSoC4/RTC_1.h **** 
 424:Generated_Source\PSoC4/RTC_1.h **** /*******************************************************************************
 425:Generated_Source\PSoC4/RTC_1.h **** * Function Name: RTC_1_IsBitSet
 426:Generated_Source\PSoC4/RTC_1.h **** ****************************************************************************//**
 427:Generated_Source\PSoC4/RTC_1.h **** *
 428:Generated_Source\PSoC4/RTC_1.h **** * \brief
 429:Generated_Source\PSoC4/RTC_1.h **** *  Checks the state of a bit passed through parameter.
 430:Generated_Source\PSoC4/RTC_1.h **** *
ARM GAS  C:\Users\ROUSSMA\AppData\Local\Temp\cc8VsTWP.s 			page 9


 431:Generated_Source\PSoC4/RTC_1.h **** * \param
 432:Generated_Source\PSoC4/RTC_1.h **** *  var The variable to be checked.
 433:Generated_Source\PSoC4/RTC_1.h **** * \param
 434:Generated_Source\PSoC4/RTC_1.h **** *  mask The mask for a bit to be checked.
 435:Generated_Source\PSoC4/RTC_1.h **** *
 436:Generated_Source\PSoC4/RTC_1.h **** * \return
 437:Generated_Source\PSoC4/RTC_1.h **** *  0u - Bit is not set.
 438:Generated_Source\PSoC4/RTC_1.h **** * \return
 439:Generated_Source\PSoC4/RTC_1.h **** *  1u - Bit is set.
 440:Generated_Source\PSoC4/RTC_1.h **** *
 441:Generated_Source\PSoC4/RTC_1.h **** *******************************************************************************/
 442:Generated_Source\PSoC4/RTC_1.h **** static CY_INLINE uint32 RTC_1_IsBitSet(uint32 var, uint32 mask)
 443:Generated_Source\PSoC4/RTC_1.h **** {
  27              		.loc 1 443 0
  28              		.cfi_startproc
  29              		@ args = 0, pretend = 0, frame = 8
  30              		@ frame_needed = 1, uses_anonymous_args = 0
  31 0000 80B5     		push	{r7, lr}
  32              		.cfi_def_cfa_offset 8
  33              		.cfi_offset 7, -8
  34              		.cfi_offset 14, -4
  35 0002 82B0     		sub	sp, sp, #8
  36              		.cfi_def_cfa_offset 16
  37 0004 00AF     		add	r7, sp, #0
  38              		.cfi_def_cfa_register 7
  39 0006 7860     		str	r0, [r7, #4]
  40 0008 3960     		str	r1, [r7]
 444:Generated_Source\PSoC4/RTC_1.h ****     return ((mask == (var & mask)) ? 1Lu : 0Lu);
  41              		.loc 1 444 0
  42 000a 7B68     		ldr	r3, [r7, #4]
  43 000c 3A68     		ldr	r2, [r7]
  44 000e 1A40     		ands	r2, r3
  45 0010 3B68     		ldr	r3, [r7]
  46 0012 9A42     		cmp	r2, r3
  47 0014 01D1     		bne	.L2
  48              		.loc 1 444 0 is_stmt 0 discriminator 1
  49 0016 0123     		movs	r3, #1
  50 0018 00E0     		b	.L4
  51              	.L2:
  52              		.loc 1 444 0 discriminator 2
  53 001a 0023     		movs	r3, #0
  54              	.L4:
 445:Generated_Source\PSoC4/RTC_1.h **** }
  55              		.loc 1 445 0 is_stmt 1 discriminator 5
  56 001c 1800     		movs	r0, r3
  57 001e BD46     		mov	sp, r7
  58 0020 02B0     		add	sp, sp, #8
  59              		@ sp needed
  60 0022 80BD     		pop	{r7, pc}
  61              		.cfi_endproc
  62              	.LFE2:
  63              		.size	RTC_1_IsBitSet, .-RTC_1_IsBitSet
  64              		.global	__aeabi_uidivmod
  65              		.section	.text.RTC_1_LeapYear,"ax",%progbits
  66              		.align	2
  67              		.code	16
  68              		.thumb_func
ARM GAS  C:\Users\ROUSSMA\AppData\Local\Temp\cc8VsTWP.s 			page 10


  69              		.type	RTC_1_LeapYear, %function
  70              	RTC_1_LeapYear:
  71              	.LFB3:
 446:Generated_Source\PSoC4/RTC_1.h **** 
 447:Generated_Source\PSoC4/RTC_1.h **** 
 448:Generated_Source\PSoC4/RTC_1.h **** /*******************************************************************************
 449:Generated_Source\PSoC4/RTC_1.h **** * Function Name: RTC_1_LeapYear
 450:Generated_Source\PSoC4/RTC_1.h **** ****************************************************************************//**
 451:Generated_Source\PSoC4/RTC_1.h **** *
 452:Generated_Source\PSoC4/RTC_1.h **** * \brief
 453:Generated_Source\PSoC4/RTC_1.h **** * Checks whether the year passed through the parameter is
 454:Generated_Source\PSoC4/RTC_1.h **** * leap or no.
 455:Generated_Source\PSoC4/RTC_1.h **** *
 456:Generated_Source\PSoC4/RTC_1.h **** * \param
 457:Generated_Source\PSoC4/RTC_1.h **** *  year The year to be checked.
 458:Generated_Source\PSoC4/RTC_1.h **** *
 459:Generated_Source\PSoC4/RTC_1.h **** *
 460:Generated_Source\PSoC4/RTC_1.h **** * \return
 461:Generated_Source\PSoC4/RTC_1.h **** *  0u - The year is not leap.
 462:Generated_Source\PSoC4/RTC_1.h **** * \return
 463:Generated_Source\PSoC4/RTC_1.h **** *  1u - The year is leap.
 464:Generated_Source\PSoC4/RTC_1.h **** *
 465:Generated_Source\PSoC4/RTC_1.h **** *******************************************************************************/
 466:Generated_Source\PSoC4/RTC_1.h **** static CY_INLINE uint32 RTC_1_LeapYear(uint32 year)
 467:Generated_Source\PSoC4/RTC_1.h **** {
  72              		.loc 1 467 0
  73              		.cfi_startproc
  74              		@ args = 0, pretend = 0, frame = 16
  75              		@ frame_needed = 1, uses_anonymous_args = 0
  76 0000 80B5     		push	{r7, lr}
  77              		.cfi_def_cfa_offset 8
  78              		.cfi_offset 7, -8
  79              		.cfi_offset 14, -4
  80 0002 84B0     		sub	sp, sp, #16
  81              		.cfi_def_cfa_offset 24
  82 0004 00AF     		add	r7, sp, #0
  83              		.cfi_def_cfa_register 7
  84 0006 7860     		str	r0, [r7, #4]
 468:Generated_Source\PSoC4/RTC_1.h ****     uint32 retVal;
 469:Generated_Source\PSoC4/RTC_1.h **** 
 470:Generated_Source\PSoC4/RTC_1.h ****     if(((0u == (year % 4Lu)) && (0u != (year % 100Lu))) || (0u == (year % 400Lu)))
  85              		.loc 1 470 0
  86 0008 7B68     		ldr	r3, [r7, #4]
  87 000a 0322     		movs	r2, #3
  88 000c 1340     		ands	r3, r2
  89 000e 06D1     		bne	.L6
  90              		.loc 1 470 0 is_stmt 0 discriminator 1
  91 0010 7B68     		ldr	r3, [r7, #4]
  92 0012 6421     		movs	r1, #100
  93 0014 1800     		movs	r0, r3
  94 0016 FFF7FEFF 		bl	__aeabi_uidivmod
  95 001a 0B1E     		subs	r3, r1, #0
  96 001c 07D1     		bne	.L7
  97              	.L6:
  98              		.loc 1 470 0 discriminator 3
  99 001e 7A68     		ldr	r2, [r7, #4]
 100 0020 C823     		movs	r3, #200
ARM GAS  C:\Users\ROUSSMA\AppData\Local\Temp\cc8VsTWP.s 			page 11


 101 0022 5900     		lsls	r1, r3, #1
 102 0024 1000     		movs	r0, r2
 103 0026 FFF7FEFF 		bl	__aeabi_uidivmod
 104 002a 0B1E     		subs	r3, r1, #0
 105 002c 02D1     		bne	.L8
 106              	.L7:
 471:Generated_Source\PSoC4/RTC_1.h ****     {
 472:Generated_Source\PSoC4/RTC_1.h ****         retVal = 1uL;
 107              		.loc 1 472 0 is_stmt 1
 108 002e 0123     		movs	r3, #1
 109 0030 FB60     		str	r3, [r7, #12]
 110 0032 01E0     		b	.L9
 111              	.L8:
 473:Generated_Source\PSoC4/RTC_1.h ****     }
 474:Generated_Source\PSoC4/RTC_1.h ****     else
 475:Generated_Source\PSoC4/RTC_1.h ****     {
 476:Generated_Source\PSoC4/RTC_1.h ****         retVal = 0uL;
 112              		.loc 1 476 0
 113 0034 0023     		movs	r3, #0
 114 0036 FB60     		str	r3, [r7, #12]
 115              	.L9:
 477:Generated_Source\PSoC4/RTC_1.h ****     }
 478:Generated_Source\PSoC4/RTC_1.h **** 
 479:Generated_Source\PSoC4/RTC_1.h ****     return(retVal);
 116              		.loc 1 479 0
 117 0038 FB68     		ldr	r3, [r7, #12]
 480:Generated_Source\PSoC4/RTC_1.h **** }
 118              		.loc 1 480 0
 119 003a 1800     		movs	r0, r3
 120 003c BD46     		mov	sp, r7
 121 003e 04B0     		add	sp, sp, #16
 122              		@ sp needed
 123 0040 80BD     		pop	{r7, pc}
 124              		.cfi_endproc
 125              	.LFE3:
 126              		.size	RTC_1_LeapYear, .-RTC_1_LeapYear
 127 0042 C046     		.section	.text.RTC_1_GetSecond,"ax",%progbits
 128              		.align	2
 129              		.code	16
 130              		.thumb_func
 131              		.type	RTC_1_GetSecond, %function
 132              	RTC_1_GetSecond:
 133              	.LFB4:
 481:Generated_Source\PSoC4/RTC_1.h **** 
 482:Generated_Source\PSoC4/RTC_1.h **** 
 483:Generated_Source\PSoC4/RTC_1.h **** /*******************************************************************************
 484:Generated_Source\PSoC4/RTC_1.h **** * Function Name: RTC_1_GetSecond
 485:Generated_Source\PSoC4/RTC_1.h **** ****************************************************************************//**
 486:Generated_Source\PSoC4/RTC_1.h **** *
 487:Generated_Source\PSoC4/RTC_1.h **** * \brief
 488:Generated_Source\PSoC4/RTC_1.h **** *  Returns the seconds value from the time value that is passed as a/the parameter.
 489:Generated_Source\PSoC4/RTC_1.h **** *
 490:Generated_Source\PSoC4/RTC_1.h **** * \param
 491:Generated_Source\PSoC4/RTC_1.h **** *  time The time value.
 492:Generated_Source\PSoC4/RTC_1.h **** *
 493:Generated_Source\PSoC4/RTC_1.h **** * \return
 494:Generated_Source\PSoC4/RTC_1.h **** *  The seconds value.
ARM GAS  C:\Users\ROUSSMA\AppData\Local\Temp\cc8VsTWP.s 			page 12


 495:Generated_Source\PSoC4/RTC_1.h **** *
 496:Generated_Source\PSoC4/RTC_1.h **** *******************************************************************************/
 497:Generated_Source\PSoC4/RTC_1.h **** static CY_INLINE uint32 RTC_1_GetSecond(uint32 inputTime)
 498:Generated_Source\PSoC4/RTC_1.h **** {
 134              		.loc 1 498 0
 135              		.cfi_startproc
 136              		@ args = 0, pretend = 0, frame = 16
 137              		@ frame_needed = 1, uses_anonymous_args = 0
 138 0000 80B5     		push	{r7, lr}
 139              		.cfi_def_cfa_offset 8
 140              		.cfi_offset 7, -8
 141              		.cfi_offset 14, -4
 142 0002 84B0     		sub	sp, sp, #16
 143              		.cfi_def_cfa_offset 24
 144 0004 00AF     		add	r7, sp, #0
 145              		.cfi_def_cfa_register 7
 146 0006 7860     		str	r0, [r7, #4]
 499:Generated_Source\PSoC4/RTC_1.h ****     uint32 retVal;
 500:Generated_Source\PSoC4/RTC_1.h **** 
 501:Generated_Source\PSoC4/RTC_1.h ****     retVal  = ((inputTime & RTC_1_10_SECONDS_MASK) >> RTC_1_10_SECONDS_OFFSET) * 10u;
 147              		.loc 1 501 0
 148 0008 7B68     		ldr	r3, [r7, #4]
 149 000a 1B09     		lsrs	r3, r3, #4
 150 000c 0722     		movs	r2, #7
 151 000e 1A40     		ands	r2, r3
 152 0010 1300     		movs	r3, r2
 153 0012 9B00     		lsls	r3, r3, #2
 154 0014 9B18     		adds	r3, r3, r2
 155 0016 5B00     		lsls	r3, r3, #1
 156 0018 FB60     		str	r3, [r7, #12]
 502:Generated_Source\PSoC4/RTC_1.h ****     retVal += (inputTime & RTC_1_SECONDS_MASK) >> RTC_1_SECONDS_OFFSET;
 157              		.loc 1 502 0
 158 001a 7B68     		ldr	r3, [r7, #4]
 159 001c 0F22     		movs	r2, #15
 160 001e 1340     		ands	r3, r2
 161 0020 FA68     		ldr	r2, [r7, #12]
 162 0022 D318     		adds	r3, r2, r3
 163 0024 FB60     		str	r3, [r7, #12]
 503:Generated_Source\PSoC4/RTC_1.h **** 
 504:Generated_Source\PSoC4/RTC_1.h ****     return (retVal);
 164              		.loc 1 504 0
 165 0026 FB68     		ldr	r3, [r7, #12]
 505:Generated_Source\PSoC4/RTC_1.h **** }
 166              		.loc 1 505 0
 167 0028 1800     		movs	r0, r3
 168 002a BD46     		mov	sp, r7
 169 002c 04B0     		add	sp, sp, #16
 170              		@ sp needed
 171 002e 80BD     		pop	{r7, pc}
 172              		.cfi_endproc
 173              	.LFE4:
 174              		.size	RTC_1_GetSecond, .-RTC_1_GetSecond
 175              		.section	.text.RTC_1_GetMinutes,"ax",%progbits
 176              		.align	2
 177              		.code	16
 178              		.thumb_func
 179              		.type	RTC_1_GetMinutes, %function
ARM GAS  C:\Users\ROUSSMA\AppData\Local\Temp\cc8VsTWP.s 			page 13


 180              	RTC_1_GetMinutes:
 181              	.LFB5:
 506:Generated_Source\PSoC4/RTC_1.h **** 
 507:Generated_Source\PSoC4/RTC_1.h **** 
 508:Generated_Source\PSoC4/RTC_1.h **** /*******************************************************************************
 509:Generated_Source\PSoC4/RTC_1.h **** * Function Name: RTC_1_GetMinutes
 510:Generated_Source\PSoC4/RTC_1.h **** ****************************************************************************//**
 511:Generated_Source\PSoC4/RTC_1.h **** *
 512:Generated_Source\PSoC4/RTC_1.h **** * \brief
 513:Generated_Source\PSoC4/RTC_1.h **** *  Returns the minutes value from the time value that is passed as a/the 
 514:Generated_Source\PSoC4/RTC_1.h **** * parameter.
 515:Generated_Source\PSoC4/RTC_1.h **** *
 516:Generated_Source\PSoC4/RTC_1.h **** * \param
 517:Generated_Source\PSoC4/RTC_1.h **** *  time The time value.
 518:Generated_Source\PSoC4/RTC_1.h **** *
 519:Generated_Source\PSoC4/RTC_1.h **** * \return
 520:Generated_Source\PSoC4/RTC_1.h **** *  The minutes value.
 521:Generated_Source\PSoC4/RTC_1.h **** *
 522:Generated_Source\PSoC4/RTC_1.h **** *******************************************************************************/
 523:Generated_Source\PSoC4/RTC_1.h **** static CY_INLINE uint32 RTC_1_GetMinutes(uint32 inputTime)
 524:Generated_Source\PSoC4/RTC_1.h **** {
 182              		.loc 1 524 0
 183              		.cfi_startproc
 184              		@ args = 0, pretend = 0, frame = 16
 185              		@ frame_needed = 1, uses_anonymous_args = 0
 186 0000 80B5     		push	{r7, lr}
 187              		.cfi_def_cfa_offset 8
 188              		.cfi_offset 7, -8
 189              		.cfi_offset 14, -4
 190 0002 84B0     		sub	sp, sp, #16
 191              		.cfi_def_cfa_offset 24
 192 0004 00AF     		add	r7, sp, #0
 193              		.cfi_def_cfa_register 7
 194 0006 7860     		str	r0, [r7, #4]
 525:Generated_Source\PSoC4/RTC_1.h ****     uint32 retVal;
 526:Generated_Source\PSoC4/RTC_1.h **** 
 527:Generated_Source\PSoC4/RTC_1.h ****     retVal  = ((inputTime & RTC_1_10_MINUTES_MASK) >> RTC_1_10_MINUTES_OFFSET) * 10u;
 195              		.loc 1 527 0
 196 0008 7B68     		ldr	r3, [r7, #4]
 197 000a 1B0B     		lsrs	r3, r3, #12
 198 000c 0722     		movs	r2, #7
 199 000e 1A40     		ands	r2, r3
 200 0010 1300     		movs	r3, r2
 201 0012 9B00     		lsls	r3, r3, #2
 202 0014 9B18     		adds	r3, r3, r2
 203 0016 5B00     		lsls	r3, r3, #1
 204 0018 FB60     		str	r3, [r7, #12]
 528:Generated_Source\PSoC4/RTC_1.h ****     retVal += (inputTime & RTC_1_MINUTES_MASK) >> RTC_1_MINUTES_OFFSET;
 205              		.loc 1 528 0
 206 001a 7B68     		ldr	r3, [r7, #4]
 207 001c 1B0A     		lsrs	r3, r3, #8
 208 001e 0F22     		movs	r2, #15
 209 0020 1340     		ands	r3, r2
 210 0022 FA68     		ldr	r2, [r7, #12]
 211 0024 D318     		adds	r3, r2, r3
 212 0026 FB60     		str	r3, [r7, #12]
 529:Generated_Source\PSoC4/RTC_1.h **** 
ARM GAS  C:\Users\ROUSSMA\AppData\Local\Temp\cc8VsTWP.s 			page 14


 530:Generated_Source\PSoC4/RTC_1.h ****     return (retVal);
 213              		.loc 1 530 0
 214 0028 FB68     		ldr	r3, [r7, #12]
 531:Generated_Source\PSoC4/RTC_1.h **** }
 215              		.loc 1 531 0
 216 002a 1800     		movs	r0, r3
 217 002c BD46     		mov	sp, r7
 218 002e 04B0     		add	sp, sp, #16
 219              		@ sp needed
 220 0030 80BD     		pop	{r7, pc}
 221              		.cfi_endproc
 222              	.LFE5:
 223              		.size	RTC_1_GetMinutes, .-RTC_1_GetMinutes
 224 0032 C046     		.section	.text.RTC_1_GetHours,"ax",%progbits
 225              		.align	2
 226              		.code	16
 227              		.thumb_func
 228              		.type	RTC_1_GetHours, %function
 229              	RTC_1_GetHours:
 230              	.LFB6:
 532:Generated_Source\PSoC4/RTC_1.h **** 
 533:Generated_Source\PSoC4/RTC_1.h **** 
 534:Generated_Source\PSoC4/RTC_1.h **** /*******************************************************************************
 535:Generated_Source\PSoC4/RTC_1.h **** * Function Name: RTC_1_GetHours
 536:Generated_Source\PSoC4/RTC_1.h **** ****************************************************************************//**
 537:Generated_Source\PSoC4/RTC_1.h **** *
 538:Generated_Source\PSoC4/RTC_1.h **** * \brief
 539:Generated_Source\PSoC4/RTC_1.h **** *  Returns the hours value from the time value that is passed as a/the parameter.
 540:Generated_Source\PSoC4/RTC_1.h **** *
 541:Generated_Source\PSoC4/RTC_1.h **** * \param
 542:Generated_Source\PSoC4/RTC_1.h **** *  time The time value.
 543:Generated_Source\PSoC4/RTC_1.h **** *
 544:Generated_Source\PSoC4/RTC_1.h **** * \return
 545:Generated_Source\PSoC4/RTC_1.h **** *  The hours value.
 546:Generated_Source\PSoC4/RTC_1.h **** *
 547:Generated_Source\PSoC4/RTC_1.h **** *******************************************************************************/
 548:Generated_Source\PSoC4/RTC_1.h **** static CY_INLINE uint32 RTC_1_GetHours(uint32 inputTime)
 549:Generated_Source\PSoC4/RTC_1.h **** {
 231              		.loc 1 549 0
 232              		.cfi_startproc
 233              		@ args = 0, pretend = 0, frame = 16
 234              		@ frame_needed = 1, uses_anonymous_args = 0
 235 0000 80B5     		push	{r7, lr}
 236              		.cfi_def_cfa_offset 8
 237              		.cfi_offset 7, -8
 238              		.cfi_offset 14, -4
 239 0002 84B0     		sub	sp, sp, #16
 240              		.cfi_def_cfa_offset 24
 241 0004 00AF     		add	r7, sp, #0
 242              		.cfi_def_cfa_register 7
 243 0006 7860     		str	r0, [r7, #4]
 550:Generated_Source\PSoC4/RTC_1.h ****     uint32 retVal;
 551:Generated_Source\PSoC4/RTC_1.h **** 
 552:Generated_Source\PSoC4/RTC_1.h ****     retVal  = ((inputTime & RTC_1_10_HOURS_MASK) >> RTC_1_10_HOURS_OFFSET) * 10u;
 244              		.loc 1 552 0
 245 0008 7B68     		ldr	r3, [r7, #4]
 246 000a 1B0D     		lsrs	r3, r3, #20
ARM GAS  C:\Users\ROUSSMA\AppData\Local\Temp\cc8VsTWP.s 			page 15


 247 000c 0322     		movs	r2, #3
 248 000e 1A40     		ands	r2, r3
 249 0010 1300     		movs	r3, r2
 250 0012 9B00     		lsls	r3, r3, #2
 251 0014 9B18     		adds	r3, r3, r2
 252 0016 5B00     		lsls	r3, r3, #1
 253 0018 FB60     		str	r3, [r7, #12]
 553:Generated_Source\PSoC4/RTC_1.h ****     retVal += (inputTime & RTC_1_HOURS_MASK) >> RTC_1_HOURS_OFFSET;
 254              		.loc 1 553 0
 255 001a 7B68     		ldr	r3, [r7, #4]
 256 001c 1B0C     		lsrs	r3, r3, #16
 257 001e 0F22     		movs	r2, #15
 258 0020 1340     		ands	r3, r2
 259 0022 FA68     		ldr	r2, [r7, #12]
 260 0024 D318     		adds	r3, r2, r3
 261 0026 FB60     		str	r3, [r7, #12]
 554:Generated_Source\PSoC4/RTC_1.h **** 
 555:Generated_Source\PSoC4/RTC_1.h ****     return (retVal);
 262              		.loc 1 555 0
 263 0028 FB68     		ldr	r3, [r7, #12]
 556:Generated_Source\PSoC4/RTC_1.h **** }
 264              		.loc 1 556 0
 265 002a 1800     		movs	r0, r3
 266 002c BD46     		mov	sp, r7
 267 002e 04B0     		add	sp, sp, #16
 268              		@ sp needed
 269 0030 80BD     		pop	{r7, pc}
 270              		.cfi_endproc
 271              	.LFE6:
 272              		.size	RTC_1_GetHours, .-RTC_1_GetHours
 273 0032 C046     		.section	.text.RTC_1_GetAmPm,"ax",%progbits
 274              		.align	2
 275              		.code	16
 276              		.thumb_func
 277              		.type	RTC_1_GetAmPm, %function
 278              	RTC_1_GetAmPm:
 279              	.LFB7:
 557:Generated_Source\PSoC4/RTC_1.h **** 
 558:Generated_Source\PSoC4/RTC_1.h **** 
 559:Generated_Source\PSoC4/RTC_1.h **** /*******************************************************************************
 560:Generated_Source\PSoC4/RTC_1.h **** * Function Name: RTC_1_GetAmPm
 561:Generated_Source\PSoC4/RTC_1.h **** ****************************************************************************//**
 562:Generated_Source\PSoC4/RTC_1.h **** *
 563:Generated_Source\PSoC4/RTC_1.h **** * \brief
 564:Generated_Source\PSoC4/RTC_1.h **** *  Returns the AM/PM status from the time value that is passed as parameter.
 565:Generated_Source\PSoC4/RTC_1.h **** *
 566:Generated_Source\PSoC4/RTC_1.h **** * \param
 567:Generated_Source\PSoC4/RTC_1.h **** *  time The time value.
 568:Generated_Source\PSoC4/RTC_1.h **** *
 569:Generated_Source\PSoC4/RTC_1.h **** * \return
 570:Generated_Source\PSoC4/RTC_1.h **** *  RTC_1_AM - AM.
 571:Generated_Source\PSoC4/RTC_1.h **** * \return
 572:Generated_Source\PSoC4/RTC_1.h **** *  RTC_1_PM - PM.
 573:Generated_Source\PSoC4/RTC_1.h **** *
 574:Generated_Source\PSoC4/RTC_1.h **** *******************************************************************************/
 575:Generated_Source\PSoC4/RTC_1.h **** static CY_INLINE uint32 RTC_1_GetAmPm(uint32 inputTime)
 576:Generated_Source\PSoC4/RTC_1.h **** {
ARM GAS  C:\Users\ROUSSMA\AppData\Local\Temp\cc8VsTWP.s 			page 16


 280              		.loc 1 576 0
 281              		.cfi_startproc
 282              		@ args = 0, pretend = 0, frame = 8
 283              		@ frame_needed = 1, uses_anonymous_args = 0
 284 0000 80B5     		push	{r7, lr}
 285              		.cfi_def_cfa_offset 8
 286              		.cfi_offset 7, -8
 287              		.cfi_offset 14, -4
 288 0002 82B0     		sub	sp, sp, #8
 289              		.cfi_def_cfa_offset 16
 290 0004 00AF     		add	r7, sp, #0
 291              		.cfi_def_cfa_register 7
 292 0006 7860     		str	r0, [r7, #4]
 577:Generated_Source\PSoC4/RTC_1.h ****     return (RTC_1_IsBitSet(inputTime, RTC_1_PERIOD_OF_DAY_MASK));
 293              		.loc 1 577 0
 294 0008 8023     		movs	r3, #128
 295 000a DA03     		lsls	r2, r3, #15
 296 000c 7B68     		ldr	r3, [r7, #4]
 297 000e 1100     		movs	r1, r2
 298 0010 1800     		movs	r0, r3
 299 0012 FFF7FEFF 		bl	RTC_1_IsBitSet
 300 0016 0300     		movs	r3, r0
 578:Generated_Source\PSoC4/RTC_1.h **** }
 301              		.loc 1 578 0
 302 0018 1800     		movs	r0, r3
 303 001a BD46     		mov	sp, r7
 304 001c 02B0     		add	sp, sp, #8
 305              		@ sp needed
 306 001e 80BD     		pop	{r7, pc}
 307              		.cfi_endproc
 308              	.LFE7:
 309              		.size	RTC_1_GetAmPm, .-RTC_1_GetAmPm
 310              		.section	.text.RTC_1_GetDay,"ax",%progbits
 311              		.align	2
 312              		.code	16
 313              		.thumb_func
 314              		.type	RTC_1_GetDay, %function
 315              	RTC_1_GetDay:
 316              	.LFB8:
 579:Generated_Source\PSoC4/RTC_1.h **** 
 580:Generated_Source\PSoC4/RTC_1.h **** 
 581:Generated_Source\PSoC4/RTC_1.h **** /*******************************************************************************
 582:Generated_Source\PSoC4/RTC_1.h **** * Function Name: RTC_1_GetDay
 583:Generated_Source\PSoC4/RTC_1.h **** ****************************************************************************//**
 584:Generated_Source\PSoC4/RTC_1.h **** *
 585:Generated_Source\PSoC4/RTC_1.h **** * \brief
 586:Generated_Source\PSoC4/RTC_1.h **** *  Returns the day value from the date value that is passed as parameter.
 587:Generated_Source\PSoC4/RTC_1.h **** *
 588:Generated_Source\PSoC4/RTC_1.h **** * \param
 589:Generated_Source\PSoC4/RTC_1.h **** *  date The date value.
 590:Generated_Source\PSoC4/RTC_1.h **** *
 591:Generated_Source\PSoC4/RTC_1.h **** * \return
 592:Generated_Source\PSoC4/RTC_1.h **** *  The day value.
 593:Generated_Source\PSoC4/RTC_1.h **** *
 594:Generated_Source\PSoC4/RTC_1.h **** *******************************************************************************/
 595:Generated_Source\PSoC4/RTC_1.h **** static CY_INLINE uint32 RTC_1_GetDay(uint32 date)
 596:Generated_Source\PSoC4/RTC_1.h **** {
ARM GAS  C:\Users\ROUSSMA\AppData\Local\Temp\cc8VsTWP.s 			page 17


 317              		.loc 1 596 0
 318              		.cfi_startproc
 319              		@ args = 0, pretend = 0, frame = 16
 320              		@ frame_needed = 1, uses_anonymous_args = 0
 321 0000 80B5     		push	{r7, lr}
 322              		.cfi_def_cfa_offset 8
 323              		.cfi_offset 7, -8
 324              		.cfi_offset 14, -4
 325 0002 84B0     		sub	sp, sp, #16
 326              		.cfi_def_cfa_offset 24
 327 0004 00AF     		add	r7, sp, #0
 328              		.cfi_def_cfa_register 7
 329 0006 7860     		str	r0, [r7, #4]
 597:Generated_Source\PSoC4/RTC_1.h ****     uint32 retVal;
 598:Generated_Source\PSoC4/RTC_1.h **** 
 599:Generated_Source\PSoC4/RTC_1.h ****     retVal  = ((date & RTC_1_10_DAY_MASK) >> RTC_1_10_DAY_OFFSET) * 10u;
 330              		.loc 1 599 0
 331 0008 7B68     		ldr	r3, [r7, #4]
 332 000a 1B0D     		lsrs	r3, r3, #20
 333 000c 0322     		movs	r2, #3
 334 000e 1A40     		ands	r2, r3
 335 0010 1300     		movs	r3, r2
 336 0012 9B00     		lsls	r3, r3, #2
 337 0014 9B18     		adds	r3, r3, r2
 338 0016 5B00     		lsls	r3, r3, #1
 339 0018 FB60     		str	r3, [r7, #12]
 600:Generated_Source\PSoC4/RTC_1.h ****     retVal += (date & RTC_1_DAY_MASK) >> RTC_1_DAY_OFFSET;
 340              		.loc 1 600 0
 341 001a 7B68     		ldr	r3, [r7, #4]
 342 001c 1B0C     		lsrs	r3, r3, #16
 343 001e 0F22     		movs	r2, #15
 344 0020 1340     		ands	r3, r2
 345 0022 FA68     		ldr	r2, [r7, #12]
 346 0024 D318     		adds	r3, r2, r3
 347 0026 FB60     		str	r3, [r7, #12]
 601:Generated_Source\PSoC4/RTC_1.h **** 
 602:Generated_Source\PSoC4/RTC_1.h ****     return (retVal);
 348              		.loc 1 602 0
 349 0028 FB68     		ldr	r3, [r7, #12]
 603:Generated_Source\PSoC4/RTC_1.h **** }
 350              		.loc 1 603 0
 351 002a 1800     		movs	r0, r3
 352 002c BD46     		mov	sp, r7
 353 002e 04B0     		add	sp, sp, #16
 354              		@ sp needed
 355 0030 80BD     		pop	{r7, pc}
 356              		.cfi_endproc
 357              	.LFE8:
 358              		.size	RTC_1_GetDay, .-RTC_1_GetDay
 359 0032 C046     		.section	.text.RTC_1_GetMonth,"ax",%progbits
 360              		.align	2
 361              		.code	16
 362              		.thumb_func
 363              		.type	RTC_1_GetMonth, %function
 364              	RTC_1_GetMonth:
 365              	.LFB9:
 604:Generated_Source\PSoC4/RTC_1.h **** 
ARM GAS  C:\Users\ROUSSMA\AppData\Local\Temp\cc8VsTWP.s 			page 18


 605:Generated_Source\PSoC4/RTC_1.h **** 
 606:Generated_Source\PSoC4/RTC_1.h **** /*******************************************************************************
 607:Generated_Source\PSoC4/RTC_1.h **** * Function Name: RTC_1_GetMonth
 608:Generated_Source\PSoC4/RTC_1.h **** ****************************************************************************//**
 609:Generated_Source\PSoC4/RTC_1.h **** *
 610:Generated_Source\PSoC4/RTC_1.h **** * \brief
 611:Generated_Source\PSoC4/RTC_1.h **** *  Returns the month value from the date value that is passed as parameter.
 612:Generated_Source\PSoC4/RTC_1.h **** *
 613:Generated_Source\PSoC4/RTC_1.h **** * \param
 614:Generated_Source\PSoC4/RTC_1.h **** *  date The date value.
 615:Generated_Source\PSoC4/RTC_1.h **** *
 616:Generated_Source\PSoC4/RTC_1.h **** * \return
 617:Generated_Source\PSoC4/RTC_1.h **** *  The month value.
 618:Generated_Source\PSoC4/RTC_1.h **** *
 619:Generated_Source\PSoC4/RTC_1.h **** *******************************************************************************/
 620:Generated_Source\PSoC4/RTC_1.h **** static CY_INLINE uint32 RTC_1_GetMonth(uint32 date)
 621:Generated_Source\PSoC4/RTC_1.h **** {
 366              		.loc 1 621 0
 367              		.cfi_startproc
 368              		@ args = 0, pretend = 0, frame = 16
 369              		@ frame_needed = 1, uses_anonymous_args = 0
 370 0000 80B5     		push	{r7, lr}
 371              		.cfi_def_cfa_offset 8
 372              		.cfi_offset 7, -8
 373              		.cfi_offset 14, -4
 374 0002 84B0     		sub	sp, sp, #16
 375              		.cfi_def_cfa_offset 24
 376 0004 00AF     		add	r7, sp, #0
 377              		.cfi_def_cfa_register 7
 378 0006 7860     		str	r0, [r7, #4]
 622:Generated_Source\PSoC4/RTC_1.h ****     uint32 retVal;
 623:Generated_Source\PSoC4/RTC_1.h **** 
 624:Generated_Source\PSoC4/RTC_1.h ****     retVal  = ((date & RTC_1_10_MONTH_MASK) >> RTC_1_10_MONTH_OFFSET) * 10u;
 379              		.loc 1 624 0
 380 0008 7B68     		ldr	r3, [r7, #4]
 381 000a 1B0F     		lsrs	r3, r3, #28
 382 000c 0122     		movs	r2, #1
 383 000e 1A40     		ands	r2, r3
 384 0010 1300     		movs	r3, r2
 385 0012 9B00     		lsls	r3, r3, #2
 386 0014 9B18     		adds	r3, r3, r2
 387 0016 5B00     		lsls	r3, r3, #1
 388 0018 FB60     		str	r3, [r7, #12]
 625:Generated_Source\PSoC4/RTC_1.h ****     retVal += (date & RTC_1_MONTH_MASK) >> RTC_1_MONTH_OFFSET;
 389              		.loc 1 625 0
 390 001a 7B68     		ldr	r3, [r7, #4]
 391 001c 1B0E     		lsrs	r3, r3, #24
 392 001e 0F22     		movs	r2, #15
 393 0020 1340     		ands	r3, r2
 394 0022 FA68     		ldr	r2, [r7, #12]
 395 0024 D318     		adds	r3, r2, r3
 396 0026 FB60     		str	r3, [r7, #12]
 626:Generated_Source\PSoC4/RTC_1.h **** 
 627:Generated_Source\PSoC4/RTC_1.h ****     return (retVal);
 397              		.loc 1 627 0
 398 0028 FB68     		ldr	r3, [r7, #12]
 628:Generated_Source\PSoC4/RTC_1.h **** }
ARM GAS  C:\Users\ROUSSMA\AppData\Local\Temp\cc8VsTWP.s 			page 19


 399              		.loc 1 628 0
 400 002a 1800     		movs	r0, r3
 401 002c BD46     		mov	sp, r7
 402 002e 04B0     		add	sp, sp, #16
 403              		@ sp needed
 404 0030 80BD     		pop	{r7, pc}
 405              		.cfi_endproc
 406              	.LFE9:
 407              		.size	RTC_1_GetMonth, .-RTC_1_GetMonth
 408 0032 C046     		.section	.text.RTC_1_GetYear,"ax",%progbits
 409              		.align	2
 410              		.code	16
 411              		.thumb_func
 412              		.type	RTC_1_GetYear, %function
 413              	RTC_1_GetYear:
 414              	.LFB10:
 629:Generated_Source\PSoC4/RTC_1.h **** 
 630:Generated_Source\PSoC4/RTC_1.h **** 
 631:Generated_Source\PSoC4/RTC_1.h **** /*******************************************************************************
 632:Generated_Source\PSoC4/RTC_1.h **** * Function Name: RTC_1_GetYear
 633:Generated_Source\PSoC4/RTC_1.h **** ****************************************************************************//**
 634:Generated_Source\PSoC4/RTC_1.h **** *
 635:Generated_Source\PSoC4/RTC_1.h **** * \brief
 636:Generated_Source\PSoC4/RTC_1.h **** *  Returns the year value from the date value that is passed as parameter.
 637:Generated_Source\PSoC4/RTC_1.h **** *
 638:Generated_Source\PSoC4/RTC_1.h **** * \param
 639:Generated_Source\PSoC4/RTC_1.h **** *  date The date value.
 640:Generated_Source\PSoC4/RTC_1.h **** *
 641:Generated_Source\PSoC4/RTC_1.h **** * \return
 642:Generated_Source\PSoC4/RTC_1.h **** *  The year value.
 643:Generated_Source\PSoC4/RTC_1.h **** *
 644:Generated_Source\PSoC4/RTC_1.h **** *******************************************************************************/
 645:Generated_Source\PSoC4/RTC_1.h **** static CY_INLINE uint32 RTC_1_GetYear(uint32 date)
 646:Generated_Source\PSoC4/RTC_1.h **** {
 415              		.loc 1 646 0
 416              		.cfi_startproc
 417              		@ args = 0, pretend = 0, frame = 16
 418              		@ frame_needed = 1, uses_anonymous_args = 0
 419 0000 80B5     		push	{r7, lr}
 420              		.cfi_def_cfa_offset 8
 421              		.cfi_offset 7, -8
 422              		.cfi_offset 14, -4
 423 0002 84B0     		sub	sp, sp, #16
 424              		.cfi_def_cfa_offset 24
 425 0004 00AF     		add	r7, sp, #0
 426              		.cfi_def_cfa_register 7
 427 0006 7860     		str	r0, [r7, #4]
 647:Generated_Source\PSoC4/RTC_1.h ****     uint32 retVal;
 648:Generated_Source\PSoC4/RTC_1.h **** 
 649:Generated_Source\PSoC4/RTC_1.h ****     retVal  = ((date & RTC_1_1000_YEAR_MASK) >> RTC_1_1000_YEAR_OFFSET) * 1000u;
 428              		.loc 1 649 0
 429 0008 7B68     		ldr	r3, [r7, #4]
 430 000a 1B0B     		lsrs	r3, r3, #12
 431 000c 0322     		movs	r2, #3
 432 000e 1340     		ands	r3, r2
 433 0010 FA22     		movs	r2, #250
 434 0012 9200     		lsls	r2, r2, #2
ARM GAS  C:\Users\ROUSSMA\AppData\Local\Temp\cc8VsTWP.s 			page 20


 435 0014 5343     		muls	r3, r2
 436 0016 FB60     		str	r3, [r7, #12]
 650:Generated_Source\PSoC4/RTC_1.h ****     retVal += ((date & RTC_1_100_YEAR_MASK) >> RTC_1_100_YEAR_OFFSET) * 100u;
 437              		.loc 1 650 0
 438 0018 7B68     		ldr	r3, [r7, #4]
 439 001a 1B0A     		lsrs	r3, r3, #8
 440 001c 0F22     		movs	r2, #15
 441 001e 1340     		ands	r3, r2
 442 0020 6422     		movs	r2, #100
 443 0022 5343     		muls	r3, r2
 444 0024 FA68     		ldr	r2, [r7, #12]
 445 0026 D318     		adds	r3, r2, r3
 446 0028 FB60     		str	r3, [r7, #12]
 651:Generated_Source\PSoC4/RTC_1.h ****     retVal += ((date & RTC_1_10_YEAR_MASK) >> RTC_1_10_YEAR_OFFSET) * 10u;
 447              		.loc 1 651 0
 448 002a 7B68     		ldr	r3, [r7, #4]
 449 002c 1B09     		lsrs	r3, r3, #4
 450 002e 0F22     		movs	r2, #15
 451 0030 1A40     		ands	r2, r3
 452 0032 1300     		movs	r3, r2
 453 0034 9B00     		lsls	r3, r3, #2
 454 0036 9B18     		adds	r3, r3, r2
 455 0038 5B00     		lsls	r3, r3, #1
 456 003a 1A00     		movs	r2, r3
 457 003c FB68     		ldr	r3, [r7, #12]
 458 003e 9B18     		adds	r3, r3, r2
 459 0040 FB60     		str	r3, [r7, #12]
 652:Generated_Source\PSoC4/RTC_1.h ****     retVal += (date & RTC_1_YEAR_MASK) >> RTC_1_YEAR_OFFSET;
 460              		.loc 1 652 0
 461 0042 7B68     		ldr	r3, [r7, #4]
 462 0044 0F22     		movs	r2, #15
 463 0046 1340     		ands	r3, r2
 464 0048 FA68     		ldr	r2, [r7, #12]
 465 004a D318     		adds	r3, r2, r3
 466 004c FB60     		str	r3, [r7, #12]
 653:Generated_Source\PSoC4/RTC_1.h **** 
 654:Generated_Source\PSoC4/RTC_1.h ****     return (retVal);
 467              		.loc 1 654 0
 468 004e FB68     		ldr	r3, [r7, #12]
 655:Generated_Source\PSoC4/RTC_1.h **** }
 469              		.loc 1 655 0
 470 0050 1800     		movs	r0, r3
 471 0052 BD46     		mov	sp, r7
 472 0054 04B0     		add	sp, sp, #16
 473              		@ sp needed
 474 0056 80BD     		pop	{r7, pc}
 475              		.cfi_endproc
 476              	.LFE10:
 477              		.size	RTC_1_GetYear, .-RTC_1_GetYear
 478              		.global	__aeabi_uidiv
 479              		.section	.text.RTC_1_SetSecond,"ax",%progbits
 480              		.align	2
 481              		.code	16
 482              		.thumb_func
 483              		.type	RTC_1_SetSecond, %function
 484              	RTC_1_SetSecond:
 485              	.LFB11:
ARM GAS  C:\Users\ROUSSMA\AppData\Local\Temp\cc8VsTWP.s 			page 21


 656:Generated_Source\PSoC4/RTC_1.h **** 
 657:Generated_Source\PSoC4/RTC_1.h **** 
 658:Generated_Source\PSoC4/RTC_1.h **** /*******************************************************************************
 659:Generated_Source\PSoC4/RTC_1.h **** * Function Name: RTC_1_SetSecond
 660:Generated_Source\PSoC4/RTC_1.h **** ****************************************************************************//**
 661:Generated_Source\PSoC4/RTC_1.h **** *\internal
 662:Generated_Source\PSoC4/RTC_1.h **** * \brief
 663:Generated_Source\PSoC4/RTC_1.h **** *  Updates the time with the new second value.
 664:Generated_Source\PSoC4/RTC_1.h **** *
 665:Generated_Source\PSoC4/RTC_1.h **** * \param
 666:Generated_Source\PSoC4/RTC_1.h **** * time The current date.
 667:Generated_Source\PSoC4/RTC_1.h **** * \param
 668:Generated_Source\PSoC4/RTC_1.h **** * second The seconds value to be set to the time variable.
 669:Generated_Source\PSoC4/RTC_1.h **** *
 670:Generated_Source\PSoC4/RTC_1.h **** * \return
 671:Generated_Source\PSoC4/RTC_1.h **** *  The updated time variable.
 672:Generated_Source\PSoC4/RTC_1.h **** *\endinternal
 673:Generated_Source\PSoC4/RTC_1.h **** *******************************************************************************/
 674:Generated_Source\PSoC4/RTC_1.h **** static CY_INLINE uint32 RTC_1_SetSecond(uint32 inputTime, uint32 inputSecond)
 675:Generated_Source\PSoC4/RTC_1.h **** {
 486              		.loc 1 675 0
 487              		.cfi_startproc
 488              		@ args = 0, pretend = 0, frame = 8
 489              		@ frame_needed = 1, uses_anonymous_args = 0
 490 0000 80B5     		push	{r7, lr}
 491              		.cfi_def_cfa_offset 8
 492              		.cfi_offset 7, -8
 493              		.cfi_offset 14, -4
 494 0002 82B0     		sub	sp, sp, #8
 495              		.cfi_def_cfa_offset 16
 496 0004 00AF     		add	r7, sp, #0
 497              		.cfi_def_cfa_register 7
 498 0006 7860     		str	r0, [r7, #4]
 499 0008 3960     		str	r1, [r7]
 676:Generated_Source\PSoC4/RTC_1.h ****     inputTime &= ~(RTC_1_SECONDS_FULL_MASK);
 500              		.loc 1 676 0
 501 000a 7B68     		ldr	r3, [r7, #4]
 502 000c 7F22     		movs	r2, #127
 503 000e 9343     		bics	r3, r2
 504 0010 7B60     		str	r3, [r7, #4]
 677:Generated_Source\PSoC4/RTC_1.h **** 
 678:Generated_Source\PSoC4/RTC_1.h ****     inputTime |= (inputSecond / 10u) << RTC_1_10_SECONDS_OFFSET;
 505              		.loc 1 678 0
 506 0012 3B68     		ldr	r3, [r7]
 507 0014 0A21     		movs	r1, #10
 508 0016 1800     		movs	r0, r3
 509 0018 FFF7FEFF 		bl	__aeabi_uidiv
 510 001c 0300     		movs	r3, r0
 511 001e 1B01     		lsls	r3, r3, #4
 512 0020 7A68     		ldr	r2, [r7, #4]
 513 0022 1343     		orrs	r3, r2
 514 0024 7B60     		str	r3, [r7, #4]
 679:Generated_Source\PSoC4/RTC_1.h ****     inputTime |= (inputSecond % 10u) << RTC_1_SECONDS_OFFSET;
 515              		.loc 1 679 0
 516 0026 3B68     		ldr	r3, [r7]
 517 0028 0A21     		movs	r1, #10
 518 002a 1800     		movs	r0, r3
ARM GAS  C:\Users\ROUSSMA\AppData\Local\Temp\cc8VsTWP.s 			page 22


 519 002c FFF7FEFF 		bl	__aeabi_uidivmod
 520 0030 0B00     		movs	r3, r1
 521 0032 1A00     		movs	r2, r3
 522 0034 7B68     		ldr	r3, [r7, #4]
 523 0036 1343     		orrs	r3, r2
 524 0038 7B60     		str	r3, [r7, #4]
 680:Generated_Source\PSoC4/RTC_1.h **** 
 681:Generated_Source\PSoC4/RTC_1.h ****     return(inputTime);
 525              		.loc 1 681 0
 526 003a 7B68     		ldr	r3, [r7, #4]
 682:Generated_Source\PSoC4/RTC_1.h **** }
 527              		.loc 1 682 0
 528 003c 1800     		movs	r0, r3
 529 003e BD46     		mov	sp, r7
 530 0040 02B0     		add	sp, sp, #8
 531              		@ sp needed
 532 0042 80BD     		pop	{r7, pc}
 533              		.cfi_endproc
 534              	.LFE11:
 535              		.size	RTC_1_SetSecond, .-RTC_1_SetSecond
 536              		.section	.text.RTC_1_SetMinutes,"ax",%progbits
 537              		.align	2
 538              		.code	16
 539              		.thumb_func
 540              		.type	RTC_1_SetMinutes, %function
 541              	RTC_1_SetMinutes:
 542              	.LFB12:
 683:Generated_Source\PSoC4/RTC_1.h **** 
 684:Generated_Source\PSoC4/RTC_1.h **** 
 685:Generated_Source\PSoC4/RTC_1.h **** /*******************************************************************************
 686:Generated_Source\PSoC4/RTC_1.h **** * Function Name: RTC_1_SetMinutes
 687:Generated_Source\PSoC4/RTC_1.h **** ****************************************************************************//**
 688:Generated_Source\PSoC4/RTC_1.h **** *\internal
 689:Generated_Source\PSoC4/RTC_1.h **** * \brief
 690:Generated_Source\PSoC4/RTC_1.h **** *  Updates the time with the new minute value.
 691:Generated_Source\PSoC4/RTC_1.h **** *
 692:Generated_Source\PSoC4/RTC_1.h **** * \param
 693:Generated_Source\PSoC4/RTC_1.h **** *  time The current date.
 694:Generated_Source\PSoC4/RTC_1.h **** * \param
 695:Generated_Source\PSoC4/RTC_1.h **** *  minutes The minutes value to be set to the time variable.
 696:Generated_Source\PSoC4/RTC_1.h **** *
 697:Generated_Source\PSoC4/RTC_1.h **** * \return
 698:Generated_Source\PSoC4/RTC_1.h **** *  The updated time variable.
 699:Generated_Source\PSoC4/RTC_1.h **** * \endinternal
 700:Generated_Source\PSoC4/RTC_1.h **** *******************************************************************************/
 701:Generated_Source\PSoC4/RTC_1.h **** static CY_INLINE uint32 RTC_1_SetMinutes(uint32 inputTime, uint32 inputMinute)
 702:Generated_Source\PSoC4/RTC_1.h **** {
 543              		.loc 1 702 0
 544              		.cfi_startproc
 545              		@ args = 0, pretend = 0, frame = 8
 546              		@ frame_needed = 1, uses_anonymous_args = 0
 547 0000 80B5     		push	{r7, lr}
 548              		.cfi_def_cfa_offset 8
 549              		.cfi_offset 7, -8
 550              		.cfi_offset 14, -4
 551 0002 82B0     		sub	sp, sp, #8
 552              		.cfi_def_cfa_offset 16
ARM GAS  C:\Users\ROUSSMA\AppData\Local\Temp\cc8VsTWP.s 			page 23


 553 0004 00AF     		add	r7, sp, #0
 554              		.cfi_def_cfa_register 7
 555 0006 7860     		str	r0, [r7, #4]
 556 0008 3960     		str	r1, [r7]
 703:Generated_Source\PSoC4/RTC_1.h ****     inputTime &= ~(RTC_1_MINUTES_FULL_MASK);
 557              		.loc 1 703 0
 558 000a 7B68     		ldr	r3, [r7, #4]
 559 000c 0D4A     		ldr	r2, .L29
 560 000e 1340     		ands	r3, r2
 561 0010 7B60     		str	r3, [r7, #4]
 704:Generated_Source\PSoC4/RTC_1.h **** 
 705:Generated_Source\PSoC4/RTC_1.h ****     inputTime |= (inputMinute / 10u) << RTC_1_10_MINUTES_OFFSET;
 562              		.loc 1 705 0
 563 0012 3B68     		ldr	r3, [r7]
 564 0014 0A21     		movs	r1, #10
 565 0016 1800     		movs	r0, r3
 566 0018 FFF7FEFF 		bl	__aeabi_uidiv
 567 001c 0300     		movs	r3, r0
 568 001e 1B03     		lsls	r3, r3, #12
 569 0020 7A68     		ldr	r2, [r7, #4]
 570 0022 1343     		orrs	r3, r2
 571 0024 7B60     		str	r3, [r7, #4]
 706:Generated_Source\PSoC4/RTC_1.h ****     inputTime |= (inputMinute % 10u) << RTC_1_MINUTES_OFFSET;
 572              		.loc 1 706 0
 573 0026 3B68     		ldr	r3, [r7]
 574 0028 0A21     		movs	r1, #10
 575 002a 1800     		movs	r0, r3
 576 002c FFF7FEFF 		bl	__aeabi_uidivmod
 577 0030 0B00     		movs	r3, r1
 578 0032 1B02     		lsls	r3, r3, #8
 579 0034 7A68     		ldr	r2, [r7, #4]
 580 0036 1343     		orrs	r3, r2
 581 0038 7B60     		str	r3, [r7, #4]
 707:Generated_Source\PSoC4/RTC_1.h **** 
 708:Generated_Source\PSoC4/RTC_1.h ****     return(inputTime);
 582              		.loc 1 708 0
 583 003a 7B68     		ldr	r3, [r7, #4]
 709:Generated_Source\PSoC4/RTC_1.h **** }
 584              		.loc 1 709 0
 585 003c 1800     		movs	r0, r3
 586 003e BD46     		mov	sp, r7
 587 0040 02B0     		add	sp, sp, #8
 588              		@ sp needed
 589 0042 80BD     		pop	{r7, pc}
 590              	.L30:
 591              		.align	2
 592              	.L29:
 593 0044 FF80FFFF 		.word	-32513
 594              		.cfi_endproc
 595              	.LFE12:
 596              		.size	RTC_1_SetMinutes, .-RTC_1_SetMinutes
 597              		.section	.text.RTC_1_SetHours,"ax",%progbits
 598              		.align	2
 599              		.code	16
 600              		.thumb_func
 601              		.type	RTC_1_SetHours, %function
 602              	RTC_1_SetHours:
ARM GAS  C:\Users\ROUSSMA\AppData\Local\Temp\cc8VsTWP.s 			page 24


 603              	.LFB13:
 710:Generated_Source\PSoC4/RTC_1.h **** 
 711:Generated_Source\PSoC4/RTC_1.h **** 
 712:Generated_Source\PSoC4/RTC_1.h **** /*******************************************************************************
 713:Generated_Source\PSoC4/RTC_1.h **** * Function Name: RTC_1_SetHours
 714:Generated_Source\PSoC4/RTC_1.h **** ****************************************************************************//**
 715:Generated_Source\PSoC4/RTC_1.h **** *\internal
 716:Generated_Source\PSoC4/RTC_1.h **** * \brief
 717:Generated_Source\PSoC4/RTC_1.h **** *  Updates the time with the new hour value.
 718:Generated_Source\PSoC4/RTC_1.h **** *
 719:Generated_Source\PSoC4/RTC_1.h **** * \param
 720:Generated_Source\PSoC4/RTC_1.h **** * time The current date.
 721:Generated_Source\PSoC4/RTC_1.h **** * \param
 722:Generated_Source\PSoC4/RTC_1.h **** * hours The hours value to be set to the time variable.
 723:Generated_Source\PSoC4/RTC_1.h **** *
 724:Generated_Source\PSoC4/RTC_1.h **** * \return
 725:Generated_Source\PSoC4/RTC_1.h **** *  The updated time variable.
 726:Generated_Source\PSoC4/RTC_1.h **** *\endinternal
 727:Generated_Source\PSoC4/RTC_1.h **** *******************************************************************************/
 728:Generated_Source\PSoC4/RTC_1.h **** static CY_INLINE uint32 RTC_1_SetHours(uint32 inputTime, uint32 inputHours)
 729:Generated_Source\PSoC4/RTC_1.h **** {
 604              		.loc 1 729 0
 605              		.cfi_startproc
 606              		@ args = 0, pretend = 0, frame = 8
 607              		@ frame_needed = 1, uses_anonymous_args = 0
 608 0000 80B5     		push	{r7, lr}
 609              		.cfi_def_cfa_offset 8
 610              		.cfi_offset 7, -8
 611              		.cfi_offset 14, -4
 612 0002 82B0     		sub	sp, sp, #8
 613              		.cfi_def_cfa_offset 16
 614 0004 00AF     		add	r7, sp, #0
 615              		.cfi_def_cfa_register 7
 616 0006 7860     		str	r0, [r7, #4]
 617 0008 3960     		str	r1, [r7]
 730:Generated_Source\PSoC4/RTC_1.h ****     inputTime &= ~(RTC_1_HOURS_FULL_MASK);
 618              		.loc 1 730 0
 619 000a 7B68     		ldr	r3, [r7, #4]
 620 000c 0D4A     		ldr	r2, .L33
 621 000e 1340     		ands	r3, r2
 622 0010 7B60     		str	r3, [r7, #4]
 731:Generated_Source\PSoC4/RTC_1.h **** 
 732:Generated_Source\PSoC4/RTC_1.h ****     inputTime |= (inputHours / 10u) << RTC_1_10_HOURS_OFFSET;
 623              		.loc 1 732 0
 624 0012 3B68     		ldr	r3, [r7]
 625 0014 0A21     		movs	r1, #10
 626 0016 1800     		movs	r0, r3
 627 0018 FFF7FEFF 		bl	__aeabi_uidiv
 628 001c 0300     		movs	r3, r0
 629 001e 1B05     		lsls	r3, r3, #20
 630 0020 7A68     		ldr	r2, [r7, #4]
 631 0022 1343     		orrs	r3, r2
 632 0024 7B60     		str	r3, [r7, #4]
 733:Generated_Source\PSoC4/RTC_1.h ****     inputTime |= (inputHours % 10u) << RTC_1_HOURS_OFFSET;
 633              		.loc 1 733 0
 634 0026 3B68     		ldr	r3, [r7]
 635 0028 0A21     		movs	r1, #10
ARM GAS  C:\Users\ROUSSMA\AppData\Local\Temp\cc8VsTWP.s 			page 25


 636 002a 1800     		movs	r0, r3
 637 002c FFF7FEFF 		bl	__aeabi_uidivmod
 638 0030 0B00     		movs	r3, r1
 639 0032 1B04     		lsls	r3, r3, #16
 640 0034 7A68     		ldr	r2, [r7, #4]
 641 0036 1343     		orrs	r3, r2
 642 0038 7B60     		str	r3, [r7, #4]
 734:Generated_Source\PSoC4/RTC_1.h **** 
 735:Generated_Source\PSoC4/RTC_1.h ****     return(inputTime);
 643              		.loc 1 735 0
 644 003a 7B68     		ldr	r3, [r7, #4]
 736:Generated_Source\PSoC4/RTC_1.h **** }
 645              		.loc 1 736 0
 646 003c 1800     		movs	r0, r3
 647 003e BD46     		mov	sp, r7
 648 0040 02B0     		add	sp, sp, #8
 649              		@ sp needed
 650 0042 80BD     		pop	{r7, pc}
 651              	.L34:
 652              		.align	2
 653              	.L33:
 654 0044 FFFFC0FF 		.word	-4128769
 655              		.cfi_endproc
 656              	.LFE13:
 657              		.size	RTC_1_SetHours, .-RTC_1_SetHours
 658              		.section	.text.RTC_1_SetDay,"ax",%progbits
 659              		.align	2
 660              		.code	16
 661              		.thumb_func
 662              		.type	RTC_1_SetDay, %function
 663              	RTC_1_SetDay:
 664              	.LFB15:
 737:Generated_Source\PSoC4/RTC_1.h **** 
 738:Generated_Source\PSoC4/RTC_1.h **** 
 739:Generated_Source\PSoC4/RTC_1.h **** /*******************************************************************************
 740:Generated_Source\PSoC4/RTC_1.h **** * Function Name: RTC_1_SetAmPm
 741:Generated_Source\PSoC4/RTC_1.h **** ****************************************************************************//**
 742:Generated_Source\PSoC4/RTC_1.h **** *\internal
 743:Generated_Source\PSoC4/RTC_1.h **** * \brief
 744:Generated_Source\PSoC4/RTC_1.h **** *  Updates the time variable with the AmPm status.
 745:Generated_Source\PSoC4/RTC_1.h **** *
 746:Generated_Source\PSoC4/RTC_1.h **** * \param
 747:Generated_Source\PSoC4/RTC_1.h **** * time The current date.
 748:Generated_Source\PSoC4/RTC_1.h **** * \param
 749:Generated_Source\PSoC4/RTC_1.h **** * periodOfDay The AmPm status to be set to the time variable.
 750:Generated_Source\PSoC4/RTC_1.h **** *
 751:Generated_Source\PSoC4/RTC_1.h **** * \return
 752:Generated_Source\PSoC4/RTC_1.h **** *  The updated time variable.
 753:Generated_Source\PSoC4/RTC_1.h **** * \endinternal
 754:Generated_Source\PSoC4/RTC_1.h **** *******************************************************************************/
 755:Generated_Source\PSoC4/RTC_1.h **** static CY_INLINE uint32 RTC_1_SetAmPm(uint32 inputTime, uint32 periodOfDay)
 756:Generated_Source\PSoC4/RTC_1.h **** {
 757:Generated_Source\PSoC4/RTC_1.h ****     if(0u != periodOfDay)
 758:Generated_Source\PSoC4/RTC_1.h ****     {
 759:Generated_Source\PSoC4/RTC_1.h ****         inputTime &= ~(RTC_1_PERIOD_OF_DAY_MASK);
 760:Generated_Source\PSoC4/RTC_1.h ****     }
 761:Generated_Source\PSoC4/RTC_1.h ****     else
ARM GAS  C:\Users\ROUSSMA\AppData\Local\Temp\cc8VsTWP.s 			page 26


 762:Generated_Source\PSoC4/RTC_1.h ****     {
 763:Generated_Source\PSoC4/RTC_1.h ****         inputTime |= RTC_1_PERIOD_OF_DAY_MASK;
 764:Generated_Source\PSoC4/RTC_1.h ****     }
 765:Generated_Source\PSoC4/RTC_1.h **** 
 766:Generated_Source\PSoC4/RTC_1.h ****     return(inputTime);
 767:Generated_Source\PSoC4/RTC_1.h **** }
 768:Generated_Source\PSoC4/RTC_1.h **** 
 769:Generated_Source\PSoC4/RTC_1.h **** 
 770:Generated_Source\PSoC4/RTC_1.h **** /*******************************************************************************
 771:Generated_Source\PSoC4/RTC_1.h **** * Function Name: RTC_1_SetDay
 772:Generated_Source\PSoC4/RTC_1.h **** ****************************************************************************//**
 773:Generated_Source\PSoC4/RTC_1.h **** *\internal
 774:Generated_Source\PSoC4/RTC_1.h **** * \brief
 775:Generated_Source\PSoC4/RTC_1.h **** *  Updates the date variable with the new day value.
 776:Generated_Source\PSoC4/RTC_1.h **** *
 777:Generated_Source\PSoC4/RTC_1.h **** * \param
 778:Generated_Source\PSoC4/RTC_1.h **** * date The current date.
 779:Generated_Source\PSoC4/RTC_1.h **** * \param
 780:Generated_Source\PSoC4/RTC_1.h **** * day The month to be set to the date variable.
 781:Generated_Source\PSoC4/RTC_1.h **** *
 782:Generated_Source\PSoC4/RTC_1.h **** * \return
 783:Generated_Source\PSoC4/RTC_1.h **** *  The updated date variable.
 784:Generated_Source\PSoC4/RTC_1.h **** *\endinternal
 785:Generated_Source\PSoC4/RTC_1.h **** *******************************************************************************/
 786:Generated_Source\PSoC4/RTC_1.h **** static CY_INLINE uint32 RTC_1_SetDay(uint32 inputDate, uint32 inputDay)
 787:Generated_Source\PSoC4/RTC_1.h **** {
 665              		.loc 1 787 0
 666              		.cfi_startproc
 667              		@ args = 0, pretend = 0, frame = 8
 668              		@ frame_needed = 1, uses_anonymous_args = 0
 669 0000 80B5     		push	{r7, lr}
 670              		.cfi_def_cfa_offset 8
 671              		.cfi_offset 7, -8
 672              		.cfi_offset 14, -4
 673 0002 82B0     		sub	sp, sp, #8
 674              		.cfi_def_cfa_offset 16
 675 0004 00AF     		add	r7, sp, #0
 676              		.cfi_def_cfa_register 7
 677 0006 7860     		str	r0, [r7, #4]
 678 0008 3960     		str	r1, [r7]
 788:Generated_Source\PSoC4/RTC_1.h ****     inputDate &= ~(RTC_1_DAY_FULL_MASK);
 679              		.loc 1 788 0
 680 000a 7B68     		ldr	r3, [r7, #4]
 681 000c 0D4A     		ldr	r2, .L37
 682 000e 1340     		ands	r3, r2
 683 0010 7B60     		str	r3, [r7, #4]
 789:Generated_Source\PSoC4/RTC_1.h **** 
 790:Generated_Source\PSoC4/RTC_1.h ****     inputDate |= (inputDay / 10u) << RTC_1_10_DAY_OFFSET;
 684              		.loc 1 790 0
 685 0012 3B68     		ldr	r3, [r7]
 686 0014 0A21     		movs	r1, #10
 687 0016 1800     		movs	r0, r3
 688 0018 FFF7FEFF 		bl	__aeabi_uidiv
 689 001c 0300     		movs	r3, r0
 690 001e 1B05     		lsls	r3, r3, #20
 691 0020 7A68     		ldr	r2, [r7, #4]
 692 0022 1343     		orrs	r3, r2
ARM GAS  C:\Users\ROUSSMA\AppData\Local\Temp\cc8VsTWP.s 			page 27


 693 0024 7B60     		str	r3, [r7, #4]
 791:Generated_Source\PSoC4/RTC_1.h ****     inputDate |= (inputDay % 10u) << RTC_1_DAY_OFFSET;
 694              		.loc 1 791 0
 695 0026 3B68     		ldr	r3, [r7]
 696 0028 0A21     		movs	r1, #10
 697 002a 1800     		movs	r0, r3
 698 002c FFF7FEFF 		bl	__aeabi_uidivmod
 699 0030 0B00     		movs	r3, r1
 700 0032 1B04     		lsls	r3, r3, #16
 701 0034 7A68     		ldr	r2, [r7, #4]
 702 0036 1343     		orrs	r3, r2
 703 0038 7B60     		str	r3, [r7, #4]
 792:Generated_Source\PSoC4/RTC_1.h **** 
 793:Generated_Source\PSoC4/RTC_1.h ****     return(inputDate);
 704              		.loc 1 793 0
 705 003a 7B68     		ldr	r3, [r7, #4]
 794:Generated_Source\PSoC4/RTC_1.h **** }
 706              		.loc 1 794 0
 707 003c 1800     		movs	r0, r3
 708 003e BD46     		mov	sp, r7
 709 0040 02B0     		add	sp, sp, #8
 710              		@ sp needed
 711 0042 80BD     		pop	{r7, pc}
 712              	.L38:
 713              		.align	2
 714              	.L37:
 715 0044 FFFFC0FF 		.word	-4128769
 716              		.cfi_endproc
 717              	.LFE15:
 718              		.size	RTC_1_SetDay, .-RTC_1_SetDay
 719              		.section	.text.RTC_1_SetMonth,"ax",%progbits
 720              		.align	2
 721              		.code	16
 722              		.thumb_func
 723              		.type	RTC_1_SetMonth, %function
 724              	RTC_1_SetMonth:
 725              	.LFB16:
 795:Generated_Source\PSoC4/RTC_1.h **** 
 796:Generated_Source\PSoC4/RTC_1.h **** 
 797:Generated_Source\PSoC4/RTC_1.h **** /*******************************************************************************
 798:Generated_Source\PSoC4/RTC_1.h **** * Function Name: RTC_1_SetMonth
 799:Generated_Source\PSoC4/RTC_1.h **** ****************************************************************************//**
 800:Generated_Source\PSoC4/RTC_1.h **** *\internal
 801:Generated_Source\PSoC4/RTC_1.h **** * \brief
 802:Generated_Source\PSoC4/RTC_1.h **** *  Updates the date variable with the new month value.
 803:Generated_Source\PSoC4/RTC_1.h **** *
 804:Generated_Source\PSoC4/RTC_1.h **** * \param
 805:Generated_Source\PSoC4/RTC_1.h **** * date The current date.
 806:Generated_Source\PSoC4/RTC_1.h **** * \param
 807:Generated_Source\PSoC4/RTC_1.h **** * month The month that to be set to the date variable.
 808:Generated_Source\PSoC4/RTC_1.h **** *
 809:Generated_Source\PSoC4/RTC_1.h **** * \return
 810:Generated_Source\PSoC4/RTC_1.h **** *  The updated date variable.
 811:Generated_Source\PSoC4/RTC_1.h **** *\endinternal
 812:Generated_Source\PSoC4/RTC_1.h **** *******************************************************************************/
 813:Generated_Source\PSoC4/RTC_1.h **** static CY_INLINE uint32 RTC_1_SetMonth(uint32 inputDate, uint32 inputMonth)
 814:Generated_Source\PSoC4/RTC_1.h **** {
ARM GAS  C:\Users\ROUSSMA\AppData\Local\Temp\cc8VsTWP.s 			page 28


 726              		.loc 1 814 0
 727              		.cfi_startproc
 728              		@ args = 0, pretend = 0, frame = 8
 729              		@ frame_needed = 1, uses_anonymous_args = 0
 730 0000 80B5     		push	{r7, lr}
 731              		.cfi_def_cfa_offset 8
 732              		.cfi_offset 7, -8
 733              		.cfi_offset 14, -4
 734 0002 82B0     		sub	sp, sp, #8
 735              		.cfi_def_cfa_offset 16
 736 0004 00AF     		add	r7, sp, #0
 737              		.cfi_def_cfa_register 7
 738 0006 7860     		str	r0, [r7, #4]
 739 0008 3960     		str	r1, [r7]
 815:Generated_Source\PSoC4/RTC_1.h ****     inputDate &= ~(RTC_1_MONTH_FULL_MASK);
 740              		.loc 1 815 0
 741 000a 7B68     		ldr	r3, [r7, #4]
 742 000c 0D4A     		ldr	r2, .L41
 743 000e 1340     		ands	r3, r2
 744 0010 7B60     		str	r3, [r7, #4]
 816:Generated_Source\PSoC4/RTC_1.h **** 
 817:Generated_Source\PSoC4/RTC_1.h ****     inputDate |= (inputMonth / 10u) << RTC_1_10_MONTH_OFFSET;
 745              		.loc 1 817 0
 746 0012 3B68     		ldr	r3, [r7]
 747 0014 0A21     		movs	r1, #10
 748 0016 1800     		movs	r0, r3
 749 0018 FFF7FEFF 		bl	__aeabi_uidiv
 750 001c 0300     		movs	r3, r0
 751 001e 1B07     		lsls	r3, r3, #28
 752 0020 7A68     		ldr	r2, [r7, #4]
 753 0022 1343     		orrs	r3, r2
 754 0024 7B60     		str	r3, [r7, #4]
 818:Generated_Source\PSoC4/RTC_1.h ****     inputDate |= (inputMonth % 10u) << RTC_1_MONTH_OFFSET;
 755              		.loc 1 818 0
 756 0026 3B68     		ldr	r3, [r7]
 757 0028 0A21     		movs	r1, #10
 758 002a 1800     		movs	r0, r3
 759 002c FFF7FEFF 		bl	__aeabi_uidivmod
 760 0030 0B00     		movs	r3, r1
 761 0032 1B06     		lsls	r3, r3, #24
 762 0034 7A68     		ldr	r2, [r7, #4]
 763 0036 1343     		orrs	r3, r2
 764 0038 7B60     		str	r3, [r7, #4]
 819:Generated_Source\PSoC4/RTC_1.h **** 
 820:Generated_Source\PSoC4/RTC_1.h ****     return(inputDate);
 765              		.loc 1 820 0
 766 003a 7B68     		ldr	r3, [r7, #4]
 821:Generated_Source\PSoC4/RTC_1.h **** }
 767              		.loc 1 821 0
 768 003c 1800     		movs	r0, r3
 769 003e BD46     		mov	sp, r7
 770 0040 02B0     		add	sp, sp, #8
 771              		@ sp needed
 772 0042 80BD     		pop	{r7, pc}
 773              	.L42:
 774              		.align	2
 775              	.L41:
ARM GAS  C:\Users\ROUSSMA\AppData\Local\Temp\cc8VsTWP.s 			page 29


 776 0044 FFFFFFE0 		.word	-520093697
 777              		.cfi_endproc
 778              	.LFE16:
 779              		.size	RTC_1_SetMonth, .-RTC_1_SetMonth
 780              		.section	.text.RTC_1_SetYear,"ax",%progbits
 781              		.align	2
 782              		.code	16
 783              		.thumb_func
 784              		.type	RTC_1_SetYear, %function
 785              	RTC_1_SetYear:
 786              	.LFB17:
 822:Generated_Source\PSoC4/RTC_1.h **** 
 823:Generated_Source\PSoC4/RTC_1.h **** 
 824:Generated_Source\PSoC4/RTC_1.h **** /*******************************************************************************
 825:Generated_Source\PSoC4/RTC_1.h **** * Function Name: RTC_1_SetYear
 826:Generated_Source\PSoC4/RTC_1.h **** ****************************************************************************//**
 827:Generated_Source\PSoC4/RTC_1.h **** *\internal
 828:Generated_Source\PSoC4/RTC_1.h **** * \brief
 829:Generated_Source\PSoC4/RTC_1.h **** *  Updates the date variable with the new year value.
 830:Generated_Source\PSoC4/RTC_1.h **** *
 831:Generated_Source\PSoC4/RTC_1.h **** * \param
 832:Generated_Source\PSoC4/RTC_1.h **** * date The current date.
 833:Generated_Source\PSoC4/RTC_1.h **** * \param
 834:Generated_Source\PSoC4/RTC_1.h **** * year The year to be set to the date variable.
 835:Generated_Source\PSoC4/RTC_1.h **** *
 836:Generated_Source\PSoC4/RTC_1.h **** * \return
 837:Generated_Source\PSoC4/RTC_1.h **** * The updated date variable.
 838:Generated_Source\PSoC4/RTC_1.h **** *\endinternal
 839:Generated_Source\PSoC4/RTC_1.h **** *******************************************************************************/
 840:Generated_Source\PSoC4/RTC_1.h **** static CY_INLINE uint32 RTC_1_SetYear(uint32 inputDate, uint32 inputYear)
 841:Generated_Source\PSoC4/RTC_1.h **** {
 787              		.loc 1 841 0
 788              		.cfi_startproc
 789              		@ args = 0, pretend = 0, frame = 8
 790              		@ frame_needed = 1, uses_anonymous_args = 0
 791 0000 80B5     		push	{r7, lr}
 792              		.cfi_def_cfa_offset 8
 793              		.cfi_offset 7, -8
 794              		.cfi_offset 14, -4
 795 0002 82B0     		sub	sp, sp, #8
 796              		.cfi_def_cfa_offset 16
 797 0004 00AF     		add	r7, sp, #0
 798              		.cfi_def_cfa_register 7
 799 0006 7860     		str	r0, [r7, #4]
 800 0008 3960     		str	r1, [r7]
 842:Generated_Source\PSoC4/RTC_1.h ****     inputDate  &= ~(RTC_1_YEAR_FULL_MASK);
 801              		.loc 1 842 0
 802 000a 7B68     		ldr	r3, [r7, #4]
 803 000c 9B0B     		lsrs	r3, r3, #14
 804 000e 9B03     		lsls	r3, r3, #14
 805 0010 7B60     		str	r3, [r7, #4]
 843:Generated_Source\PSoC4/RTC_1.h **** 
 844:Generated_Source\PSoC4/RTC_1.h ****     inputDate |= (inputYear / 1000u) << RTC_1_1000_YEAR_OFFSET;
 806              		.loc 1 844 0
 807 0012 3A68     		ldr	r2, [r7]
 808 0014 FA23     		movs	r3, #250
 809 0016 9900     		lsls	r1, r3, #2
ARM GAS  C:\Users\ROUSSMA\AppData\Local\Temp\cc8VsTWP.s 			page 30


 810 0018 1000     		movs	r0, r2
 811 001a FFF7FEFF 		bl	__aeabi_uidiv
 812 001e 0300     		movs	r3, r0
 813 0020 1B03     		lsls	r3, r3, #12
 814 0022 7A68     		ldr	r2, [r7, #4]
 815 0024 1343     		orrs	r3, r2
 816 0026 7B60     		str	r3, [r7, #4]
 845:Generated_Source\PSoC4/RTC_1.h ****     inputYear %= 1000u;
 817              		.loc 1 845 0
 818 0028 3A68     		ldr	r2, [r7]
 819 002a FA23     		movs	r3, #250
 820 002c 9900     		lsls	r1, r3, #2
 821 002e 1000     		movs	r0, r2
 822 0030 FFF7FEFF 		bl	__aeabi_uidivmod
 823 0034 0B00     		movs	r3, r1
 824 0036 3B60     		str	r3, [r7]
 846:Generated_Source\PSoC4/RTC_1.h **** 
 847:Generated_Source\PSoC4/RTC_1.h ****     inputDate |= (inputYear / 100u) << RTC_1_100_YEAR_OFFSET;
 825              		.loc 1 847 0
 826 0038 3B68     		ldr	r3, [r7]
 827 003a 6421     		movs	r1, #100
 828 003c 1800     		movs	r0, r3
 829 003e FFF7FEFF 		bl	__aeabi_uidiv
 830 0042 0300     		movs	r3, r0
 831 0044 1B02     		lsls	r3, r3, #8
 832 0046 7A68     		ldr	r2, [r7, #4]
 833 0048 1343     		orrs	r3, r2
 834 004a 7B60     		str	r3, [r7, #4]
 848:Generated_Source\PSoC4/RTC_1.h ****     inputYear %= 100u;
 835              		.loc 1 848 0
 836 004c 3B68     		ldr	r3, [r7]
 837 004e 6421     		movs	r1, #100
 838 0050 1800     		movs	r0, r3
 839 0052 FFF7FEFF 		bl	__aeabi_uidivmod
 840 0056 0B00     		movs	r3, r1
 841 0058 3B60     		str	r3, [r7]
 849:Generated_Source\PSoC4/RTC_1.h **** 
 850:Generated_Source\PSoC4/RTC_1.h ****     inputDate |= (inputYear / 10u) << RTC_1_10_YEAR_OFFSET;
 842              		.loc 1 850 0
 843 005a 3B68     		ldr	r3, [r7]
 844 005c 0A21     		movs	r1, #10
 845 005e 1800     		movs	r0, r3
 846 0060 FFF7FEFF 		bl	__aeabi_uidiv
 847 0064 0300     		movs	r3, r0
 848 0066 1B01     		lsls	r3, r3, #4
 849 0068 7A68     		ldr	r2, [r7, #4]
 850 006a 1343     		orrs	r3, r2
 851 006c 7B60     		str	r3, [r7, #4]
 851:Generated_Source\PSoC4/RTC_1.h ****     inputDate |= (inputYear % 10u) << RTC_1_YEAR_OFFSET;
 852              		.loc 1 851 0
 853 006e 3B68     		ldr	r3, [r7]
 854 0070 0A21     		movs	r1, #10
 855 0072 1800     		movs	r0, r3
 856 0074 FFF7FEFF 		bl	__aeabi_uidivmod
 857 0078 0B00     		movs	r3, r1
 858 007a 1A00     		movs	r2, r3
 859 007c 7B68     		ldr	r3, [r7, #4]
ARM GAS  C:\Users\ROUSSMA\AppData\Local\Temp\cc8VsTWP.s 			page 31


 860 007e 1343     		orrs	r3, r2
 861 0080 7B60     		str	r3, [r7, #4]
 852:Generated_Source\PSoC4/RTC_1.h **** 
 853:Generated_Source\PSoC4/RTC_1.h ****     return(inputDate);
 862              		.loc 1 853 0
 863 0082 7B68     		ldr	r3, [r7, #4]
 854:Generated_Source\PSoC4/RTC_1.h **** }
 864              		.loc 1 854 0
 865 0084 1800     		movs	r0, r3
 866 0086 BD46     		mov	sp, r7
 867 0088 02B0     		add	sp, sp, #8
 868              		@ sp needed
 869 008a 80BD     		pop	{r7, pc}
 870              		.cfi_endproc
 871              	.LFE17:
 872              		.size	RTC_1_SetYear, .-RTC_1_SetYear
 873              		.section	.text.RTC_1_GetNextMinSec,"ax",%progbits
 874              		.align	2
 875              		.code	16
 876              		.thumb_func
 877              		.type	RTC_1_GetNextMinSec, %function
 878              	RTC_1_GetNextMinSec:
 879              	.LFB18:
 855:Generated_Source\PSoC4/RTC_1.h **** 
 856:Generated_Source\PSoC4/RTC_1.h **** 
 857:Generated_Source\PSoC4/RTC_1.h **** /*******************************************************************************
 858:Generated_Source\PSoC4/RTC_1.h **** * Function Name: RTC_1_GetNextMinSec
 859:Generated_Source\PSoC4/RTC_1.h **** ****************************************************************************//**
 860:Generated_Source\PSoC4/RTC_1.h **** *\internal
 861:Generated_Source\PSoC4/RTC_1.h **** * \brief
 862:Generated_Source\PSoC4/RTC_1.h **** * This is an internal function that calculates the value of the next Second/Minute
 863:Generated_Source\PSoC4/RTC_1.h **** * that follows after the current Minute/Second.
 864:Generated_Source\PSoC4/RTC_1.h **** *
 865:Generated_Source\PSoC4/RTC_1.h **** * \param
 866:Generated_Source\PSoC4/RTC_1.h **** * curVal The current Second/Minute value.
 867:Generated_Source\PSoC4/RTC_1.h **** *
 868:Generated_Source\PSoC4/RTC_1.h **** * \return
 869:Generated_Source\PSoC4/RTC_1.h **** * Returns the Second/Minute which follows after the current Second/Minute.
 870:Generated_Source\PSoC4/RTC_1.h **** *\endinternal
 871:Generated_Source\PSoC4/RTC_1.h **** *******************************************************************************/
 872:Generated_Source\PSoC4/RTC_1.h **** static CY_INLINE uint32 RTC_1_GetNextMinSec(uint32 curVal)
 873:Generated_Source\PSoC4/RTC_1.h **** {
 880              		.loc 1 873 0
 881              		.cfi_startproc
 882              		@ args = 0, pretend = 0, frame = 8
 883              		@ frame_needed = 1, uses_anonymous_args = 0
 884 0000 80B5     		push	{r7, lr}
 885              		.cfi_def_cfa_offset 8
 886              		.cfi_offset 7, -8
 887              		.cfi_offset 14, -4
 888 0002 82B0     		sub	sp, sp, #8
 889              		.cfi_def_cfa_offset 16
 890 0004 00AF     		add	r7, sp, #0
 891              		.cfi_def_cfa_register 7
 892 0006 7860     		str	r0, [r7, #4]
 874:Generated_Source\PSoC4/RTC_1.h ****     return((curVal < 59u) ? (curVal + 1u) : 0u);
 893              		.loc 1 874 0
ARM GAS  C:\Users\ROUSSMA\AppData\Local\Temp\cc8VsTWP.s 			page 32


 894 0008 7B68     		ldr	r3, [r7, #4]
 895 000a 3A2B     		cmp	r3, #58
 896 000c 02D8     		bhi	.L46
 897              		.loc 1 874 0 is_stmt 0 discriminator 1
 898 000e 7B68     		ldr	r3, [r7, #4]
 899 0010 0133     		adds	r3, r3, #1
 900 0012 00E0     		b	.L48
 901              	.L46:
 902              		.loc 1 874 0 discriminator 2
 903 0014 0023     		movs	r3, #0
 904              	.L48:
 875:Generated_Source\PSoC4/RTC_1.h **** }
 905              		.loc 1 875 0 is_stmt 1 discriminator 5
 906 0016 1800     		movs	r0, r3
 907 0018 BD46     		mov	sp, r7
 908 001a 02B0     		add	sp, sp, #8
 909              		@ sp needed
 910 001c 80BD     		pop	{r7, pc}
 911              		.cfi_endproc
 912              	.LFE18:
 913              		.size	RTC_1_GetNextMinSec, .-RTC_1_GetNextMinSec
 914 001e C046     		.section	.text.RTC_1_GetNextHour,"ax",%progbits
 915              		.align	2
 916              		.code	16
 917              		.thumb_func
 918              		.type	RTC_1_GetNextHour, %function
 919              	RTC_1_GetNextHour:
 920              	.LFB19:
 876:Generated_Source\PSoC4/RTC_1.h **** 
 877:Generated_Source\PSoC4/RTC_1.h **** 
 878:Generated_Source\PSoC4/RTC_1.h **** /*******************************************************************************
 879:Generated_Source\PSoC4/RTC_1.h **** * Function Name: RTC_1_GetNextHour
 880:Generated_Source\PSoC4/RTC_1.h **** ****************************************************************************//**
 881:Generated_Source\PSoC4/RTC_1.h **** *\internal
 882:Generated_Source\PSoC4/RTC_1.h **** * \brief
 883:Generated_Source\PSoC4/RTC_1.h **** *  This is an internal function that calculates the value of the next Hour
 884:Generated_Source\PSoC4/RTC_1.h **** *  that follows after the current Hour.
 885:Generated_Source\PSoC4/RTC_1.h **** *
 886:Generated_Source\PSoC4/RTC_1.h **** * \param
 887:Generated_Source\PSoC4/RTC_1.h **** * curVal The current Hour value.
 888:Generated_Source\PSoC4/RTC_1.h **** *
 889:Generated_Source\PSoC4/RTC_1.h **** * \return
 890:Generated_Source\PSoC4/RTC_1.h **** *  Returns the Hour which follows after the current Hour.
 891:Generated_Source\PSoC4/RTC_1.h **** * \endinternal
 892:Generated_Source\PSoC4/RTC_1.h **** *******************************************************************************/
 893:Generated_Source\PSoC4/RTC_1.h **** static CY_INLINE uint32 RTC_1_GetNextHour(uint32 curVal)
 894:Generated_Source\PSoC4/RTC_1.h **** {
 921              		.loc 1 894 0
 922              		.cfi_startproc
 923              		@ args = 0, pretend = 0, frame = 8
 924              		@ frame_needed = 1, uses_anonymous_args = 0
 925 0000 80B5     		push	{r7, lr}
 926              		.cfi_def_cfa_offset 8
 927              		.cfi_offset 7, -8
 928              		.cfi_offset 14, -4
 929 0002 82B0     		sub	sp, sp, #8
 930              		.cfi_def_cfa_offset 16
ARM GAS  C:\Users\ROUSSMA\AppData\Local\Temp\cc8VsTWP.s 			page 33


 931 0004 00AF     		add	r7, sp, #0
 932              		.cfi_def_cfa_register 7
 933 0006 7860     		str	r0, [r7, #4]
 895:Generated_Source\PSoC4/RTC_1.h ****     return((curVal < 23u) ? (curVal + 1u) : 0u);
 934              		.loc 1 895 0
 935 0008 7B68     		ldr	r3, [r7, #4]
 936 000a 162B     		cmp	r3, #22
 937 000c 02D8     		bhi	.L50
 938              		.loc 1 895 0 is_stmt 0 discriminator 1
 939 000e 7B68     		ldr	r3, [r7, #4]
 940 0010 0133     		adds	r3, r3, #1
 941 0012 00E0     		b	.L52
 942              	.L50:
 943              		.loc 1 895 0 discriminator 2
 944 0014 0023     		movs	r3, #0
 945              	.L52:
 896:Generated_Source\PSoC4/RTC_1.h **** }
 946              		.loc 1 896 0 is_stmt 1 discriminator 5
 947 0016 1800     		movs	r0, r3
 948 0018 BD46     		mov	sp, r7
 949 001a 02B0     		add	sp, sp, #8
 950              		@ sp needed
 951 001c 80BD     		pop	{r7, pc}
 952              		.cfi_endproc
 953              	.LFE19:
 954              		.size	RTC_1_GetNextHour, .-RTC_1_GetNextHour
 955 001e C046     		.section	.text.RTC_1_GetNextDay,"ax",%progbits
 956              		.align	2
 957              		.code	16
 958              		.thumb_func
 959              		.type	RTC_1_GetNextDay, %function
 960              	RTC_1_GetNextDay:
 961              	.LFB20:
 897:Generated_Source\PSoC4/RTC_1.h **** 
 898:Generated_Source\PSoC4/RTC_1.h **** 
 899:Generated_Source\PSoC4/RTC_1.h **** /*******************************************************************************
 900:Generated_Source\PSoC4/RTC_1.h **** * Function Name: RTC_1_GetNextDay
 901:Generated_Source\PSoC4/RTC_1.h **** ****************************************************************************//**
 902:Generated_Source\PSoC4/RTC_1.h **** * \internal
 903:Generated_Source\PSoC4/RTC_1.h **** * \brief
 904:Generated_Source\PSoC4/RTC_1.h **** *  This is an internal function that calculates the value of the next Day
 905:Generated_Source\PSoC4/RTC_1.h **** *  that follows after the current Day.
 906:Generated_Source\PSoC4/RTC_1.h **** *
 907:Generated_Source\PSoC4/RTC_1.h **** * \param
 908:Generated_Source\PSoC4/RTC_1.h **** *  curYear The current year.
 909:Generated_Source\PSoC4/RTC_1.h **** * \param
 910:Generated_Source\PSoC4/RTC_1.h **** *  curMonth The current month.
 911:Generated_Source\PSoC4/RTC_1.h **** * \param
 912:Generated_Source\PSoC4/RTC_1.h **** *  curDay The current day.
 913:Generated_Source\PSoC4/RTC_1.h **** * \param
 914:Generated_Source\PSoC4/RTC_1.h **** *  alarmCfgMask Alarm Config Mask.
 915:Generated_Source\PSoC4/RTC_1.h **** *
 916:Generated_Source\PSoC4/RTC_1.h **** * \return
 917:Generated_Source\PSoC4/RTC_1.h **** *  Returns the day which follows after the current Day.
 918:Generated_Source\PSoC4/RTC_1.h **** * \endinternal
 919:Generated_Source\PSoC4/RTC_1.h **** *******************************************************************************/
 920:Generated_Source\PSoC4/RTC_1.h **** static CY_INLINE uint32 RTC_1_GetNextDay(uint32 curYear, uint32 curMonth, uint32 curDay, uint32 ala
ARM GAS  C:\Users\ROUSSMA\AppData\Local\Temp\cc8VsTWP.s 			page 34


 921:Generated_Source\PSoC4/RTC_1.h **** {
 962              		.loc 1 921 0
 963              		.cfi_startproc
 964              		@ args = 0, pretend = 0, frame = 24
 965              		@ frame_needed = 1, uses_anonymous_args = 0
 966 0000 80B5     		push	{r7, lr}
 967              		.cfi_def_cfa_offset 8
 968              		.cfi_offset 7, -8
 969              		.cfi_offset 14, -4
 970 0002 86B0     		sub	sp, sp, #24
 971              		.cfi_def_cfa_offset 32
 972 0004 00AF     		add	r7, sp, #0
 973              		.cfi_def_cfa_register 7
 974 0006 F860     		str	r0, [r7, #12]
 975 0008 B960     		str	r1, [r7, #8]
 976 000a 7A60     		str	r2, [r7, #4]
 977 000c 3B60     		str	r3, [r7]
 922:Generated_Source\PSoC4/RTC_1.h ****     uint32 daysInMonth;
 923:Generated_Source\PSoC4/RTC_1.h ****     uint32 tmpVal;
 924:Generated_Source\PSoC4/RTC_1.h **** 
 925:Generated_Source\PSoC4/RTC_1.h ****     daysInMonth = RTC_1_DaysInMonth(curMonth, curYear);
 978              		.loc 1 925 0
 979 000e FA68     		ldr	r2, [r7, #12]
 980 0010 BB68     		ldr	r3, [r7, #8]
 981 0012 1100     		movs	r1, r2
 982 0014 1800     		movs	r0, r3
 983 0016 FFF7FEFF 		bl	RTC_1_DaysInMonth
 984 001a 0300     		movs	r3, r0
 985 001c 3B61     		str	r3, [r7, #16]
 926:Generated_Source\PSoC4/RTC_1.h **** 
 927:Generated_Source\PSoC4/RTC_1.h ****     if(0u != (alarmCfgMask & RTC_1_ALARM_DAYOFWEEK_MASK))
 986              		.loc 1 927 0
 987 001e 3B68     		ldr	r3, [r7]
 988 0020 0822     		movs	r2, #8
 989 0022 1340     		ands	r3, r2
 990 0024 0DD0     		beq	.L54
 928:Generated_Source\PSoC4/RTC_1.h ****     {
 929:Generated_Source\PSoC4/RTC_1.h ****         tmpVal = curDay + RTC_1_DAYS_PER_WEEK;
 991              		.loc 1 929 0
 992 0026 7B68     		ldr	r3, [r7, #4]
 993 0028 0733     		adds	r3, r3, #7
 994 002a 7B61     		str	r3, [r7, #20]
 930:Generated_Source\PSoC4/RTC_1.h ****         tmpVal = (tmpVal > daysInMonth) ? (tmpVal - daysInMonth) : tmpVal;
 995              		.loc 1 930 0
 996 002c 7A69     		ldr	r2, [r7, #20]
 997 002e 3B69     		ldr	r3, [r7, #16]
 998 0030 9A42     		cmp	r2, r3
 999 0032 03D9     		bls	.L55
 1000              		.loc 1 930 0 is_stmt 0 discriminator 1
 1001 0034 7A69     		ldr	r2, [r7, #20]
 1002 0036 3B69     		ldr	r3, [r7, #16]
 1003 0038 D31A     		subs	r3, r2, r3
 1004 003a 00E0     		b	.L56
 1005              	.L55:
 1006              		.loc 1 930 0 discriminator 2
 1007 003c 7B69     		ldr	r3, [r7, #20]
 1008              	.L56:
ARM GAS  C:\Users\ROUSSMA\AppData\Local\Temp\cc8VsTWP.s 			page 35


 1009              		.loc 1 930 0 discriminator 4
 1010 003e 7B61     		str	r3, [r7, #20]
 1011 0040 08E0     		b	.L57
 1012              	.L54:
 931:Generated_Source\PSoC4/RTC_1.h ****     }
 932:Generated_Source\PSoC4/RTC_1.h ****     else
 933:Generated_Source\PSoC4/RTC_1.h ****     {
 934:Generated_Source\PSoC4/RTC_1.h ****         tmpVal = (curDay < daysInMonth) ? (curDay + 1u) : 1u;
 1013              		.loc 1 934 0 is_stmt 1
 1014 0042 7A68     		ldr	r2, [r7, #4]
 1015 0044 3B69     		ldr	r3, [r7, #16]
 1016 0046 9A42     		cmp	r2, r3
 1017 0048 02D2     		bcs	.L58
 1018              		.loc 1 934 0 is_stmt 0 discriminator 1
 1019 004a 7B68     		ldr	r3, [r7, #4]
 1020 004c 0133     		adds	r3, r3, #1
 1021 004e 00E0     		b	.L59
 1022              	.L58:
 1023              		.loc 1 934 0 discriminator 2
 1024 0050 0123     		movs	r3, #1
 1025              	.L59:
 1026              		.loc 1 934 0 discriminator 4
 1027 0052 7B61     		str	r3, [r7, #20]
 1028              	.L57:
 935:Generated_Source\PSoC4/RTC_1.h ****     }
 936:Generated_Source\PSoC4/RTC_1.h **** 
 937:Generated_Source\PSoC4/RTC_1.h ****     return(tmpVal);
 1029              		.loc 1 937 0 is_stmt 1
 1030 0054 7B69     		ldr	r3, [r7, #20]
 938:Generated_Source\PSoC4/RTC_1.h **** }
 1031              		.loc 1 938 0
 1032 0056 1800     		movs	r0, r3
 1033 0058 BD46     		mov	sp, r7
 1034 005a 06B0     		add	sp, sp, #24
 1035              		@ sp needed
 1036 005c 80BD     		pop	{r7, pc}
 1037              		.cfi_endproc
 1038              	.LFE20:
 1039              		.size	RTC_1_GetNextDay, .-RTC_1_GetNextDay
 1040 005e C046     		.section	.text.RTC_1_GetNextMonth,"ax",%progbits
 1041              		.align	2
 1042              		.code	16
 1043              		.thumb_func
 1044              		.type	RTC_1_GetNextMonth, %function
 1045              	RTC_1_GetNextMonth:
 1046              	.LFB21:
 939:Generated_Source\PSoC4/RTC_1.h **** 
 940:Generated_Source\PSoC4/RTC_1.h **** 
 941:Generated_Source\PSoC4/RTC_1.h **** /*******************************************************************************
 942:Generated_Source\PSoC4/RTC_1.h **** * Function Name: RTC_1_GetNextMonth
 943:Generated_Source\PSoC4/RTC_1.h **** ****************************************************************************//**
 944:Generated_Source\PSoC4/RTC_1.h **** * \internal
 945:Generated_Source\PSoC4/RTC_1.h **** * \brief
 946:Generated_Source\PSoC4/RTC_1.h **** *  This is an internal function that calculates the value of the next month
 947:Generated_Source\PSoC4/RTC_1.h **** *  that follows after the current month.
 948:Generated_Source\PSoC4/RTC_1.h **** *
 949:Generated_Source\PSoC4/RTC_1.h **** * \param
ARM GAS  C:\Users\ROUSSMA\AppData\Local\Temp\cc8VsTWP.s 			page 36


 950:Generated_Source\PSoC4/RTC_1.h **** *  curMonth The current month.
 951:Generated_Source\PSoC4/RTC_1.h **** *
 952:Generated_Source\PSoC4/RTC_1.h **** * \return
 953:Generated_Source\PSoC4/RTC_1.h **** *  Returns the month which follows after the current month.
 954:Generated_Source\PSoC4/RTC_1.h **** * \endinternal
 955:Generated_Source\PSoC4/RTC_1.h **** *******************************************************************************/
 956:Generated_Source\PSoC4/RTC_1.h **** static CY_INLINE uint32 RTC_1_GetNextMonth(uint32 curMonth)
 957:Generated_Source\PSoC4/RTC_1.h **** {
 1047              		.loc 1 957 0
 1048              		.cfi_startproc
 1049              		@ args = 0, pretend = 0, frame = 8
 1050              		@ frame_needed = 1, uses_anonymous_args = 0
 1051 0000 80B5     		push	{r7, lr}
 1052              		.cfi_def_cfa_offset 8
 1053              		.cfi_offset 7, -8
 1054              		.cfi_offset 14, -4
 1055 0002 82B0     		sub	sp, sp, #8
 1056              		.cfi_def_cfa_offset 16
 1057 0004 00AF     		add	r7, sp, #0
 1058              		.cfi_def_cfa_register 7
 1059 0006 7860     		str	r0, [r7, #4]
 958:Generated_Source\PSoC4/RTC_1.h ****     return((curMonth < 12u) ? (curMonth + 1u) : 1u);
 1060              		.loc 1 958 0
 1061 0008 7B68     		ldr	r3, [r7, #4]
 1062 000a 0B2B     		cmp	r3, #11
 1063 000c 02D8     		bhi	.L62
 1064              		.loc 1 958 0 is_stmt 0 discriminator 1
 1065 000e 7B68     		ldr	r3, [r7, #4]
 1066 0010 0133     		adds	r3, r3, #1
 1067 0012 00E0     		b	.L64
 1068              	.L62:
 1069              		.loc 1 958 0 discriminator 2
 1070 0014 0123     		movs	r3, #1
 1071              	.L64:
 959:Generated_Source\PSoC4/RTC_1.h **** }
 1072              		.loc 1 959 0 is_stmt 1 discriminator 5
 1073 0016 1800     		movs	r0, r3
 1074 0018 BD46     		mov	sp, r7
 1075 001a 02B0     		add	sp, sp, #8
 1076              		@ sp needed
 1077 001c 80BD     		pop	{r7, pc}
 1078              		.cfi_endproc
 1079              	.LFE21:
 1080              		.size	RTC_1_GetNextMonth, .-RTC_1_GetNextMonth
 1081 001e C046     		.section	.text.RTC_1_GetNextYear,"ax",%progbits
 1082              		.align	2
 1083              		.code	16
 1084              		.thumb_func
 1085              		.type	RTC_1_GetNextYear, %function
 1086              	RTC_1_GetNextYear:
 1087              	.LFB22:
 960:Generated_Source\PSoC4/RTC_1.h **** 
 961:Generated_Source\PSoC4/RTC_1.h **** 
 962:Generated_Source\PSoC4/RTC_1.h **** /*******************************************************************************
 963:Generated_Source\PSoC4/RTC_1.h **** * Function Name: RTC_1_GetNextYear
 964:Generated_Source\PSoC4/RTC_1.h **** ****************************************************************************//**
 965:Generated_Source\PSoC4/RTC_1.h **** * \internal
ARM GAS  C:\Users\ROUSSMA\AppData\Local\Temp\cc8VsTWP.s 			page 37


 966:Generated_Source\PSoC4/RTC_1.h **** * \brief
 967:Generated_Source\PSoC4/RTC_1.h **** *  This is an internal function that calculates the value of the next year
 968:Generated_Source\PSoC4/RTC_1.h **** *  that follows after the current year.
 969:Generated_Source\PSoC4/RTC_1.h **** *
 970:Generated_Source\PSoC4/RTC_1.h **** * \param
 971:Generated_Source\PSoC4/RTC_1.h **** *  curYear The current year.
 972:Generated_Source\PSoC4/RTC_1.h **** *
 973:Generated_Source\PSoC4/RTC_1.h **** * \return
 974:Generated_Source\PSoC4/RTC_1.h **** *  Returns the year which follows after the current year.
 975:Generated_Source\PSoC4/RTC_1.h **** * \endinternal
 976:Generated_Source\PSoC4/RTC_1.h **** *******************************************************************************/
 977:Generated_Source\PSoC4/RTC_1.h **** static CY_INLINE uint32 RTC_1_GetNextYear(uint32 curYear)
 978:Generated_Source\PSoC4/RTC_1.h **** {
 1088              		.loc 1 978 0
 1089              		.cfi_startproc
 1090              		@ args = 0, pretend = 0, frame = 8
 1091              		@ frame_needed = 1, uses_anonymous_args = 0
 1092 0000 80B5     		push	{r7, lr}
 1093              		.cfi_def_cfa_offset 8
 1094              		.cfi_offset 7, -8
 1095              		.cfi_offset 14, -4
 1096 0002 82B0     		sub	sp, sp, #8
 1097              		.cfi_def_cfa_offset 16
 1098 0004 00AF     		add	r7, sp, #0
 1099              		.cfi_def_cfa_register 7
 1100 0006 7860     		str	r0, [r7, #4]
 979:Generated_Source\PSoC4/RTC_1.h ****     return(curYear + 1u);
 1101              		.loc 1 979 0
 1102 0008 7B68     		ldr	r3, [r7, #4]
 1103 000a 0133     		adds	r3, r3, #1
 980:Generated_Source\PSoC4/RTC_1.h **** }
 1104              		.loc 1 980 0
 1105 000c 1800     		movs	r0, r3
 1106 000e BD46     		mov	sp, r7
 1107 0010 02B0     		add	sp, sp, #8
 1108              		@ sp needed
 1109 0012 80BD     		pop	{r7, pc}
 1110              		.cfi_endproc
 1111              	.LFE22:
 1112              		.size	RTC_1_GetNextYear, .-RTC_1_GetNextYear
 1113              		.section	.text.RTC_1_GetTimeFormat,"ax",%progbits
 1114              		.align	2
 1115              		.code	16
 1116              		.thumb_func
 1117              		.type	RTC_1_GetTimeFormat, %function
 1118              	RTC_1_GetTimeFormat:
 1119              	.LFB24:
 981:Generated_Source\PSoC4/RTC_1.h **** 
 982:Generated_Source\PSoC4/RTC_1.h **** 
 983:Generated_Source\PSoC4/RTC_1.h **** /*******************************************************************************
 984:Generated_Source\PSoC4/RTC_1.h **** * Function Name: RTC_1_SetTimeFormat
 985:Generated_Source\PSoC4/RTC_1.h **** ****************************************************************************//**
 986:Generated_Source\PSoC4/RTC_1.h **** * \internal
 987:Generated_Source\PSoC4/RTC_1.h **** * \brief
 988:Generated_Source\PSoC4/RTC_1.h **** *  Updates the "Time Format" value in the variable that contains time in the
 989:Generated_Source\PSoC4/RTC_1.h **** *  "HH:MM:SS" format.
 990:Generated_Source\PSoC4/RTC_1.h **** *
ARM GAS  C:\Users\ROUSSMA\AppData\Local\Temp\cc8VsTWP.s 			page 38


 991:Generated_Source\PSoC4/RTC_1.h **** * \param
 992:Generated_Source\PSoC4/RTC_1.h **** *  inputTime The current value of the time in the "HH:MM:SS" format.
 993:Generated_Source\PSoC4/RTC_1.h **** *
 994:Generated_Source\PSoC4/RTC_1.h **** * \return
 995:Generated_Source\PSoC4/RTC_1.h **** *  Returns the updated value of the time in the "HH:MM:SS" format.
 996:Generated_Source\PSoC4/RTC_1.h **** * \endinternal
 997:Generated_Source\PSoC4/RTC_1.h **** *******************************************************************************/
 998:Generated_Source\PSoC4/RTC_1.h **** static CY_INLINE uint32 RTC_1_SetTimeFormat(uint32 inputTime, uint32 timeFormat)
 999:Generated_Source\PSoC4/RTC_1.h **** {
1000:Generated_Source\PSoC4/RTC_1.h ****     inputTime &= ~(RTC_1_TIME_FORMAT_MASK);
1001:Generated_Source\PSoC4/RTC_1.h **** 
1002:Generated_Source\PSoC4/RTC_1.h ****     if((uint32)RTC_1_12_HOURS_FORMAT != timeFormat)
1003:Generated_Source\PSoC4/RTC_1.h ****     {
1004:Generated_Source\PSoC4/RTC_1.h ****         inputTime |= RTC_1_TIME_FORMAT_MASK;
1005:Generated_Source\PSoC4/RTC_1.h ****     }
1006:Generated_Source\PSoC4/RTC_1.h **** 
1007:Generated_Source\PSoC4/RTC_1.h ****     return(inputTime);
1008:Generated_Source\PSoC4/RTC_1.h **** }
1009:Generated_Source\PSoC4/RTC_1.h **** 
1010:Generated_Source\PSoC4/RTC_1.h **** 
1011:Generated_Source\PSoC4/RTC_1.h **** /*******************************************************************************
1012:Generated_Source\PSoC4/RTC_1.h **** * Function Name: RTC_1_GetTimeFormat
1013:Generated_Source\PSoC4/RTC_1.h **** ****************************************************************************//**
1014:Generated_Source\PSoC4/RTC_1.h **** * \internal
1015:Generated_Source\PSoC4/RTC_1.h **** * \brief
1016:Generated_Source\PSoC4/RTC_1.h **** *  Reads the time format from the variable that contains time in the
1017:Generated_Source\PSoC4/RTC_1.h **** *  "HH:MM:SS" format.
1018:Generated_Source\PSoC4/RTC_1.h **** *
1019:Generated_Source\PSoC4/RTC_1.h **** * \param
1020:Generated_Source\PSoC4/RTC_1.h **** *  inputTime The current value of the time in the "HH:MM:SS" format.
1021:Generated_Source\PSoC4/RTC_1.h **** *
1022:Generated_Source\PSoC4/RTC_1.h **** * \return
1023:Generated_Source\PSoC4/RTC_1.h **** *  Returns the time format that is stored in the variable that contains time
1024:Generated_Source\PSoC4/RTC_1.h **** *  in the "HH:MM:SS" format.
1025:Generated_Source\PSoC4/RTC_1.h **** * \endinternal
1026:Generated_Source\PSoC4/RTC_1.h **** *******************************************************************************/
1027:Generated_Source\PSoC4/RTC_1.h **** static CY_INLINE uint32 RTC_1_GetTimeFormat(uint32 inputTime)
1028:Generated_Source\PSoC4/RTC_1.h **** {
 1120              		.loc 1 1028 0
 1121              		.cfi_startproc
 1122              		@ args = 0, pretend = 0, frame = 8
 1123              		@ frame_needed = 1, uses_anonymous_args = 0
 1124 0000 80B5     		push	{r7, lr}
 1125              		.cfi_def_cfa_offset 8
 1126              		.cfi_offset 7, -8
 1127              		.cfi_offset 14, -4
 1128 0002 82B0     		sub	sp, sp, #8
 1129              		.cfi_def_cfa_offset 16
 1130 0004 00AF     		add	r7, sp, #0
 1131              		.cfi_def_cfa_register 7
 1132 0006 7860     		str	r0, [r7, #4]
1029:Generated_Source\PSoC4/RTC_1.h ****     return ((0uL != (inputTime & (1uL << RTC_1_TIME_FORMAT_OFFSET))) ? (uint32)RTC_1_12_HOURS_FORMA
 1133              		.loc 1 1029 0
 1134 0008 7A68     		ldr	r2, [r7, #4]
 1135 000a 8023     		movs	r3, #128
 1136 000c 1B04     		lsls	r3, r3, #16
 1137 000e 1340     		ands	r3, r2
ARM GAS  C:\Users\ROUSSMA\AppData\Local\Temp\cc8VsTWP.s 			page 39


 1138 0010 01D0     		beq	.L68
 1139              		.loc 1 1029 0 is_stmt 0 discriminator 1
 1140 0012 0123     		movs	r3, #1
 1141 0014 00E0     		b	.L70
 1142              	.L68:
 1143              		.loc 1 1029 0 discriminator 2
 1144 0016 0023     		movs	r3, #0
 1145              	.L70:
1030:Generated_Source\PSoC4/RTC_1.h ****                                                                                   (uint32)RTC_1_24_
1031:Generated_Source\PSoC4/RTC_1.h **** }
 1146              		.loc 1 1031 0 is_stmt 1 discriminator 5
 1147 0018 1800     		movs	r0, r3
 1148 001a BD46     		mov	sp, r7
 1149 001c 02B0     		add	sp, sp, #8
 1150              		@ sp needed
 1151 001e 80BD     		pop	{r7, pc}
 1152              		.cfi_endproc
 1153              	.LFE24:
 1154              		.size	RTC_1_GetTimeFormat, .-RTC_1_GetTimeFormat
 1155              		.section	.text.RTC_1_ConstructTime,"ax",%progbits
 1156              		.align	2
 1157              		.code	16
 1158              		.thumb_func
 1159              		.type	RTC_1_ConstructTime, %function
 1160              	RTC_1_ConstructTime:
 1161              	.LFB25:
1032:Generated_Source\PSoC4/RTC_1.h **** 
1033:Generated_Source\PSoC4/RTC_1.h **** 
1034:Generated_Source\PSoC4/RTC_1.h **** /*******************************************************************************
1035:Generated_Source\PSoC4/RTC_1.h **** * Function Name: RTC_1_ConstructTime
1036:Generated_Source\PSoC4/RTC_1.h **** ****************************************************************************//**
1037:Generated_Source\PSoC4/RTC_1.h **** *
1038:Generated_Source\PSoC4/RTC_1.h **** * \brief
1039:Generated_Source\PSoC4/RTC_1.h **** *  Returns the time in the format used in APIs from individual elements
1040:Generated_Source\PSoC4/RTC_1.h **** *  passed (hour, min, sec etc)
1041:Generated_Source\PSoC4/RTC_1.h **** *
1042:Generated_Source\PSoC4/RTC_1.h **** * \param
1043:Generated_Source\PSoC4/RTC_1.h **** * timeFormat The 12/24 hours time format <br>
1044:Generated_Source\PSoC4/RTC_1.h **** * RTC_1_24_HOURS_FORMAT - The 24 hours format. <br>
1045:Generated_Source\PSoC4/RTC_1.h **** * RTC_1_12_HOURS_FORMAT - The 12 hours format.
1046:Generated_Source\PSoC4/RTC_1.h **** *
1047:Generated_Source\PSoC4/RTC_1.h **** * \param
1048:Generated_Source\PSoC4/RTC_1.h **** * stateAmPm  The AM/PM status <br>
1049:Generated_Source\PSoC4/RTC_1.h **** * RTC_1_AM - AM. <br>
1050:Generated_Source\PSoC4/RTC_1.h **** * RTC_1_PM - PM.
1051:Generated_Source\PSoC4/RTC_1.h **** *
1052:Generated_Source\PSoC4/RTC_1.h **** * \param
1053:Generated_Source\PSoC4/RTC_1.h **** *  hour The hour.
1054:Generated_Source\PSoC4/RTC_1.h **** *
1055:Generated_Source\PSoC4/RTC_1.h **** * \param
1056:Generated_Source\PSoC4/RTC_1.h **** *  min The minute.
1057:Generated_Source\PSoC4/RTC_1.h **** *
1058:Generated_Source\PSoC4/RTC_1.h **** * \param
1059:Generated_Source\PSoC4/RTC_1.h **** *  sec The second.
1060:Generated_Source\PSoC4/RTC_1.h **** *
1061:Generated_Source\PSoC4/RTC_1.h **** * \return
1062:Generated_Source\PSoC4/RTC_1.h **** *  Time in the format used in API.
ARM GAS  C:\Users\ROUSSMA\AppData\Local\Temp\cc8VsTWP.s 			page 40


1063:Generated_Source\PSoC4/RTC_1.h **** *
1064:Generated_Source\PSoC4/RTC_1.h **** *******************************************************************************/
1065:Generated_Source\PSoC4/RTC_1.h **** static CY_INLINE uint32 RTC_1_ConstructTime(uint32 timeFormat, uint32 stateAmPm, uint32 hour, uint3
1066:Generated_Source\PSoC4/RTC_1.h **** {
 1162              		.loc 1 1066 0
 1163              		.cfi_startproc
 1164              		@ args = 4, pretend = 0, frame = 24
 1165              		@ frame_needed = 1, uses_anonymous_args = 0
 1166 0000 80B5     		push	{r7, lr}
 1167              		.cfi_def_cfa_offset 8
 1168              		.cfi_offset 7, -8
 1169              		.cfi_offset 14, -4
 1170 0002 86B0     		sub	sp, sp, #24
 1171              		.cfi_def_cfa_offset 32
 1172 0004 00AF     		add	r7, sp, #0
 1173              		.cfi_def_cfa_register 7
 1174 0006 F860     		str	r0, [r7, #12]
 1175 0008 B960     		str	r1, [r7, #8]
 1176 000a 7A60     		str	r2, [r7, #4]
 1177 000c 3B60     		str	r3, [r7]
1067:Generated_Source\PSoC4/RTC_1.h ****     uint32 retVal;
1068:Generated_Source\PSoC4/RTC_1.h **** 
1069:Generated_Source\PSoC4/RTC_1.h ****     retVal  = timeFormat << RTC_1_TIME_FORMAT_OFFSET;
 1178              		.loc 1 1069 0
 1179 000e FB68     		ldr	r3, [r7, #12]
 1180 0010 DB05     		lsls	r3, r3, #23
 1181 0012 7B61     		str	r3, [r7, #20]
1070:Generated_Source\PSoC4/RTC_1.h ****     retVal |= stateAmPm << RTC_1_PERIOD_OF_DAY_OFFSET;
 1182              		.loc 1 1070 0
 1183 0014 BB68     		ldr	r3, [r7, #8]
 1184 0016 9B05     		lsls	r3, r3, #22
 1185 0018 7A69     		ldr	r2, [r7, #20]
 1186 001a 1343     		orrs	r3, r2
 1187 001c 7B61     		str	r3, [r7, #20]
1071:Generated_Source\PSoC4/RTC_1.h **** 
1072:Generated_Source\PSoC4/RTC_1.h ****     retVal |= (hour / 10u) << RTC_1_10_HOURS_OFFSET;
 1188              		.loc 1 1072 0
 1189 001e 7B68     		ldr	r3, [r7, #4]
 1190 0020 0A21     		movs	r1, #10
 1191 0022 1800     		movs	r0, r3
 1192 0024 FFF7FEFF 		bl	__aeabi_uidiv
 1193 0028 0300     		movs	r3, r0
 1194 002a 1B05     		lsls	r3, r3, #20
 1195 002c 7A69     		ldr	r2, [r7, #20]
 1196 002e 1343     		orrs	r3, r2
 1197 0030 7B61     		str	r3, [r7, #20]
1073:Generated_Source\PSoC4/RTC_1.h ****     retVal |= (hour % 10u) << RTC_1_HOURS_OFFSET;
 1198              		.loc 1 1073 0
 1199 0032 7B68     		ldr	r3, [r7, #4]
 1200 0034 0A21     		movs	r1, #10
 1201 0036 1800     		movs	r0, r3
 1202 0038 FFF7FEFF 		bl	__aeabi_uidivmod
 1203 003c 0B00     		movs	r3, r1
 1204 003e 1B04     		lsls	r3, r3, #16
 1205 0040 7A69     		ldr	r2, [r7, #20]
 1206 0042 1343     		orrs	r3, r2
 1207 0044 7B61     		str	r3, [r7, #20]
ARM GAS  C:\Users\ROUSSMA\AppData\Local\Temp\cc8VsTWP.s 			page 41


1074:Generated_Source\PSoC4/RTC_1.h **** 
1075:Generated_Source\PSoC4/RTC_1.h ****     retVal |= (min / 10u) << RTC_1_10_MINUTES_OFFSET;
 1208              		.loc 1 1075 0
 1209 0046 3B68     		ldr	r3, [r7]
 1210 0048 0A21     		movs	r1, #10
 1211 004a 1800     		movs	r0, r3
 1212 004c FFF7FEFF 		bl	__aeabi_uidiv
 1213 0050 0300     		movs	r3, r0
 1214 0052 1B03     		lsls	r3, r3, #12
 1215 0054 7A69     		ldr	r2, [r7, #20]
 1216 0056 1343     		orrs	r3, r2
 1217 0058 7B61     		str	r3, [r7, #20]
1076:Generated_Source\PSoC4/RTC_1.h ****     retVal |= (min % 10u) << RTC_1_MINUTES_OFFSET;
 1218              		.loc 1 1076 0
 1219 005a 3B68     		ldr	r3, [r7]
 1220 005c 0A21     		movs	r1, #10
 1221 005e 1800     		movs	r0, r3
 1222 0060 FFF7FEFF 		bl	__aeabi_uidivmod
 1223 0064 0B00     		movs	r3, r1
 1224 0066 1B02     		lsls	r3, r3, #8
 1225 0068 7A69     		ldr	r2, [r7, #20]
 1226 006a 1343     		orrs	r3, r2
 1227 006c 7B61     		str	r3, [r7, #20]
1077:Generated_Source\PSoC4/RTC_1.h **** 
1078:Generated_Source\PSoC4/RTC_1.h ****     retVal |= (sec / 10u) << RTC_1_10_SECONDS_OFFSET;
 1228              		.loc 1 1078 0
 1229 006e 3B6A     		ldr	r3, [r7, #32]
 1230 0070 0A21     		movs	r1, #10
 1231 0072 1800     		movs	r0, r3
 1232 0074 FFF7FEFF 		bl	__aeabi_uidiv
 1233 0078 0300     		movs	r3, r0
 1234 007a 1B01     		lsls	r3, r3, #4
 1235 007c 7A69     		ldr	r2, [r7, #20]
 1236 007e 1343     		orrs	r3, r2
 1237 0080 7B61     		str	r3, [r7, #20]
1079:Generated_Source\PSoC4/RTC_1.h ****     retVal |= (sec % 10u) << RTC_1_SECONDS_OFFSET;
 1238              		.loc 1 1079 0
 1239 0082 3B6A     		ldr	r3, [r7, #32]
 1240 0084 0A21     		movs	r1, #10
 1241 0086 1800     		movs	r0, r3
 1242 0088 FFF7FEFF 		bl	__aeabi_uidivmod
 1243 008c 0B00     		movs	r3, r1
 1244 008e 1A00     		movs	r2, r3
 1245 0090 7B69     		ldr	r3, [r7, #20]
 1246 0092 1343     		orrs	r3, r2
 1247 0094 7B61     		str	r3, [r7, #20]
1080:Generated_Source\PSoC4/RTC_1.h **** 
1081:Generated_Source\PSoC4/RTC_1.h ****     return (retVal);
 1248              		.loc 1 1081 0
 1249 0096 7B69     		ldr	r3, [r7, #20]
1082:Generated_Source\PSoC4/RTC_1.h **** }
 1250              		.loc 1 1082 0
 1251 0098 1800     		movs	r0, r3
 1252 009a BD46     		mov	sp, r7
 1253 009c 06B0     		add	sp, sp, #24
 1254              		@ sp needed
 1255 009e 80BD     		pop	{r7, pc}
ARM GAS  C:\Users\ROUSSMA\AppData\Local\Temp\cc8VsTWP.s 			page 42


 1256              		.cfi_endproc
 1257              	.LFE25:
 1258              		.size	RTC_1_ConstructTime, .-RTC_1_ConstructTime
 1259              		.section	.text.RTC_1_ConstructDate,"ax",%progbits
 1260              		.align	2
 1261              		.code	16
 1262              		.thumb_func
 1263              		.type	RTC_1_ConstructDate, %function
 1264              	RTC_1_ConstructDate:
 1265              	.LFB26:
1083:Generated_Source\PSoC4/RTC_1.h **** 
1084:Generated_Source\PSoC4/RTC_1.h **** 
1085:Generated_Source\PSoC4/RTC_1.h **** /*******************************************************************************
1086:Generated_Source\PSoC4/RTC_1.h **** * Function Name: RTC_1_ConstructDate
1087:Generated_Source\PSoC4/RTC_1.h **** ****************************************************************************//**
1088:Generated_Source\PSoC4/RTC_1.h **** *
1089:Generated_Source\PSoC4/RTC_1.h **** * \brief
1090:Generated_Source\PSoC4/RTC_1.h **** *  Returns the date in the format used in APIs from individual elements
1091:Generated_Source\PSoC4/RTC_1.h **** *  passed (day. Month and year)
1092:Generated_Source\PSoC4/RTC_1.h **** *
1093:Generated_Source\PSoC4/RTC_1.h **** * \param
1094:Generated_Source\PSoC4/RTC_1.h **** *  month The month.
1095:Generated_Source\PSoC4/RTC_1.h **** *
1096:Generated_Source\PSoC4/RTC_1.h **** * \param
1097:Generated_Source\PSoC4/RTC_1.h **** *  day The day.
1098:Generated_Source\PSoC4/RTC_1.h **** *
1099:Generated_Source\PSoC4/RTC_1.h **** * \param
1100:Generated_Source\PSoC4/RTC_1.h **** *  year The year.
1101:Generated_Source\PSoC4/RTC_1.h **** *
1102:Generated_Source\PSoC4/RTC_1.h **** * \return
1103:Generated_Source\PSoC4/RTC_1.h **** *  The date in the format used in API.
1104:Generated_Source\PSoC4/RTC_1.h **** *
1105:Generated_Source\PSoC4/RTC_1.h **** *******************************************************************************/
1106:Generated_Source\PSoC4/RTC_1.h **** static CY_INLINE uint32 RTC_1_ConstructDate(uint32 month, uint32 day, uint32 year)
1107:Generated_Source\PSoC4/RTC_1.h **** {
 1266              		.loc 1 1107 0
 1267              		.cfi_startproc
 1268              		@ args = 0, pretend = 0, frame = 24
 1269              		@ frame_needed = 1, uses_anonymous_args = 0
 1270 0000 80B5     		push	{r7, lr}
 1271              		.cfi_def_cfa_offset 8
 1272              		.cfi_offset 7, -8
 1273              		.cfi_offset 14, -4
 1274 0002 86B0     		sub	sp, sp, #24
 1275              		.cfi_def_cfa_offset 32
 1276 0004 00AF     		add	r7, sp, #0
 1277              		.cfi_def_cfa_register 7
 1278 0006 F860     		str	r0, [r7, #12]
 1279 0008 B960     		str	r1, [r7, #8]
 1280 000a 7A60     		str	r2, [r7, #4]
1108:Generated_Source\PSoC4/RTC_1.h ****     uint32 retVal;
1109:Generated_Source\PSoC4/RTC_1.h ****     uint32 tmpVal = year;
 1281              		.loc 1 1109 0
 1282 000c 7B68     		ldr	r3, [r7, #4]
 1283 000e 7B61     		str	r3, [r7, #20]
1110:Generated_Source\PSoC4/RTC_1.h **** 
1111:Generated_Source\PSoC4/RTC_1.h ****     retVal  = (month / 10u) << RTC_1_10_MONTH_OFFSET;
ARM GAS  C:\Users\ROUSSMA\AppData\Local\Temp\cc8VsTWP.s 			page 43


 1284              		.loc 1 1111 0
 1285 0010 FB68     		ldr	r3, [r7, #12]
 1286 0012 0A21     		movs	r1, #10
 1287 0014 1800     		movs	r0, r3
 1288 0016 FFF7FEFF 		bl	__aeabi_uidiv
 1289 001a 0300     		movs	r3, r0
 1290 001c 1B07     		lsls	r3, r3, #28
 1291 001e 3B61     		str	r3, [r7, #16]
1112:Generated_Source\PSoC4/RTC_1.h ****     retVal |= (month % 10u) << RTC_1_MONTH_OFFSET;
 1292              		.loc 1 1112 0
 1293 0020 FB68     		ldr	r3, [r7, #12]
 1294 0022 0A21     		movs	r1, #10
 1295 0024 1800     		movs	r0, r3
 1296 0026 FFF7FEFF 		bl	__aeabi_uidivmod
 1297 002a 0B00     		movs	r3, r1
 1298 002c 1B06     		lsls	r3, r3, #24
 1299 002e 3A69     		ldr	r2, [r7, #16]
 1300 0030 1343     		orrs	r3, r2
 1301 0032 3B61     		str	r3, [r7, #16]
1113:Generated_Source\PSoC4/RTC_1.h **** 
1114:Generated_Source\PSoC4/RTC_1.h ****     retVal |= (day / 10u) << RTC_1_10_DAY_OFFSET;
 1302              		.loc 1 1114 0
 1303 0034 BB68     		ldr	r3, [r7, #8]
 1304 0036 0A21     		movs	r1, #10
 1305 0038 1800     		movs	r0, r3
 1306 003a FFF7FEFF 		bl	__aeabi_uidiv
 1307 003e 0300     		movs	r3, r0
 1308 0040 1B05     		lsls	r3, r3, #20
 1309 0042 3A69     		ldr	r2, [r7, #16]
 1310 0044 1343     		orrs	r3, r2
 1311 0046 3B61     		str	r3, [r7, #16]
1115:Generated_Source\PSoC4/RTC_1.h ****     retVal |= (day % 10u) << RTC_1_DAY_OFFSET;
 1312              		.loc 1 1115 0
 1313 0048 BB68     		ldr	r3, [r7, #8]
 1314 004a 0A21     		movs	r1, #10
 1315 004c 1800     		movs	r0, r3
 1316 004e FFF7FEFF 		bl	__aeabi_uidivmod
 1317 0052 0B00     		movs	r3, r1
 1318 0054 1B04     		lsls	r3, r3, #16
 1319 0056 3A69     		ldr	r2, [r7, #16]
 1320 0058 1343     		orrs	r3, r2
 1321 005a 3B61     		str	r3, [r7, #16]
1116:Generated_Source\PSoC4/RTC_1.h **** 
1117:Generated_Source\PSoC4/RTC_1.h ****     retVal |= (year / 1000u) << RTC_1_1000_YEAR_OFFSET;
 1322              		.loc 1 1117 0
 1323 005c 7A68     		ldr	r2, [r7, #4]
 1324 005e FA23     		movs	r3, #250
 1325 0060 9900     		lsls	r1, r3, #2
 1326 0062 1000     		movs	r0, r2
 1327 0064 FFF7FEFF 		bl	__aeabi_uidiv
 1328 0068 0300     		movs	r3, r0
 1329 006a 1B03     		lsls	r3, r3, #12
 1330 006c 3A69     		ldr	r2, [r7, #16]
 1331 006e 1343     		orrs	r3, r2
 1332 0070 3B61     		str	r3, [r7, #16]
1118:Generated_Source\PSoC4/RTC_1.h ****     tmpVal %= 1000u;
 1333              		.loc 1 1118 0
ARM GAS  C:\Users\ROUSSMA\AppData\Local\Temp\cc8VsTWP.s 			page 44


 1334 0072 7A69     		ldr	r2, [r7, #20]
 1335 0074 FA23     		movs	r3, #250
 1336 0076 9900     		lsls	r1, r3, #2
 1337 0078 1000     		movs	r0, r2
 1338 007a FFF7FEFF 		bl	__aeabi_uidivmod
 1339 007e 0B00     		movs	r3, r1
 1340 0080 7B61     		str	r3, [r7, #20]
1119:Generated_Source\PSoC4/RTC_1.h **** 
1120:Generated_Source\PSoC4/RTC_1.h ****     retVal |= (tmpVal / 100u) << RTC_1_100_YEAR_OFFSET;
 1341              		.loc 1 1120 0
 1342 0082 7B69     		ldr	r3, [r7, #20]
 1343 0084 6421     		movs	r1, #100
 1344 0086 1800     		movs	r0, r3
 1345 0088 FFF7FEFF 		bl	__aeabi_uidiv
 1346 008c 0300     		movs	r3, r0
 1347 008e 1B02     		lsls	r3, r3, #8
 1348 0090 3A69     		ldr	r2, [r7, #16]
 1349 0092 1343     		orrs	r3, r2
 1350 0094 3B61     		str	r3, [r7, #16]
1121:Generated_Source\PSoC4/RTC_1.h ****     tmpVal %= 100u;
 1351              		.loc 1 1121 0
 1352 0096 7B69     		ldr	r3, [r7, #20]
 1353 0098 6421     		movs	r1, #100
 1354 009a 1800     		movs	r0, r3
 1355 009c FFF7FEFF 		bl	__aeabi_uidivmod
 1356 00a0 0B00     		movs	r3, r1
 1357 00a2 7B61     		str	r3, [r7, #20]
1122:Generated_Source\PSoC4/RTC_1.h **** 
1123:Generated_Source\PSoC4/RTC_1.h ****     retVal |= (tmpVal / 10u) << RTC_1_10_YEAR_OFFSET;
 1358              		.loc 1 1123 0
 1359 00a4 7B69     		ldr	r3, [r7, #20]
 1360 00a6 0A21     		movs	r1, #10
 1361 00a8 1800     		movs	r0, r3
 1362 00aa FFF7FEFF 		bl	__aeabi_uidiv
 1363 00ae 0300     		movs	r3, r0
 1364 00b0 1B01     		lsls	r3, r3, #4
 1365 00b2 3A69     		ldr	r2, [r7, #16]
 1366 00b4 1343     		orrs	r3, r2
 1367 00b6 3B61     		str	r3, [r7, #16]
1124:Generated_Source\PSoC4/RTC_1.h ****     retVal |= (tmpVal % 10u) << RTC_1_YEAR_OFFSET;
 1368              		.loc 1 1124 0
 1369 00b8 7B69     		ldr	r3, [r7, #20]
 1370 00ba 0A21     		movs	r1, #10
 1371 00bc 1800     		movs	r0, r3
 1372 00be FFF7FEFF 		bl	__aeabi_uidivmod
 1373 00c2 0B00     		movs	r3, r1
 1374 00c4 1A00     		movs	r2, r3
 1375 00c6 3B69     		ldr	r3, [r7, #16]
 1376 00c8 1343     		orrs	r3, r2
 1377 00ca 3B61     		str	r3, [r7, #16]
1125:Generated_Source\PSoC4/RTC_1.h **** 
1126:Generated_Source\PSoC4/RTC_1.h ****     return (retVal);
 1378              		.loc 1 1126 0
 1379 00cc 3B69     		ldr	r3, [r7, #16]
1127:Generated_Source\PSoC4/RTC_1.h **** }
 1380              		.loc 1 1127 0
 1381 00ce 1800     		movs	r0, r3
ARM GAS  C:\Users\ROUSSMA\AppData\Local\Temp\cc8VsTWP.s 			page 45


 1382 00d0 BD46     		mov	sp, r7
 1383 00d2 06B0     		add	sp, sp, #24
 1384              		@ sp needed
 1385 00d4 80BD     		pop	{r7, pc}
 1386              		.cfi_endproc
 1387              	.LFE26:
 1388              		.size	RTC_1_ConstructDate, .-RTC_1_ConstructDate
 1389              		.section	.text.RTC_1_GetDayOfWeek,"ax",%progbits
 1390              		.align	2
 1391              		.code	16
 1392              		.thumb_func
 1393              		.type	RTC_1_GetDayOfWeek, %function
 1394              	RTC_1_GetDayOfWeek:
 1395              	.LFB27:
1128:Generated_Source\PSoC4/RTC_1.h **** 
1129:Generated_Source\PSoC4/RTC_1.h **** 
1130:Generated_Source\PSoC4/RTC_1.h **** /*******************************************************************************
1131:Generated_Source\PSoC4/RTC_1.h **** * Function Name: RTC_1_GetDayOfWeek
1132:Generated_Source\PSoC4/RTC_1.h **** ****************************************************************************//**
1133:Generated_Source\PSoC4/RTC_1.h **** * \internal
1134:Generated_Source\PSoC4/RTC_1.h **** *
1135:Generated_Source\PSoC4/RTC_1.h **** * \brief
1136:Generated_Source\PSoC4/RTC_1.h **** *  Returns a day of the week for a year, month, and day of month that are passed
1137:Generated_Source\PSoC4/RTC_1.h **** *  through parameters. Zeller's congruence is used to calculate the day of
1138:Generated_Source\PSoC4/RTC_1.h **** *  the week.
1139:Generated_Source\PSoC4/RTC_1.h **** *
1140:Generated_Source\PSoC4/RTC_1.h **** *  For the Georgian calendar, Zeller's congruence is:
1141:Generated_Source\PSoC4/RTC_1.h **** *  h = (q + [13 * (m + 1)] + K + [K/4] + [J/4] - 2J) mod 7
1142:Generated_Source\PSoC4/RTC_1.h **** *
1143:Generated_Source\PSoC4/RTC_1.h **** *  h - The day of the week (0 = Saturday, 1 = Sunday, 2 = Monday, ..., 6 = Friday).
1144:Generated_Source\PSoC4/RTC_1.h **** *  q - The day of the month.
1145:Generated_Source\PSoC4/RTC_1.h **** *  m - The month (3 = March, 4 = April, 5 = May, ..., 14 = February)
1146:Generated_Source\PSoC4/RTC_1.h **** *  K - The year of the century (year \mod 100).
1147:Generated_Source\PSoC4/RTC_1.h **** *  J - The zero-based century (actually [year/100]) For example, the zero-based
1148:Generated_Source\PSoC4/RTC_1.h **** *  centuries for 1995 and 2000 are 19 and 20 respectively (not to be
1149:Generated_Source\PSoC4/RTC_1.h **** *  confused with the common ordinal century enumeration which indicates
1150:Generated_Source\PSoC4/RTC_1.h **** *  20th for both cases).
1151:Generated_Source\PSoC4/RTC_1.h **** *
1152:Generated_Source\PSoC4/RTC_1.h **** * \note In this algorithm January and February are counted as months 13 and 14
1153:Generated_Source\PSoC4/RTC_1.h **** * of the previous year.
1154:Generated_Source\PSoC4/RTC_1.h **** *
1155:Generated_Source\PSoC4/RTC_1.h **** * \param
1156:Generated_Source\PSoC4/RTC_1.h **** *  day The day of the month(1..31)
1157:Generated_Source\PSoC4/RTC_1.h **** *
1158:Generated_Source\PSoC4/RTC_1.h **** * \param
1159:Generated_Source\PSoC4/RTC_1.h **** *  month The month of the year
1160:Generated_Source\PSoC4/RTC_1.h **** * RTC_1_JANUARY <br>
1161:Generated_Source\PSoC4/RTC_1.h **** * RTC_1_FEBRUARY <br>
1162:Generated_Source\PSoC4/RTC_1.h **** * RTC_1_MARCH <br>
1163:Generated_Source\PSoC4/RTC_1.h **** * RTC_1_APRIL <br>
1164:Generated_Source\PSoC4/RTC_1.h **** * RTC_1_MAY <br>
1165:Generated_Source\PSoC4/RTC_1.h **** * RTC_1_JUNE <br>
1166:Generated_Source\PSoC4/RTC_1.h **** * RTC_1_JULY <br>
1167:Generated_Source\PSoC4/RTC_1.h **** * RTC_1_AUGUST <br>
1168:Generated_Source\PSoC4/RTC_1.h **** * RTC_1_SEPTEMBER <br>
1169:Generated_Source\PSoC4/RTC_1.h **** * RTC_1_OCTOBER <br>
1170:Generated_Source\PSoC4/RTC_1.h **** * RTC_1_NOVEMBER <br>
ARM GAS  C:\Users\ROUSSMA\AppData\Local\Temp\cc8VsTWP.s 			page 46


1171:Generated_Source\PSoC4/RTC_1.h **** * RTC_1_DECEMBER <br>
1172:Generated_Source\PSoC4/RTC_1.h **** *
1173:Generated_Source\PSoC4/RTC_1.h **** * \param
1174:Generated_Source\PSoC4/RTC_1.h **** *  year The year value.
1175:Generated_Source\PSoC4/RTC_1.h **** *
1176:Generated_Source\PSoC4/RTC_1.h **** * \return
1177:Generated_Source\PSoC4/RTC_1.h **** * Returns a day of the week
1178:Generated_Source\PSoC4/RTC_1.h **** * RTC_1_SUNDAY <br>
1179:Generated_Source\PSoC4/RTC_1.h **** * RTC_1_MONDAY <br>
1180:Generated_Source\PSoC4/RTC_1.h **** * RTC_1_TUESDAY <br>
1181:Generated_Source\PSoC4/RTC_1.h **** * RTC_1_WEDNESDAY <br>
1182:Generated_Source\PSoC4/RTC_1.h **** * RTC_1_THURSDAY <br>
1183:Generated_Source\PSoC4/RTC_1.h **** * RTC_1_FRIDAY <br>
1184:Generated_Source\PSoC4/RTC_1.h **** * RTC_1_SATURDAY <br>
1185:Generated_Source\PSoC4/RTC_1.h **** *
1186:Generated_Source\PSoC4/RTC_1.h **** * \endinternal
1187:Generated_Source\PSoC4/RTC_1.h **** *******************************************************************************/
1188:Generated_Source\PSoC4/RTC_1.h **** static CY_INLINE uint32 RTC_1_GetDayOfWeek(uint32 day, uint32 month, uint32 year)
1189:Generated_Source\PSoC4/RTC_1.h **** {
 1396              		.loc 1 1189 0
 1397              		.cfi_startproc
 1398              		@ args = 0, pretend = 0, frame = 24
 1399              		@ frame_needed = 1, uses_anonymous_args = 0
 1400 0000 90B5     		push	{r4, r7, lr}
 1401              		.cfi_def_cfa_offset 12
 1402              		.cfi_offset 4, -12
 1403              		.cfi_offset 7, -8
 1404              		.cfi_offset 14, -4
 1405 0002 87B0     		sub	sp, sp, #28
 1406              		.cfi_def_cfa_offset 40
 1407 0004 00AF     		add	r7, sp, #0
 1408              		.cfi_def_cfa_register 7
 1409 0006 F860     		str	r0, [r7, #12]
 1410 0008 B960     		str	r1, [r7, #8]
 1411 000a 7A60     		str	r2, [r7, #4]
1190:Generated_Source\PSoC4/RTC_1.h ****     uint32 retVal;
1191:Generated_Source\PSoC4/RTC_1.h **** 
1192:Generated_Source\PSoC4/RTC_1.h ****     /* Converts month number from regular convention
1193:Generated_Source\PSoC4/RTC_1.h ****      * (1=January,..., 12=December) to convention required for this
1194:Generated_Source\PSoC4/RTC_1.h ****      * algorithm(January and February are counted as months 13 and 14 of
1195:Generated_Source\PSoC4/RTC_1.h ****      * previous year).
1196:Generated_Source\PSoC4/RTC_1.h ****     */
1197:Generated_Source\PSoC4/RTC_1.h ****     if(month < (uint32)RTC_1_MARCH)
 1412              		.loc 1 1197 0
 1413 000c BB68     		ldr	r3, [r7, #8]
 1414 000e 022B     		cmp	r3, #2
 1415 0010 05D8     		bhi	.L76
1198:Generated_Source\PSoC4/RTC_1.h ****     {
1199:Generated_Source\PSoC4/RTC_1.h ****         month = 12u + month;
 1416              		.loc 1 1199 0
 1417 0012 BB68     		ldr	r3, [r7, #8]
 1418 0014 0C33     		adds	r3, r3, #12
 1419 0016 BB60     		str	r3, [r7, #8]
1200:Generated_Source\PSoC4/RTC_1.h ****         year--;
 1420              		.loc 1 1200 0
 1421 0018 7B68     		ldr	r3, [r7, #4]
 1422 001a 013B     		subs	r3, r3, #1
ARM GAS  C:\Users\ROUSSMA\AppData\Local\Temp\cc8VsTWP.s 			page 47


 1423 001c 7B60     		str	r3, [r7, #4]
 1424              	.L76:
1201:Generated_Source\PSoC4/RTC_1.h ****     }
1202:Generated_Source\PSoC4/RTC_1.h **** 
1203:Generated_Source\PSoC4/RTC_1.h ****     /* Calculates Day of Week using Zeller's congruence algorithms.
1204:Generated_Source\PSoC4/RTC_1.h ****     */
1205:Generated_Source\PSoC4/RTC_1.h ****     retVal = (day + (((month + 1u) * 26u) / 10u) + year + (year / 4u) + (6u * (year / 100u)) + (yea
 1425              		.loc 1 1205 0
 1426 001e BB68     		ldr	r3, [r7, #8]
 1427 0020 0133     		adds	r3, r3, #1
 1428 0022 1A22     		movs	r2, #26
 1429 0024 5343     		muls	r3, r2
 1430 0026 0A21     		movs	r1, #10
 1431 0028 1800     		movs	r0, r3
 1432 002a FFF7FEFF 		bl	__aeabi_uidiv
 1433 002e 0300     		movs	r3, r0
 1434 0030 1A00     		movs	r2, r3
 1435 0032 FB68     		ldr	r3, [r7, #12]
 1436 0034 D218     		adds	r2, r2, r3
 1437 0036 7B68     		ldr	r3, [r7, #4]
 1438 0038 D218     		adds	r2, r2, r3
 1439 003a 7B68     		ldr	r3, [r7, #4]
 1440 003c 9B08     		lsrs	r3, r3, #2
 1441 003e D418     		adds	r4, r2, r3
 1442 0040 7B68     		ldr	r3, [r7, #4]
 1443 0042 6421     		movs	r1, #100
 1444 0044 1800     		movs	r0, r3
 1445 0046 FFF7FEFF 		bl	__aeabi_uidiv
 1446 004a 0300     		movs	r3, r0
 1447 004c 1A00     		movs	r2, r3
 1448 004e 1300     		movs	r3, r2
 1449 0050 5B00     		lsls	r3, r3, #1
 1450 0052 9B18     		adds	r3, r3, r2
 1451 0054 5B00     		lsls	r3, r3, #1
 1452 0056 E418     		adds	r4, r4, r3
 1453 0058 7A68     		ldr	r2, [r7, #4]
 1454 005a C823     		movs	r3, #200
 1455 005c 5900     		lsls	r1, r3, #1
 1456 005e 1000     		movs	r0, r2
 1457 0060 FFF7FEFF 		bl	__aeabi_uidiv
 1458 0064 0300     		movs	r3, r0
 1459 0066 E318     		adds	r3, r4, r3
 1460 0068 0721     		movs	r1, #7
 1461 006a 1800     		movs	r0, r3
 1462 006c FFF7FEFF 		bl	__aeabi_uidivmod
 1463 0070 0B00     		movs	r3, r1
 1464 0072 7B61     		str	r3, [r7, #20]
1206:Generated_Source\PSoC4/RTC_1.h **** 
1207:Generated_Source\PSoC4/RTC_1.h ****     /* Makes correction for Saturday. Saturday number should be 7 instead of 0. */
1208:Generated_Source\PSoC4/RTC_1.h ****     if(0u == retVal)
 1465              		.loc 1 1208 0
 1466 0074 7B69     		ldr	r3, [r7, #20]
 1467 0076 002B     		cmp	r3, #0
 1468 0078 01D1     		bne	.L77
1209:Generated_Source\PSoC4/RTC_1.h ****     {
1210:Generated_Source\PSoC4/RTC_1.h ****         retVal = (uint32)RTC_1_SATURDAY;
 1469              		.loc 1 1210 0
ARM GAS  C:\Users\ROUSSMA\AppData\Local\Temp\cc8VsTWP.s 			page 48


 1470 007a 0723     		movs	r3, #7
 1471 007c 7B61     		str	r3, [r7, #20]
 1472              	.L77:
1211:Generated_Source\PSoC4/RTC_1.h ****     }
1212:Generated_Source\PSoC4/RTC_1.h **** 
1213:Generated_Source\PSoC4/RTC_1.h ****     return(retVal);
 1473              		.loc 1 1213 0
 1474 007e 7B69     		ldr	r3, [r7, #20]
1214:Generated_Source\PSoC4/RTC_1.h **** }
 1475              		.loc 1 1214 0
 1476 0080 1800     		movs	r0, r3
 1477 0082 BD46     		mov	sp, r7
 1478 0084 07B0     		add	sp, sp, #28
 1479              		@ sp needed
 1480 0086 90BD     		pop	{r4, r7, pc}
 1481              		.cfi_endproc
 1482              	.LFE27:
 1483              		.size	RTC_1_GetDayOfWeek, .-RTC_1_GetDayOfWeek
 1484              		.section	.text.RTC_1_CySysRtcSetCallback,"ax",%progbits
 1485              		.align	2
 1486              		.code	16
 1487              		.thumb_func
 1488              		.type	RTC_1_CySysRtcSetCallback, %function
 1489              	RTC_1_CySysRtcSetCallback:
 1490              	.LFB28:
1215:Generated_Source\PSoC4/RTC_1.h **** 
1216:Generated_Source\PSoC4/RTC_1.h **** 
1217:Generated_Source\PSoC4/RTC_1.h **** #if defined(CYDEV_RTC_SOURCE_WDT)
1218:Generated_Source\PSoC4/RTC_1.h ****     #if((0u != CYDEV_WDT_GENERATE_ISR) && (0u == RTC_1_INITIAL_UPDATE_MODE))
1219:Generated_Source\PSoC4/RTC_1.h **** 
1220:Generated_Source\PSoC4/RTC_1.h ****         /*******************************************************************************
1221:Generated_Source\PSoC4/RTC_1.h ****         * Function Name: RTC_1_CySysRtcSetCallback
1222:Generated_Source\PSoC4/RTC_1.h ****         ****************************************************************************//**
1223:Generated_Source\PSoC4/RTC_1.h ****         * \internal
1224:Generated_Source\PSoC4/RTC_1.h ****         * \brief
1225:Generated_Source\PSoC4/RTC_1.h ****         *  This is an internal function that registers a callback for the
1226:Generated_Source\PSoC4/RTC_1.h ****         *  RTC_1_Update() function by address "0".
1227:Generated_Source\PSoC4/RTC_1.h ****         *
1228:Generated_Source\PSoC4/RTC_1.h ****         * \param
1229:Generated_Source\PSoC4/RTC_1.h ****         *  wdtNumber The number of the WDT or WCO timer to be used to pull the
1230:Generated_Source\PSoC4/RTC_1.h ****         *  RTC_1_Update() function.
1231:Generated_Source\PSoC4/RTC_1.h ****         *
1232:Generated_Source\PSoC4/RTC_1.h ****         *  The callback registered before by address "0" is replaced
1233:Generated_Source\PSoC4/RTC_1.h ****         *  by the RTC_1_Update() function.
1234:Generated_Source\PSoC4/RTC_1.h ****         * \endinternal
1235:Generated_Source\PSoC4/RTC_1.h ****         *******************************************************************************/
1236:Generated_Source\PSoC4/RTC_1.h ****         static CY_INLINE void RTC_1_CySysRtcSetCallback(uint32 wdtNumber)
1237:Generated_Source\PSoC4/RTC_1.h ****         {
 1491              		.loc 1 1237 0
 1492              		.cfi_startproc
 1493              		@ args = 0, pretend = 0, frame = 8
 1494              		@ frame_needed = 1, uses_anonymous_args = 0
 1495 0000 80B5     		push	{r7, lr}
 1496              		.cfi_def_cfa_offset 8
 1497              		.cfi_offset 7, -8
 1498              		.cfi_offset 14, -4
 1499 0002 82B0     		sub	sp, sp, #8
ARM GAS  C:\Users\ROUSSMA\AppData\Local\Temp\cc8VsTWP.s 			page 49


 1500              		.cfi_def_cfa_offset 16
 1501 0004 00AF     		add	r7, sp, #0
 1502              		.cfi_def_cfa_register 7
 1503 0006 7860     		str	r0, [r7, #4]
1238:Generated_Source\PSoC4/RTC_1.h ****             #if((0u != CY_IP_WCO_WDT_EN) && (0u != CY_IP_SRSSLT))
1239:Generated_Source\PSoC4/RTC_1.h ****                 (void)CySysTimerSetInterruptCallback(wdtNumber, RTC_1_Update);
1240:Generated_Source\PSoC4/RTC_1.h ****             #else
1241:Generated_Source\PSoC4/RTC_1.h ****                 (void)CySysWdtSetIsrCallback(wdtNumber, RTC_1_Update);
 1504              		.loc 1 1241 0
 1505 0008 044A     		ldr	r2, .L80
 1506 000a 7B68     		ldr	r3, [r7, #4]
 1507 000c 1100     		movs	r1, r2
 1508 000e 1800     		movs	r0, r3
 1509 0010 FFF7FEFF 		bl	CySysWdtSetInterruptCallback
1242:Generated_Source\PSoC4/RTC_1.h ****             #endif /* ((0u != CY_IP_WCO_WDT_EN) && (0u != CY_IP_SRSSLT)) */
1243:Generated_Source\PSoC4/RTC_1.h ****         }
 1510              		.loc 1 1243 0
 1511 0014 C046     		nop
 1512 0016 BD46     		mov	sp, r7
 1513 0018 02B0     		add	sp, sp, #8
 1514              		@ sp needed
 1515 001a 80BD     		pop	{r7, pc}
 1516              	.L81:
 1517              		.align	2
 1518              	.L80:
 1519 001c 00000000 		.word	RTC_1_Update
 1520              		.cfi_endproc
 1521              	.LFE28:
 1522              		.size	RTC_1_CySysRtcSetCallback, .-RTC_1_CySysRtcSetCallback
 1523              		.section	.text.RTC_1_CySysRtcResetCallback,"ax",%progbits
 1524              		.align	2
 1525              		.code	16
 1526              		.thumb_func
 1527              		.type	RTC_1_CySysRtcResetCallback, %function
 1528              	RTC_1_CySysRtcResetCallback:
 1529              	.LFB29:
1244:Generated_Source\PSoC4/RTC_1.h **** 
1245:Generated_Source\PSoC4/RTC_1.h **** 
1246:Generated_Source\PSoC4/RTC_1.h ****         /*******************************************************************************
1247:Generated_Source\PSoC4/RTC_1.h ****         * Function Name: RTC_1_CySysRtcResetCallback
1248:Generated_Source\PSoC4/RTC_1.h ****         ****************************************************************************//**
1249:Generated_Source\PSoC4/RTC_1.h ****         * \internal
1250:Generated_Source\PSoC4/RTC_1.h ****         * \brief
1251:Generated_Source\PSoC4/RTC_1.h ****         *  This is an internal function that clears a callback by address "0".
1252:Generated_Source\PSoC4/RTC_1.h ****         *
1253:Generated_Source\PSoC4/RTC_1.h ****         * \param
1254:Generated_Source\PSoC4/RTC_1.h ****         *  wdtNumber The number of the WDT or WCO timer to be cleared callback for.
1255:Generated_Source\PSoC4/RTC_1.h ****         *
1256:Generated_Source\PSoC4/RTC_1.h ****         *  The callback registered before by address "0" is replaced
1257:Generated_Source\PSoC4/RTC_1.h ****         *  by the NULL pointer.
1258:Generated_Source\PSoC4/RTC_1.h ****         * \endinternal
1259:Generated_Source\PSoC4/RTC_1.h ****         *******************************************************************************/
1260:Generated_Source\PSoC4/RTC_1.h ****         static CY_INLINE void RTC_1_CySysRtcResetCallback(uint32 wdtNumber)
1261:Generated_Source\PSoC4/RTC_1.h ****         {
 1530              		.loc 1 1261 0
 1531              		.cfi_startproc
 1532              		@ args = 0, pretend = 0, frame = 8
ARM GAS  C:\Users\ROUSSMA\AppData\Local\Temp\cc8VsTWP.s 			page 50


 1533              		@ frame_needed = 1, uses_anonymous_args = 0
 1534 0000 80B5     		push	{r7, lr}
 1535              		.cfi_def_cfa_offset 8
 1536              		.cfi_offset 7, -8
 1537              		.cfi_offset 14, -4
 1538 0002 82B0     		sub	sp, sp, #8
 1539              		.cfi_def_cfa_offset 16
 1540 0004 00AF     		add	r7, sp, #0
 1541              		.cfi_def_cfa_register 7
 1542 0006 7860     		str	r0, [r7, #4]
1262:Generated_Source\PSoC4/RTC_1.h ****             #if((0u != CY_IP_WCO_WDT_EN) && (0u != CY_IP_SRSSLT))
1263:Generated_Source\PSoC4/RTC_1.h ****                 (void)CySysTimerSetInterruptCallback(wdtNumber, (void *)0);
1264:Generated_Source\PSoC4/RTC_1.h ****             #else
1265:Generated_Source\PSoC4/RTC_1.h ****                 (void)CySysWdtSetIsrCallback(wdtNumber, (void *)0);
 1543              		.loc 1 1265 0
 1544 0008 7B68     		ldr	r3, [r7, #4]
 1545 000a 0021     		movs	r1, #0
 1546 000c 1800     		movs	r0, r3
 1547 000e FFF7FEFF 		bl	CySysWdtSetInterruptCallback
1266:Generated_Source\PSoC4/RTC_1.h ****             #endif /* ((0u != CY_IP_WCO_WDT_EN) && (0u != CY_IP_SRSSLT)) */
1267:Generated_Source\PSoC4/RTC_1.h ****         }
 1548              		.loc 1 1267 0
 1549 0012 C046     		nop
 1550 0014 BD46     		mov	sp, r7
 1551 0016 02B0     		add	sp, sp, #8
 1552              		@ sp needed
 1553 0018 80BD     		pop	{r7, pc}
 1554              		.cfi_endproc
 1555              	.LFE29:
 1556              		.size	RTC_1_CySysRtcResetCallback, .-RTC_1_CySysRtcResetCallback
 1557              		.comm	RTC_1_initVar,1,1
 1558              		.comm	RTC_1_unixTime,8,8
 1559              		.comm	RTC_1_currentTimeDate,16,4
 1560 001a C046     		.bss
 1561              		.align	2
 1562              	RTC_1_updateTimePeriod:
 1563 0000 00000000 		.space	4
 1564              		.align	2
 1565              	RTC_1_tickRefOneSec:
 1566 0004 00000000 		.space	4
 1567              		.comm	RTC_1_dstStatus,1,1
 1568              		.align	2
 1569              	RTC_1_dstTimeOffset:
 1570 0008 00000000 		.space	4
 1571              		.comm	RTC_1_alarmCurStatus,4,4
 1572              		.global	RTC_1_alarmCfgMask
 1573              		.data
 1574              		.align	2
 1575              		.type	RTC_1_alarmCfgMask, %object
 1576              		.size	RTC_1_alarmCfgMask, 4
 1577              	RTC_1_alarmCfgMask:
 1578 0000 FF000000 		.word	255
 1579              		.bss
 1580 000c 00000000 		.align	3
 1581              	RTC_1_unixTimeAlarm:
 1582 0010 00000000 		.space	8
 1582      00000000 
ARM GAS  C:\Users\ROUSSMA\AppData\Local\Temp\cc8VsTWP.s 			page 51


 1583              		.comm	RTC_1_alarmCfgTimeDate,16,4
 1584              		.global	RTC_1_alarmCallbackPtr
 1585              		.align	2
 1586              		.type	RTC_1_alarmCallbackPtr, %object
 1587              		.size	RTC_1_alarmCallbackPtr, 4
 1588              	RTC_1_alarmCallbackPtr:
 1589 0018 00000000 		.space	4
 1590              		.global	RTC_1_daysBeforeMonthTbl
 1591              		.section	.rodata
 1592              		.align	2
 1593              		.type	RTC_1_daysBeforeMonthTbl, %object
 1594              		.size	RTC_1_daysBeforeMonthTbl, 24
 1595              	RTC_1_daysBeforeMonthTbl:
 1596 0000 0000     		.short	0
 1597 0002 1F00     		.short	31
 1598 0004 3B00     		.short	59
 1599 0006 5A00     		.short	90
 1600 0008 7800     		.short	120
 1601 000a 9700     		.short	151
 1602 000c B500     		.short	181
 1603 000e D400     		.short	212
 1604 0010 F300     		.short	243
 1605 0012 1101     		.short	273
 1606 0014 3001     		.short	304
 1607 0016 4E01     		.short	334
 1608              		.global	RTC_1_daysInMonthTbl
 1609              		.align	2
 1610              		.type	RTC_1_daysInMonthTbl, %object
 1611              		.size	RTC_1_daysInMonthTbl, 12
 1612              	RTC_1_daysInMonthTbl:
 1613 0018 1F       		.byte	31
 1614 0019 1C       		.byte	28
 1615 001a 1F       		.byte	31
 1616 001b 1E       		.byte	30
 1617 001c 1F       		.byte	31
 1618 001d 1E       		.byte	30
 1619 001e 1F       		.byte	31
 1620 001f 1F       		.byte	31
 1621 0020 1E       		.byte	30
 1622 0021 1F       		.byte	31
 1623 0022 1E       		.byte	30
 1624 0023 1F       		.byte	31
 1625              		.section	.text.RTC_1_Start,"ax",%progbits
 1626              		.align	2
 1627              		.global	RTC_1_Start
 1628              		.code	16
 1629              		.thumb_func
 1630              		.type	RTC_1_Start, %function
 1631              	RTC_1_Start:
 1632              	.LFB30:
 1633              		.file 2 "Generated_Source\\PSoC4\\RTC_1.c"
   1:Generated_Source\PSoC4/RTC_1.c **** /***************************************************************************//**
   2:Generated_Source\PSoC4/RTC_1.c **** * \file Name: RTC_1.c
   3:Generated_Source\PSoC4/RTC_1.c **** * \version 1.10
   4:Generated_Source\PSoC4/RTC_1.c **** *
   5:Generated_Source\PSoC4/RTC_1.c **** * \brief
   6:Generated_Source\PSoC4/RTC_1.c **** *  This file provides the source code to the API for the RTC_P4 Component.
ARM GAS  C:\Users\ROUSSMA\AppData\Local\Temp\cc8VsTWP.s 			page 52


   7:Generated_Source\PSoC4/RTC_1.c **** *
   8:Generated_Source\PSoC4/RTC_1.c **** ********************************************************************************
   9:Generated_Source\PSoC4/RTC_1.c **** * \copyright
  10:Generated_Source\PSoC4/RTC_1.c **** * Copyright 2015-2016, Cypress Semiconductor Corporation. All rights reserved.
  11:Generated_Source\PSoC4/RTC_1.c **** * You may use this file only in accordance with the license, terms, conditions,
  12:Generated_Source\PSoC4/RTC_1.c **** * disclaimers, and limitations in the end user license agreement accompanying
  13:Generated_Source\PSoC4/RTC_1.c **** * the software package with which this file was provided.
  14:Generated_Source\PSoC4/RTC_1.c **** *******************************************************************************/
  15:Generated_Source\PSoC4/RTC_1.c **** 
  16:Generated_Source\PSoC4/RTC_1.c **** #include "RTC_1.h"
  17:Generated_Source\PSoC4/RTC_1.c **** 
  18:Generated_Source\PSoC4/RTC_1.c **** uint8  RTC_1_initVar;
  19:Generated_Source\PSoC4/RTC_1.c **** 
  20:Generated_Source\PSoC4/RTC_1.c **** volatile uint64 RTC_1_unixTime;
  21:Generated_Source\PSoC4/RTC_1.c **** RTC_1_DATE_TIME RTC_1_currentTimeDate;
  22:Generated_Source\PSoC4/RTC_1.c **** 
  23:Generated_Source\PSoC4/RTC_1.c **** static uint32 RTC_1_updateTimePeriod;
  24:Generated_Source\PSoC4/RTC_1.c **** static uint32 RTC_1_tickRefOneSec;
  25:Generated_Source\PSoC4/RTC_1.c **** 
  26:Generated_Source\PSoC4/RTC_1.c **** uint8  RTC_1_dstStatus;
  27:Generated_Source\PSoC4/RTC_1.c **** static uint32 RTC_1_dstTimeOffset;
  28:Generated_Source\PSoC4/RTC_1.c **** #if(0u != RTC_1_INITIAL_DST_STATUS)
  29:Generated_Source\PSoC4/RTC_1.c ****     static volatile uint64 RTC_1_unixTimeDstStart;
  30:Generated_Source\PSoC4/RTC_1.c ****     static volatile uint64 RTC_1_unixTimeDstStop;
  31:Generated_Source\PSoC4/RTC_1.c ****     RTC_1_DST_TIME RTC_1_dstStartTime;
  32:Generated_Source\PSoC4/RTC_1.c ****     RTC_1_DST_TIME RTC_1_dstStopTime;
  33:Generated_Source\PSoC4/RTC_1.c **** #endif /* (0u != RTC_1_INITIAL_DST_STATUS) */
  34:Generated_Source\PSoC4/RTC_1.c **** 
  35:Generated_Source\PSoC4/RTC_1.c **** uint32 RTC_1_alarmCurStatus;
  36:Generated_Source\PSoC4/RTC_1.c **** #if(0u != RTC_1_INITIAL_ALARM_STATUS)
  37:Generated_Source\PSoC4/RTC_1.c ****     uint32  RTC_1_alarmCfgMask = 0xFFu;
  38:Generated_Source\PSoC4/RTC_1.c ****     static volatile uint64 RTC_1_unixTimeAlarm;
  39:Generated_Source\PSoC4/RTC_1.c ****     RTC_1_DATE_TIME RTC_1_alarmCfgTimeDate;
  40:Generated_Source\PSoC4/RTC_1.c ****     void (*RTC_1_alarmCallbackPtr)(void) = (void *)0;
  41:Generated_Source\PSoC4/RTC_1.c **** #endif /* (0u != RTC_1_INITIAL_ALARM_STATUS) */
  42:Generated_Source\PSoC4/RTC_1.c **** 
  43:Generated_Source\PSoC4/RTC_1.c **** const uint16 RTC_1_daysBeforeMonthTbl[RTC_1_MONTHS_PER_YEAR] = {
  44:Generated_Source\PSoC4/RTC_1.c ****                                                  (0u), /* JANUARY */
  45:Generated_Source\PSoC4/RTC_1.c ****                                                  (0u + 31u), /* FEBRUARY */
  46:Generated_Source\PSoC4/RTC_1.c ****                                                  (0u + 31u + 28u), /* MARCH */
  47:Generated_Source\PSoC4/RTC_1.c ****                                                  (0u + 31u + 28u + 31u), /* APRIL */
  48:Generated_Source\PSoC4/RTC_1.c ****                                                  (0u + 31u + 28u + 31u + 30u), /* MAY */
  49:Generated_Source\PSoC4/RTC_1.c ****                                                  (0u + 31u + 28u + 31u + 30u + 31u), /* JUNE */
  50:Generated_Source\PSoC4/RTC_1.c ****                                                  (0u + 31u + 28u + 31u + 30u + 31u + 30u), /* JULY 
  51:Generated_Source\PSoC4/RTC_1.c ****                                                  (0u + 31u + 28u + 31u + 30u + 31u + 30u + 31u), /*
  52:Generated_Source\PSoC4/RTC_1.c ****                                                  (0u + 31u + 28u + 31u + 30u + 31u + 30u + 31u + 31
  53:Generated_Source\PSoC4/RTC_1.c ****                                                  (0u + 31u + 28u + 31u + 30u + 31u + 30u + 31u + 31
  54:Generated_Source\PSoC4/RTC_1.c ****                                                  (0u + 31u + 28u + 31u + 30u + 31u + 30u + 31u + 31
  55:Generated_Source\PSoC4/RTC_1.c ****                                                  (0u + 31u + 28u + 31u + 30u + 31u + 30u + 31u + 31
  56:Generated_Source\PSoC4/RTC_1.c **** 
  57:Generated_Source\PSoC4/RTC_1.c **** const uint8 RTC_1_daysInMonthTbl[RTC_1_MONTHS_PER_YEAR] = {RTC_1_DAYS_IN_JANUARY,
  58:Generated_Source\PSoC4/RTC_1.c ****                                                                                  RTC_1_DAYS_IN_FEBR
  59:Generated_Source\PSoC4/RTC_1.c ****                                                                                  RTC_1_DAYS_IN_MARC
  60:Generated_Source\PSoC4/RTC_1.c ****                                                                                  RTC_1_DAYS_IN_APRI
  61:Generated_Source\PSoC4/RTC_1.c ****                                                                                  RTC_1_DAYS_IN_MAY,
  62:Generated_Source\PSoC4/RTC_1.c ****                                                                                  RTC_1_DAYS_IN_JUNE
  63:Generated_Source\PSoC4/RTC_1.c ****                                                                                  RTC_1_DAYS_IN_JULY
ARM GAS  C:\Users\ROUSSMA\AppData\Local\Temp\cc8VsTWP.s 			page 53


  64:Generated_Source\PSoC4/RTC_1.c ****                                                                                  RTC_1_DAYS_IN_AUGU
  65:Generated_Source\PSoC4/RTC_1.c ****                                                                                  RTC_1_DAYS_IN_SEPT
  66:Generated_Source\PSoC4/RTC_1.c ****                                                                                  RTC_1_DAYS_IN_OCTO
  67:Generated_Source\PSoC4/RTC_1.c ****                                                                                  RTC_1_DAYS_IN_NOVE
  68:Generated_Source\PSoC4/RTC_1.c ****                                                                                  RTC_1_DAYS_IN_DECE
  69:Generated_Source\PSoC4/RTC_1.c **** 
  70:Generated_Source\PSoC4/RTC_1.c **** 
  71:Generated_Source\PSoC4/RTC_1.c **** /*******************************************************************************
  72:Generated_Source\PSoC4/RTC_1.c **** * Function Name: RTC_1_Start
  73:Generated_Source\PSoC4/RTC_1.c **** ****************************************************************************//**
  74:Generated_Source\PSoC4/RTC_1.c **** *
  75:Generated_Source\PSoC4/RTC_1.c **** * \brief
  76:Generated_Source\PSoC4/RTC_1.c **** *  Performs all the required calculations for the time and date registers and
  77:Generated_Source\PSoC4/RTC_1.c **** *  initializes the component along with the date and time selected in the
  78:Generated_Source\PSoC4/RTC_1.c **** *  customizer. 
  79:Generated_Source\PSoC4/RTC_1.c **** *
  80:Generated_Source\PSoC4/RTC_1.c **** *  If "Implement RTC update manually" is disabled in the customizer
  81:Generated_Source\PSoC4/RTC_1.c **** *  and if WDT or WCO timer is selected as a source in the clocks configuration 
  82:Generated_Source\PSoC4/RTC_1.c **** *  window (low frequency clocks tab), attaches RTC_Update API to a corresponding
  83:Generated_Source\PSoC4/RTC_1.c **** *  WDT's or WCO's ISR callback.
  84:Generated_Source\PSoC4/RTC_1.c **** *
  85:Generated_Source\PSoC4/RTC_1.c **** * \note "Implement RTC update manually" checkbox is available for PSoC 4200L / 
  86:Generated_Source\PSoC4/RTC_1.c **** * PSoC 4100M / PSoC 4200M / PSoC 4100 BLE / PSoC 4200 BLE / PSoC 4000S / PSoC 
  87:Generated_Source\PSoC4/RTC_1.c **** * 4100S and Analog Coprocessor.
  88:Generated_Source\PSoC4/RTC_1.c **** *
  89:Generated_Source\PSoC4/RTC_1.c **** *******************************************************************************/
  90:Generated_Source\PSoC4/RTC_1.c **** void RTC_1_Start(void)
  91:Generated_Source\PSoC4/RTC_1.c **** {
 1634              		.loc 2 91 0
 1635              		.cfi_startproc
 1636              		@ args = 0, pretend = 0, frame = 0
 1637              		@ frame_needed = 1, uses_anonymous_args = 0
 1638 0000 80B5     		push	{r7, lr}
 1639              		.cfi_def_cfa_offset 8
 1640              		.cfi_offset 7, -8
 1641              		.cfi_offset 14, -4
 1642 0002 00AF     		add	r7, sp, #0
 1643              		.cfi_def_cfa_register 7
  92:Generated_Source\PSoC4/RTC_1.c ****     if(0u == RTC_1_initVar)
 1644              		.loc 2 92 0
 1645 0004 054B     		ldr	r3, .L85
 1646 0006 1B78     		ldrb	r3, [r3]
 1647 0008 002B     		cmp	r3, #0
 1648 000a 01D1     		bne	.L84
  93:Generated_Source\PSoC4/RTC_1.c ****     {
  94:Generated_Source\PSoC4/RTC_1.c ****         RTC_1_Init();
 1649              		.loc 2 94 0
 1650 000c FFF7FEFF 		bl	RTC_1_Init
 1651              	.L84:
  95:Generated_Source\PSoC4/RTC_1.c ****     }
  96:Generated_Source\PSoC4/RTC_1.c **** 
  97:Generated_Source\PSoC4/RTC_1.c ****     #if defined(CYDEV_RTC_SOURCE_WDT)
  98:Generated_Source\PSoC4/RTC_1.c ****         #if((0u != CYDEV_WDT_GENERATE_ISR) && (0u == RTC_1_INITIAL_UPDATE_MODE))
  99:Generated_Source\PSoC4/RTC_1.c ****             RTC_1_CySysRtcSetCallback(CYDEV_RTC_SOURCE_WDT);
 1652              		.loc 2 99 0
 1653 0010 0220     		movs	r0, #2
 1654 0012 FFF7FEFF 		bl	RTC_1_CySysRtcSetCallback
ARM GAS  C:\Users\ROUSSMA\AppData\Local\Temp\cc8VsTWP.s 			page 54


 100:Generated_Source\PSoC4/RTC_1.c ****         #endif /* ((0u != CYDEV_WDT_GENERATE_ISR) && (0u == RTC_1_INITIAL_UPDATE_MODE)) */
 101:Generated_Source\PSoC4/RTC_1.c ****     #endif /* (CYDEV_RTC_SOURCE_WDT) */
 102:Generated_Source\PSoC4/RTC_1.c **** }
 1655              		.loc 2 102 0
 1656 0016 C046     		nop
 1657 0018 BD46     		mov	sp, r7
 1658              		@ sp needed
 1659 001a 80BD     		pop	{r7, pc}
 1660              	.L86:
 1661              		.align	2
 1662              	.L85:
 1663 001c 00000000 		.word	RTC_1_initVar
 1664              		.cfi_endproc
 1665              	.LFE30:
 1666              		.size	RTC_1_Start, .-RTC_1_Start
 1667              		.section	.text.RTC_1_Stop,"ax",%progbits
 1668              		.align	2
 1669              		.global	RTC_1_Stop
 1670              		.code	16
 1671              		.thumb_func
 1672              		.type	RTC_1_Stop, %function
 1673              	RTC_1_Stop:
 1674              	.LFB31:
 103:Generated_Source\PSoC4/RTC_1.c **** 
 104:Generated_Source\PSoC4/RTC_1.c **** 
 105:Generated_Source\PSoC4/RTC_1.c **** /*******************************************************************************
 106:Generated_Source\PSoC4/RTC_1.c **** * Function Name: RTC_1_Stop
 107:Generated_Source\PSoC4/RTC_1.c **** ****************************************************************************//**
 108:Generated_Source\PSoC4/RTC_1.c **** *
 109:Generated_Source\PSoC4/RTC_1.c **** * \brief
 110:Generated_Source\PSoC4/RTC_1.c **** *  Stops the time and date updates.
 111:Generated_Source\PSoC4/RTC_1.c **** *
 112:Generated_Source\PSoC4/RTC_1.c **** *******************************************************************************/
 113:Generated_Source\PSoC4/RTC_1.c **** void RTC_1_Stop(void)
 114:Generated_Source\PSoC4/RTC_1.c **** {
 1675              		.loc 2 114 0
 1676              		.cfi_startproc
 1677              		@ args = 0, pretend = 0, frame = 0
 1678              		@ frame_needed = 1, uses_anonymous_args = 0
 1679 0000 80B5     		push	{r7, lr}
 1680              		.cfi_def_cfa_offset 8
 1681              		.cfi_offset 7, -8
 1682              		.cfi_offset 14, -4
 1683 0002 00AF     		add	r7, sp, #0
 1684              		.cfi_def_cfa_register 7
 115:Generated_Source\PSoC4/RTC_1.c ****     #if defined(CYDEV_RTC_SOURCE_WDT)
 116:Generated_Source\PSoC4/RTC_1.c ****         #if((0u != CYDEV_WDT_GENERATE_ISR) && (0u == RTC_1_INITIAL_UPDATE_MODE))
 117:Generated_Source\PSoC4/RTC_1.c ****             RTC_1_CySysRtcResetCallback(CYDEV_RTC_SOURCE_WDT);
 1685              		.loc 2 117 0
 1686 0004 0220     		movs	r0, #2
 1687 0006 FFF7FEFF 		bl	RTC_1_CySysRtcResetCallback
 118:Generated_Source\PSoC4/RTC_1.c ****         #endif /* ((0u != CYDEV_WDT_GENERATE_ISR) && (0u == RTC_1_INITIAL_UPDATE_MODE)) */
 119:Generated_Source\PSoC4/RTC_1.c ****     #endif /* (CYDEV_RTC_SOURCE_WDT) */
 120:Generated_Source\PSoC4/RTC_1.c **** }
 1688              		.loc 2 120 0
 1689 000a C046     		nop
 1690 000c BD46     		mov	sp, r7
ARM GAS  C:\Users\ROUSSMA\AppData\Local\Temp\cc8VsTWP.s 			page 55


 1691              		@ sp needed
 1692 000e 80BD     		pop	{r7, pc}
 1693              		.cfi_endproc
 1694              	.LFE31:
 1695              		.size	RTC_1_Stop, .-RTC_1_Stop
 1696              		.section	.text.RTC_1_Init,"ax",%progbits
 1697              		.align	2
 1698              		.global	RTC_1_Init
 1699              		.code	16
 1700              		.thumb_func
 1701              		.type	RTC_1_Init, %function
 1702              	RTC_1_Init:
 1703              	.LFB32:
 121:Generated_Source\PSoC4/RTC_1.c **** 
 122:Generated_Source\PSoC4/RTC_1.c **** 
 123:Generated_Source\PSoC4/RTC_1.c **** /*******************************************************************************
 124:Generated_Source\PSoC4/RTC_1.c **** * Function Name: RTC_1_Init
 125:Generated_Source\PSoC4/RTC_1.c **** ****************************************************************************//**
 126:Generated_Source\PSoC4/RTC_1.c **** *
 127:Generated_Source\PSoC4/RTC_1.c **** * \brief
 128:Generated_Source\PSoC4/RTC_1.c **** *  Initializes or restores the component according to the customizer Configure
 129:Generated_Source\PSoC4/RTC_1.c **** *  dialog settings. 
 130:Generated_Source\PSoC4/RTC_1.c **** *
 131:Generated_Source\PSoC4/RTC_1.c **** * It is not necessary to call RTC_Init() because
 132:Generated_Source\PSoC4/RTC_1.c **** *  RTC_Start() API calls this function and is the preferred method to begin
 133:Generated_Source\PSoC4/RTC_1.c **** *  component operation.
 134:Generated_Source\PSoC4/RTC_1.c **** *
 135:Generated_Source\PSoC4/RTC_1.c **** *  All registers are set to values according to the customizer Configure
 136:Generated_Source\PSoC4/RTC_1.c **** *  dialog. The default date value, if not set by the user before this function 
 137:Generated_Source\PSoC4/RTC_1.c **** *  call, is 12:00:00 AM January 1, 2000.
 138:Generated_Source\PSoC4/RTC_1.c **** *
 139:Generated_Source\PSoC4/RTC_1.c **** *******************************************************************************/
 140:Generated_Source\PSoC4/RTC_1.c **** void RTC_1_Init(void)
 141:Generated_Source\PSoC4/RTC_1.c **** {
 1704              		.loc 2 141 0
 1705              		.cfi_startproc
 1706              		@ args = 0, pretend = 0, frame = 8
 1707              		@ frame_needed = 1, uses_anonymous_args = 0
 1708 0000 80B5     		push	{r7, lr}
 1709              		.cfi_def_cfa_offset 8
 1710              		.cfi_offset 7, -8
 1711              		.cfi_offset 14, -4
 1712 0002 84B0     		sub	sp, sp, #16
 1713              		.cfi_def_cfa_offset 24
 1714 0004 02AF     		add	r7, sp, #8
 1715              		.cfi_def_cfa 7, 16
 142:Generated_Source\PSoC4/RTC_1.c ****     uint32 tmpDate;
 143:Generated_Source\PSoC4/RTC_1.c ****     uint32 tmpTime;
 144:Generated_Source\PSoC4/RTC_1.c **** 
 145:Generated_Source\PSoC4/RTC_1.c ****     #if(0u != RTC_1_INITIAL_DST_STATUS)
 146:Generated_Source\PSoC4/RTC_1.c ****         RTC_1_DST_TIME dstTimeTmp;
 147:Generated_Source\PSoC4/RTC_1.c ****     #endif /* (0u != RTC_1_INITIAL_DST_STATUS) */
 148:Generated_Source\PSoC4/RTC_1.c **** 
 149:Generated_Source\PSoC4/RTC_1.c ****     RTC_1_initVar = 1u;
 1716              		.loc 2 149 0
 1717 0006 154B     		ldr	r3, .L89
 1718 0008 0122     		movs	r2, #1
ARM GAS  C:\Users\ROUSSMA\AppData\Local\Temp\cc8VsTWP.s 			page 56


 1719 000a 1A70     		strb	r2, [r3]
 150:Generated_Source\PSoC4/RTC_1.c ****     RTC_1_dstTimeOffset = 0uL;
 1720              		.loc 2 150 0
 1721 000c 144B     		ldr	r3, .L89+4
 1722 000e 0022     		movs	r2, #0
 1723 0010 1A60     		str	r2, [r3]
 151:Generated_Source\PSoC4/RTC_1.c ****     RTC_1_currentTimeDate.status = 0uL;
 1724              		.loc 2 151 0
 1725 0012 144B     		ldr	r3, .L89+8
 1726 0014 0022     		movs	r2, #0
 1727 0016 DA60     		str	r2, [r3, #12]
 152:Generated_Source\PSoC4/RTC_1.c **** 
 153:Generated_Source\PSoC4/RTC_1.c ****     RTC_1_dstStatus      = RTC_1_INITIAL_DST_STATUS;
 1728              		.loc 2 153 0
 1729 0018 134B     		ldr	r3, .L89+12
 1730 001a 0022     		movs	r2, #0
 1731 001c 1A70     		strb	r2, [r3]
 154:Generated_Source\PSoC4/RTC_1.c ****     RTC_1_alarmCurStatus = RTC_1_INITIAL_ALARM_STATUS;
 1732              		.loc 2 154 0
 1733 001e 134B     		ldr	r3, .L89+16
 1734 0020 0122     		movs	r2, #1
 1735 0022 1A60     		str	r2, [r3]
 155:Generated_Source\PSoC4/RTC_1.c **** 
 156:Generated_Source\PSoC4/RTC_1.c ****     tmpDate = RTC_1_ConstructDate(RTC_1_INITIAL_MONTH,
 1736              		.loc 2 156 0
 1737 0024 124B     		ldr	r3, .L89+20
 1738 0026 1A00     		movs	r2, r3
 1739 0028 1721     		movs	r1, #23
 1740 002a 0C20     		movs	r0, #12
 1741 002c FFF7FEFF 		bl	RTC_1_ConstructDate
 1742 0030 0300     		movs	r3, r0
 1743 0032 7B60     		str	r3, [r7, #4]
 157:Generated_Source\PSoC4/RTC_1.c ****                                           RTC_1_INITIAL_DAY,
 158:Generated_Source\PSoC4/RTC_1.c ****                                           RTC_1_INITIAL_YEAR);
 159:Generated_Source\PSoC4/RTC_1.c **** 
 160:Generated_Source\PSoC4/RTC_1.c ****     tmpTime = RTC_1_ConstructTime(RTC_1_INITIAL_TIME_FORMAT,
 1744              		.loc 2 160 0
 1745 0034 0023     		movs	r3, #0
 1746 0036 0093     		str	r3, [sp]
 1747 0038 3023     		movs	r3, #48
 1748 003a 1722     		movs	r2, #23
 1749 003c 0021     		movs	r1, #0
 1750 003e 0120     		movs	r0, #1
 1751 0040 FFF7FEFF 		bl	RTC_1_ConstructTime
 1752 0044 0300     		movs	r3, r0
 1753 0046 3B60     		str	r3, [r7]
 161:Generated_Source\PSoC4/RTC_1.c ****                                           0u,
 162:Generated_Source\PSoC4/RTC_1.c ****                                           RTC_1_INITIAL_HOUR,
 163:Generated_Source\PSoC4/RTC_1.c ****                                           RTC_1_INITIAL_MINUTE,
 164:Generated_Source\PSoC4/RTC_1.c ****                                           RTC_1_INITIAL_SECOND);
 165:Generated_Source\PSoC4/RTC_1.c **** 
 166:Generated_Source\PSoC4/RTC_1.c ****     #if(0u != RTC_1_INITIAL_DST_STATUS)
 167:Generated_Source\PSoC4/RTC_1.c ****         RTC_1_dstStatus = 0u;
 168:Generated_Source\PSoC4/RTC_1.c ****         RTC_1_currentTimeDate.status = (1uL << RTC_1_STATUS_DST_OFFSET);
 169:Generated_Source\PSoC4/RTC_1.c **** 
 170:Generated_Source\PSoC4/RTC_1.c ****         dstTimeTmp.timeFormat    = RTC_1_INITIAL_DST_DATE_TYPE;
 171:Generated_Source\PSoC4/RTC_1.c ****         dstTimeTmp.hour          = RTC_1_INITIAL_DST_START_HRS;
ARM GAS  C:\Users\ROUSSMA\AppData\Local\Temp\cc8VsTWP.s 			page 57


 172:Generated_Source\PSoC4/RTC_1.c ****         dstTimeTmp.dayOfWeek     = RTC_1_INITIAL_DST_START_DOW;
 173:Generated_Source\PSoC4/RTC_1.c ****         dstTimeTmp.weekOfMonth   = RTC_1_INITIAL_DST_START_WOM;
 174:Generated_Source\PSoC4/RTC_1.c ****         dstTimeTmp.dayOfMonth    = RTC_1_INITIAL_DST_START_DOM;
 175:Generated_Source\PSoC4/RTC_1.c ****         dstTimeTmp.month         = RTC_1_INITIAL_DST_START_MONTH;
 176:Generated_Source\PSoC4/RTC_1.c ****         RTC_1_SetDSTStartTime(&dstTimeTmp, (RTC_1_DST_DATETYPE_ENUM)RTC_1_INITIAL_DST_DATE_TYPE);
 177:Generated_Source\PSoC4/RTC_1.c **** 
 178:Generated_Source\PSoC4/RTC_1.c ****         dstTimeTmp.timeFormat    = RTC_1_INITIAL_DST_DATE_TYPE;
 179:Generated_Source\PSoC4/RTC_1.c ****         dstTimeTmp.hour          = RTC_1_INITIAL_DST_STOP_HRS;
 180:Generated_Source\PSoC4/RTC_1.c ****         dstTimeTmp.dayOfWeek     = RTC_1_INITIAL_DST_STOP_DOW;
 181:Generated_Source\PSoC4/RTC_1.c ****         dstTimeTmp.weekOfMonth   = RTC_1_INITIAL_DST_STOP_WOM;
 182:Generated_Source\PSoC4/RTC_1.c ****         dstTimeTmp.dayOfMonth    = RTC_1_INITIAL_DST_STOP_DOM;
 183:Generated_Source\PSoC4/RTC_1.c ****         dstTimeTmp.month         = RTC_1_INITIAL_DST_STOP_MONTH;
 184:Generated_Source\PSoC4/RTC_1.c ****         RTC_1_SetDSTStopTime(&dstTimeTmp, (RTC_1_DST_DATETYPE_ENUM)RTC_1_INITIAL_DST_DATE_TYPE);
 185:Generated_Source\PSoC4/RTC_1.c **** 
 186:Generated_Source\PSoC4/RTC_1.c ****         RTC_1_unixTimeDstStart = RTC_1_GetDstUnixTime(&RTC_1_dstStartTime);
 187:Generated_Source\PSoC4/RTC_1.c ****         RTC_1_unixTimeDstStop  = RTC_1_GetDstUnixTime(&RTC_1_dstStopTime);
 188:Generated_Source\PSoC4/RTC_1.c **** 
 189:Generated_Source\PSoC4/RTC_1.c ****         if((RTC_1_unixTime >= RTC_1_unixTimeDstStart) &&
 190:Generated_Source\PSoC4/RTC_1.c ****            (RTC_1_unixTime <= RTC_1_unixTimeDstStop))
 191:Generated_Source\PSoC4/RTC_1.c ****         {
 192:Generated_Source\PSoC4/RTC_1.c ****             RTC_1_dstStatus = 1u;
 193:Generated_Source\PSoC4/RTC_1.c ****             RTC_1_dstTimeOffset = RTC_1_SECONDS_PER_HOUR;
 194:Generated_Source\PSoC4/RTC_1.c ****         }
 195:Generated_Source\PSoC4/RTC_1.c ****     #endif /* (0u != RTC_1_INITIAL_DST_STATUS) */
 196:Generated_Source\PSoC4/RTC_1.c **** 
 197:Generated_Source\PSoC4/RTC_1.c ****     RTC_1_SetDateAndTime(tmpTime, tmpDate);
 1754              		.loc 2 197 0
 1755 0048 7A68     		ldr	r2, [r7, #4]
 1756 004a 3B68     		ldr	r3, [r7]
 1757 004c 1100     		movs	r1, r2
 1758 004e 1800     		movs	r0, r3
 1759 0050 FFF7FEFF 		bl	RTC_1_SetDateAndTime
 198:Generated_Source\PSoC4/RTC_1.c **** }
 1760              		.loc 2 198 0
 1761 0054 C046     		nop
 1762 0056 BD46     		mov	sp, r7
 1763 0058 02B0     		add	sp, sp, #8
 1764              		@ sp needed
 1765 005a 80BD     		pop	{r7, pc}
 1766              	.L90:
 1767              		.align	2
 1768              	.L89:
 1769 005c 00000000 		.word	RTC_1_initVar
 1770 0060 08000000 		.word	RTC_1_dstTimeOffset
 1771 0064 00000000 		.word	RTC_1_currentTimeDate
 1772 0068 00000000 		.word	RTC_1_dstStatus
 1773 006c 00000000 		.word	RTC_1_alarmCurStatus
 1774 0070 E1070000 		.word	2017
 1775              		.cfi_endproc
 1776              	.LFE32:
 1777              		.size	RTC_1_Init, .-RTC_1_Init
 1778              		.section	.text.RTC_1_SetDateAndTime,"ax",%progbits
 1779              		.align	2
 1780              		.global	RTC_1_SetDateAndTime
 1781              		.code	16
 1782              		.thumb_func
 1783              		.type	RTC_1_SetDateAndTime, %function
ARM GAS  C:\Users\ROUSSMA\AppData\Local\Temp\cc8VsTWP.s 			page 58


 1784              	RTC_1_SetDateAndTime:
 1785              	.LFB33:
 199:Generated_Source\PSoC4/RTC_1.c **** 
 200:Generated_Source\PSoC4/RTC_1.c **** 
 201:Generated_Source\PSoC4/RTC_1.c **** /*******************************************************************************
 202:Generated_Source\PSoC4/RTC_1.c **** * Function Name: RTC_1_SetDateAndTime
 203:Generated_Source\PSoC4/RTC_1.c **** ****************************************************************************//**
 204:Generated_Source\PSoC4/RTC_1.c **** *
 205:Generated_Source\PSoC4/RTC_1.c **** * \brief
 206:Generated_Source\PSoC4/RTC_1.c **** * Sets the time and date values as the current time and date.
 207:Generated_Source\PSoC4/RTC_1.c **** *
 208:Generated_Source\PSoC4/RTC_1.c **** * \param
 209:Generated_Source\PSoC4/RTC_1.c **** * inputTime The time value in the HH:MM:SS format. <br>
 210:Generated_Source\PSoC4/RTC_1.c **** * "HH"- The 2nd 8-bit MSB that denotes the hour value.
 211:Generated_Source\PSoC4/RTC_1.c **** * (0-23 for the 24-hour format and 1-12 for the 12-hour format. The MSB bit of the
 212:Generated_Source\PSoC4/RTC_1.c **** * value denotes AM/PM for the 12-hour format (0-AM and 1-PM). <br>
 213:Generated_Source\PSoC4/RTC_1.c **** * "MM" - The 3nd 8-bit MSB denotes the minutes value, the valid entries -> 0-59.<br>
 214:Generated_Source\PSoC4/RTC_1.c **** * "SS" - The 8-bit LSB denotes the seconds value, the valid entries -> 0-59.
 215:Generated_Source\PSoC4/RTC_1.c **** * Each byte is in the BCD format. Invalid time entries retain the
 216:Generated_Source\PSoC4/RTC_1.c **** * previously set values.
 217:Generated_Source\PSoC4/RTC_1.c **** *
 218:Generated_Source\PSoC4/RTC_1.c **** * \param
 219:Generated_Source\PSoC4/RTC_1.c **** *  inputDate The date value in the format selected in the customizer.
 220:Generated_Source\PSoC4/RTC_1.c **** * For the MM/DD/YYYY format: <br>
 221:Generated_Source\PSoC4/RTC_1.c **** * "MM" - The 8-bit MSB denotes the month value in BCD, the valid entries -> 1-12<br>
 222:Generated_Source\PSoC4/RTC_1.c **** * "DD" - The 2nd 8-bit MSB denotes a day of the month value in BCD, the valid
 223:Generated_Source\PSoC4/RTC_1.c **** * entries -> 1-31.<br>
 224:Generated_Source\PSoC4/RTC_1.c **** * "YYYY" - The 16-bit LSB denotes a year in BCD, the valid entries -> 1900-2200.
 225:Generated_Source\PSoC4/RTC_1.c **** * Each byte is in the BCD format. Invalid date entries retain the
 226:Generated_Source\PSoC4/RTC_1.c **** * previously set values.
 227:Generated_Source\PSoC4/RTC_1.c **** *
 228:Generated_Source\PSoC4/RTC_1.c **** *******************************************************************************/
 229:Generated_Source\PSoC4/RTC_1.c **** void RTC_1_SetDateAndTime(uint32 inputTime, uint32 inputDate)
 230:Generated_Source\PSoC4/RTC_1.c **** {
 1786              		.loc 2 230 0
 1787              		.cfi_startproc
 1788              		@ args = 0, pretend = 0, frame = 24
 1789              		@ frame_needed = 1, uses_anonymous_args = 0
 1790 0000 90B5     		push	{r4, r7, lr}
 1791              		.cfi_def_cfa_offset 12
 1792              		.cfi_offset 4, -12
 1793              		.cfi_offset 7, -8
 1794              		.cfi_offset 14, -4
 1795 0002 87B0     		sub	sp, sp, #28
 1796              		.cfi_def_cfa_offset 40
 1797 0004 00AF     		add	r7, sp, #0
 1798              		.cfi_def_cfa_register 7
 1799 0006 7860     		str	r0, [r7, #4]
 1800 0008 3960     		str	r1, [r7]
 231:Generated_Source\PSoC4/RTC_1.c ****     uint32 tmpDay;
 232:Generated_Source\PSoC4/RTC_1.c ****     uint32 tmpMonth;
 233:Generated_Source\PSoC4/RTC_1.c ****     uint32 tmpYear;
 234:Generated_Source\PSoC4/RTC_1.c **** 
 235:Generated_Source\PSoC4/RTC_1.c ****     tmpDay   = RTC_1_GetDay(inputDate);
 1801              		.loc 2 235 0
 1802 000a 3B68     		ldr	r3, [r7]
 1803 000c 1800     		movs	r0, r3
ARM GAS  C:\Users\ROUSSMA\AppData\Local\Temp\cc8VsTWP.s 			page 59


 1804 000e FFF7FEFF 		bl	RTC_1_GetDay
 1805 0012 0300     		movs	r3, r0
 1806 0014 7B61     		str	r3, [r7, #20]
 236:Generated_Source\PSoC4/RTC_1.c ****     tmpMonth = RTC_1_GetMonth(inputDate);
 1807              		.loc 2 236 0
 1808 0016 3B68     		ldr	r3, [r7]
 1809 0018 1800     		movs	r0, r3
 1810 001a FFF7FEFF 		bl	RTC_1_GetMonth
 1811 001e 0300     		movs	r3, r0
 1812 0020 3B61     		str	r3, [r7, #16]
 237:Generated_Source\PSoC4/RTC_1.c ****     tmpYear  = RTC_1_GetYear(inputDate);
 1813              		.loc 2 237 0
 1814 0022 3B68     		ldr	r3, [r7]
 1815 0024 1800     		movs	r0, r3
 1816 0026 FFF7FEFF 		bl	RTC_1_GetYear
 1817 002a 0300     		movs	r3, r0
 1818 002c FB60     		str	r3, [r7, #12]
 238:Generated_Source\PSoC4/RTC_1.c **** 
 239:Generated_Source\PSoC4/RTC_1.c ****     RTC_1_unixTime = RTC_1_DateTimeToUnix(inputDate, inputTime);
 1819              		.loc 2 239 0
 1820 002e 7A68     		ldr	r2, [r7, #4]
 1821 0030 3B68     		ldr	r3, [r7]
 1822 0032 1100     		movs	r1, r2
 1823 0034 1800     		movs	r0, r3
 1824 0036 FFF7FEFF 		bl	RTC_1_DateTimeToUnix
 1825 003a 0300     		movs	r3, r0
 1826 003c 0C00     		movs	r4, r1
 1827 003e 114A     		ldr	r2, .L92
 1828 0040 1360     		str	r3, [r2]
 1829 0042 5460     		str	r4, [r2, #4]
 240:Generated_Source\PSoC4/RTC_1.c ****     RTC_1_currentTimeDate.date = inputDate;
 1830              		.loc 2 240 0
 1831 0044 104B     		ldr	r3, .L92+4
 1832 0046 3A68     		ldr	r2, [r7]
 1833 0048 5A60     		str	r2, [r3, #4]
 241:Generated_Source\PSoC4/RTC_1.c ****     RTC_1_currentTimeDate.time = inputTime;
 1834              		.loc 2 241 0
 1835 004a 0F4B     		ldr	r3, .L92+4
 1836 004c 7A68     		ldr	r2, [r7, #4]
 1837 004e 1A60     		str	r2, [r3]
 242:Generated_Source\PSoC4/RTC_1.c ****     RTC_1_currentTimeDate.dayOfWeek = RTC_1_GetDayOfWeek(tmpDay, tmpMonth, tmpYear);
 1838              		.loc 2 242 0
 1839 0050 FA68     		ldr	r2, [r7, #12]
 1840 0052 3969     		ldr	r1, [r7, #16]
 1841 0054 7B69     		ldr	r3, [r7, #20]
 1842 0056 1800     		movs	r0, r3
 1843 0058 FFF7FEFF 		bl	RTC_1_GetDayOfWeek
 1844 005c 0200     		movs	r2, r0
 1845 005e 0A4B     		ldr	r3, .L92+4
 1846 0060 9A60     		str	r2, [r3, #8]
 243:Generated_Source\PSoC4/RTC_1.c **** 
 244:Generated_Source\PSoC4/RTC_1.c ****     #if(0u != RTC_1_INITIAL_DST_STATUS)
 245:Generated_Source\PSoC4/RTC_1.c ****         RTC_1_unixTimeDstStart = RTC_1_GetDstUnixTime(&RTC_1_dstStartTime);
 246:Generated_Source\PSoC4/RTC_1.c ****         RTC_1_unixTimeDstStop  = RTC_1_GetDstUnixTime(&RTC_1_dstStopTime);
 247:Generated_Source\PSoC4/RTC_1.c **** 
 248:Generated_Source\PSoC4/RTC_1.c ****         if((RTC_1_unixTime >= RTC_1_unixTimeDstStart) &&
 249:Generated_Source\PSoC4/RTC_1.c ****            (RTC_1_unixTime <= RTC_1_unixTimeDstStop))
ARM GAS  C:\Users\ROUSSMA\AppData\Local\Temp\cc8VsTWP.s 			page 60


 250:Generated_Source\PSoC4/RTC_1.c ****         {
 251:Generated_Source\PSoC4/RTC_1.c ****             RTC_1_dstStatus = 1u;
 252:Generated_Source\PSoC4/RTC_1.c ****             RTC_1_dstTimeOffset = RTC_1_SECONDS_PER_HOUR;
 253:Generated_Source\PSoC4/RTC_1.c ****             RTC_1_unixTime -= RTC_1_dstTimeOffset;
 254:Generated_Source\PSoC4/RTC_1.c ****         }
 255:Generated_Source\PSoC4/RTC_1.c ****         else
 256:Generated_Source\PSoC4/RTC_1.c ****         {
 257:Generated_Source\PSoC4/RTC_1.c ****             RTC_1_dstStatus = 0u;
 258:Generated_Source\PSoC4/RTC_1.c ****             RTC_1_dstTimeOffset = 0uL;
 259:Generated_Source\PSoC4/RTC_1.c ****         }
 260:Generated_Source\PSoC4/RTC_1.c ****     #endif /* (0u != RTC_1_INITIAL_DST_STATUS) */
 261:Generated_Source\PSoC4/RTC_1.c **** 
 262:Generated_Source\PSoC4/RTC_1.c ****     #if(0u != RTC_1_INITIAL_ALARM_STATUS)
 263:Generated_Source\PSoC4/RTC_1.c ****         RTC_1_unixTimeAlarm = RTC_1_ConstructUnixAlarmTime(&RTC_1_alarmCfgTimeDate,
 1847              		.loc 2 263 0
 1848 0062 0A4B     		ldr	r3, .L92+8
 1849 0064 1B68     		ldr	r3, [r3]
 1850 0066 DAB2     		uxtb	r2, r3
 1851 0068 094B     		ldr	r3, .L92+12
 1852 006a 1100     		movs	r1, r2
 1853 006c 1800     		movs	r0, r3
 1854 006e FFF7FEFF 		bl	RTC_1_ConstructUnixAlarmTime
 1855 0072 0300     		movs	r3, r0
 1856 0074 0C00     		movs	r4, r1
 1857 0076 074A     		ldr	r2, .L92+16
 1858 0078 1360     		str	r3, [r2]
 1859 007a 5460     		str	r4, [r2, #4]
 264:Generated_Source\PSoC4/RTC_1.c ****                                                                                  (uint8)RTC_1_alarm
 265:Generated_Source\PSoC4/RTC_1.c ****     #endif /* (0u != RTC_1_INITIAL_ALARM_STATUS) */
 266:Generated_Source\PSoC4/RTC_1.c **** }
 1860              		.loc 2 266 0
 1861 007c C046     		nop
 1862 007e BD46     		mov	sp, r7
 1863 0080 07B0     		add	sp, sp, #28
 1864              		@ sp needed
 1865 0082 90BD     		pop	{r4, r7, pc}
 1866              	.L93:
 1867              		.align	2
 1868              	.L92:
 1869 0084 00000000 		.word	RTC_1_unixTime
 1870 0088 00000000 		.word	RTC_1_currentTimeDate
 1871 008c 00000000 		.word	RTC_1_alarmCfgMask
 1872 0090 00000000 		.word	RTC_1_alarmCfgTimeDate
 1873 0094 10000000 		.word	RTC_1_unixTimeAlarm
 1874              		.cfi_endproc
 1875              	.LFE33:
 1876              		.size	RTC_1_SetDateAndTime, .-RTC_1_SetDateAndTime
 1877              		.section	.text.RTC_1_SetUnixTime,"ax",%progbits
 1878              		.align	2
 1879              		.global	RTC_1_SetUnixTime
 1880              		.code	16
 1881              		.thumb_func
 1882              		.type	RTC_1_SetUnixTime, %function
 1883              	RTC_1_SetUnixTime:
 1884              	.LFB34:
 267:Generated_Source\PSoC4/RTC_1.c **** 
 268:Generated_Source\PSoC4/RTC_1.c **** 
ARM GAS  C:\Users\ROUSSMA\AppData\Local\Temp\cc8VsTWP.s 			page 61


 269:Generated_Source\PSoC4/RTC_1.c **** /*******************************************************************************
 270:Generated_Source\PSoC4/RTC_1.c **** * Function Name: RTC_1_SetUnixTime
 271:Generated_Source\PSoC4/RTC_1.c **** ****************************************************************************//**
 272:Generated_Source\PSoC4/RTC_1.c **** *
 273:Generated_Source\PSoC4/RTC_1.c **** * \brief
 274:Generated_Source\PSoC4/RTC_1.c **** * Sets the time in the Unix/Epoch time format - the number of seconds elapsed 
 275:Generated_Source\PSoC4/RTC_1.c **** *  from January 1, 1970 UTC 00:00 hrs.
 276:Generated_Source\PSoC4/RTC_1.c **** *
 277:Generated_Source\PSoC4/RTC_1.c **** * \param
 278:Generated_Source\PSoC4/RTC_1.c **** *  time The time value in the Unix time/Epoch time format.
 279:Generated_Source\PSoC4/RTC_1.c **** *
 280:Generated_Source\PSoC4/RTC_1.c **** *******************************************************************************/
 281:Generated_Source\PSoC4/RTC_1.c **** void RTC_1_SetUnixTime(uint64 unixTime)
 282:Generated_Source\PSoC4/RTC_1.c **** {
 1885              		.loc 2 282 0
 1886              		.cfi_startproc
 1887              		@ args = 0, pretend = 0, frame = 24
 1888              		@ frame_needed = 1, uses_anonymous_args = 0
 1889 0000 90B5     		push	{r4, r7, lr}
 1890              		.cfi_def_cfa_offset 12
 1891              		.cfi_offset 4, -12
 1892              		.cfi_offset 7, -8
 1893              		.cfi_offset 14, -4
 1894 0002 89B0     		sub	sp, sp, #36
 1895              		.cfi_def_cfa_offset 48
 1896 0004 02AF     		add	r7, sp, #8
 1897              		.cfi_def_cfa 7, 40
 1898 0006 3860     		str	r0, [r7]
 1899 0008 7960     		str	r1, [r7, #4]
 283:Generated_Source\PSoC4/RTC_1.c ****     RTC_1_DATE_TIME tmpDateTime;
 284:Generated_Source\PSoC4/RTC_1.c **** 
 285:Generated_Source\PSoC4/RTC_1.c ****     RTC_1_unixTime = unixTime;
 1900              		.loc 2 285 0
 1901 000a 0A4A     		ldr	r2, .L95
 1902 000c 3B68     		ldr	r3, [r7]
 1903 000e 7C68     		ldr	r4, [r7, #4]
 1904 0010 1360     		str	r3, [r2]
 1905 0012 5460     		str	r4, [r2, #4]
 286:Generated_Source\PSoC4/RTC_1.c ****     RTC_1_UnixToDateTime(&tmpDateTime, unixTime, (uint32)RTC_1_24_HOURS_FORMAT);
 1906              		.loc 2 286 0
 1907 0014 3B68     		ldr	r3, [r7]
 1908 0016 7C68     		ldr	r4, [r7, #4]
 1909 0018 0822     		movs	r2, #8
 1910 001a B918     		adds	r1, r7, r2
 1911 001c 0022     		movs	r2, #0
 1912 001e 0092     		str	r2, [sp]
 1913 0020 1A00     		movs	r2, r3
 1914 0022 2300     		movs	r3, r4
 1915 0024 0800     		movs	r0, r1
 1916 0026 FFF7FEFF 		bl	RTC_1_UnixToDateTime
 287:Generated_Source\PSoC4/RTC_1.c **** 
 288:Generated_Source\PSoC4/RTC_1.c ****     #if(0u != RTC_1_INITIAL_DST_STATUS)
 289:Generated_Source\PSoC4/RTC_1.c ****         RTC_1_unixTimeDstStart = RTC_1_GetDstUnixTime(&RTC_1_dstStartTime);
 290:Generated_Source\PSoC4/RTC_1.c ****         RTC_1_unixTimeDstStop  = RTC_1_GetDstUnixTime(&RTC_1_dstStopTime);
 291:Generated_Source\PSoC4/RTC_1.c **** 
 292:Generated_Source\PSoC4/RTC_1.c ****         if((RTC_1_unixTime >= RTC_1_unixTimeDstStart) &&
 293:Generated_Source\PSoC4/RTC_1.c ****            (RTC_1_unixTime <= RTC_1_unixTimeDstStop))
ARM GAS  C:\Users\ROUSSMA\AppData\Local\Temp\cc8VsTWP.s 			page 62


 294:Generated_Source\PSoC4/RTC_1.c ****         {
 295:Generated_Source\PSoC4/RTC_1.c ****             RTC_1_dstStatus = 1u;
 296:Generated_Source\PSoC4/RTC_1.c ****             RTC_1_dstTimeOffset = RTC_1_SECONDS_PER_HOUR;
 297:Generated_Source\PSoC4/RTC_1.c ****         }
 298:Generated_Source\PSoC4/RTC_1.c ****         else
 299:Generated_Source\PSoC4/RTC_1.c ****         {
 300:Generated_Source\PSoC4/RTC_1.c ****             RTC_1_dstStatus = 0u;
 301:Generated_Source\PSoC4/RTC_1.c ****             RTC_1_dstTimeOffset = 0uL;
 302:Generated_Source\PSoC4/RTC_1.c ****         }
 303:Generated_Source\PSoC4/RTC_1.c ****     #endif /* (0u != RTC_1_INITIAL_DST_STATUS) */
 304:Generated_Source\PSoC4/RTC_1.c **** }
 1917              		.loc 2 304 0
 1918 002a C046     		nop
 1919 002c BD46     		mov	sp, r7
 1920 002e 07B0     		add	sp, sp, #28
 1921              		@ sp needed
 1922 0030 90BD     		pop	{r4, r7, pc}
 1923              	.L96:
 1924 0032 C046     		.align	2
 1925              	.L95:
 1926 0034 00000000 		.word	RTC_1_unixTime
 1927              		.cfi_endproc
 1928              	.LFE34:
 1929              		.size	RTC_1_SetUnixTime, .-RTC_1_SetUnixTime
 1930              		.section	.text.RTC_1_GetUnixTime,"ax",%progbits
 1931              		.align	2
 1932              		.global	RTC_1_GetUnixTime
 1933              		.code	16
 1934              		.thumb_func
 1935              		.type	RTC_1_GetUnixTime, %function
 1936              	RTC_1_GetUnixTime:
 1937              	.LFB35:
 305:Generated_Source\PSoC4/RTC_1.c **** 
 306:Generated_Source\PSoC4/RTC_1.c **** 
 307:Generated_Source\PSoC4/RTC_1.c **** /*******************************************************************************
 308:Generated_Source\PSoC4/RTC_1.c **** * Function Name: RTC_1_GetUnixTime
 309:Generated_Source\PSoC4/RTC_1.c **** ****************************************************************************//**
 310:Generated_Source\PSoC4/RTC_1.c **** *
 311:Generated_Source\PSoC4/RTC_1.c **** * \brief
 312:Generated_Source\PSoC4/RTC_1.c **** *  Returns the time in the Unix/Epoch time format - the number of seconds 
 313:Generated_Source\PSoC4/RTC_1.c **** * elapsed from January 1, 1970 UTC 00:00 hrs.
 314:Generated_Source\PSoC4/RTC_1.c **** *
 315:Generated_Source\PSoC4/RTC_1.c **** * \return time The time value in the Unix time/Epoch time format.
 316:Generated_Source\PSoC4/RTC_1.c **** *
 317:Generated_Source\PSoC4/RTC_1.c **** *******************************************************************************/
 318:Generated_Source\PSoC4/RTC_1.c **** uint64 RTC_1_GetUnixTime(void)
 319:Generated_Source\PSoC4/RTC_1.c **** {
 1938              		.loc 2 319 0
 1939              		.cfi_startproc
 1940              		@ args = 0, pretend = 0, frame = 0
 1941              		@ frame_needed = 1, uses_anonymous_args = 0
 1942 0000 90B5     		push	{r4, r7, lr}
 1943              		.cfi_def_cfa_offset 12
 1944              		.cfi_offset 4, -12
 1945              		.cfi_offset 7, -8
 1946              		.cfi_offset 14, -4
 1947 0002 00AF     		add	r7, sp, #0
ARM GAS  C:\Users\ROUSSMA\AppData\Local\Temp\cc8VsTWP.s 			page 63


 1948              		.cfi_def_cfa_register 7
 320:Generated_Source\PSoC4/RTC_1.c ****     return (RTC_1_unixTime);
 1949              		.loc 2 320 0
 1950 0004 034B     		ldr	r3, .L99
 1951 0006 5C68     		ldr	r4, [r3, #4]
 1952 0008 1B68     		ldr	r3, [r3]
 321:Generated_Source\PSoC4/RTC_1.c **** }
 1953              		.loc 2 321 0
 1954 000a 1800     		movs	r0, r3
 1955 000c 2100     		movs	r1, r4
 1956 000e BD46     		mov	sp, r7
 1957              		@ sp needed
 1958 0010 90BD     		pop	{r4, r7, pc}
 1959              	.L100:
 1960 0012 C046     		.align	2
 1961              	.L99:
 1962 0014 00000000 		.word	RTC_1_unixTime
 1963              		.cfi_endproc
 1964              	.LFE35:
 1965              		.size	RTC_1_GetUnixTime, .-RTC_1_GetUnixTime
 1966              		.section	.text.RTC_1_SetPeriod,"ax",%progbits
 1967              		.align	2
 1968              		.global	RTC_1_SetPeriod
 1969              		.code	16
 1970              		.thumb_func
 1971              		.type	RTC_1_SetPeriod, %function
 1972              	RTC_1_SetPeriod:
 1973              	.LFB36:
 322:Generated_Source\PSoC4/RTC_1.c **** 
 323:Generated_Source\PSoC4/RTC_1.c **** 
 324:Generated_Source\PSoC4/RTC_1.c **** /*******************************************************************************
 325:Generated_Source\PSoC4/RTC_1.c **** * Function Name: RTC_1_SetPeriod
 326:Generated_Source\PSoC4/RTC_1.c **** ****************************************************************************//**
 327:Generated_Source\PSoC4/RTC_1.c **** *
 328:Generated_Source\PSoC4/RTC_1.c **** * \brief
 329:Generated_Source\PSoC4/RTC_1.c **** *  Sets the RTC time update API period.
 330:Generated_Source\PSoC4/RTC_1.c **** *
 331:Generated_Source\PSoC4/RTC_1.c **** *  The user needs to pass the period as
 332:Generated_Source\PSoC4/RTC_1.c **** *  a number of ticks and also a reference number of ticks taken by the same clock
 333:Generated_Source\PSoC4/RTC_1.c **** *  source for one second. For instance, for a 32 kHz clock source and RTC
 334:Generated_Source\PSoC4/RTC_1.c **** *  period of 100 ms, the "ticks" value is 3200 and the "refOneSecTicks" value
 335:Generated_Source\PSoC4/RTC_1.c **** *  is 32000. This value is used to increment the time every time
 336:Generated_Source\PSoC4/RTC_1.c **** *  RTC_1_Update() API is called.
 337:Generated_Source\PSoC4/RTC_1.c **** *
 338:Generated_Source\PSoC4/RTC_1.c **** * \param
 339:Generated_Source\PSoC4/RTC_1.c **** *  ticks The clock period taken as a number of ticks.
 340:Generated_Source\PSoC4/RTC_1.c **** *
 341:Generated_Source\PSoC4/RTC_1.c **** * \param
 342:Generated_Source\PSoC4/RTC_1.c **** * refOneSecTicks The reference number of ticks taken by the same clock source
 343:Generated_Source\PSoC4/RTC_1.c **** *  for one second (the input clock frequency in Hz).
 344:Generated_Source\PSoC4/RTC_1.c **** *
 345:Generated_Source\PSoC4/RTC_1.c **** *******************************************************************************/
 346:Generated_Source\PSoC4/RTC_1.c **** void RTC_1_SetPeriod(uint32 ticks, uint32 refOneSecTicks)
 347:Generated_Source\PSoC4/RTC_1.c **** {
 1974              		.loc 2 347 0
 1975              		.cfi_startproc
 1976              		@ args = 0, pretend = 0, frame = 8
ARM GAS  C:\Users\ROUSSMA\AppData\Local\Temp\cc8VsTWP.s 			page 64


 1977              		@ frame_needed = 1, uses_anonymous_args = 0
 1978 0000 80B5     		push	{r7, lr}
 1979              		.cfi_def_cfa_offset 8
 1980              		.cfi_offset 7, -8
 1981              		.cfi_offset 14, -4
 1982 0002 82B0     		sub	sp, sp, #8
 1983              		.cfi_def_cfa_offset 16
 1984 0004 00AF     		add	r7, sp, #0
 1985              		.cfi_def_cfa_register 7
 1986 0006 7860     		str	r0, [r7, #4]
 1987 0008 3960     		str	r1, [r7]
 348:Generated_Source\PSoC4/RTC_1.c ****     RTC_1_updateTimePeriod = ticks;
 1988              		.loc 2 348 0
 1989 000a 054B     		ldr	r3, .L102
 1990 000c 7A68     		ldr	r2, [r7, #4]
 1991 000e 1A60     		str	r2, [r3]
 349:Generated_Source\PSoC4/RTC_1.c ****     RTC_1_tickRefOneSec    = refOneSecTicks;
 1992              		.loc 2 349 0
 1993 0010 044B     		ldr	r3, .L102+4
 1994 0012 3A68     		ldr	r2, [r7]
 1995 0014 1A60     		str	r2, [r3]
 350:Generated_Source\PSoC4/RTC_1.c **** }
 1996              		.loc 2 350 0
 1997 0016 C046     		nop
 1998 0018 BD46     		mov	sp, r7
 1999 001a 02B0     		add	sp, sp, #8
 2000              		@ sp needed
 2001 001c 80BD     		pop	{r7, pc}
 2002              	.L103:
 2003 001e C046     		.align	2
 2004              	.L102:
 2005 0020 00000000 		.word	RTC_1_updateTimePeriod
 2006 0024 04000000 		.word	RTC_1_tickRefOneSec
 2007              		.cfi_endproc
 2008              	.LFE36:
 2009              		.size	RTC_1_SetPeriod, .-RTC_1_SetPeriod
 2010              		.section	.text.RTC_1_GetPeriod,"ax",%progbits
 2011              		.align	2
 2012              		.global	RTC_1_GetPeriod
 2013              		.code	16
 2014              		.thumb_func
 2015              		.type	RTC_1_GetPeriod, %function
 2016              	RTC_1_GetPeriod:
 2017              	.LFB37:
 351:Generated_Source\PSoC4/RTC_1.c **** 
 352:Generated_Source\PSoC4/RTC_1.c **** 
 353:Generated_Source\PSoC4/RTC_1.c **** /*******************************************************************************
 354:Generated_Source\PSoC4/RTC_1.c **** * Function Name: RTC_1_SetPeriod
 355:Generated_Source\PSoC4/RTC_1.c **** ****************************************************************************//**
 356:Generated_Source\PSoC4/RTC_1.c **** *
 357:Generated_Source\PSoC4/RTC_1.c **** * \brief
 358:Generated_Source\PSoC4/RTC_1.c **** *  Gets the RTC time update API period.
 359:Generated_Source\PSoC4/RTC_1.c **** *
 360:Generated_Source\PSoC4/RTC_1.c **** * \return period The clock period taken as a number of ticks.
 361:Generated_Source\PSoC4/RTC_1.c **** *
 362:Generated_Source\PSoC4/RTC_1.c **** *******************************************************************************/
 363:Generated_Source\PSoC4/RTC_1.c **** uint32 RTC_1_GetPeriod(void)
ARM GAS  C:\Users\ROUSSMA\AppData\Local\Temp\cc8VsTWP.s 			page 65


 364:Generated_Source\PSoC4/RTC_1.c **** {
 2018              		.loc 2 364 0
 2019              		.cfi_startproc
 2020              		@ args = 0, pretend = 0, frame = 0
 2021              		@ frame_needed = 1, uses_anonymous_args = 0
 2022 0000 80B5     		push	{r7, lr}
 2023              		.cfi_def_cfa_offset 8
 2024              		.cfi_offset 7, -8
 2025              		.cfi_offset 14, -4
 2026 0002 00AF     		add	r7, sp, #0
 2027              		.cfi_def_cfa_register 7
 365:Generated_Source\PSoC4/RTC_1.c ****     return(RTC_1_updateTimePeriod);
 2028              		.loc 2 365 0
 2029 0004 024B     		ldr	r3, .L106
 2030 0006 1B68     		ldr	r3, [r3]
 366:Generated_Source\PSoC4/RTC_1.c **** }
 2031              		.loc 2 366 0
 2032 0008 1800     		movs	r0, r3
 2033 000a BD46     		mov	sp, r7
 2034              		@ sp needed
 2035 000c 80BD     		pop	{r7, pc}
 2036              	.L107:
 2037 000e C046     		.align	2
 2038              	.L106:
 2039 0010 00000000 		.word	RTC_1_updateTimePeriod
 2040              		.cfi_endproc
 2041              	.LFE37:
 2042              		.size	RTC_1_GetPeriod, .-RTC_1_GetPeriod
 2043              		.section	.text.RTC_1_GetRefOneSec,"ax",%progbits
 2044              		.align	2
 2045              		.global	RTC_1_GetRefOneSec
 2046              		.code	16
 2047              		.thumb_func
 2048              		.type	RTC_1_GetRefOneSec, %function
 2049              	RTC_1_GetRefOneSec:
 2050              	.LFB38:
 367:Generated_Source\PSoC4/RTC_1.c **** 
 368:Generated_Source\PSoC4/RTC_1.c **** 
 369:Generated_Source\PSoC4/RTC_1.c **** /*******************************************************************************
 370:Generated_Source\PSoC4/RTC_1.c **** * Function Name: RTC_1_GetRefOneSec
 371:Generated_Source\PSoC4/RTC_1.c **** ****************************************************************************//**
 372:Generated_Source\PSoC4/RTC_1.c **** * \brief
 373:Generated_Source\PSoC4/RTC_1.c **** * Gets the RTC time update API period.
 374:Generated_Source\PSoC4/RTC_1.c **** *
 375:Generated_Source\PSoC4/RTC_1.c **** * \return
 376:Generated_Source\PSoC4/RTC_1.c **** * period The reference number of ticks taken by the RTC clock source for one
 377:Generated_Source\PSoC4/RTC_1.c **** * second.
 378:Generated_Source\PSoC4/RTC_1.c **** *
 379:Generated_Source\PSoC4/RTC_1.c **** *******************************************************************************/
 380:Generated_Source\PSoC4/RTC_1.c **** uint32 RTC_1_GetRefOneSec(void)
 381:Generated_Source\PSoC4/RTC_1.c **** {
 2051              		.loc 2 381 0
 2052              		.cfi_startproc
 2053              		@ args = 0, pretend = 0, frame = 0
 2054              		@ frame_needed = 1, uses_anonymous_args = 0
 2055 0000 80B5     		push	{r7, lr}
 2056              		.cfi_def_cfa_offset 8
ARM GAS  C:\Users\ROUSSMA\AppData\Local\Temp\cc8VsTWP.s 			page 66


 2057              		.cfi_offset 7, -8
 2058              		.cfi_offset 14, -4
 2059 0002 00AF     		add	r7, sp, #0
 2060              		.cfi_def_cfa_register 7
 382:Generated_Source\PSoC4/RTC_1.c ****     return(RTC_1_tickRefOneSec);
 2061              		.loc 2 382 0
 2062 0004 024B     		ldr	r3, .L110
 2063 0006 1B68     		ldr	r3, [r3]
 383:Generated_Source\PSoC4/RTC_1.c **** }
 2064              		.loc 2 383 0
 2065 0008 1800     		movs	r0, r3
 2066 000a BD46     		mov	sp, r7
 2067              		@ sp needed
 2068 000c 80BD     		pop	{r7, pc}
 2069              	.L111:
 2070 000e C046     		.align	2
 2071              	.L110:
 2072 0010 04000000 		.word	RTC_1_tickRefOneSec
 2073              		.cfi_endproc
 2074              	.LFE38:
 2075              		.size	RTC_1_GetRefOneSec, .-RTC_1_GetRefOneSec
 2076              		.section	.text.RTC_1_GetDateAndTime,"ax",%progbits
 2077              		.align	2
 2078              		.global	RTC_1_GetDateAndTime
 2079              		.code	16
 2080              		.thumb_func
 2081              		.type	RTC_1_GetDateAndTime, %function
 2082              	RTC_1_GetDateAndTime:
 2083              	.LFB39:
 384:Generated_Source\PSoC4/RTC_1.c **** 
 385:Generated_Source\PSoC4/RTC_1.c **** 
 386:Generated_Source\PSoC4/RTC_1.c **** /*******************************************************************************
 387:Generated_Source\PSoC4/RTC_1.c **** * Function Name: RTC_1_GetDateAndTime
 388:Generated_Source\PSoC4/RTC_1.c **** ****************************************************************************//**
 389:Generated_Source\PSoC4/RTC_1.c **** *
 390:Generated_Source\PSoC4/RTC_1.c **** * Reads the current time and date.
 391:Generated_Source\PSoC4/RTC_1.c **** *
 392:Generated_Source\PSoC4/RTC_1.c **** * \param dateTime The pointer to the RTC_date_time structure to which time and 
 393:Generated_Source\PSoC4/RTC_1.c **** * date is returned.
 394:Generated_Source\PSoC4/RTC_1.c **** *
 395:Generated_Source\PSoC4/RTC_1.c **** *******************************************************************************/
 396:Generated_Source\PSoC4/RTC_1.c **** void RTC_1_GetDateAndTime(RTC_1_DATE_TIME* dateTime)
 397:Generated_Source\PSoC4/RTC_1.c **** {
 2084              		.loc 2 397 0
 2085              		.cfi_startproc
 2086              		@ args = 0, pretend = 0, frame = 8
 2087              		@ frame_needed = 1, uses_anonymous_args = 0
 2088 0000 90B5     		push	{r4, r7, lr}
 2089              		.cfi_def_cfa_offset 12
 2090              		.cfi_offset 4, -12
 2091              		.cfi_offset 7, -8
 2092              		.cfi_offset 14, -4
 2093 0002 85B0     		sub	sp, sp, #20
 2094              		.cfi_def_cfa_offset 32
 2095 0004 02AF     		add	r7, sp, #8
 2096              		.cfi_def_cfa 7, 24
 2097 0006 7860     		str	r0, [r7, #4]
ARM GAS  C:\Users\ROUSSMA\AppData\Local\Temp\cc8VsTWP.s 			page 67


 398:Generated_Source\PSoC4/RTC_1.c ****     RTC_1_UnixToDateTime(dateTime, (RTC_1_unixTime  + RTC_1_dstTimeOffset),
 2098              		.loc 2 398 0
 2099 0008 0A4B     		ldr	r3, .L113
 2100 000a 1B68     		ldr	r3, [r3]
 2101 000c 1900     		movs	r1, r3
 2102 000e 0023     		movs	r3, #0
 2103 0010 1A00     		movs	r2, r3
 2104 0012 094B     		ldr	r3, .L113+4
 2105 0014 5C68     		ldr	r4, [r3, #4]
 2106 0016 1B68     		ldr	r3, [r3]
 2107 0018 5B18     		adds	r3, r3, r1
 2108 001a 5441     		adcs	r4, r4, r2
 2109 001c 7968     		ldr	r1, [r7, #4]
 2110 001e 0122     		movs	r2, #1
 2111 0020 0092     		str	r2, [sp]
 2112 0022 1A00     		movs	r2, r3
 2113 0024 2300     		movs	r3, r4
 2114 0026 0800     		movs	r0, r1
 2115 0028 FFF7FEFF 		bl	RTC_1_UnixToDateTime
 399:Generated_Source\PSoC4/RTC_1.c ****                                                                             RTC_1_INITIAL_TIME_FORM
 400:Generated_Source\PSoC4/RTC_1.c **** }
 2116              		.loc 2 400 0
 2117 002c C046     		nop
 2118 002e BD46     		mov	sp, r7
 2119 0030 03B0     		add	sp, sp, #12
 2120              		@ sp needed
 2121 0032 90BD     		pop	{r4, r7, pc}
 2122              	.L114:
 2123              		.align	2
 2124              	.L113:
 2125 0034 08000000 		.word	RTC_1_dstTimeOffset
 2126 0038 00000000 		.word	RTC_1_unixTime
 2127              		.cfi_endproc
 2128              	.LFE39:
 2129              		.size	RTC_1_GetDateAndTime, .-RTC_1_GetDateAndTime
 2130              		.section	.text.RTC_1_GetTime,"ax",%progbits
 2131              		.align	2
 2132              		.global	RTC_1_GetTime
 2133              		.code	16
 2134              		.thumb_func
 2135              		.type	RTC_1_GetTime, %function
 2136              	RTC_1_GetTime:
 2137              	.LFB40:
 401:Generated_Source\PSoC4/RTC_1.c **** 
 402:Generated_Source\PSoC4/RTC_1.c **** 
 403:Generated_Source\PSoC4/RTC_1.c **** /*******************************************************************************
 404:Generated_Source\PSoC4/RTC_1.c **** * Function Name: RTC_1_GetTime
 405:Generated_Source\PSoC4/RTC_1.c **** ****************************************************************************//**
 406:Generated_Source\PSoC4/RTC_1.c **** * \brief
 407:Generated_Source\PSoC4/RTC_1.c **** * Reads the current time.
 408:Generated_Source\PSoC4/RTC_1.c **** *
 409:Generated_Source\PSoC4/RTC_1.c **** * \return
 410:Generated_Source\PSoC4/RTC_1.c **** * date The value of date in the user selected format. The date value is 
 411:Generated_Source\PSoC4/RTC_1.c **** * available in the BCD format.
 412:Generated_Source\PSoC4/RTC_1.c **** *
 413:Generated_Source\PSoC4/RTC_1.c **** * \warning
 414:Generated_Source\PSoC4/RTC_1.c **** *  Using RTC_1_GetTime and RTC_GetDate API separately might result
ARM GAS  C:\Users\ROUSSMA\AppData\Local\Temp\cc8VsTWP.s 			page 68


 415:Generated_Source\PSoC4/RTC_1.c **** *  in errors when the time wraps around the end of the day. To avoid this,
 416:Generated_Source\PSoC4/RTC_1.c **** *  use RTC_1_GetDateAndTime API.
 417:Generated_Source\PSoC4/RTC_1.c **** *
 418:Generated_Source\PSoC4/RTC_1.c **** *******************************************************************************/
 419:Generated_Source\PSoC4/RTC_1.c **** uint32 RTC_1_GetTime(void)
 420:Generated_Source\PSoC4/RTC_1.c **** {
 2138              		.loc 2 420 0
 2139              		.cfi_startproc
 2140              		@ args = 0, pretend = 0, frame = 0
 2141              		@ frame_needed = 1, uses_anonymous_args = 0
 2142 0000 90B5     		push	{r4, r7, lr}
 2143              		.cfi_def_cfa_offset 12
 2144              		.cfi_offset 4, -12
 2145              		.cfi_offset 7, -8
 2146              		.cfi_offset 14, -4
 2147 0002 83B0     		sub	sp, sp, #12
 2148              		.cfi_def_cfa_offset 24
 2149 0004 02AF     		add	r7, sp, #8
 2150              		.cfi_def_cfa 7, 16
 421:Generated_Source\PSoC4/RTC_1.c ****     RTC_1_UnixToDateTime(&RTC_1_currentTimeDate,
 2151              		.loc 2 421 0
 2152 0006 0C4B     		ldr	r3, .L117
 2153 0008 1B68     		ldr	r3, [r3]
 2154 000a 1900     		movs	r1, r3
 2155 000c 0023     		movs	r3, #0
 2156 000e 1A00     		movs	r2, r3
 2157 0010 0A4B     		ldr	r3, .L117+4
 2158 0012 5C68     		ldr	r4, [r3, #4]
 2159 0014 1B68     		ldr	r3, [r3]
 2160 0016 5B18     		adds	r3, r3, r1
 2161 0018 5441     		adcs	r4, r4, r2
 2162 001a 0949     		ldr	r1, .L117+8
 2163 001c 0122     		movs	r2, #1
 2164 001e 0092     		str	r2, [sp]
 2165 0020 1A00     		movs	r2, r3
 2166 0022 2300     		movs	r3, r4
 2167 0024 0800     		movs	r0, r1
 2168 0026 FFF7FEFF 		bl	RTC_1_UnixToDateTime
 422:Generated_Source\PSoC4/RTC_1.c ****                                     (RTC_1_unixTime  + RTC_1_dstTimeOffset),
 423:Generated_Source\PSoC4/RTC_1.c ****                                      RTC_1_INITIAL_TIME_FORMAT);
 424:Generated_Source\PSoC4/RTC_1.c **** 
 425:Generated_Source\PSoC4/RTC_1.c ****     return(RTC_1_currentTimeDate.time);
 2169              		.loc 2 425 0
 2170 002a 054B     		ldr	r3, .L117+8
 2171 002c 1B68     		ldr	r3, [r3]
 426:Generated_Source\PSoC4/RTC_1.c **** }
 2172              		.loc 2 426 0
 2173 002e 1800     		movs	r0, r3
 2174 0030 BD46     		mov	sp, r7
 2175 0032 01B0     		add	sp, sp, #4
 2176              		@ sp needed
 2177 0034 90BD     		pop	{r4, r7, pc}
 2178              	.L118:
 2179 0036 C046     		.align	2
 2180              	.L117:
 2181 0038 08000000 		.word	RTC_1_dstTimeOffset
 2182 003c 00000000 		.word	RTC_1_unixTime
ARM GAS  C:\Users\ROUSSMA\AppData\Local\Temp\cc8VsTWP.s 			page 69


 2183 0040 00000000 		.word	RTC_1_currentTimeDate
 2184              		.cfi_endproc
 2185              	.LFE40:
 2186              		.size	RTC_1_GetTime, .-RTC_1_GetTime
 2187              		.section	.text.RTC_1_GetDate,"ax",%progbits
 2188              		.align	2
 2189              		.global	RTC_1_GetDate
 2190              		.code	16
 2191              		.thumb_func
 2192              		.type	RTC_1_GetDate, %function
 2193              	RTC_1_GetDate:
 2194              	.LFB41:
 427:Generated_Source\PSoC4/RTC_1.c **** 
 428:Generated_Source\PSoC4/RTC_1.c **** 
 429:Generated_Source\PSoC4/RTC_1.c **** /*******************************************************************************
 430:Generated_Source\PSoC4/RTC_1.c **** * Function Name: RTC_1_GetDate
 431:Generated_Source\PSoC4/RTC_1.c **** ****************************************************************************//**
 432:Generated_Source\PSoC4/RTC_1.c **** *
 433:Generated_Source\PSoC4/RTC_1.c **** * \brief Reads the current time.
 434:Generated_Source\PSoC4/RTC_1.c **** *
 435:Generated_Source\PSoC4/RTC_1.c **** * \return
 436:Generated_Source\PSoC4/RTC_1.c **** * time The time value in the format selected by the user (12/24 hr);
 437:Generated_Source\PSoC4/RTC_1.c **** * The time value is available in the BCD format.
 438:Generated_Source\PSoC4/RTC_1.c **** *
 439:Generated_Source\PSoC4/RTC_1.c **** * \note
 440:Generated_Source\PSoC4/RTC_1.c **** *  Using RTC_1_GetTime and RTC_1_GetDate API separately
 441:Generated_Source\PSoC4/RTC_1.c **** *  might result in errors when the time wraps around the end of the day. To
 442:Generated_Source\PSoC4/RTC_1.c **** *  avoid this, use RTC_1_GetDateAndTime API.
 443:Generated_Source\PSoC4/RTC_1.c **** *
 444:Generated_Source\PSoC4/RTC_1.c **** *******************************************************************************/
 445:Generated_Source\PSoC4/RTC_1.c **** uint32 RTC_1_GetDate(void)
 446:Generated_Source\PSoC4/RTC_1.c **** {
 2195              		.loc 2 446 0
 2196              		.cfi_startproc
 2197              		@ args = 0, pretend = 0, frame = 0
 2198              		@ frame_needed = 1, uses_anonymous_args = 0
 2199 0000 90B5     		push	{r4, r7, lr}
 2200              		.cfi_def_cfa_offset 12
 2201              		.cfi_offset 4, -12
 2202              		.cfi_offset 7, -8
 2203              		.cfi_offset 14, -4
 2204 0002 83B0     		sub	sp, sp, #12
 2205              		.cfi_def_cfa_offset 24
 2206 0004 02AF     		add	r7, sp, #8
 2207              		.cfi_def_cfa 7, 16
 447:Generated_Source\PSoC4/RTC_1.c ****     RTC_1_UnixToDateTime(&RTC_1_currentTimeDate,
 2208              		.loc 2 447 0
 2209 0006 0C4B     		ldr	r3, .L121
 2210 0008 1B68     		ldr	r3, [r3]
 2211 000a 1900     		movs	r1, r3
 2212 000c 0023     		movs	r3, #0
 2213 000e 1A00     		movs	r2, r3
 2214 0010 0A4B     		ldr	r3, .L121+4
 2215 0012 5C68     		ldr	r4, [r3, #4]
 2216 0014 1B68     		ldr	r3, [r3]
 2217 0016 5B18     		adds	r3, r3, r1
 2218 0018 5441     		adcs	r4, r4, r2
ARM GAS  C:\Users\ROUSSMA\AppData\Local\Temp\cc8VsTWP.s 			page 70


 2219 001a 0949     		ldr	r1, .L121+8
 2220 001c 0122     		movs	r2, #1
 2221 001e 0092     		str	r2, [sp]
 2222 0020 1A00     		movs	r2, r3
 2223 0022 2300     		movs	r3, r4
 2224 0024 0800     		movs	r0, r1
 2225 0026 FFF7FEFF 		bl	RTC_1_UnixToDateTime
 448:Generated_Source\PSoC4/RTC_1.c ****                                     (RTC_1_unixTime  + RTC_1_dstTimeOffset),
 449:Generated_Source\PSoC4/RTC_1.c ****                                      RTC_1_INITIAL_TIME_FORMAT);
 450:Generated_Source\PSoC4/RTC_1.c **** 
 451:Generated_Source\PSoC4/RTC_1.c ****     return(RTC_1_currentTimeDate.date);
 2226              		.loc 2 451 0
 2227 002a 054B     		ldr	r3, .L121+8
 2228 002c 5B68     		ldr	r3, [r3, #4]
 452:Generated_Source\PSoC4/RTC_1.c **** }
 2229              		.loc 2 452 0
 2230 002e 1800     		movs	r0, r3
 2231 0030 BD46     		mov	sp, r7
 2232 0032 01B0     		add	sp, sp, #4
 2233              		@ sp needed
 2234 0034 90BD     		pop	{r4, r7, pc}
 2235              	.L122:
 2236 0036 C046     		.align	2
 2237              	.L121:
 2238 0038 08000000 		.word	RTC_1_dstTimeOffset
 2239 003c 00000000 		.word	RTC_1_unixTime
 2240 0040 00000000 		.word	RTC_1_currentTimeDate
 2241              		.cfi_endproc
 2242              	.LFE41:
 2243              		.size	RTC_1_GetDate, .-RTC_1_GetDate
 2244              		.section	.text.RTC_1_SetAlarmDateAndTime,"ax",%progbits
 2245              		.align	2
 2246              		.global	RTC_1_SetAlarmDateAndTime
 2247              		.code	16
 2248              		.thumb_func
 2249              		.type	RTC_1_SetAlarmDateAndTime, %function
 2250              	RTC_1_SetAlarmDateAndTime:
 2251              	.LFB42:
 453:Generated_Source\PSoC4/RTC_1.c **** 
 454:Generated_Source\PSoC4/RTC_1.c **** 
 455:Generated_Source\PSoC4/RTC_1.c **** #if(0u != RTC_1_INITIAL_ALARM_STATUS)
 456:Generated_Source\PSoC4/RTC_1.c ****     /*******************************************************************************
 457:Generated_Source\PSoC4/RTC_1.c ****     * Function Name: RTC_1_SetAlarmDateAndTime
 458:Generated_Source\PSoC4/RTC_1.c ****     ****************************************************************************//**
 459:Generated_Source\PSoC4/RTC_1.c ****     *
 460:Generated_Source\PSoC4/RTC_1.c ****     * \brief
 461:Generated_Source\PSoC4/RTC_1.c ****     *  Writes the time and date values as the current alarm time and date.
 462:Generated_Source\PSoC4/RTC_1.c ****     *
 463:Generated_Source\PSoC4/RTC_1.c ****     * \param
 464:Generated_Source\PSoC4/RTC_1.c ****     *  alarmTime The pointer to the RTC_1_date_time global structure where
 465:Generated_Source\PSoC4/RTC_1.c ****     *  new values of the alarm time and date are stored.
 466:Generated_Source\PSoC4/RTC_1.c ****     *
 467:Generated_Source\PSoC4/RTC_1.c ****     * \note
 468:Generated_Source\PSoC4/RTC_1.c ****     *  Invalid time entries are written with "00:00:00:00" for the 24-hour format and
 469:Generated_Source\PSoC4/RTC_1.c ****     *  "AM 12:00:00:00" for the 12-hour format. Invalid date entries are written with
 470:Generated_Source\PSoC4/RTC_1.c ****     *  a date equivalent to 01-JAN-2000.
 471:Generated_Source\PSoC4/RTC_1.c ****     *
ARM GAS  C:\Users\ROUSSMA\AppData\Local\Temp\cc8VsTWP.s 			page 71


 472:Generated_Source\PSoC4/RTC_1.c ****     *******************************************************************************/
 473:Generated_Source\PSoC4/RTC_1.c ****     void RTC_1_SetAlarmDateAndTime(const RTC_1_DATE_TIME* alarmTime)
 474:Generated_Source\PSoC4/RTC_1.c ****     {
 2252              		.loc 2 474 0
 2253              		.cfi_startproc
 2254              		@ args = 0, pretend = 0, frame = 8
 2255              		@ frame_needed = 1, uses_anonymous_args = 0
 2256 0000 90B5     		push	{r4, r7, lr}
 2257              		.cfi_def_cfa_offset 12
 2258              		.cfi_offset 4, -12
 2259              		.cfi_offset 7, -8
 2260              		.cfi_offset 14, -4
 2261 0002 83B0     		sub	sp, sp, #12
 2262              		.cfi_def_cfa_offset 24
 2263 0004 00AF     		add	r7, sp, #0
 2264              		.cfi_def_cfa_register 7
 2265 0006 7860     		str	r0, [r7, #4]
 475:Generated_Source\PSoC4/RTC_1.c ****         RTC_1_alarmCfgTimeDate = *alarmTime;
 2266              		.loc 2 475 0
 2267 0008 0B4B     		ldr	r3, .L124
 2268 000a 7A68     		ldr	r2, [r7, #4]
 2269 000c 13CA     		ldmia	r2!, {r0, r1, r4}
 2270 000e 13C3     		stmia	r3!, {r0, r1, r4}
 2271 0010 1268     		ldr	r2, [r2]
 2272 0012 1A60     		str	r2, [r3]
 476:Generated_Source\PSoC4/RTC_1.c ****         RTC_1_unixTimeAlarm = RTC_1_ConstructUnixAlarmTime(alarmTime, (uint8)RTC_1_alarmCfgMask);
 2273              		.loc 2 476 0
 2274 0014 094B     		ldr	r3, .L124+4
 2275 0016 1B68     		ldr	r3, [r3]
 2276 0018 DAB2     		uxtb	r2, r3
 2277 001a 7B68     		ldr	r3, [r7, #4]
 2278 001c 1100     		movs	r1, r2
 2279 001e 1800     		movs	r0, r3
 2280 0020 FFF7FEFF 		bl	RTC_1_ConstructUnixAlarmTime
 2281 0024 0300     		movs	r3, r0
 2282 0026 0C00     		movs	r4, r1
 2283 0028 054A     		ldr	r2, .L124+8
 2284 002a 1360     		str	r3, [r2]
 2285 002c 5460     		str	r4, [r2, #4]
 477:Generated_Source\PSoC4/RTC_1.c ****     }
 2286              		.loc 2 477 0
 2287 002e C046     		nop
 2288 0030 BD46     		mov	sp, r7
 2289 0032 03B0     		add	sp, sp, #12
 2290              		@ sp needed
 2291 0034 90BD     		pop	{r4, r7, pc}
 2292              	.L125:
 2293 0036 C046     		.align	2
 2294              	.L124:
 2295 0038 00000000 		.word	RTC_1_alarmCfgTimeDate
 2296 003c 00000000 		.word	RTC_1_alarmCfgMask
 2297 0040 10000000 		.word	RTC_1_unixTimeAlarm
 2298              		.cfi_endproc
 2299              	.LFE42:
 2300              		.size	RTC_1_SetAlarmDateAndTime, .-RTC_1_SetAlarmDateAndTime
 2301              		.section	.text.RTC_1_GetAlarmDateAndTime,"ax",%progbits
 2302              		.align	2
ARM GAS  C:\Users\ROUSSMA\AppData\Local\Temp\cc8VsTWP.s 			page 72


 2303              		.global	RTC_1_GetAlarmDateAndTime
 2304              		.code	16
 2305              		.thumb_func
 2306              		.type	RTC_1_GetAlarmDateAndTime, %function
 2307              	RTC_1_GetAlarmDateAndTime:
 2308              	.LFB43:
 478:Generated_Source\PSoC4/RTC_1.c **** 
 479:Generated_Source\PSoC4/RTC_1.c **** 
 480:Generated_Source\PSoC4/RTC_1.c ****     /*******************************************************************************
 481:Generated_Source\PSoC4/RTC_1.c ****     * Function Name: RTC_1_GetAlarmDateAndTime
 482:Generated_Source\PSoC4/RTC_1.c ****     ****************************************************************************//**
 483:Generated_Source\PSoC4/RTC_1.c ****     *
 484:Generated_Source\PSoC4/RTC_1.c ****     * \brief
 485:Generated_Source\PSoC4/RTC_1.c ****     *  Reads the current alarm time and date.
 486:Generated_Source\PSoC4/RTC_1.c ****     *
 487:Generated_Source\PSoC4/RTC_1.c ****     * \param
 488:Generated_Source\PSoC4/RTC_1.c ****     *  alarmTimeDate The pointer to the RTC_1_date_time structure to which
 489:Generated_Source\PSoC4/RTC_1.c ****     *  the alarm date and time are returned.
 490:Generated_Source\PSoC4/RTC_1.c ****     *
 491:Generated_Source\PSoC4/RTC_1.c ****     *******************************************************************************/
 492:Generated_Source\PSoC4/RTC_1.c ****     void RTC_1_GetAlarmDateAndTime(RTC_1_DATE_TIME* alarmTimeDate)
 493:Generated_Source\PSoC4/RTC_1.c ****     {
 2309              		.loc 2 493 0
 2310              		.cfi_startproc
 2311              		@ args = 0, pretend = 0, frame = 8
 2312              		@ frame_needed = 1, uses_anonymous_args = 0
 2313 0000 90B5     		push	{r4, r7, lr}
 2314              		.cfi_def_cfa_offset 12
 2315              		.cfi_offset 4, -12
 2316              		.cfi_offset 7, -8
 2317              		.cfi_offset 14, -4
 2318 0002 83B0     		sub	sp, sp, #12
 2319              		.cfi_def_cfa_offset 24
 2320 0004 00AF     		add	r7, sp, #0
 2321              		.cfi_def_cfa_register 7
 2322 0006 7860     		str	r0, [r7, #4]
 494:Generated_Source\PSoC4/RTC_1.c ****         *alarmTimeDate = RTC_1_alarmCfgTimeDate;
 2323              		.loc 2 494 0
 2324 0008 7B68     		ldr	r3, [r7, #4]
 2325 000a 044A     		ldr	r2, .L127
 2326 000c 13CA     		ldmia	r2!, {r0, r1, r4}
 2327 000e 13C3     		stmia	r3!, {r0, r1, r4}
 2328 0010 1268     		ldr	r2, [r2]
 2329 0012 1A60     		str	r2, [r3]
 495:Generated_Source\PSoC4/RTC_1.c ****     }
 2330              		.loc 2 495 0
 2331 0014 C046     		nop
 2332 0016 BD46     		mov	sp, r7
 2333 0018 03B0     		add	sp, sp, #12
 2334              		@ sp needed
 2335 001a 90BD     		pop	{r4, r7, pc}
 2336              	.L128:
 2337              		.align	2
 2338              	.L127:
 2339 001c 00000000 		.word	RTC_1_alarmCfgTimeDate
 2340              		.cfi_endproc
 2341              	.LFE43:
ARM GAS  C:\Users\ROUSSMA\AppData\Local\Temp\cc8VsTWP.s 			page 73


 2342              		.size	RTC_1_GetAlarmDateAndTime, .-RTC_1_GetAlarmDateAndTime
 2343              		.section	.text.RTC_1_SetAlarmMask,"ax",%progbits
 2344              		.align	2
 2345              		.global	RTC_1_SetAlarmMask
 2346              		.code	16
 2347              		.thumb_func
 2348              		.type	RTC_1_SetAlarmMask, %function
 2349              	RTC_1_SetAlarmMask:
 2350              	.LFB44:
 496:Generated_Source\PSoC4/RTC_1.c **** 
 497:Generated_Source\PSoC4/RTC_1.c **** 
 498:Generated_Source\PSoC4/RTC_1.c ****     /*******************************************************************************
 499:Generated_Source\PSoC4/RTC_1.c ****     * Function Name: RTC_1_SetAlarmMask
 500:Generated_Source\PSoC4/RTC_1.c ****     ****************************************************************************//**
 501:Generated_Source\PSoC4/RTC_1.c ****     *
 502:Generated_Source\PSoC4/RTC_1.c ****     * \brief
 503:Generated_Source\PSoC4/RTC_1.c ****     *  Writes the Alarm Mask software register with one bit per time/date entry.
 504:Generated_Source\PSoC4/RTC_1.c ****     *  The alarm is true when all masked time/date values match the Alarm values.
 505:Generated_Source\PSoC4/RTC_1.c ****     *  Generated only if the alarm functionality is enabled.
 506:Generated_Source\PSoC4/RTC_1.c ****     *
 507:Generated_Source\PSoC4/RTC_1.c ****     * \param
 508:Generated_Source\PSoC4/RTC_1.c ****     *  mask The Alarm Mask software register value. The values shown below can be
 509:Generated_Source\PSoC4/RTC_1.c ****     *  OR'ed and passed as an argument as well.
 510:Generated_Source\PSoC4/RTC_1.c ****     * \param
 511:Generated_Source\PSoC4/RTC_1.c ****     *  RTC_1_ALARM_SEC_MASK The second alarm mask allows
 512:Generated_Source\PSoC4/RTC_1.c ****     *  matching the alarm second register with the current second register.
 513:Generated_Source\PSoC4/RTC_1.c ****     * \param
 514:Generated_Source\PSoC4/RTC_1.c ****     *  RTC_1_ALARM_MIN_MASK The minute alarm mask allows matching the
 515:Generated_Source\PSoC4/RTC_1.c ****     *  alarm minute register with the current minute register.
 516:Generated_Source\PSoC4/RTC_1.c ****     * \param
 517:Generated_Source\PSoC4/RTC_1.c ****     *  RTC_1_ALARM_HOUR_MASK The hour alarm mask allows
 518:Generated_Source\PSoC4/RTC_1.c ****     * matching the alarm hour register with the current hour register.
 519:Generated_Source\PSoC4/RTC_1.c ****     * \param
 520:Generated_Source\PSoC4/RTC_1.c ****     *  RTC_1_ALARM_DAYOFWEEK_MASK The day of the week alarm mask 
 521:Generated_Source\PSoC4/RTC_1.c ****     * allows matching the alarm day of the week register with the current day of
 522:Generated_Source\PSoC4/RTC_1.c ****     * the week register.
 523:Generated_Source\PSoC4/RTC_1.c ****     * \param
 524:Generated_Source\PSoC4/RTC_1.c ****     * RTC_1_ALARM_DAYOFMONTH_MASK The day of the month alarm mask
 525:Generated_Source\PSoC4/RTC_1.c ****     * allows matching the alarm day of the month register with the current day 
 526:Generated_Source\PSoC4/RTC_1.c ****     * of the month register.
 527:Generated_Source\PSoC4/RTC_1.c ****     * \param
 528:Generated_Source\PSoC4/RTC_1.c ****     * RTC_1_ALARM_MONTH_MASK The month alarm mask allows matching 
 529:Generated_Source\PSoC4/RTC_1.c ****     * the alarm month register with the current month register.
 530:Generated_Source\PSoC4/RTC_1.c ****     * \param
 531:Generated_Source\PSoC4/RTC_1.c ****     * RTC_1_ALARM_YEAR_MASK The year alarm mask allows matching the
 532:Generated_Source\PSoC4/RTC_1.c ****     *  alarm year register with the current year register.
 533:Generated_Source\PSoC4/RTC_1.c ****     *
 534:Generated_Source\PSoC4/RTC_1.c ****     *******************************************************************************/
 535:Generated_Source\PSoC4/RTC_1.c ****     void RTC_1_SetAlarmMask(uint32 mask)
 536:Generated_Source\PSoC4/RTC_1.c ****     {
 2351              		.loc 2 536 0
 2352              		.cfi_startproc
 2353              		@ args = 0, pretend = 0, frame = 8
 2354              		@ frame_needed = 1, uses_anonymous_args = 0
 2355 0000 90B5     		push	{r4, r7, lr}
 2356              		.cfi_def_cfa_offset 12
 2357              		.cfi_offset 4, -12
ARM GAS  C:\Users\ROUSSMA\AppData\Local\Temp\cc8VsTWP.s 			page 74


 2358              		.cfi_offset 7, -8
 2359              		.cfi_offset 14, -4
 2360 0002 83B0     		sub	sp, sp, #12
 2361              		.cfi_def_cfa_offset 24
 2362 0004 00AF     		add	r7, sp, #0
 2363              		.cfi_def_cfa_register 7
 2364 0006 7860     		str	r0, [r7, #4]
 537:Generated_Source\PSoC4/RTC_1.c ****         RTC_1_alarmCfgMask = (uint8)mask;
 2365              		.loc 2 537 0
 2366 0008 7B68     		ldr	r3, [r7, #4]
 2367 000a FF22     		movs	r2, #255
 2368 000c 1A40     		ands	r2, r3
 2369 000e 094B     		ldr	r3, .L130
 2370 0010 1A60     		str	r2, [r3]
 538:Generated_Source\PSoC4/RTC_1.c ****         RTC_1_unixTimeAlarm = RTC_1_ConstructUnixAlarmTime(&RTC_1_alarmCfgTimeDate, (uint8)mask);
 2371              		.loc 2 538 0
 2372 0012 7B68     		ldr	r3, [r7, #4]
 2373 0014 DAB2     		uxtb	r2, r3
 2374 0016 084B     		ldr	r3, .L130+4
 2375 0018 1100     		movs	r1, r2
 2376 001a 1800     		movs	r0, r3
 2377 001c FFF7FEFF 		bl	RTC_1_ConstructUnixAlarmTime
 2378 0020 0300     		movs	r3, r0
 2379 0022 0C00     		movs	r4, r1
 2380 0024 054A     		ldr	r2, .L130+8
 2381 0026 1360     		str	r3, [r2]
 2382 0028 5460     		str	r4, [r2, #4]
 539:Generated_Source\PSoC4/RTC_1.c ****     }
 2383              		.loc 2 539 0
 2384 002a C046     		nop
 2385 002c BD46     		mov	sp, r7
 2386 002e 03B0     		add	sp, sp, #12
 2387              		@ sp needed
 2388 0030 90BD     		pop	{r4, r7, pc}
 2389              	.L131:
 2390 0032 C046     		.align	2
 2391              	.L130:
 2392 0034 00000000 		.word	RTC_1_alarmCfgMask
 2393 0038 00000000 		.word	RTC_1_alarmCfgTimeDate
 2394 003c 10000000 		.word	RTC_1_unixTimeAlarm
 2395              		.cfi_endproc
 2396              	.LFE44:
 2397              		.size	RTC_1_SetAlarmMask, .-RTC_1_SetAlarmMask
 2398              		.section	.text.RTC_1_GetAlarmMask,"ax",%progbits
 2399              		.align	2
 2400              		.global	RTC_1_GetAlarmMask
 2401              		.code	16
 2402              		.thumb_func
 2403              		.type	RTC_1_GetAlarmMask, %function
 2404              	RTC_1_GetAlarmMask:
 2405              	.LFB45:
 540:Generated_Source\PSoC4/RTC_1.c **** 
 541:Generated_Source\PSoC4/RTC_1.c **** 
 542:Generated_Source\PSoC4/RTC_1.c ****     /*******************************************************************************
 543:Generated_Source\PSoC4/RTC_1.c ****     * Function Name: RTC_1_GetAlarmMask
 544:Generated_Source\PSoC4/RTC_1.c ****     ****************************************************************************//**
 545:Generated_Source\PSoC4/RTC_1.c ****     *
ARM GAS  C:\Users\ROUSSMA\AppData\Local\Temp\cc8VsTWP.s 			page 75


 546:Generated_Source\PSoC4/RTC_1.c ****     * \brief
 547:Generated_Source\PSoC4/RTC_1.c ****     *  Reads the Alarm Mask software register. Generated only if the alarm 
 548:Generated_Source\PSoC4/RTC_1.c ****     * functionality is enabled.
 549:Generated_Source\PSoC4/RTC_1.c ****     *
 550:Generated_Source\PSoC4/RTC_1.c ****     * \return
 551:Generated_Source\PSoC4/RTC_1.c ****     *  The Alarm Mask value with each bit representing the status of the alarm 
 552:Generated_Source\PSoC4/RTC_1.c ****     * time/date match enable.
 553:Generated_Source\PSoC4/RTC_1.c ****     *
 554:Generated_Source\PSoC4/RTC_1.c ****     * \return
 555:Generated_Source\PSoC4/RTC_1.c ****     *  RTC_1_ALARM_SEC_MASK - The second alarm mask allows matching the
 556:Generated_Source\PSoC4/RTC_1.c ****     * alarm second register with the current second register.
 557:Generated_Source\PSoC4/RTC_1.c ****     *
 558:Generated_Source\PSoC4/RTC_1.c ****     * \return
 559:Generated_Source\PSoC4/RTC_1.c ****     * RTC_1_ALARM_MIN_MASK - The minute alarm mask allows matching the 
 560:Generated_Source\PSoC4/RTC_1.c ****     * alarm minute register with the current minute register.
 561:Generated_Source\PSoC4/RTC_1.c ****     *
 562:Generated_Source\PSoC4/RTC_1.c ****     * \return
 563:Generated_Source\PSoC4/RTC_1.c ****     *  RTC_1_ALARM_HOUR_MASK - The hour alarm mask allows matching the 
 564:Generated_Source\PSoC4/RTC_1.c ****     * alarm hour register with the current hour register.
 565:Generated_Source\PSoC4/RTC_1.c ****     *
 566:Generated_Source\PSoC4/RTC_1.c ****     * \return
 567:Generated_Source\PSoC4/RTC_1.c ****     *  RTC_1_ALARM_DAYOFWEEK_MASK - The day of the week alarm mask allows
 568:Generated_Source\PSoC4/RTC_1.c ****     * matching the alarm day of the week register with the current day of the 
 569:Generated_Source\PSoC4/RTC_1.c ****     * week register.
 570:Generated_Source\PSoC4/RTC_1.c ****     *
 571:Generated_Source\PSoC4/RTC_1.c ****     * \return
 572:Generated_Source\PSoC4/RTC_1.c ****     *  RTC_1_ALARM_DAYOFMONTH_MASK - The day of the month alarm mask 
 573:Generated_Source\PSoC4/RTC_1.c ****     * allows matching the alarm day of the month register with the current day of 
 574:Generated_Source\PSoC4/RTC_1.c ****     * the month register.
 575:Generated_Source\PSoC4/RTC_1.c ****     *
 576:Generated_Source\PSoC4/RTC_1.c ****     * \return
 577:Generated_Source\PSoC4/RTC_1.c ****     *  RTC_1_ALARM_MONTH_MASK - The month alarm mask allows matching 
 578:Generated_Source\PSoC4/RTC_1.c ****     * the alarm month register with the current month register.
 579:Generated_Source\PSoC4/RTC_1.c ****     *
 580:Generated_Source\PSoC4/RTC_1.c ****     * \return
 581:Generated_Source\PSoC4/RTC_1.c ****     *  RTC_1_ALARM_YEAR_MASK - The year alarm mask allows matching the
 582:Generated_Source\PSoC4/RTC_1.c ****     * alarm year register with the current year register.
 583:Generated_Source\PSoC4/RTC_1.c ****     *
 584:Generated_Source\PSoC4/RTC_1.c ****     *******************************************************************************/
 585:Generated_Source\PSoC4/RTC_1.c ****     uint32 RTC_1_GetAlarmMask(void)
 586:Generated_Source\PSoC4/RTC_1.c ****     {
 2406              		.loc 2 586 0
 2407              		.cfi_startproc
 2408              		@ args = 0, pretend = 0, frame = 0
 2409              		@ frame_needed = 1, uses_anonymous_args = 0
 2410 0000 80B5     		push	{r7, lr}
 2411              		.cfi_def_cfa_offset 8
 2412              		.cfi_offset 7, -8
 2413              		.cfi_offset 14, -4
 2414 0002 00AF     		add	r7, sp, #0
 2415              		.cfi_def_cfa_register 7
 587:Generated_Source\PSoC4/RTC_1.c ****         return((uint32)RTC_1_alarmCfgMask);
 2416              		.loc 2 587 0
 2417 0004 024B     		ldr	r3, .L134
 2418 0006 1B68     		ldr	r3, [r3]
 588:Generated_Source\PSoC4/RTC_1.c ****     }
 2419              		.loc 2 588 0
ARM GAS  C:\Users\ROUSSMA\AppData\Local\Temp\cc8VsTWP.s 			page 76


 2420 0008 1800     		movs	r0, r3
 2421 000a BD46     		mov	sp, r7
 2422              		@ sp needed
 2423 000c 80BD     		pop	{r7, pc}
 2424              	.L135:
 2425 000e C046     		.align	2
 2426              	.L134:
 2427 0010 00000000 		.word	RTC_1_alarmCfgMask
 2428              		.cfi_endproc
 2429              	.LFE45:
 2430              		.size	RTC_1_GetAlarmMask, .-RTC_1_GetAlarmMask
 2431              		.section	.text.RTC_1_GetAlarmStatus,"ax",%progbits
 2432              		.align	2
 2433              		.global	RTC_1_GetAlarmStatus
 2434              		.code	16
 2435              		.thumb_func
 2436              		.type	RTC_1_GetAlarmStatus, %function
 2437              	RTC_1_GetAlarmStatus:
 2438              	.LFB46:
 589:Generated_Source\PSoC4/RTC_1.c **** 
 590:Generated_Source\PSoC4/RTC_1.c **** 
 591:Generated_Source\PSoC4/RTC_1.c ****     /*******************************************************************************
 592:Generated_Source\PSoC4/RTC_1.c ****     * Function Name: RTC_1_GetAlarmStatus
 593:Generated_Source\PSoC4/RTC_1.c ****     ****************************************************************************//**
 594:Generated_Source\PSoC4/RTC_1.c ****     *
 595:Generated_Source\PSoC4/RTC_1.c ****     * \brief
 596:Generated_Source\PSoC4/RTC_1.c ****     *  Returns the alarm status of RTC.
 597:Generated_Source\PSoC4/RTC_1.c ****     *
 598:Generated_Source\PSoC4/RTC_1.c ****     * \return
 599:Generated_Source\PSoC4/RTC_1.c ****     *  The Alarm active status. This bit is high when the current time and date match the alarm
 600:Generated_Source\PSoC4/RTC_1.c ****     *  time and date.
 601:Generated_Source\PSoC4/RTC_1.c ****     *
 602:Generated_Source\PSoC4/RTC_1.c ****     * \return
 603:Generated_Source\PSoC4/RTC_1.c ****     *  0 - The Alarm status is not active.
 604:Generated_Source\PSoC4/RTC_1.c ****     * \return
 605:Generated_Source\PSoC4/RTC_1.c ****     *  1 - The Alarm status is active.
 606:Generated_Source\PSoC4/RTC_1.c ****     *
 607:Generated_Source\PSoC4/RTC_1.c ****     *******************************************************************************/
 608:Generated_Source\PSoC4/RTC_1.c ****     uint32 RTC_1_GetAlarmStatus(void)
 609:Generated_Source\PSoC4/RTC_1.c ****     {
 2439              		.loc 2 609 0
 2440              		.cfi_startproc
 2441              		@ args = 0, pretend = 0, frame = 0
 2442              		@ frame_needed = 1, uses_anonymous_args = 0
 2443 0000 80B5     		push	{r7, lr}
 2444              		.cfi_def_cfa_offset 8
 2445              		.cfi_offset 7, -8
 2446              		.cfi_offset 14, -4
 2447 0002 00AF     		add	r7, sp, #0
 2448              		.cfi_def_cfa_register 7
 610:Generated_Source\PSoC4/RTC_1.c ****         return((0uL != (RTC_1_currentTimeDate.status & (1uL << RTC_1_STATUS_ALARM_OFFSET))) ? 1uL :
 2449              		.loc 2 610 0
 2450 0004 054B     		ldr	r3, .L140
 2451 0006 DB68     		ldr	r3, [r3, #12]
 2452 0008 0422     		movs	r2, #4
 2453 000a 1340     		ands	r3, r2
 2454 000c 01D0     		beq	.L137
ARM GAS  C:\Users\ROUSSMA\AppData\Local\Temp\cc8VsTWP.s 			page 77


 2455              		.loc 2 610 0 is_stmt 0 discriminator 1
 2456 000e 0123     		movs	r3, #1
 2457 0010 00E0     		b	.L139
 2458              	.L137:
 2459              		.loc 2 610 0 discriminator 2
 2460 0012 0023     		movs	r3, #0
 2461              	.L139:
 611:Generated_Source\PSoC4/RTC_1.c ****     }
 2462              		.loc 2 611 0 is_stmt 1 discriminator 5
 2463 0014 1800     		movs	r0, r3
 2464 0016 BD46     		mov	sp, r7
 2465              		@ sp needed
 2466 0018 80BD     		pop	{r7, pc}
 2467              	.L141:
 2468 001a C046     		.align	2
 2469              	.L140:
 2470 001c 00000000 		.word	RTC_1_currentTimeDate
 2471              		.cfi_endproc
 2472              	.LFE46:
 2473              		.size	RTC_1_GetAlarmStatus, .-RTC_1_GetAlarmStatus
 2474              		.section	.text.RTC_1_ClearAlarmStatus,"ax",%progbits
 2475              		.align	2
 2476              		.global	RTC_1_ClearAlarmStatus
 2477              		.code	16
 2478              		.thumb_func
 2479              		.type	RTC_1_ClearAlarmStatus, %function
 2480              	RTC_1_ClearAlarmStatus:
 2481              	.LFB47:
 612:Generated_Source\PSoC4/RTC_1.c **** 
 613:Generated_Source\PSoC4/RTC_1.c **** 
 614:Generated_Source\PSoC4/RTC_1.c ****     /*******************************************************************************
 615:Generated_Source\PSoC4/RTC_1.c ****     * Function Name: RTC_1_ClearAlarmStatus
 616:Generated_Source\PSoC4/RTC_1.c ****     ****************************************************************************//**
 617:Generated_Source\PSoC4/RTC_1.c ****     *
 618:Generated_Source\PSoC4/RTC_1.c ****     * \brief
 619:Generated_Source\PSoC4/RTC_1.c ****     *  Clears the alarm status of RTC.
 620:Generated_Source\PSoC4/RTC_1.c ****     *
 621:Generated_Source\PSoC4/RTC_1.c ****     * \note
 622:Generated_Source\PSoC4/RTC_1.c ****     * The Alarm active (AA) flag clears after read. This bit will be set in the next
 623:Generated_Source\PSoC4/RTC_1.c ****     * alarm match event only. If Alarm is set on only minutes and the alarm
 624:Generated_Source\PSoC4/RTC_1.c ****     * minutes is 20 minutes - the alarm triggers once every 20th minute of
 625:Generated_Source\PSoC4/RTC_1.c ****     * every hour.
 626:Generated_Source\PSoC4/RTC_1.c ****     *
 627:Generated_Source\PSoC4/RTC_1.c ****     *******************************************************************************/
 628:Generated_Source\PSoC4/RTC_1.c ****     void RTC_1_ClearAlarmStatus(void)
 629:Generated_Source\PSoC4/RTC_1.c ****     {
 2482              		.loc 2 629 0
 2483              		.cfi_startproc
 2484              		@ args = 0, pretend = 0, frame = 0
 2485              		@ frame_needed = 1, uses_anonymous_args = 0
 2486 0000 80B5     		push	{r7, lr}
 2487              		.cfi_def_cfa_offset 8
 2488              		.cfi_offset 7, -8
 2489              		.cfi_offset 14, -4
 2490 0002 00AF     		add	r7, sp, #0
 2491              		.cfi_def_cfa_register 7
 630:Generated_Source\PSoC4/RTC_1.c ****         RTC_1_currentTimeDate.status &= (~(1uL << RTC_1_STATUS_ALARM_OFFSET));
ARM GAS  C:\Users\ROUSSMA\AppData\Local\Temp\cc8VsTWP.s 			page 78


 2492              		.loc 2 630 0
 2493 0004 064B     		ldr	r3, .L143
 2494 0006 DB68     		ldr	r3, [r3, #12]
 2495 0008 0422     		movs	r2, #4
 2496 000a 9343     		bics	r3, r2
 2497 000c 1A00     		movs	r2, r3
 2498 000e 044B     		ldr	r3, .L143
 2499 0010 DA60     		str	r2, [r3, #12]
 631:Generated_Source\PSoC4/RTC_1.c ****         RTC_1_alarmCurStatus = 0u;
 2500              		.loc 2 631 0
 2501 0012 044B     		ldr	r3, .L143+4
 2502 0014 0022     		movs	r2, #0
 2503 0016 1A60     		str	r2, [r3]
 632:Generated_Source\PSoC4/RTC_1.c ****     }
 2504              		.loc 2 632 0
 2505 0018 C046     		nop
 2506 001a BD46     		mov	sp, r7
 2507              		@ sp needed
 2508 001c 80BD     		pop	{r7, pc}
 2509              	.L144:
 2510 001e C046     		.align	2
 2511              	.L143:
 2512 0020 00000000 		.word	RTC_1_currentTimeDate
 2513 0024 00000000 		.word	RTC_1_alarmCurStatus
 2514              		.cfi_endproc
 2515              	.LFE47:
 2516              		.size	RTC_1_ClearAlarmStatus, .-RTC_1_ClearAlarmStatus
 2517              		.section	.text.RTC_1_SetAlarmHandler,"ax",%progbits
 2518              		.align	2
 2519              		.global	RTC_1_SetAlarmHandler
 2520              		.code	16
 2521              		.thumb_func
 2522              		.type	RTC_1_SetAlarmHandler, %function
 2523              	RTC_1_SetAlarmHandler:
 2524              	.LFB48:
 633:Generated_Source\PSoC4/RTC_1.c **** 
 634:Generated_Source\PSoC4/RTC_1.c **** 
 635:Generated_Source\PSoC4/RTC_1.c ****     /*******************************************************************************
 636:Generated_Source\PSoC4/RTC_1.c ****     * Function Name: RTC_1_SetAlarmHandler
 637:Generated_Source\PSoC4/RTC_1.c ****     ****************************************************************************//**
 638:Generated_Source\PSoC4/RTC_1.c ****     *
 639:Generated_Source\PSoC4/RTC_1.c ****     * \brief
 640:Generated_Source\PSoC4/RTC_1.c ****     *  This API sets the function to be called when the alarm goes off / triggers.
 641:Generated_Source\PSoC4/RTC_1.c ****     *  This API is generated only if the alarm functionality is enabled in the
 642:Generated_Source\PSoC4/RTC_1.c ****     *  customizer.
 643:Generated_Source\PSoC4/RTC_1.c ****     *
 644:Generated_Source\PSoC4/RTC_1.c ****     * \param
 645:Generated_Source\PSoC4/RTC_1.c ****     *  CallbackFunction The callback function address.
 646:Generated_Source\PSoC4/RTC_1.c ****     *
 647:Generated_Source\PSoC4/RTC_1.c ****     * \return
 648:Generated_Source\PSoC4/RTC_1.c ****     *  A previous callback function address.
 649:Generated_Source\PSoC4/RTC_1.c ****     *
 650:Generated_Source\PSoC4/RTC_1.c ****     *******************************************************************************/
 651:Generated_Source\PSoC4/RTC_1.c ****     void* RTC_1_SetAlarmHandler(void (*CallbackFunction)(void))
 652:Generated_Source\PSoC4/RTC_1.c ****     {
 2525              		.loc 2 652 0
 2526              		.cfi_startproc
ARM GAS  C:\Users\ROUSSMA\AppData\Local\Temp\cc8VsTWP.s 			page 79


 2527              		@ args = 0, pretend = 0, frame = 16
 2528              		@ frame_needed = 1, uses_anonymous_args = 0
 2529 0000 80B5     		push	{r7, lr}
 2530              		.cfi_def_cfa_offset 8
 2531              		.cfi_offset 7, -8
 2532              		.cfi_offset 14, -4
 2533 0002 84B0     		sub	sp, sp, #16
 2534              		.cfi_def_cfa_offset 24
 2535 0004 00AF     		add	r7, sp, #0
 2536              		.cfi_def_cfa_register 7
 2537 0006 7860     		str	r0, [r7, #4]
 653:Generated_Source\PSoC4/RTC_1.c ****         void (*tmpCallbackPtr)(void);
 654:Generated_Source\PSoC4/RTC_1.c **** 
 655:Generated_Source\PSoC4/RTC_1.c ****         tmpCallbackPtr = RTC_1_alarmCallbackPtr;
 2538              		.loc 2 655 0
 2539 0008 054B     		ldr	r3, .L147
 2540 000a 1B68     		ldr	r3, [r3]
 2541 000c FB60     		str	r3, [r7, #12]
 656:Generated_Source\PSoC4/RTC_1.c ****         RTC_1_alarmCallbackPtr = CallbackFunction;
 2542              		.loc 2 656 0
 2543 000e 044B     		ldr	r3, .L147
 2544 0010 7A68     		ldr	r2, [r7, #4]
 2545 0012 1A60     		str	r2, [r3]
 657:Generated_Source\PSoC4/RTC_1.c **** 
 658:Generated_Source\PSoC4/RTC_1.c ****         return((void*)tmpCallbackPtr);
 2546              		.loc 2 658 0
 2547 0014 FB68     		ldr	r3, [r7, #12]
 659:Generated_Source\PSoC4/RTC_1.c ****     }
 2548              		.loc 2 659 0
 2549 0016 1800     		movs	r0, r3
 2550 0018 BD46     		mov	sp, r7
 2551 001a 04B0     		add	sp, sp, #16
 2552              		@ sp needed
 2553 001c 80BD     		pop	{r7, pc}
 2554              	.L148:
 2555 001e C046     		.align	2
 2556              	.L147:
 2557 0020 00000000 		.word	RTC_1_alarmCallbackPtr
 2558              		.cfi_endproc
 2559              	.LFE48:
 2560              		.size	RTC_1_SetAlarmHandler, .-RTC_1_SetAlarmHandler
 2561              		.section	.text.RTC_1_GetNexAlarmTime,"ax",%progbits
 2562              		.align	2
 2563              		.global	RTC_1_GetNexAlarmTime
 2564              		.code	16
 2565              		.thumb_func
 2566              		.type	RTC_1_GetNexAlarmTime, %function
 2567              	RTC_1_GetNexAlarmTime:
 2568              	.LFB49:
 660:Generated_Source\PSoC4/RTC_1.c **** 
 661:Generated_Source\PSoC4/RTC_1.c **** 
 662:Generated_Source\PSoC4/RTC_1.c ****     /*******************************************************************************
 663:Generated_Source\PSoC4/RTC_1.c ****     * Function Name: RTC_1_GetNexAlarmTime
 664:Generated_Source\PSoC4/RTC_1.c ****     ****************************************************************************//**
 665:Generated_Source\PSoC4/RTC_1.c ****     *
 666:Generated_Source\PSoC4/RTC_1.c ****     * \brief
 667:Generated_Source\PSoC4/RTC_1.c ****     *  This is an internal function that calculates the time of the next alarm
ARM GAS  C:\Users\ROUSSMA\AppData\Local\Temp\cc8VsTWP.s 			page 80


 668:Generated_Source\PSoC4/RTC_1.c ****     *  in the UNIX format taking into account the current "Alarm Config Mask".
 669:Generated_Source\PSoC4/RTC_1.c ****     *
 670:Generated_Source\PSoC4/RTC_1.c ****     * \param
 671:Generated_Source\PSoC4/RTC_1.c ****     *  curUnixTime The current time value in the UNIX format.
 672:Generated_Source\PSoC4/RTC_1.c ****     *
 673:Generated_Source\PSoC4/RTC_1.c ****     * \param
 674:Generated_Source\PSoC4/RTC_1.c ****     *  alarmCfgMask The current Alarm Config Mask.
 675:Generated_Source\PSoC4/RTC_1.c ****     *
