ARM GAS  C:\Users\MICHA_~1\AppData\Local\Temp\ccSDcX6Y.s 			page 1


   1              		.syntax unified
   2              		.cpu cortex-m0
   3              		.fpu softvfp
   4              		.eabi_attribute 20, 1
   5              		.eabi_attribute 21, 1
   6              		.eabi_attribute 23, 3
   7              		.eabi_attribute 24, 1
   8              		.eabi_attribute 25, 1
   9              		.eabi_attribute 26, 1
  10              		.eabi_attribute 30, 1
  11              		.eabi_attribute 34, 0
  12              		.eabi_attribute 18, 4
  13              		.thumb
  14              		.syntax unified
  15              		.file	"lcd_ili9163.c"
  16              		.text
  17              	.Ltext0:
  18              		.cfi_sections	.debug_frame
  19              		.section	.text.lcd_Reset,"ax",%progbits
  20              		.align	2
  21              		.global	lcd_Reset
  22              		.code	16
  23              		.thumb_func
  24              		.type	lcd_Reset, %function
  25              	lcd_Reset:
  26              	.LFB35:
  27              		.file 1 "lcd_ili9163.c"
   1:lcd_ili9163.c **** /* ========================================
   2:lcd_ili9163.c ****  *
   3:lcd_ili9163.c ****  * Copyright YOUR COMPANY, THE YEAR
   4:lcd_ili9163.c ****  * All Rights Reserved
   5:lcd_ili9163.c ****  * UNPUBLISHED, LICENSED SOFTWARE.
   6:lcd_ili9163.c ****  *
   7:lcd_ili9163.c ****  * CONFIDENTIAL AND PROPRIETARY INFORMATION
   8:lcd_ili9163.c ****  * WHICH IS THE PROPERTY OF your company.
   9:lcd_ili9163.c ****  *
  10:lcd_ili9163.c ****  * ========================================
  11:lcd_ili9163.c **** */
  12:lcd_ili9163.c **** 
  13:lcd_ili9163.c **** 
  14:lcd_ili9163.c **** #include "lcd_ili9163.h"
  15:lcd_ili9163.c **** #include "project.h"
  16:lcd_ili9163.c **** 
  17:lcd_ili9163.c **** /* Private typedef -----------------------------------------------------------*/
  18:lcd_ili9163.c **** /* Private define ------------------------------------------------------------*/
  19:lcd_ili9163.c **** #define LCD_CMD                     0
  20:lcd_ili9163.c **** #define LCD_DATA                    1
  21:lcd_ili9163.c **** 
  22:lcd_ili9163.c **** 
  23:lcd_ili9163.c **** 
  24:lcd_ili9163.c **** void lcd_Reset(void);
  25:lcd_ili9163.c **** void lcd_writeCommand(uint8_t data);
  26:lcd_ili9163.c **** void lcd_writeData(uint8_t data);
  27:lcd_ili9163.c **** void lcd_writeData16(uint16_t data);
  28:lcd_ili9163.c **** void lcd_SetAddr(uint8_t X1, uint8_t Y1, uint8_t X2, uint8_t Y2);
  29:lcd_ili9163.c **** 
  30:lcd_ili9163.c **** 
ARM GAS  C:\Users\MICHA_~1\AppData\Local\Temp\ccSDcX6Y.s 			page 2


  31:lcd_ili9163.c **** 
  32:lcd_ili9163.c **** /**
  33:lcd_ili9163.c ****  * \brief Resets display using external reset pint
  34:lcd_ili9163.c ****  *
  35:lcd_ili9163.c ****  * This functions toggles the reset pin to perform a hard reset
  36:lcd_ili9163.c ****  *
  37:lcd_ili9163.c ****  * \param none
  38:lcd_ili9163.c ****  */
  39:lcd_ili9163.c **** void lcd_Reset(void)
  40:lcd_ili9163.c **** {
  28              		.loc 1 40 0
  29              		.cfi_startproc
  30              		@ args = 0, pretend = 0, frame = 0
  31              		@ frame_needed = 0, uses_anonymous_args = 0
  32 0000 10B5     		push	{r4, lr}
  33              		.cfi_def_cfa_offset 8
  34              		.cfi_offset 4, -8
  35              		.cfi_offset 14, -4
  41:lcd_ili9163.c **** 	
  42:lcd_ili9163.c **** 	LCD_Reset_Write(1);
  36              		.loc 1 42 0
  37 0002 0120     		movs	r0, #1
  38 0004 FFF7FEFF 		bl	LCD_Reset_Write
  39              	.LVL0:
  43:lcd_ili9163.c **** 	CyDelay(1);
  40              		.loc 1 43 0
  41 0008 0120     		movs	r0, #1
  42 000a FFF7FEFF 		bl	CyDelay
  43              	.LVL1:
  44:lcd_ili9163.c **** 	
  45:lcd_ili9163.c **** 	LCD_Reset_Write(0);
  44              		.loc 1 45 0
  45 000e 0020     		movs	r0, #0
  46 0010 FFF7FEFF 		bl	LCD_Reset_Write
  47              	.LVL2:
  46:lcd_ili9163.c **** 	CyDelay(50);
  48              		.loc 1 46 0
  49 0014 3220     		movs	r0, #50
  50 0016 FFF7FEFF 		bl	CyDelay
  51              	.LVL3:
  47:lcd_ili9163.c **** 	
  48:lcd_ili9163.c **** 	LCD_Reset_Write(1);
  52              		.loc 1 48 0
  53 001a 0120     		movs	r0, #1
  54 001c FFF7FEFF 		bl	LCD_Reset_Write
  55              	.LVL4:
  49:lcd_ili9163.c **** 	CyDelay(120);
  56              		.loc 1 49 0
  57 0020 7820     		movs	r0, #120
  58 0022 FFF7FEFF 		bl	CyDelay
  59              	.LVL5:
  50:lcd_ili9163.c **** 	
  51:lcd_ili9163.c **** }
  60              		.loc 1 51 0
  61              		@ sp needed
  62 0026 10BD     		pop	{r4, pc}
  63              		.cfi_endproc
ARM GAS  C:\Users\MICHA_~1\AppData\Local\Temp\ccSDcX6Y.s 			page 3


  64              	.LFE35:
  65              		.size	lcd_Reset, .-lcd_Reset
  66              		.section	.text.lcd_writeData,"ax",%progbits
  67              		.align	2
  68              		.global	lcd_writeData
  69              		.code	16
  70              		.thumb_func
  71              		.type	lcd_writeData, %function
  72              	lcd_writeData:
  73              	.LFB36:
  52:lcd_ili9163.c **** 
  53:lcd_ili9163.c **** /**
  54:lcd_ili9163.c ****  * \brief Write data to the display controller
  55:lcd_ili9163.c ****  *
  56:lcd_ili9163.c ****  * This functions sets the pin D/C# before writing to the controller. Different
  57:lcd_ili9163.c ****  * data write function is called based on the selected interface.
  58:lcd_ili9163.c ****  *
  59:lcd_ili9163.c ****  * \param data the data to write
  60:lcd_ili9163.c ****  */
  61:lcd_ili9163.c **** void lcd_writeData(uint8_t data)
  62:lcd_ili9163.c **** {
  74              		.loc 1 62 0
  75              		.cfi_startproc
  76              		@ args = 0, pretend = 0, frame = 0
  77              		@ frame_needed = 0, uses_anonymous_args = 0
  78              	.LVL6:
  79 0000 10B5     		push	{r4, lr}
  80              		.cfi_def_cfa_offset 8
  81              		.cfi_offset 4, -8
  82              		.cfi_offset 14, -4
  83 0002 0400     		movs	r4, r0
  63:lcd_ili9163.c **** 
  64:lcd_ili9163.c ****         LCD_DC_Write(LCD_DATA);
  84              		.loc 1 64 0
  85 0004 0120     		movs	r0, #1
  86              	.LVL7:
  87 0006 FFF7FEFF 		bl	LCD_DC_Write
  88              	.LVL8:
  65:lcd_ili9163.c ****         SPI_Master_SpiUartWriteTxData(data);
  89              		.loc 1 65 0
  90 000a 2000     		movs	r0, r4
  91 000c FFF7FEFF 		bl	SPI_Master_SpiUartWriteTxData
  92              	.LVL9:
  93              	.L3:
  66:lcd_ili9163.c ****         
  67:lcd_ili9163.c ****         /* Wait for the end of the transfer. The number of transmitted data
  68:lcd_ili9163.c ****         * elements has to be equal to the number of received data elements.
  69:lcd_ili9163.c ****         */
  70:lcd_ili9163.c ****         while(1 != SPI_Master_SpiUartGetRxBufferSize())
  94              		.loc 1 70 0 discriminator 1
  95 0010 FFF7FEFF 		bl	SPI_Master_SpiUartGetRxBufferSize
  96              	.LVL10:
  97 0014 0128     		cmp	r0, #1
  98 0016 FBD1     		bne	.L3
  71:lcd_ili9163.c ****         {
  72:lcd_ili9163.c ****             /* Wait */
  73:lcd_ili9163.c ****         }
ARM GAS  C:\Users\MICHA_~1\AppData\Local\Temp\ccSDcX6Y.s 			page 4


  74:lcd_ili9163.c **** 
  75:lcd_ili9163.c ****         /* Clear dummy bytes from RX buffer */
  76:lcd_ili9163.c ****         SPI_Master_SpiUartClearRxBuffer();
  99              		.loc 1 76 0
 100 0018 FFF7FEFF 		bl	SPI_Master_SpiUartClearRxBuffer
 101              	.LVL11:
  77:lcd_ili9163.c **** }
 102              		.loc 1 77 0
 103              		@ sp needed
 104 001c 10BD     		pop	{r4, pc}
 105              		.cfi_endproc
 106              	.LFE36:
 107              		.size	lcd_writeData, .-lcd_writeData
 108 001e C046     		.section	.text.lcd_writeData16,"ax",%progbits
 109              		.align	2
 110              		.global	lcd_writeData16
 111              		.code	16
 112              		.thumb_func
 113              		.type	lcd_writeData16, %function
 114              	lcd_writeData16:
 115              	.LFB37:
  78:lcd_ili9163.c **** 
  79:lcd_ili9163.c **** /**
  80:lcd_ili9163.c ****  * \brief Write 16-bit data to the display controller
  81:lcd_ili9163.c ****  *
  82:lcd_ili9163.c ****  * This functions sets the pin D/C# before writing to the controller. Different
  83:lcd_ili9163.c ****  * data write function is called based on the selected interface.
  84:lcd_ili9163.c ****  *
  85:lcd_ili9163.c ****  * \param data = the data to write
  86:lcd_ili9163.c ****  */
  87:lcd_ili9163.c **** void lcd_writeData16(uint16_t data)
  88:lcd_ili9163.c **** {
 116              		.loc 1 88 0
 117              		.cfi_startproc
 118              		@ args = 0, pretend = 0, frame = 0
 119              		@ frame_needed = 0, uses_anonymous_args = 0
 120              	.LVL12:
 121 0000 70B5     		push	{r4, r5, r6, lr}
 122              		.cfi_def_cfa_offset 16
 123              		.cfi_offset 4, -16
 124              		.cfi_offset 5, -12
 125              		.cfi_offset 6, -8
 126              		.cfi_offset 14, -4
  89:lcd_ili9163.c **** 		uint8_t data1, data2;
  90:lcd_ili9163.c **** 		
  91:lcd_ili9163.c **** 		data1 = data >> 8;
 127              		.loc 1 91 0
 128 0002 050A     		lsrs	r5, r0, #8
 129              	.LVL13:
  92:lcd_ili9163.c **** 		data2 = data & 0xFF;
 130              		.loc 1 92 0
 131 0004 C4B2     		uxtb	r4, r0
 132              	.LVL14:
  93:lcd_ili9163.c **** 		
  94:lcd_ili9163.c **** 
  95:lcd_ili9163.c **** 		LCD_DC_Write(LCD_DATA);
 133              		.loc 1 95 0
ARM GAS  C:\Users\MICHA_~1\AppData\Local\Temp\ccSDcX6Y.s 			page 5


 134 0006 0120     		movs	r0, #1
 135              	.LVL15:
 136 0008 FFF7FEFF 		bl	LCD_DC_Write
 137              	.LVL16:
  96:lcd_ili9163.c **** 		SPI_Master_SpiUartWriteTxData(data1);
 138              		.loc 1 96 0
 139 000c 2800     		movs	r0, r5
 140 000e FFF7FEFF 		bl	SPI_Master_SpiUartWriteTxData
 141              	.LVL17:
 142              	.L5:
  97:lcd_ili9163.c ****         /* Wait for the end of the transfer. The number of transmitted data
  98:lcd_ili9163.c ****         * elements has to be equal to the number of received data elements.
  99:lcd_ili9163.c ****         */
 100:lcd_ili9163.c ****         while(1 != SPI_Master_SpiUartGetRxBufferSize())
 143              		.loc 1 100 0 discriminator 1
 144 0012 FFF7FEFF 		bl	SPI_Master_SpiUartGetRxBufferSize
 145              	.LVL18:
 146 0016 0128     		cmp	r0, #1
 147 0018 FBD1     		bne	.L5
 101:lcd_ili9163.c ****         {
 102:lcd_ili9163.c ****             /* Wait */
 103:lcd_ili9163.c ****         }
 104:lcd_ili9163.c **** 
 105:lcd_ili9163.c ****         /* Clear dummy bytes from RX buffer */    
 106:lcd_ili9163.c ****         SPI_Master_SpiUartClearRxBuffer();
 148              		.loc 1 106 0
 149 001a FFF7FEFF 		bl	SPI_Master_SpiUartClearRxBuffer
 150              	.LVL19:
 107:lcd_ili9163.c **** 		
 108:lcd_ili9163.c ****         SPI_Master_SpiUartWriteTxData(data2);
 151              		.loc 1 108 0
 152 001e 2000     		movs	r0, r4
 153 0020 FFF7FEFF 		bl	SPI_Master_SpiUartWriteTxData
 154              	.LVL20:
 155              	.L6:
 109:lcd_ili9163.c **** 		/* Wait for the end of the transfer. The number of transmitted data
 110:lcd_ili9163.c ****         * elements has to be equal to the number of received data elements.
 111:lcd_ili9163.c ****         */
 112:lcd_ili9163.c ****         while(1 != SPI_Master_SpiUartGetRxBufferSize())
 156              		.loc 1 112 0 discriminator 1
 157 0024 FFF7FEFF 		bl	SPI_Master_SpiUartGetRxBufferSize
 158              	.LVL21:
 159 0028 0128     		cmp	r0, #1
 160 002a FBD1     		bne	.L6
 113:lcd_ili9163.c ****         {
 114:lcd_ili9163.c ****             /* Wait */
 115:lcd_ili9163.c ****         }
 116:lcd_ili9163.c **** 
 117:lcd_ili9163.c ****         /* Clear dummy bytes from RX buffer */
 118:lcd_ili9163.c ****         SPI_Master_SpiUartClearRxBuffer();
 161              		.loc 1 118 0
 162 002c FFF7FEFF 		bl	SPI_Master_SpiUartClearRxBuffer
 163              	.LVL22:
 119:lcd_ili9163.c **** }
 164              		.loc 1 119 0
 165              		@ sp needed
 166              	.LVL23:
ARM GAS  C:\Users\MICHA_~1\AppData\Local\Temp\ccSDcX6Y.s 			page 6


 167              	.LVL24:
 168 0030 70BD     		pop	{r4, r5, r6, pc}
 169              		.cfi_endproc
 170              	.LFE37:
 171              		.size	lcd_writeData16, .-lcd_writeData16
 172 0032 C046     		.section	.text.lcd_writeCommand,"ax",%progbits
 173              		.align	2
 174              		.global	lcd_writeCommand
 175              		.code	16
 176              		.thumb_func
 177              		.type	lcd_writeCommand, %function
 178              	lcd_writeCommand:
 179              	.LFB38:
 120:lcd_ili9163.c **** 
 121:lcd_ili9163.c **** 
 122:lcd_ili9163.c ****  /**
 123:lcd_ili9163.c ****  * \brief Writes a command to the display controller
 124:lcd_ili9163.c ****  *
 125:lcd_ili9163.c ****  * This functions pull pin D/C# low before writing to the controller. Different
 126:lcd_ili9163.c ****  * data write function is called based on the selected interface.
 127:lcd_ili9163.c ****  *
 128:lcd_ili9163.c ****  * \param command the command to write
 129:lcd_ili9163.c ****  */
 130:lcd_ili9163.c **** void lcd_writeCommand(uint8_t command)
 131:lcd_ili9163.c **** {
 180              		.loc 1 131 0
 181              		.cfi_startproc
 182              		@ args = 0, pretend = 0, frame = 0
 183              		@ frame_needed = 0, uses_anonymous_args = 0
 184              	.LVL25:
 185 0000 10B5     		push	{r4, lr}
 186              		.cfi_def_cfa_offset 8
 187              		.cfi_offset 4, -8
 188              		.cfi_offset 14, -4
 189 0002 0400     		movs	r4, r0
 132:lcd_ili9163.c **** 
 133:lcd_ili9163.c **** 	LCD_DC_Write(LCD_CMD);
 190              		.loc 1 133 0
 191 0004 0020     		movs	r0, #0
 192              	.LVL26:
 193 0006 FFF7FEFF 		bl	LCD_DC_Write
 194              	.LVL27:
 134:lcd_ili9163.c ****     SPI_Master_SpiUartWriteTxData(command);
 195              		.loc 1 134 0
 196 000a 2000     		movs	r0, r4
 197 000c FFF7FEFF 		bl	SPI_Master_SpiUartWriteTxData
 198              	.LVL28:
 199              	.L8:
 135:lcd_ili9163.c **** 		
 136:lcd_ili9163.c ****     /* Wait for the end of the transfer. The number of transmitted data
 137:lcd_ili9163.c ****     * elements has to be equal to the number of received data elements.
 138:lcd_ili9163.c ****     */
 139:lcd_ili9163.c ****     while(1 != SPI_Master_SpiUartGetRxBufferSize())
 200              		.loc 1 139 0 discriminator 1
 201 0010 FFF7FEFF 		bl	SPI_Master_SpiUartGetRxBufferSize
 202              	.LVL29:
 203 0014 0128     		cmp	r0, #1
ARM GAS  C:\Users\MICHA_~1\AppData\Local\Temp\ccSDcX6Y.s 			page 7


 204 0016 FBD1     		bne	.L8
 140:lcd_ili9163.c ****     {
 141:lcd_ili9163.c ****         /* Wait */
 142:lcd_ili9163.c ****     }
 143:lcd_ili9163.c **** 
 144:lcd_ili9163.c ****     /* Clear dummy bytes from RX buffer */
 145:lcd_ili9163.c ****     SPI_Master_SpiUartClearRxBuffer();    
 205              		.loc 1 145 0
 206 0018 FFF7FEFF 		bl	SPI_Master_SpiUartClearRxBuffer
 207              	.LVL30:
 146:lcd_ili9163.c ****     
 147:lcd_ili9163.c ****     
 148:lcd_ili9163.c **** }
 208              		.loc 1 148 0
 209              		@ sp needed
 210 001c 10BD     		pop	{r4, pc}
 211              		.cfi_endproc
 212              	.LFE38:
 213              		.size	lcd_writeCommand, .-lcd_writeCommand
 214 001e C046     		.section	.text.lcd_SetAddr,"ax",%progbits
 215              		.align	2
 216              		.global	lcd_SetAddr
 217              		.code	16
 218              		.thumb_func
 219              		.type	lcd_SetAddr, %function
 220              	lcd_SetAddr:
 221              	.LFB39:
 149:lcd_ili9163.c **** 
 150:lcd_ili9163.c **** /**
 151:lcd_ili9163.c ****  * \brief Set area to write data to the display controller
 152:lcd_ili9163.c ****  *
 153:lcd_ili9163.c ****  * This functions sets the area in pixels to write data to
 154:lcd_ili9163.c ****  * 
 155:lcd_ili9163.c ****  *
 156:lcd_ili9163.c ****  * \param X1 = Start Column, X2= End Column, Y1 = Start Row
 157:lcd_ili9163.c ****  *  Y2 = End Row
 158:lcd_ili9163.c ****  */
 159:lcd_ili9163.c **** void lcd_SetAddr(uint8_t X1, uint8_t Y1, uint8_t X2, uint8_t Y2)
 160:lcd_ili9163.c **** {
 222              		.loc 1 160 0
 223              		.cfi_startproc
 224              		@ args = 0, pretend = 0, frame = 0
 225              		@ frame_needed = 0, uses_anonymous_args = 0
 226              	.LVL31:
 227 0000 F8B5     		push	{r3, r4, r5, r6, r7, lr}
 228              		.cfi_def_cfa_offset 24
 229              		.cfi_offset 3, -24
 230              		.cfi_offset 4, -20
 231              		.cfi_offset 5, -16
 232              		.cfi_offset 6, -12
 233              		.cfi_offset 7, -8
 234              		.cfi_offset 14, -4
 235 0002 0700     		movs	r7, r0
 236 0004 0D00     		movs	r5, r1
 237 0006 1600     		movs	r6, r2
 238 0008 1C00     		movs	r4, r3
 161:lcd_ili9163.c **** 	lcd_writeCommand(LCD_SET_COL_ADDRESS);
ARM GAS  C:\Users\MICHA_~1\AppData\Local\Temp\ccSDcX6Y.s 			page 8


 239              		.loc 1 161 0
 240 000a 2A20     		movs	r0, #42
 241              	.LVL32:
 242 000c FFF7FEFF 		bl	lcd_writeCommand
 243              	.LVL33:
 162:lcd_ili9163.c **** 	lcd_writeData(0x00);
 244              		.loc 1 162 0
 245 0010 0020     		movs	r0, #0
 246 0012 FFF7FEFF 		bl	lcd_writeData
 247              	.LVL34:
 163:lcd_ili9163.c **** 	lcd_writeData(X1);
 248              		.loc 1 163 0
 249 0016 3800     		movs	r0, r7
 250 0018 FFF7FEFF 		bl	lcd_writeData
 251              	.LVL35:
 164:lcd_ili9163.c **** 	lcd_writeData(0x00);
 252              		.loc 1 164 0
 253 001c 0020     		movs	r0, #0
 254 001e FFF7FEFF 		bl	lcd_writeData
 255              	.LVL36:
 165:lcd_ili9163.c **** 	lcd_writeData(X2);
 256              		.loc 1 165 0
 257 0022 3000     		movs	r0, r6
 258 0024 FFF7FEFF 		bl	lcd_writeData
 259              	.LVL37:
 166:lcd_ili9163.c **** 	
 167:lcd_ili9163.c **** 	lcd_writeCommand(LCD_SET_PAGE_ADDRESS);
 260              		.loc 1 167 0
 261 0028 2B20     		movs	r0, #43
 262 002a FFF7FEFF 		bl	lcd_writeCommand
 263              	.LVL38:
 168:lcd_ili9163.c **** 	lcd_writeData(0x00);
 264              		.loc 1 168 0
 265 002e 0020     		movs	r0, #0
 266 0030 FFF7FEFF 		bl	lcd_writeData
 267              	.LVL39:
 169:lcd_ili9163.c **** 	lcd_writeData(Y1);  // Value was 32+Y1
 268              		.loc 1 169 0
 269 0034 2800     		movs	r0, r5
 270 0036 FFF7FEFF 		bl	lcd_writeData
 271              	.LVL40:
 170:lcd_ili9163.c **** 	lcd_writeData(0x00);
 272              		.loc 1 170 0
 273 003a 0020     		movs	r0, #0
 274 003c FFF7FEFF 		bl	lcd_writeData
 275              	.LVL41:
 171:lcd_ili9163.c **** 	lcd_writeData(Y2);  // Value was 32+Y2
 276              		.loc 1 171 0
 277 0040 2000     		movs	r0, r4
 278 0042 FFF7FEFF 		bl	lcd_writeData
 279              	.LVL42:
 172:lcd_ili9163.c **** 
 173:lcd_ili9163.c **** 	lcd_writeCommand(LCD_WRITE_MEM_START);
 280              		.loc 1 173 0
 281 0046 2C20     		movs	r0, #44
 282 0048 FFF7FEFF 		bl	lcd_writeCommand
 283              	.LVL43:
ARM GAS  C:\Users\MICHA_~1\AppData\Local\Temp\ccSDcX6Y.s 			page 9


 174:lcd_ili9163.c **** 
 175:lcd_ili9163.c **** }
 284              		.loc 1 175 0
 285              		@ sp needed
 286 004c F8BD     		pop	{r3, r4, r5, r6, r7, pc}
 287              		.cfi_endproc
 288              	.LFE39:
 289              		.size	lcd_SetAddr, .-lcd_SetAddr
 290 004e C046     		.section	.text.lcd_drawPixel,"ax",%progbits
 291              		.align	2
 292              		.global	lcd_drawPixel
 293              		.code	16
 294              		.thumb_func
 295              		.type	lcd_drawPixel, %function
 296              	lcd_drawPixel:
 297              	.LFB40:
 176:lcd_ili9163.c **** 
 177:lcd_ili9163.c **** void lcd_drawPixel(uint16_t x, uint16_t y, uint16_t color)
 178:lcd_ili9163.c **** {
 298              		.loc 1 178 0
 299              		.cfi_startproc
 300              		@ args = 0, pretend = 0, frame = 0
 301              		@ frame_needed = 0, uses_anonymous_args = 0
 302              	.LVL44:
 303 0000 10B5     		push	{r4, lr}
 304              		.cfi_def_cfa_offset 8
 305              		.cfi_offset 4, -8
 306              		.cfi_offset 14, -4
 307 0002 1400     		movs	r4, r2
 179:lcd_ili9163.c **** 	lcd_SetAddr(x, y, x, y);
 308              		.loc 1 179 0
 309 0004 C0B2     		uxtb	r0, r0
 310              	.LVL45:
 311 0006 C9B2     		uxtb	r1, r1
 312              	.LVL46:
 313 0008 0B00     		movs	r3, r1
 314 000a 0200     		movs	r2, r0
 315              	.LVL47:
 316 000c FFF7FEFF 		bl	lcd_SetAddr
 317              	.LVL48:
 180:lcd_ili9163.c **** 
 181:lcd_ili9163.c **** 	lcd_writeCommand(LCD_WRITE_MEM_START);
 318              		.loc 1 181 0
 319 0010 2C20     		movs	r0, #44
 320 0012 FFF7FEFF 		bl	lcd_writeCommand
 321              	.LVL49:
 182:lcd_ili9163.c **** 	lcd_writeData(color >> 8);
 322              		.loc 1 182 0
 323 0016 200A     		lsrs	r0, r4, #8
 324 0018 FFF7FEFF 		bl	lcd_writeData
 325              	.LVL50:
 183:lcd_ili9163.c **** 	lcd_writeData(color & 0xFF);
 326              		.loc 1 183 0
 327 001c E0B2     		uxtb	r0, r4
 328 001e FFF7FEFF 		bl	lcd_writeData
 329              	.LVL51:
 184:lcd_ili9163.c **** }
ARM GAS  C:\Users\MICHA_~1\AppData\Local\Temp\ccSDcX6Y.s 			page 10


 330              		.loc 1 184 0
 331              		@ sp needed
 332 0022 10BD     		pop	{r4, pc}
 333              		.cfi_endproc
 334              	.LFE40:
 335              		.size	lcd_drawPixel, .-lcd_drawPixel
 336              		.section	.text.lcd_setScreen,"ax",%progbits
 337              		.align	2
 338              		.global	lcd_setScreen
 339              		.code	16
 340              		.thumb_func
 341              		.type	lcd_setScreen, %function
 342              	lcd_setScreen:
 343              	.LFB41:
 185:lcd_ili9163.c **** 
 186:lcd_ili9163.c **** 
 187:lcd_ili9163.c **** /**
 188:lcd_ili9163.c ****  * \brief Set background color
 189:lcd_ili9163.c ****  *
 190:lcd_ili9163.c ****  * This function sets the background to defined color
 191:lcd_ili9163.c ****  * 
 192:lcd_ili9163.c ****  *
 193:lcd_ili9163.c ****  * \param Color = Color background is set to
 194:lcd_ili9163.c ****  */
 195:lcd_ili9163.c **** void lcd_setScreen(uint16_t Color)
 196:lcd_ili9163.c **** {
 344              		.loc 1 196 0
 345              		.cfi_startproc
 346              		@ args = 0, pretend = 0, frame = 8
 347              		@ frame_needed = 0, uses_anonymous_args = 0
 348              	.LVL52:
 349 0000 10B5     		push	{r4, lr}
 350              		.cfi_def_cfa_offset 8
 351              		.cfi_offset 4, -8
 352              		.cfi_offset 14, -4
 353 0002 82B0     		sub	sp, sp, #8
 354              		.cfi_def_cfa_offset 16
 355 0004 0400     		movs	r4, r0
 197:lcd_ili9163.c **** 	volatile uint16_t XCnt, YCnt;
 198:lcd_ili9163.c **** 
 199:lcd_ili9163.c **** 	lcd_SetAddr(0, 0, MAX_HORIZ-1, MAX_VERT-1);
 356              		.loc 1 199 0
 357 0006 7F23     		movs	r3, #127
 358 0008 7F22     		movs	r2, #127
 359 000a 0021     		movs	r1, #0
 360 000c 0020     		movs	r0, #0
 361              	.LVL53:
 362 000e FFF7FEFF 		bl	lcd_SetAddr
 363              	.LVL54:
 200:lcd_ili9163.c **** 
 201:lcd_ili9163.c **** 	for(XCnt = 0; XCnt<MAX_HORIZ; XCnt++)
 364              		.loc 1 201 0
 365 0012 0022     		movs	r2, #0
 366 0014 6B46     		mov	r3, sp
 367 0016 DA80     		strh	r2, [r3, #6]
 368 0018 16E0     		b	.L12
 369              	.L15:
ARM GAS  C:\Users\MICHA_~1\AppData\Local\Temp\ccSDcX6Y.s 			page 11


 202:lcd_ili9163.c **** 	{
 203:lcd_ili9163.c **** 		for(YCnt = 0; YCnt<MAX_VERT; YCnt++)
 370              		.loc 1 203 0
 371 001a 0022     		movs	r2, #0
 372 001c 01AB     		add	r3, sp, #4
 373 001e 1A80     		strh	r2, [r3]
 374 0020 07E0     		b	.L13
 375              	.L14:
 204:lcd_ili9163.c **** 		{
 205:lcd_ili9163.c **** 			lcd_writeData16(Color);
 376              		.loc 1 205 0 discriminator 3
 377 0022 2000     		movs	r0, r4
 378 0024 FFF7FEFF 		bl	lcd_writeData16
 379              	.LVL55:
 203:lcd_ili9163.c **** 		{
 380              		.loc 1 203 0 discriminator 3
 381 0028 01AA     		add	r2, sp, #4
 382 002a 1388     		ldrh	r3, [r2]
 383 002c 0133     		adds	r3, r3, #1
 384 002e 9BB2     		uxth	r3, r3
 385 0030 1380     		strh	r3, [r2]
 386              	.L13:
 203:lcd_ili9163.c **** 		{
 387              		.loc 1 203 0 is_stmt 0 discriminator 1
 388 0032 01AB     		add	r3, sp, #4
 389 0034 1B88     		ldrh	r3, [r3]
 390 0036 9BB2     		uxth	r3, r3
 391 0038 7F2B     		cmp	r3, #127
 392 003a F2D9     		bls	.L14
 201:lcd_ili9163.c **** 	{
 393              		.loc 1 201 0 is_stmt 1 discriminator 2
 394 003c 6B46     		mov	r3, sp
 395 003e 9A1D     		adds	r2, r3, #6
 396 0040 DB88     		ldrh	r3, [r3, #6]
 397 0042 0133     		adds	r3, r3, #1
 398 0044 9BB2     		uxth	r3, r3
 399 0046 1380     		strh	r3, [r2]
 400              	.L12:
 201:lcd_ili9163.c **** 	{
 401              		.loc 1 201 0 is_stmt 0 discriminator 1
 402 0048 6B46     		mov	r3, sp
 403 004a 0633     		adds	r3, r3, #6
 404 004c 1B88     		ldrh	r3, [r3]
 405 004e 9BB2     		uxth	r3, r3
 406 0050 7F2B     		cmp	r3, #127
 407 0052 E2D9     		bls	.L15
 206:lcd_ili9163.c **** 		}
 207:lcd_ili9163.c **** 	}
 208:lcd_ili9163.c **** }
 408              		.loc 1 208 0 is_stmt 1
 409 0054 02B0     		add	sp, sp, #8
 410              		@ sp needed
 411 0056 10BD     		pop	{r4, pc}
 412              		.cfi_endproc
 413              	.LFE41:
 414              		.size	lcd_setScreen, .-lcd_setScreen
 415              		.section	.text.lcd_setArea,"ax",%progbits
ARM GAS  C:\Users\MICHA_~1\AppData\Local\Temp\ccSDcX6Y.s 			page 12


 416              		.align	2
 417              		.global	lcd_setArea
 418              		.code	16
 419              		.thumb_func
 420              		.type	lcd_setArea, %function
 421              	lcd_setArea:
 422              	.LFB42:
 209:lcd_ili9163.c **** 
 210:lcd_ili9163.c **** void lcd_setArea(uint16_t Color, uint8_t sizeX, uint8_t sizeY, uint8_t startX, uint8_t startY)
 211:lcd_ili9163.c **** {
 423              		.loc 1 211 0
 424              		.cfi_startproc
 425              		@ args = 4, pretend = 0, frame = 8
 426              		@ frame_needed = 0, uses_anonymous_args = 0
 427              	.LVL56:
 428 0000 70B5     		push	{r4, r5, r6, lr}
 429              		.cfi_def_cfa_offset 16
 430              		.cfi_offset 4, -16
 431              		.cfi_offset 5, -12
 432              		.cfi_offset 6, -8
 433              		.cfi_offset 14, -4
 434 0002 82B0     		sub	sp, sp, #8
 435              		.cfi_def_cfa_offset 24
 436 0004 0500     		movs	r5, r0
 437 0006 0E00     		movs	r6, r1
 438 0008 1400     		movs	r4, r2
 439 000a 1800     		movs	r0, r3
 440              	.LVL57:
 441 000c 06AB     		add	r3, sp, #24
 442              	.LVL58:
 443 000e 1978     		ldrb	r1, [r3]
 444              	.LVL59:
 212:lcd_ili9163.c **** 	volatile uint16_t XCnt, YCnt;
 213:lcd_ili9163.c ****     
 214:lcd_ili9163.c ****     if(sizeX > 127 || sizeY > 127 || startX > 127 || startY > 127)
 445              		.loc 1 214 0
 446 0010 73B2     		sxtb	r3, r6
 447              	.LVL60:
 448 0012 002B     		cmp	r3, #0
 449 0014 31DB     		blt	.L16
 450              		.loc 1 214 0 is_stmt 0 discriminator 1
 451 0016 53B2     		sxtb	r3, r2
 452 0018 002B     		cmp	r3, #0
 453 001a 2EDB     		blt	.L16
 454              		.loc 1 214 0 discriminator 2
 455 001c 43B2     		sxtb	r3, r0
 456 001e 002B     		cmp	r3, #0
 457 0020 2BDB     		blt	.L16
 458              		.loc 1 214 0 discriminator 3
 459 0022 4BB2     		sxtb	r3, r1
 460 0024 002B     		cmp	r3, #0
 461 0026 28DB     		blt	.L16
 215:lcd_ili9163.c ****         return;
 216:lcd_ili9163.c ****     
 217:lcd_ili9163.c **** 	lcd_SetAddr(startX, startY, sizeX-1, sizeY-1);
 462              		.loc 1 217 0 is_stmt 1
 463 0028 531E     		subs	r3, r2, #1
ARM GAS  C:\Users\MICHA_~1\AppData\Local\Temp\ccSDcX6Y.s 			page 13


 464 002a DBB2     		uxtb	r3, r3
 465 002c 721E     		subs	r2, r6, #1
 466              	.LVL61:
 467 002e D2B2     		uxtb	r2, r2
 468 0030 FFF7FEFF 		bl	lcd_SetAddr
 469              	.LVL62:
 218:lcd_ili9163.c **** 
 219:lcd_ili9163.c **** 	for(XCnt = 0; XCnt<sizeX; XCnt++)
 470              		.loc 1 219 0
 471 0034 0022     		movs	r2, #0
 472 0036 6B46     		mov	r3, sp
 473 0038 DA80     		strh	r2, [r3, #6]
 474 003a 17E0     		b	.L18
 475              	.L21:
 220:lcd_ili9163.c **** 	{
 221:lcd_ili9163.c **** 		for(YCnt = 0; YCnt<sizeY; YCnt++)
 476              		.loc 1 221 0
 477 003c 0022     		movs	r2, #0
 478 003e 01AB     		add	r3, sp, #4
 479 0040 1A80     		strh	r2, [r3]
 480 0042 07E0     		b	.L19
 481              	.L20:
 222:lcd_ili9163.c **** 		{
 223:lcd_ili9163.c **** 			lcd_writeData16(Color);
 482              		.loc 1 223 0 discriminator 3
 483 0044 2800     		movs	r0, r5
 484 0046 FFF7FEFF 		bl	lcd_writeData16
 485              	.LVL63:
 221:lcd_ili9163.c **** 		{
 486              		.loc 1 221 0 discriminator 3
 487 004a 01AA     		add	r2, sp, #4
 488 004c 1388     		ldrh	r3, [r2]
 489 004e 0133     		adds	r3, r3, #1
 490 0050 9BB2     		uxth	r3, r3
 491 0052 1380     		strh	r3, [r2]
 492              	.L19:
 221:lcd_ili9163.c **** 		{
 493              		.loc 1 221 0 is_stmt 0 discriminator 1
 494 0054 A2B2     		uxth	r2, r4
 495 0056 01AB     		add	r3, sp, #4
 496 0058 1B88     		ldrh	r3, [r3]
 497 005a 9BB2     		uxth	r3, r3
 498 005c 9A42     		cmp	r2, r3
 499 005e F1D8     		bhi	.L20
 219:lcd_ili9163.c **** 	{
 500              		.loc 1 219 0 is_stmt 1 discriminator 2
 501 0060 6B46     		mov	r3, sp
 502 0062 9A1D     		adds	r2, r3, #6
 503 0064 DB88     		ldrh	r3, [r3, #6]
 504 0066 0133     		adds	r3, r3, #1
 505 0068 9BB2     		uxth	r3, r3
 506 006a 1380     		strh	r3, [r2]
 507              	.L18:
 219:lcd_ili9163.c **** 	{
 508              		.loc 1 219 0 is_stmt 0 discriminator 1
 509 006c B2B2     		uxth	r2, r6
 510 006e 6B46     		mov	r3, sp
ARM GAS  C:\Users\MICHA_~1\AppData\Local\Temp\ccSDcX6Y.s 			page 14


 511 0070 0633     		adds	r3, r3, #6
 512 0072 1B88     		ldrh	r3, [r3]
 513 0074 9BB2     		uxth	r3, r3
 514 0076 9A42     		cmp	r2, r3
 515 0078 E0D8     		bhi	.L21
 516              	.L16:
 224:lcd_ili9163.c **** 		}
 225:lcd_ili9163.c **** 	}
 226:lcd_ili9163.c **** }
 517              		.loc 1 226 0 is_stmt 1
 518 007a 02B0     		add	sp, sp, #8
 519              		@ sp needed
 520 007c 70BD     		pop	{r4, r5, r6, pc}
 521              		.cfi_endproc
 522              	.LFE42:
 523              		.size	lcd_setArea, .-lcd_setArea
 524 007e C046     		.section	.text.lcd_init,"ax",%progbits
 525              		.align	2
 526              		.global	lcd_init
 527              		.code	16
 528              		.thumb_func
 529              		.type	lcd_init, %function
 530              	lcd_init:
 531              	.LFB43:
 227:lcd_ili9163.c **** 
 228:lcd_ili9163.c **** 
 229:lcd_ili9163.c **** void lcd_init(void)
 230:lcd_ili9163.c **** {
 532              		.loc 1 230 0
 533              		.cfi_startproc
 534              		@ args = 0, pretend = 0, frame = 0
 535              		@ frame_needed = 0, uses_anonymous_args = 0
 536 0000 10B5     		push	{r4, lr}
 537              		.cfi_def_cfa_offset 8
 538              		.cfi_offset 4, -8
 539              		.cfi_offset 14, -4
 231:lcd_ili9163.c **** 	lcd_Reset();
 540              		.loc 1 231 0
 541 0002 FFF7FEFF 		bl	lcd_Reset
 542              	.LVL64:
 232:lcd_ili9163.c **** 	
 233:lcd_ili9163.c **** 	//lcd_writeCommand(LCD_SOFT_RESET);
 234:lcd_ili9163.c **** 	lcd_writeCommand(LCD_EXIT_SLEEP_MODE);
 543              		.loc 1 234 0
 544 0006 1120     		movs	r0, #17
 545 0008 FFF7FEFF 		bl	lcd_writeCommand
 546              	.LVL65:
 235:lcd_ili9163.c **** 	CyDelay(100);
 547              		.loc 1 235 0
 548 000c 6420     		movs	r0, #100
 549 000e FFF7FEFF 		bl	CyDelay
 550              	.LVL66:
 236:lcd_ili9163.c **** 	
 237:lcd_ili9163.c **** 	lcd_writeCommand(LCD_SET_GAMMA_CURVE);
 551              		.loc 1 237 0
 552 0012 2620     		movs	r0, #38
 553 0014 FFF7FEFF 		bl	lcd_writeCommand
ARM GAS  C:\Users\MICHA_~1\AppData\Local\Temp\ccSDcX6Y.s 			page 15


 554              	.LVL67:
 238:lcd_ili9163.c **** 	lcd_writeData(0x04); // Set Default Gamma
 555              		.loc 1 238 0
 556 0018 0420     		movs	r0, #4
 557 001a FFF7FEFF 		bl	lcd_writeData
 558              	.LVL68:
 239:lcd_ili9163.c **** 	
 240:lcd_ili9163.c **** 	lcd_writeData(LCD_ENTER_NORM_MODE);
 559              		.loc 1 240 0
 560 001e 1320     		movs	r0, #19
 561 0020 FFF7FEFF 		bl	lcd_writeData
 562              	.LVL69:
 241:lcd_ili9163.c **** 	
 242:lcd_ili9163.c **** 	lcd_writeCommand(LCD_POWER_CONTROL1);
 563              		.loc 1 242 0
 564 0024 C020     		movs	r0, #192
 565 0026 FFF7FEFF 		bl	lcd_writeCommand
 566              	.LVL70:
 243:lcd_ili9163.c **** 	lcd_writeData(0x0A); // VRH = 10:  GVDD = 4.3
 567              		.loc 1 243 0
 568 002a 0A20     		movs	r0, #10
 569 002c FFF7FEFF 		bl	lcd_writeData
 570              	.LVL71:
 244:lcd_ili9163.c **** 	lcd_writeData(0x02); // VC = 2: VCI1 = 2.65
 571              		.loc 1 244 0
 572 0030 0220     		movs	r0, #2
 573 0032 FFF7FEFF 		bl	lcd_writeData
 574              	.LVL72:
 245:lcd_ili9163.c **** 	
 246:lcd_ili9163.c **** 	lcd_writeCommand(LCD_POWER_CONTROL2);
 575              		.loc 1 246 0
 576 0036 C120     		movs	r0, #193
 577 0038 FFF7FEFF 		bl	lcd_writeCommand
 578              	.LVL73:
 247:lcd_ili9163.c **** 	lcd_writeData(0x02); // BT = 0: AVDD = 2xVCI1, VCL = -1xVCI1, VGH = 4xVCI1, VGL = -3xVCI1
 579              		.loc 1 247 0
 580 003c 0220     		movs	r0, #2
 581 003e FFF7FEFF 		bl	lcd_writeData
 582              	.LVL74:
 248:lcd_ili9163.c **** 
 249:lcd_ili9163.c **** 	//lcd_writeCommand(LCD_POWER_CONTROL3);
 250:lcd_ili9163.c **** 	//lcd_writeData(0x00); // Least power in current amplifier
 251:lcd_ili9163.c **** 	//lcd_writeData(0x07); // Booster Circ #1 =BCLK/8, Booster Circ #2&3 =BCLK/64
 252:lcd_ili9163.c **** 	
 253:lcd_ili9163.c **** 	//lcd_writeCommand(LCD_POWER_CONTROL4);
 254:lcd_ili9163.c **** 	//lcd_writeData(0x00); // Least power in current amplifier
 255:lcd_ili9163.c **** 	//lcd_writeData(0x07); // Booster Circ #1 =BCLK/8, Booster Circ #2&3 =BCLK/64
 256:lcd_ili9163.c **** 	
 257:lcd_ili9163.c **** 	lcd_writeCommand(LCD_VCOM_CONTROL1);
 583              		.loc 1 257 0
 584 0042 C520     		movs	r0, #197
 585 0044 FFF7FEFF 		bl	lcd_writeCommand
 586              	.LVL75:
 258:lcd_ili9163.c **** 	lcd_writeData(0x50); // 
 587              		.loc 1 258 0
 588 0048 5020     		movs	r0, #80
 589 004a FFF7FEFF 		bl	lcd_writeData
ARM GAS  C:\Users\MICHA_~1\AppData\Local\Temp\ccSDcX6Y.s 			page 16


 590              	.LVL76:
 259:lcd_ili9163.c **** 	lcd_writeData(0x99); // 
 591              		.loc 1 259 0
 592 004e 9920     		movs	r0, #153
 593 0050 FFF7FEFF 		bl	lcd_writeData
 594              	.LVL77:
 260:lcd_ili9163.c **** 		
 261:lcd_ili9163.c **** 	lcd_writeCommand(LCD_VCOM_OFFSET_CONTROL);
 595              		.loc 1 261 0
 596 0054 C720     		movs	r0, #199
 597 0056 FFF7FEFF 		bl	lcd_writeCommand
 598              	.LVL78:
 262:lcd_ili9163.c **** 	lcd_writeData(0x00); // nVM = 0, VMF = 64: VCOMH output = VMH, VCOML output = VML
 599              		.loc 1 262 0
 600 005a 0020     		movs	r0, #0
 601 005c FFF7FEFF 		bl	lcd_writeData
 602              	.LVL79:
 263:lcd_ili9163.c **** 	
 264:lcd_ili9163.c **** 	lcd_writeCommand(LCD_EXIT_IDLE_MODE);
 603              		.loc 1 264 0
 604 0060 3820     		movs	r0, #56
 605 0062 FFF7FEFF 		bl	lcd_writeCommand
 606              	.LVL80:
 265:lcd_ili9163.c **** 	
 266:lcd_ili9163.c ****     /* 16 bits per pixel R5 G6 B5 */
 267:lcd_ili9163.c **** 	lcd_writeCommand(LCD_SET_PIXEL_FMT);
 607              		.loc 1 267 0
 608 0066 3A20     		movs	r0, #58
 609 0068 FFF7FEFF 		bl	lcd_writeCommand
 610              	.LVL81:
 268:lcd_ili9163.c **** 	lcd_writeData(0x05); 
 611              		.loc 1 268 0
 612 006c 0520     		movs	r0, #5
 613 006e FFF7FEFF 		bl	lcd_writeData
 614              	.LVL82:
 269:lcd_ili9163.c **** 	
 270:lcd_ili9163.c **** 	lcd_writeCommand(LCD_FRAME_RATE_CTRL1);
 615              		.loc 1 270 0
 616 0072 B120     		movs	r0, #177
 617 0074 FFF7FEFF 		bl	lcd_writeCommand
 618              	.LVL83:
 271:lcd_ili9163.c **** 	lcd_writeData(0x08); // DIVA = 8
 619              		.loc 1 271 0
 620 0078 0820     		movs	r0, #8
 621 007a FFF7FEFF 		bl	lcd_writeData
 622              	.LVL84:
 272:lcd_ili9163.c **** 	lcd_writeData(0x02); // VPA = 9  Was value = 0x08
 623              		.loc 1 272 0
 624 007e 0220     		movs	r0, #2
 625 0080 FFF7FEFF 		bl	lcd_writeData
 626              	.LVL85:
 273:lcd_ili9163.c **** 		                                                                                 
 274:lcd_ili9163.c **** 	lcd_writeCommand(LCD_SET_COL_ADDRESS);
 627              		.loc 1 274 0
 628 0084 2A20     		movs	r0, #42
 629 0086 FFF7FEFF 		bl	lcd_writeCommand
 630              	.LVL86:
ARM GAS  C:\Users\MICHA_~1\AppData\Local\Temp\ccSDcX6Y.s 			page 17


 275:lcd_ili9163.c **** 	lcd_writeData(0x00); // XSH
 631              		.loc 1 275 0
 632 008a 0020     		movs	r0, #0
 633 008c FFF7FEFF 		bl	lcd_writeData
 634              	.LVL87:
 276:lcd_ili9163.c **** 	lcd_writeData(0x00); // XSL
 635              		.loc 1 276 0
 636 0090 0020     		movs	r0, #0
 637 0092 FFF7FEFF 		bl	lcd_writeData
 638              	.LVL88:
 277:lcd_ili9163.c **** 	lcd_writeData(0x00); // XEH
 639              		.loc 1 277 0
 640 0096 0020     		movs	r0, #0
 641 0098 FFF7FEFF 		bl	lcd_writeData
 642              	.LVL89:
 278:lcd_ili9163.c **** 	lcd_writeData(0x7f); // XEL 128 pixels x
 643              		.loc 1 278 0
 644 009c 7F20     		movs	r0, #127
 645 009e FFF7FEFF 		bl	lcd_writeData
 646              	.LVL90:
 279:lcd_ili9163.c **** 	
 280:lcd_ili9163.c **** 	lcd_writeCommand(LCD_SET_PAGE_ADDRESS);
 647              		.loc 1 280 0
 648 00a2 2B20     		movs	r0, #43
 649 00a4 FFF7FEFF 		bl	lcd_writeCommand
 650              	.LVL91:
 281:lcd_ili9163.c **** 	lcd_writeData(0x00);
 651              		.loc 1 281 0
 652 00a8 0020     		movs	r0, #0
 653 00aa FFF7FEFF 		bl	lcd_writeData
 654              	.LVL92:
 282:lcd_ili9163.c **** 	lcd_writeData(0x00);
 655              		.loc 1 282 0
 656 00ae 0020     		movs	r0, #0
 657 00b0 FFF7FEFF 		bl	lcd_writeData
 658              	.LVL93:
 283:lcd_ili9163.c **** 	lcd_writeData(0x00);
 659              		.loc 1 283 0
 660 00b4 0020     		movs	r0, #0
 661 00b6 FFF7FEFF 		bl	lcd_writeData
 662              	.LVL94:
 284:lcd_ili9163.c **** 	lcd_writeData(0x7f); // 128 pixels y
 663              		.loc 1 284 0
 664 00ba 7F20     		movs	r0, #127
 665 00bc FFF7FEFF 		bl	lcd_writeData
 666              	.LVL95:
 285:lcd_ili9163.c **** 	
 286:lcd_ili9163.c **** 	//lcd_writeCommand(LCD_DISPLAY_INVERSION);
 287:lcd_ili9163.c **** 	//lcd_writeData(0x07); // NLA = 1, NLB = 1, NLC = 1 (all on Frame Inversion)
 288:lcd_ili9163.c **** 	
 289:lcd_ili9163.c **** 	// Select display orientation
 290:lcd_ili9163.c **** 	lcd_writeCommand(LCD_SET_ADDRESS_MODE);
 667              		.loc 1 290 0
 668 00c0 3620     		movs	r0, #54
 669 00c2 FFF7FEFF 		bl	lcd_writeCommand
 670              	.LVL96:
 291:lcd_ili9163.c **** 	lcd_writeData(0x00); //
ARM GAS  C:\Users\MICHA_~1\AppData\Local\Temp\ccSDcX6Y.s 			page 18


 671              		.loc 1 291 0
 672 00c6 0020     		movs	r0, #0
 673 00c8 FFF7FEFF 		bl	lcd_writeData
 674              	.LVL97:
 292:lcd_ili9163.c **** 
 293:lcd_ili9163.c **** 	// Set the display to on
 294:lcd_ili9163.c **** 	lcd_writeCommand(LCD_SET_DISP_ON);
 675              		.loc 1 294 0
 676 00cc 2920     		movs	r0, #41
 677 00ce FFF7FEFF 		bl	lcd_writeCommand
 678              	.LVL98:
 295:lcd_ili9163.c **** 	
 296:lcd_ili9163.c **** 	lcd_writeCommand(LCD_EXIT_INVERT_MODE);
 679              		.loc 1 296 0
 680 00d2 2020     		movs	r0, #32
 681 00d4 FFF7FEFF 		bl	lcd_writeCommand
 682              	.LVL99:
 297:lcd_ili9163.c **** 	
 298:lcd_ili9163.c **** 	lcd_writeCommand(LCD_WRITE_MEM_START);
 683              		.loc 1 298 0
 684 00d8 2C20     		movs	r0, #44
 685 00da FFF7FEFF 		bl	lcd_writeCommand
 686              	.LVL100:
 299:lcd_ili9163.c **** 	
 300:lcd_ili9163.c **** }
 687              		.loc 1 300 0
 688              		@ sp needed
 689 00de 10BD     		pop	{r4, pc}
 690              		.cfi_endproc
 691              	.LFE43:
 692              		.size	lcd_init, .-lcd_init
 693              		.text
 694              	.Letext0:
 695              		.file 2 "c:\\program files (x86)\\cypress\\psoc creator\\4.1\\psoc creator\\import\\gnu\\arm\\5.4.
 696              		.file 3 "c:\\program files (x86)\\cypress\\psoc creator\\4.1\\psoc creator\\import\\gnu\\arm\\5.4.
 697              		.file 4 "Generated_Source\\PSoC4/LCD_Reset.h"
 698              		.file 5 "Generated_Source\\PSoC4/CyLib.h"
 699              		.file 6 "Generated_Source\\PSoC4/LCD_DC.h"
 700              		.file 7 "Generated_Source\\PSoC4/SPI_Master_SPI_UART.h"